 SapClassGui82D.NET_2010

 Timestamp is 5ac49604 (Wed Apr 04 17:08:20 2018)

 Preferred load address is 0000000067d80000

 Start         Length     Name                   Class
 0001:00000000 0003de02H .text                   CODE
 0001:0003de10 00005324H .text$x                 CODE
 0001:00043140 000005efH .text$yc                CODE
 0001:00043730 00000075H .text$yd                CODE
 0002:00000000 00001a18H .idata$5                DATA
 0002:00001a18 00000008H .CRT$XCA                DATA
 0002:00001a20 00000018H .CRT$XCC                DATA
 0002:00001a38 000000d8H .CRT$XCL                DATA
 0002:00001b10 00000018H .CRT$XCU                DATA
 0002:00001b28 00000008H .CRT$XCZ                DATA
 0002:00001b30 00000008H .CRT$XIA                DATA
 0002:00001b38 00000008H .CRT$XIAA               DATA
 0002:00001b40 00000008H .CRT$XIZ                DATA
 0002:00001b50 00013fc2H .rdata                  DATA
 0002:00015b14 0000006fH .rdata$debug            DATA
 0002:00015b88 00001aacH .rdata$r                DATA
 0002:00017638 00000008H .rtc$IAA                DATA
 0002:00017640 000000c8H .rtc$IMZ                DATA
 0002:00017708 00000008H .rtc$IZZ                DATA
 0002:00017710 00000008H .rtc$TAA                DATA
 0002:00017718 000000c8H .rtc$TMZ                DATA
 0002:000177e0 00000008H .rtc$TZZ                DATA
 0002:000177e8 00006898H .xdata                  DATA
 0002:0001e080 000000dcH .xdata$x                DATA
 0002:0001e160 00000008H ATL$__a                 DATA
 0002:0001e168 00000008H ATL$__z                 DATA
 0002:0001e170 000000c8H .idata$2                DATA
 0002:0001e238 00000014H .idata$3                DATA
 0002:0001e250 00001a18H .idata$4                DATA
 0002:0001fc68 0000441cH .idata$6                DATA
 0002:00024090 00007714H .edata                  DATA
 0003:00000000 000013a8H .data                   DATA
 0003:000013b0 00000858H .bss                    DATA
 0004:00000000 000042ccH .pdata                  DATA
 0005:00000000 000008e0H .rsrc$01                DATA
 0005:000008e0 00019a80H .rsrc$02                DATA

  Address         Publics by Value              Rva+Base               Lib:Object

 0000:00000000       ___safe_se_handler_count   0000000000000000     <absolute>
 0000:00000000       ___safe_se_handler_table   0000000000000000     <absolute>
 0000:00000000       __ImageBase                0000000067d80000     <linker-defined>
 0001:00000000       ??0CAbortDlg@@QEAA@PEAVCWnd@@PEAVSapTransfer@@H@Z 0000000067d81000 f   AbortDlg.obj
 0001:000000a0       ?DoDataExchange@CAbortDlg@@MEAAXPEAVCDataExchange@@@Z 0000000067d810a0 f   AbortDlg.obj
 0001:000000e0       ?GetMessageMap@CAbortDlg@@MEBAPEBUAFX_MSGMAP@@XZ 0000000067d810e0 f   AbortDlg.obj
 0001:00000110       ?GetThisMessageMap@CAbortDlg@@KAPEBUAFX_MSGMAP@@XZ 0000000067d81110 f   AbortDlg.obj
 0001:00000130       ?OnInitDialog@CAbortDlg@@MEAAHXZ 0000000067d81130 f   AbortDlg.obj
 0001:00000230       ?OnAbort@CAbortDlg@@IEAAXXZ 0000000067d81230 f   AbortDlg.obj
 0001:00000270       ?OnTimer@CAbortDlg@@IEAAX_K@Z 0000000067d81270 f   AbortDlg.obj
 0001:00000370       ??_GCAbortDlg@@UEAAPEAXI@Z 0000000067d81370 f i AbortDlg.obj
 0001:000003c0       ??1CAbortDlg@@UEAA@XZ      0000000067d813c0 f i AbortDlg.obj
 0001:000003f0       ??_ECAbortDlg@@UEAAPEAXI@Z 0000000067d813f0 f i AbortDlg.obj
 0001:00000490       ??0CAcqConfigDlg@@QEAA@PEAVCWnd@@W4ServerCategory@0@@Z 0000000067d81490 f   AcqConfigDlg.obj
 0001:00000660       ??0CAcqConfigDlg@@QEAA@PEAVCWnd@@VSapLocation@@PEBDW4ServerCategory@0@@Z 0000000067d81660 f   AcqConfigDlg.obj
 0001:00000970       ??0CAcqConfigDlg@@QEAA@PEAVCWnd@@PEAVSapAcquisition@@PEBD@Z 0000000067d81970 f   AcqConfigDlg.obj
 0001:00000d00       ?GetLocation@CAcqConfigDlg@@QEAA?AVSapLocation@@XZ 0000000067d81d00 f   AcqConfigDlg.obj
 0001:00000db0       ?UpdateAcquisition@CAcqConfigDlg@@IEAAHXZ 0000000067d81db0 f   AcqConfigDlg.obj
 0001:00000f80       ?LoadSettings@CAcqConfigDlg@@IEAAXXZ 0000000067d81f80 f   AcqConfigDlg.obj
 0001:00001350       ?SaveSettings@CAcqConfigDlg@@IEAAXXZ 0000000067d82350 f   AcqConfigDlg.obj
 0001:00001560       ?DoDataExchange@CAcqConfigDlg@@MEAAXPEAVCDataExchange@@@Z 0000000067d82560 f   AcqConfigDlg.obj
 0001:00001650       ?GetMessageMap@CAcqConfigDlg@@MEBAPEBUAFX_MSGMAP@@XZ 0000000067d82650 f   AcqConfigDlg.obj
 0001:00001680       ?GetThisMessageMap@CAcqConfigDlg@@KAPEBUAFX_MSGMAP@@XZ 0000000067d82680 f   AcqConfigDlg.obj
 0001:000016a0       ?OnInitDialog@CAcqConfigDlg@@MEAAHXZ 0000000067d826a0 f   AcqConfigDlg.obj
 0001:000017b0       ?InitServerCombo@CAcqConfigDlg@@IEAAXXZ 0000000067d827b0 f   AcqConfigDlg.obj
 0001:00001b40       ?InitResourceCombo@CAcqConfigDlg@@IEAAXXZ 0000000067d82b40 f   AcqConfigDlg.obj
 0001:00002150       ?OnConfigBrowse@CAcqConfigDlg@@IEAAXXZ 0000000067d83150 f   AcqConfigDlg.obj
 0001:000023c0       ?SplitConfigFilePath@CAcqConfigDlg@@IEAAXXZ 0000000067d833c0 f   AcqConfigDlg.obj
 0001:00002530       ?UpdateDescription@CAcqConfigDlg@@IEAAXXZ 0000000067d83530 f   AcqConfigDlg.obj
 0001:000029a0       ?UpdateMenu@CAcqConfigDlg@@IEAAXXZ 0000000067d839a0 f   AcqConfigDlg.obj
 0001:00002b20       ?ValidateCCFAgainstServerName@CAcqConfigDlg@@IEAA_N_N@Z 0000000067d83b20 f   AcqConfigDlg.obj
 0001:00002d90       ?OnOK@CAcqConfigDlg@@MEAAXXZ 0000000067d83d90 f   AcqConfigDlg.obj
 0001:00002f30       ?OnSelchangeComboServer@CAcqConfigDlg@@IEAAXXZ 0000000067d83f30 f   AcqConfigDlg.obj
 0001:00002f80       ?OnSelchangeComboResource@CAcqConfigDlg@@IEAAXXZ 0000000067d83f80 f   AcqConfigDlg.obj
 0001:00002fd0       ?OnBnClickedConfigFileCheck@CAcqConfigDlg@@IEAAXXZ 0000000067d83fd0 f   AcqConfigDlg.obj
 0001:00003020       ?GetConfigFile@CAcqConfigDlg@@QEAAPEBDXZ 0000000067d84020 f   AcqConfigDlg.obj
 0001:000032f0       ?strstr@@YAPEADPEADPEBD@Z  0000000067d842f0 f i AcqConfigDlg.obj
 0001:00003330       ?strrchr@@YAPEADPEADH@Z    0000000067d84330 f i AcqConfigDlg.obj
 0001:00003370       ??HATL@@YA?AV?$CStringT@DV?$StrTraitMFC_DLL@DV?$ChTraitsCRT@D@ATL@@@@@0@AEBV10@0@Z 0000000067d84370 f i AcqConfigDlg.obj
 0001:00003480       ??_ECAcqConfigDlg@@WBBI@EAAPEAXI@Z 0000000067d84480 f i AcqConfigDlg.obj
 0001:00003490       ?StringCbCopyA@@YAJPEAD_KPEBD@Z 0000000067d84490 f i AcqConfigDlg.obj
 0001:00003510       ?StringCbPrintfA@@YAJPEAD_KPEBDZZ 0000000067d84510 f i AcqConfigDlg.obj
 0001:000035d0       ??_GCAcqConfigDlg@@UEAAPEAXI@Z 0000000067d845d0 f i AcqConfigDlg.obj
 0001:00003620       ??1CAcqConfigDlg@@UEAA@XZ  0000000067d84620 f i AcqConfigDlg.obj
 0001:00003710       ??_ECAcqConfigDlg@@UEAAPEAXI@Z 0000000067d84710 f i AcqConfigDlg.obj
 0001:000037b0       ??0CAcqDlg@@QEAA@PEAVCWnd@@PEAVSapAcquisition@@@Z 0000000067d847b0 f   AcqDlg.obj
 0001:00003860       ?DoDataExchange@CAcqDlg@@MEAAXPEAVCDataExchange@@@Z 0000000067d84860 f   AcqDlg.obj
 0001:000038e0       ?GetMessageMap@CAcqDlg@@MEBAPEBUAFX_MSGMAP@@XZ 0000000067d848e0 f   AcqDlg.obj
 0001:00003910       ?GetThisMessageMap@CAcqDlg@@KAPEBUAFX_MSGMAP@@XZ 0000000067d84910 f   AcqDlg.obj
 0001:00003930       ?OnOK@CAcqDlg@@MEAAXXZ     0000000067d84930 f   AcqDlg.obj
 0001:00003bf0       ?OnInitDialog@CAcqDlg@@MEAAHXZ 0000000067d84bf0 f   AcqDlg.obj
 0001:000046d0       ?UpdateWindow@CAcqDlg@@IEAAXXZ 0000000067d856d0 f   AcqDlg.obj
 0001:00004870       ?OnExternalTriggerEnable@CAcqDlg@@IEAAXXZ 0000000067d85870 f   AcqDlg.obj
 0001:00004a30       ??_ECAcqDlg@@WBBI@EAAPEAXI@Z 0000000067d85a30 f i AcqDlg.obj
 0001:00004a40       ??_GCAcqDlg@@UEAAPEAXI@Z   0000000067d85a40 f i AcqDlg.obj
 0001:00004a90       ??1CAcqDlg@@UEAA@XZ        0000000067d85a90 f i AcqDlg.obj
 0001:00004ae0       ??_ECAcqDlg@@UEAAPEAXI@Z   0000000067d85ae0 f i AcqDlg.obj
 0001:00004b80       ??0CAScanDlg@@QEAA@PEAVCWnd@@PEAVSapAcquisition@@@Z 0000000067d85b80 f   AScanDlg.obj
 0001:00004c70       ?DoDataExchange@CAScanDlg@@MEAAXPEAVCDataExchange@@@Z 0000000067d85c70 f   AScanDlg.obj
 0001:00004d30       ?GetMessageMap@CAScanDlg@@MEBAPEBUAFX_MSGMAP@@XZ 0000000067d85d30 f   AScanDlg.obj
 0001:00004d60       ?GetThisMessageMap@CAScanDlg@@KAPEBUAFX_MSGMAP@@XZ 0000000067d85d60 f   AScanDlg.obj
 0001:00004d80       ?OnOK@CAScanDlg@@MEAAXXZ   0000000067d85d80 f   AScanDlg.obj
 0001:00005260       ?OnInitDialog@CAScanDlg@@MEAAHXZ 0000000067d86260 f   AScanDlg.obj
 0001:00005ed0       ?UpdateWindow@CAScanDlg@@IEAAXXZ 0000000067d86ed0 f   AScanDlg.obj
 0001:00006070       ?OnCamTriggerEnable@CAScanDlg@@IEAAXXZ 0000000067d87070 f   AScanDlg.obj
 0001:000060b0       ?OnCamResetEnable@CAScanDlg@@IEAAXXZ 0000000067d870b0 f   AScanDlg.obj
 0001:000060f0       ?OnTimeIntegrate@CAScanDlg@@IEAAXXZ 0000000067d870f0 f   AScanDlg.obj
 0001:00006130       ?OnKillfocusEditTime@CAScanDlg@@IEAAXXZ 0000000067d87130 f   AScanDlg.obj
 0001:00006190       ?OnFrameIntegrate@CAScanDlg@@IEAAXXZ 0000000067d87190 f   AScanDlg.obj
 0001:000061d0       ?OnKillfocusEditFrame@CAScanDlg@@IEAAXXZ 0000000067d871d0 f   AScanDlg.obj
 0001:00006220       ?OnVScroll@CAScanDlg@@IEAAXIIPEAVCScrollBar@@@Z 0000000067d87220 f   AScanDlg.obj
 0001:000063a0       ?VerifyTimeIntegrateDuration@CAScanDlg@@IEAAXH@Z 0000000067d873a0 f   AScanDlg.obj
 0001:000065e0       ?VerifyFrameIntegrateCount@CAScanDlg@@IEAAXXZ 0000000067d875e0 f   AScanDlg.obj
 0001:000068e0       ??_ECAScanDlg@@WBBI@EAAPEAXI@Z 0000000067d878e0 f i AScanDlg.obj
 0001:000068f0       ??_GCAScanDlg@@UEAAPEAXI@Z 0000000067d878f0 f i AScanDlg.obj
 0001:00006940       ??1CAScanDlg@@UEAA@XZ      0000000067d87940 f i AScanDlg.obj
 0001:000069c0       ??_ECAScanDlg@@UEAAPEAXI@Z 0000000067d879c0 f i AScanDlg.obj
 0001:00006a60       ??0CAviFileDlg@@QEAA@PEAVCWnd@@HHHH@Z 0000000067d87a60 f   AviFileDlg.obj
 0001:00006bb0       ?DoDataExchange@CAviFileDlg@@MEAAXPEAVCDataExchange@@@Z 0000000067d87bb0 f   AviFileDlg.obj
 0001:00006c70       ?GetMessageMap@CAviFileDlg@@MEBAPEBUAFX_MSGMAP@@XZ 0000000067d87c70 f   AviFileDlg.obj
 0001:00006ca0       ?GetThisMessageMap@CAviFileDlg@@KAPEBUAFX_MSGMAP@@XZ 0000000067d87ca0 f   AviFileDlg.obj
 0001:00006cc0       ?OnVScroll@CAviFileDlg@@IEAAXIIPEAVCScrollBar@@@Z 0000000067d87cc0 f   AviFileDlg.obj
 0001:00006e10       ?OnUpdateAviEditFirstFrame@CAviFileDlg@@IEAAXXZ 0000000067d87e10 f   AviFileDlg.obj
 0001:00006e50       ?OnUpdateAviEditCompressionLevel@CAviFileDlg@@IEAAXXZ 0000000067d87e50 f   AviFileDlg.obj
 0001:00006e90       ?OnInitDialog@CAviFileDlg@@MEAAHXZ 0000000067d87e90 f   AviFileDlg.obj
 0001:00006fc0       ?OnOK@CAviFileDlg@@MEAAXXZ 0000000067d87fc0 f   AviFileDlg.obj
 0001:000070a0       ??_GCAviFileDlg@@UEAAPEAXI@Z 0000000067d880a0 f i AviFileDlg.obj
 0001:000070a0       ??_ECAviFileDlg@@UEAAPEAXI@Z 0000000067d880a0 f i AviFileDlg.obj
 0001:000070f0       ??1CAviFileDlg@@UEAA@XZ    0000000067d880f0 f i AviFileDlg.obj
 0001:00007120       ??0CBayerOptionsDlg@@QEAA@PEAVCWnd@@PEAVSapBayer@@PEAVSapTransfer@@PEAVCImageWnd@@PEAVSapProcessing@@@Z 0000000067d88120 f   BayerDlg.obj
 0001:00007260       ??1CBayerOptionsDlg@@UEAA@XZ 0000000067d88260 f   BayerDlg.obj
 0001:000072e0       ?DoDataExchange@CBayerOptionsDlg@@MEAAXPEAVCDataExchange@@@Z 0000000067d882e0 f   BayerDlg.obj
 0001:000073f0       ?GetMessageMap@CBayerOptionsDlg@@MEBAPEBUAFX_MSGMAP@@XZ 0000000067d883f0 f   BayerDlg.obj
 0001:00007420       ?GetThisMessageMap@CBayerOptionsDlg@@KAPEBUAFX_MSGMAP@@XZ 0000000067d88420 f   BayerDlg.obj
 0001:00007440       ?OnInitDialog@CBayerOptionsDlg@@MEAAHXZ 0000000067d88440 f   BayerDlg.obj
 0001:000074c0       ?UpdateInterface@CBayerOptionsDlg@@QEAAXXZ 0000000067d884c0 f   BayerDlg.obj
 0001:00007a00       ?OnChange@CBayerOptionsDlg@@IEAAXXZ 0000000067d88a00 f   BayerDlg.obj
 0001:00007a60       ?OnGammaEnable@CBayerOptionsDlg@@IEAAXXZ 0000000067d88a60 f   BayerDlg.obj
 0001:00007b10       ?OnChangeRange@CBayerOptionsDlg@@IEAAXI@Z 0000000067d88b10 f   BayerDlg.obj
 0001:00007b50       ?OnAutoWhiteBalance@CBayerOptionsDlg@@IEAAXXZ 0000000067d88b50 f   BayerDlg.obj
 0001:00007d10       ?OnApply@CBayerOptionsDlg@@IEAAXXZ 0000000067d88d10 f   BayerDlg.obj
 0001:00007fd0       ?OnShowWindow@CBayerOptionsDlg@@IEAAXHI@Z 0000000067d88fd0 f   BayerDlg.obj
 0001:00008060       ?UpdateView@CBayerOptionsDlg@@IEAAXXZ 0000000067d89060 f   BayerDlg.obj
 0001:000081c0       ?OnClose@CBayerOptionsDlg@@IEAAXXZ 0000000067d891c0 f   BayerDlg.obj
 0001:00008240       ??_ECBayerOptionsDlg@@WBBI@EAAPEAXI@Z 0000000067d89240 f i BayerDlg.obj
 0001:00008250       ?IsRoiTrackerActive@CImageWnd@@QEAAHXZ 0000000067d89250 f i BayerDlg.obj
 0001:00008260       ??_GCBayerOptionsDlg@@UEAAPEAXI@Z 0000000067d89260 f i BayerDlg.obj
 0001:000082b0       ??_ECBayerOptionsDlg@@UEAAPEAXI@Z 0000000067d892b0 f i BayerDlg.obj
 0001:00008350       ??0CBrowseDirDlg@@QEAA@PEBD@Z 0000000067d89350 f   BrowseDirDlg.obj
 0001:000083b0       ?DoModal@CBrowseDirDlg@@QEAAHXZ 0000000067d893b0 f   BrowseDirDlg.obj
 0001:00008790       ?BrowseHookProc@CBrowseDirDlg@@KA_KPEAUHWND__@@I_K_J@Z 0000000067d89790 f   BrowseDirDlg.obj
 0001:00008960       ??HATL@@YA?AV?$CStringT@DV?$StrTraitMFC_DLL@DV?$ChTraitsCRT@D@ATL@@@@@0@AEBV10@D@Z 0000000067d89960 f i BrowseDirDlg.obj
 0001:00008a60       ??0CBufDlg@@QEAA@PEAVCWnd@@PEAVSapBuffer@@PEAVSapDisplay@@@Z 0000000067d89a60 f   BufDlg.obj
 0001:00008e10       ?UpdateBuffer@CBufDlg@@IEAAHXZ 0000000067d89e10 f   BufDlg.obj
 0001:00009060       ?DoDataExchange@CBufDlg@@MEAAXPEAVCDataExchange@@@Z 0000000067d8a060 f   BufDlg.obj
 0001:00009150       ?GetMessageMap@CBufDlg@@MEBAPEBUAFX_MSGMAP@@XZ 0000000067d8a150 f   BufDlg.obj
 0001:00009180       ?GetThisMessageMap@CBufDlg@@KAPEBUAFX_MSGMAP@@XZ 0000000067d8a180 f   BufDlg.obj
 0001:000091a0       ?OnInitDialog@CBufDlg@@MEAAHXZ 0000000067d8a1a0 f   BufDlg.obj
 0001:000092e0       ?OnSelchangeComboFormat@CBufDlg@@IEAAXXZ 0000000067d8a2e0 f   BufDlg.obj
 0001:00009390       ?OnOK@CBufDlg@@MEAAXXZ     0000000067d8a390 f   BufDlg.obj
 0001:000093e0       ?EnableControls@CBufDlg@@IEAAXXZ 0000000067d8a3e0 f   BufDlg.obj
 0001:00009520       ??_GCBufDlg@@UEAAPEAXI@Z   0000000067d8a520 f i BufDlg.obj
 0001:00009570       ??1CBufDlg@@UEAA@XZ        0000000067d8a570 f i BufDlg.obj
 0001:000095f0       ??_ECBufDlg@@UEAAPEAXI@Z   0000000067d8a5f0 f i BufDlg.obj
 0001:00009690       ??0CColorConversionOptionsDlg@@QEAA@PEAVCWnd@@PEAVSapColorConversion@@PEAVSapTransfer@@PEAVCImageWnd@@PEAVSapProcessing@@@Z 0000000067d8a690 f   ColorConversionDlg.obj
 0001:000097e0       ??1CColorConversionOptionsDlg@@UEAA@XZ 0000000067d8a7e0 f   ColorConversionDlg.obj
 0001:00009870       ?DoDataExchange@CColorConversionOptionsDlg@@MEAAXPEAVCDataExchange@@@Z 0000000067d8a870 f   ColorConversionDlg.obj
 0001:000099a0       ?GetMessageMap@CColorConversionOptionsDlg@@MEBAPEBUAFX_MSGMAP@@XZ 0000000067d8a9a0 f   ColorConversionDlg.obj
 0001:000099d0       ?GetThisMessageMap@CColorConversionOptionsDlg@@KAPEBUAFX_MSGMAP@@XZ 0000000067d8a9d0 f   ColorConversionDlg.obj
 0001:000099f0       ?OnInitDialog@CColorConversionOptionsDlg@@MEAAHXZ 0000000067d8a9f0 f   ColorConversionDlg.obj
 0001:00009a70       ?UpdateInterface@CColorConversionOptionsDlg@@QEAAXXZ 0000000067d8aa70 f   ColorConversionDlg.obj
 0001:0000a0a0       ?OnChange@CColorConversionOptionsDlg@@IEAAXXZ 0000000067d8b0a0 f   ColorConversionDlg.obj
 0001:0000a100       ?OnChangeNumber@CColorConversionOptionsDlg@@IEAAXXZ 0000000067d8b100 f   ColorConversionDlg.obj
 0001:0000a150       ?SetSelectedMethodDescription@CColorConversionOptionsDlg@@IEAAXXZ 0000000067d8b150 f   ColorConversionDlg.obj
 0001:0000a200       ?OnGammaEnable@CColorConversionOptionsDlg@@IEAAXXZ 0000000067d8b200 f   ColorConversionDlg.obj
 0001:0000a2b0       ?OnChangeRange@CColorConversionOptionsDlg@@IEAAXI@Z 0000000067d8b2b0 f   ColorConversionDlg.obj
 0001:0000a2f0       ?OnAutoWhiteBalance@CColorConversionOptionsDlg@@IEAAXXZ 0000000067d8b2f0 f   ColorConversionDlg.obj
 0001:0000a460       ?OnApply@CColorConversionOptionsDlg@@IEAAXXZ 0000000067d8b460 f   ColorConversionDlg.obj
 0001:0000a790       ?OnShowWindow@CColorConversionOptionsDlg@@IEAAXHI@Z 0000000067d8b790 f   ColorConversionDlg.obj
 0001:0000a820       ?UpdateView@CColorConversionOptionsDlg@@IEAAXXZ 0000000067d8b820 f   ColorConversionDlg.obj
 0001:0000a980       ?OnClose@CColorConversionOptionsDlg@@IEAAXXZ 0000000067d8b980 f   ColorConversionDlg.obj
 0001:0000aa00       ??HATL@@YA?AV?$CStringT@DV?$StrTraitMFC_DLL@DV?$ChTraitsCRT@D@ATL@@@@@0@AEBV10@PEBD@Z 0000000067d8ba00 f i ColorConversionDlg.obj
 0001:0000aaf0       ??_ECColorConversionOptionsDlg@@WBBI@EAAPEAXI@Z 0000000067d8baf0 f i ColorConversionDlg.obj
 0001:0000ab00       ??_GCColorConversionOptionsDlg@@UEAAPEAXI@Z 0000000067d8bb00 f i ColorConversionDlg.obj
 0001:0000ab50       ??_ECColorConversionOptionsDlg@@UEAAPEAXI@Z 0000000067d8bb50 f i ColorConversionDlg.obj
 0001:0000abf0       ??1SapColorConversionMethodDictionary@@QEAA@XZ 0000000067d8bbf0 f i ColorConversionDlg.obj
 0001:0000ac30       ??0CCompDlg@@QEAA@PEAVCWnd@@PEAVSapAcquisition@@PEAVSapTransfer@@@Z 0000000067d8bc30 f   CompDlg.obj
 0001:0000ada0       ?DoDataExchange@CCompDlg@@MEAAXPEAVCDataExchange@@@Z 0000000067d8bda0 f   CompDlg.obj
 0001:0000af00       ?GetMessageMap@CCompDlg@@MEBAPEBUAFX_MSGMAP@@XZ 0000000067d8bf00 f   CompDlg.obj
 0001:0000af30       ?GetThisMessageMap@CCompDlg@@KAPEBUAFX_MSGMAP@@XZ 0000000067d8bf30 f   CompDlg.obj
 0001:0000af50       ?Snap@CCompDlg@@IEAAXXZ    0000000067d8bf50 f   CompDlg.obj
 0001:0000b0f0       ?OnOK@CCompDlg@@MEAAXXZ    0000000067d8c0f0 f   CompDlg.obj
 0001:0000b130       ?OnCancel@CCompDlg@@MEAAXXZ 0000000067d8c130 f   CompDlg.obj
 0001:0000b320       ?OnInitDialog@CCompDlg@@MEAAHXZ 0000000067d8c320 f   CompDlg.obj
 0001:0000cd00       ?UpdateWindow@CCompDlg@@IEAAXXZ 0000000067d8dd00 f   CompDlg.obj
 0001:0000cf30       ?SetBrightness@CCompDlg@@IEAAXXZ 0000000067d8df30 f   CompDlg.obj
 0001:0000d070       ?SetContrast@CCompDlg@@IEAAXXZ 0000000067d8e070 f   CompDlg.obj
 0001:0000d1b0       ?SetHue@CCompDlg@@IEAAXXZ  0000000067d8e1b0 f   CompDlg.obj
 0001:0000d2b0       ?SetSaturation@CCompDlg@@IEAAXXZ 0000000067d8e2b0 f   CompDlg.obj
 0001:0000d3b0       ?SetSharpness@CCompDlg@@IEAAXXZ 0000000067d8e3b0 f   CompDlg.obj
 0001:0000d490       ?OnHScroll@CCompDlg@@IEAAXIIPEAVCScrollBar@@@Z 0000000067d8e490 f   CompDlg.obj
 0001:0000d970       ?OnRed@CCompDlg@@IEAAXXZ   0000000067d8e970 f   CompDlg.obj
 0001:0000da00       ?OnGreen@CCompDlg@@IEAAXXZ 0000000067d8ea00 f   CompDlg.obj
 0001:0000da90       ?OnBlue@CCompDlg@@IEAAXXZ  0000000067d8ea90 f   CompDlg.obj
 0001:0000db20       ?OnKillfocusEditContrast@CCompDlg@@IEAAXXZ 0000000067d8eb20 f   CompDlg.obj
 0001:0000db90       ?OnKillfocusEditBrightness@CCompDlg@@IEAAXXZ 0000000067d8eb90 f   CompDlg.obj
 0001:0000dc00       ?OnKillfocusEditHue@CCompDlg@@IEAAXXZ 0000000067d8ec00 f   CompDlg.obj
 0001:0000dc70       ?OnKillfocusEditSaturation@CCompDlg@@IEAAXXZ 0000000067d8ec70 f   CompDlg.obj
 0001:0000dce0       ?OnKillfocusEditSharpness@CCompDlg@@IEAAXXZ 0000000067d8ece0 f   CompDlg.obj
 0001:0000dd50       ?OnDefault@CCompDlg@@IEAAXXZ 0000000067d8ed50 f   CompDlg.obj
 0001:0000df20       ??_ECCompDlg@@WBBI@EAAPEAXI@Z 0000000067d8ef20 f i CompDlg.obj
 0001:0000df30       ??_GCCompDlg@@UEAAPEAXI@Z  0000000067d8ef30 f i CompDlg.obj
 0001:0000df80       ??1CCompDlg@@UEAA@XZ       0000000067d8ef80 f i CompDlg.obj
 0001:0000e030       ??_ECCompDlg@@UEAAPEAXI@Z  0000000067d8f030 f i CompDlg.obj
 0001:0000e0d0       ??0CFlatFieldDlg@@QEAA@PEAVCWnd@@PEAVSapFlatField@@PEAVSapTransfer@@PEAVSapBuffer@@@Z 0000000067d8f0d0 f   FlatFieldDlg.obj
 0001:0000e2f0       ??1CFlatFieldDlg@@UEAA@XZ  0000000067d8f2f0 f   FlatFieldDlg.obj
 0001:0000e410       ?DoDataExchange@CFlatFieldDlg@@MEAAXPEAVCDataExchange@@@Z 0000000067d8f410 f   FlatFieldDlg.obj
 0001:0000e6a0       ?GetMessageMap@CFlatFieldDlg@@MEBAPEBUAFX_MSGMAP@@XZ 0000000067d8f6a0 f   FlatFieldDlg.obj
 0001:0000e6d0       ?GetThisMessageMap@CFlatFieldDlg@@KAPEBUAFX_MSGMAP@@XZ 0000000067d8f6d0 f   FlatFieldDlg.obj
 0001:0000e6f0       ?OnInitDialog@CFlatFieldDlg@@MEAAHXZ 0000000067d8f6f0 f   FlatFieldDlg.obj
 0001:0000f8e0       ?OnDestroy@CFlatFieldDlg@@IEAAXXZ 0000000067d908e0 f   FlatFieldDlg.obj
 0001:0000f920       ?OnDarkImage@CFlatFieldDlg@@IEAAXXZ 0000000067d90920 f   FlatFieldDlg.obj
 0001:00010270       ?DarkImage@CFlatFieldDlg@@AEAAXXZ 0000000067d91270 f   FlatFieldDlg.obj
 0001:00010b10       ?OnBrightImage@CFlatFieldDlg@@IEAAXXZ 0000000067d91b10 f   FlatFieldDlg.obj
 0001:00011370       ?BrightImage@CFlatFieldDlg@@AEAAXXZ 0000000067d92370 f   FlatFieldDlg.obj
 0001:00012340       ?OnOK@CFlatFieldDlg@@MEAAXXZ 0000000067d93340 f   FlatFieldDlg.obj
 0001:000123f0       ?OnCancel@CFlatFieldDlg@@MEAAXXZ 0000000067d933f0 f   FlatFieldDlg.obj
 0001:000124e0       ?OnSelchangeCorrectionType@CFlatFieldDlg@@IEAAXXZ 0000000067d934e0 f   FlatFieldDlg.obj
 0001:00012600       ?OnSelchangeVideoType@CFlatFieldDlg@@IEAAXXZ 0000000067d93600 f   FlatFieldDlg.obj
 0001:000126b0       ?OnSelchangeCalibrationIndex@CFlatFieldDlg@@IEAAXXZ 0000000067d936b0 f   FlatFieldDlg.obj
 0001:00012720       ?OnBnClickedScgFfLoadClusterMap@CFlatFieldDlg@@IEAAXXZ 0000000067d93720 f   FlatFieldDlg.obj
 0001:00012940       ?Snap@CFlatFieldDlg@@QEAAHXZ 0000000067d93940 f   FlatFieldDlg.obj
 0001:00012ba0       ?LogMessage@CFlatFieldDlg@@AEAAXHPEBD@Z 0000000067d93ba0 f   FlatFieldDlg.obj
 0001:00012c10       ?LogMessage@CFlatFieldDlg@@AEAAXHV?$CStringT@DV?$StrTraitMFC_DLL@DV?$ChTraitsCRT@D@ATL@@@@@ATL@@@Z 0000000067d93c10 f   FlatFieldDlg.obj
 0001:00012de0       ?GetAverageStr@CFlatFieldDlg@@AEBA?AV?$CStringT@DV?$StrTraitMFC_DLL@DV?$ChTraitsCRT@D@ATL@@@@@ATL@@AEAVSapFlatFieldStats@@@Z 0000000067d93de0 f   FlatFieldDlg.obj
 0001:00012f80       ?GetStdDeviationStr@CFlatFieldDlg@@AEBA?AV?$CStringT@DV?$StrTraitMFC_DLL@DV?$ChTraitsCRT@D@ATL@@@@@ATL@@AEAVSapFlatFieldStats@@@Z 0000000067d93f80 f   FlatFieldDlg.obj
 0001:00013120       ?GetLowStr@CFlatFieldDlg@@AEBA?AV?$CStringT@DV?$StrTraitMFC_DLL@DV?$ChTraitsCRT@D@ATL@@@@@ATL@@AEAVSapFlatFieldStats@@@Z 0000000067d94120 f   FlatFieldDlg.obj
 0001:000132c0       ?GetHighStr@CFlatFieldDlg@@AEBA?AV?$CStringT@DV?$StrTraitMFC_DLL@DV?$ChTraitsCRT@D@ATL@@@@@ATL@@AEAVSapFlatFieldStats@@@Z 0000000067d942c0 f   FlatFieldDlg.obj
 0001:00013460       ?GetPeakPositionStr@CFlatFieldDlg@@AEBA?AV?$CStringT@DV?$StrTraitMFC_DLL@DV?$ChTraitsCRT@D@ATL@@@@@ATL@@AEAVSapFlatFieldStats@@@Z 0000000067d94460 f   FlatFieldDlg.obj
 0001:00013600       ?GetPixelRatioStr@CFlatFieldDlg@@AEBA?AV?$CStringT@DV?$StrTraitMFC_DLL@DV?$ChTraitsCRT@D@ATL@@@@@ATL@@AEAVSapFlatFieldStats@@@Z 0000000067d94600 f   FlatFieldDlg.obj
 0001:000137c0       ?GetNumPixelsStr@CFlatFieldDlg@@AEBA?AV?$CStringT@DV?$StrTraitMFC_DLL@DV?$ChTraitsCRT@D@ATL@@@@@ATL@@AEAVSapFlatFieldStats@@@Z 0000000067d947c0 f   FlatFieldDlg.obj
 0001:00013960       ?OnSaveAndUpload@CFlatFieldDlg@@IEAAXXZ 0000000067d94960 f   FlatFieldDlg.obj
 0001:00013c60       ??_ESapBuffer@@UEAAPEAXI@Z 0000000067d94c60 f i FlatFieldDlg.obj
 0001:00013c60       ??_GSapBuffer@@UEAAPEAXI@Z 0000000067d94c60 f i FlatFieldDlg.obj
 0001:00013cb0       ??_ECFlatFieldDlg@@WBBI@EAAPEAXI@Z 0000000067d94cb0 f i FlatFieldDlg.obj
 0001:00013cc0       ?pow@@YANNH@Z              0000000067d94cc0 f i FlatFieldDlg.obj
 0001:00013d00       ?GetPathName@CLoadSaveDlg@@QEAA?AV?$CStringT@DV?$StrTraitMFC_DLL@DV?$ChTraitsCRT@D@ATL@@@@@ATL@@XZ 0000000067d94d00 f i FlatFieldDlg.obj
 0001:00013d60       ??1CLoadSaveDlg@@UEAA@XZ   0000000067d94d60 f i FlatFieldDlg.obj
 0001:00013db0       ??_GCFlatFieldDlg@@UEAAPEAXI@Z 0000000067d94db0 f i FlatFieldDlg.obj
 0001:00013e00       ??_ECFlatFieldDlg@@UEAAPEAXI@Z 0000000067d94e00 f i FlatFieldDlg.obj
 0001:00013ea0       ??$_Pow_int@N@@YANNH@Z     0000000067d94ea0 f i FlatFieldDlg.obj
 0001:00013f70       ??0CGioBidirectionalDlg@@QEAA@PEAVCWnd@@IPEAVSapGio@@@Z 0000000067d94f70 f   GioBidirectionalDlg.obj
 0001:000140d0       ?DoDataExchange@CGioBidirectionalDlg@@MEAAXPEAVCDataExchange@@@Z 0000000067d950d0 f   GioBidirectionalDlg.obj
 0001:00014170       ?MoveWindow@CGioBidirectionalDlg@@QEAAII@Z 0000000067d95170 f   GioBidirectionalDlg.obj
 0001:00014230       ?GetMessageMap@CGioBidirectionalDlg@@MEBAPEBUAFX_MSGMAP@@XZ 0000000067d95230 f   GioBidirectionalDlg.obj
 0001:00014260       ?GetThisMessageMap@CGioBidirectionalDlg@@KAPEBUAFX_MSGMAP@@XZ 0000000067d95260 f   GioBidirectionalDlg.obj
 0001:00014280       ?PreTranslateMessage@CGioBidirectionalDlg@@UEAAHPEAUtagMSG@@@Z 0000000067d95280 f   GioBidirectionalDlg.obj
 0001:000142e0       ?GioCallbackInfo@CGioBidirectionalDlg@@SAXPEAVSapGioCallbackInfo@@@Z 0000000067d952e0 f   GioBidirectionalDlg.obj
 0001:00014350       ?Create@CGioBidirectionalDlg@@QEAAHXZ 0000000067d95350 f   GioBidirectionalDlg.obj
 0001:000143b0       ?OnInitDialog@CGioBidirectionalDlg@@MEAAHXZ 0000000067d953b0 f   GioBidirectionalDlg.obj
 0001:00015310       ?OnSelchangeComboSignalEvent@CGioBidirectionalDlg@@IEAAXXZ 0000000067d96310 f   GioBidirectionalDlg.obj
 0001:00015370       ?ChangePinDirection@CGioBidirectionalDlg@@IEAAXIH@Z 0000000067d96370 f   GioBidirectionalDlg.obj
 0001:000154d0       ?OnSelchangeComboDir1@CGioBidirectionalDlg@@IEAAXXZ 0000000067d964d0 f   GioBidirectionalDlg.obj
 0001:00015530       ?OnSelchangeComboDir2@CGioBidirectionalDlg@@IEAAXXZ 0000000067d96530 f   GioBidirectionalDlg.obj
 0001:00015590       ?OnSelchangeComboDir3@CGioBidirectionalDlg@@IEAAXXZ 0000000067d96590 f   GioBidirectionalDlg.obj
 0001:000155f0       ?OnSelchangeComboDir4@CGioBidirectionalDlg@@IEAAXXZ 0000000067d965f0 f   GioBidirectionalDlg.obj
 0001:00015650       ?OnSelchangeComboDir5@CGioBidirectionalDlg@@IEAAXXZ 0000000067d96650 f   GioBidirectionalDlg.obj
 0001:000156b0       ?OnSelchangeComboDir6@CGioBidirectionalDlg@@IEAAXXZ 0000000067d966b0 f   GioBidirectionalDlg.obj
 0001:00015710       ?OnSelchangeComboDir7@CGioBidirectionalDlg@@IEAAXXZ 0000000067d96710 f   GioBidirectionalDlg.obj
 0001:00015770       ?OnSelchangeComboDir8@CGioBidirectionalDlg@@IEAAXXZ 0000000067d96770 f   GioBidirectionalDlg.obj
 0001:000157d0       ?OnSelchangeComboDir9@CGioBidirectionalDlg@@IEAAXXZ 0000000067d967d0 f   GioBidirectionalDlg.obj
 0001:00015830       ?OnSelchangeComboDir10@CGioBidirectionalDlg@@IEAAXXZ 0000000067d96830 f   GioBidirectionalDlg.obj
 0001:00015890       ?OnSelchangeComboDir11@CGioBidirectionalDlg@@IEAAXXZ 0000000067d96890 f   GioBidirectionalDlg.obj
 0001:000158f0       ?OnSelchangeComboDir12@CGioBidirectionalDlg@@IEAAXXZ 0000000067d968f0 f   GioBidirectionalDlg.obj
 0001:00015950       ?OnEnableCallback@CGioBidirectionalDlg@@IEAAXXZ 0000000067d96950 f   GioBidirectionalDlg.obj
 0001:00015ba0       ?Update@CGioBidirectionalDlg@@QEAAHXZ 0000000067d96ba0 f   GioBidirectionalDlg.obj
 0001:00015e30       ?OnSelchangeComboInputLevel@CGioBidirectionalDlg@@IEAAXXZ 0000000067d96e30 f   GioBidirectionalDlg.obj
 0001:00015f40       ?OnCtlColor@CGioBidirectionalDlg@@IEAAPEAUHBRUSH__@@PEAVCDC@@PEAVCWnd@@I@Z 0000000067d96f40 f   GioBidirectionalDlg.obj
 0001:00015fd0       ?ResetInterruptCount@CGioBidirectionalDlg@@IEAAHXZ 0000000067d96fd0 f   GioBidirectionalDlg.obj
 0001:000160f0       ?OnBtReset@CGioBidirectionalDlg@@IEAAXXZ 0000000067d970f0 f   GioBidirectionalDlg.obj
 0001:00016130       ?ChangePinState@CGioBidirectionalDlg@@IEAAXH@Z 0000000067d97130 f   GioBidirectionalDlg.obj
 0001:000162d0       ?OnPin1@CGioBidirectionalDlg@@IEAAXXZ 0000000067d972d0 f   GioBidirectionalDlg.obj
 0001:00016310       ?OnPin2@CGioBidirectionalDlg@@IEAAXXZ 0000000067d97310 f   GioBidirectionalDlg.obj
 0001:00016350       ?OnPin3@CGioBidirectionalDlg@@IEAAXXZ 0000000067d97350 f   GioBidirectionalDlg.obj
 0001:00016390       ?OnPin4@CGioBidirectionalDlg@@IEAAXXZ 0000000067d97390 f   GioBidirectionalDlg.obj
 0001:000163d0       ?OnPin5@CGioBidirectionalDlg@@IEAAXXZ 0000000067d973d0 f   GioBidirectionalDlg.obj
 0001:00016410       ?OnPin6@CGioBidirectionalDlg@@IEAAXXZ 0000000067d97410 f   GioBidirectionalDlg.obj
 0001:00016450       ?OnPin7@CGioBidirectionalDlg@@IEAAXXZ 0000000067d97450 f   GioBidirectionalDlg.obj
 0001:00016490       ?OnPin8@CGioBidirectionalDlg@@IEAAXXZ 0000000067d97490 f   GioBidirectionalDlg.obj
 0001:000164d0       ?OnPin9@CGioBidirectionalDlg@@IEAAXXZ 0000000067d974d0 f   GioBidirectionalDlg.obj
 0001:00016510       ?OnPin10@CGioBidirectionalDlg@@IEAAXXZ 0000000067d97510 f   GioBidirectionalDlg.obj
 0001:00016550       ?OnPin11@CGioBidirectionalDlg@@IEAAXXZ 0000000067d97550 f   GioBidirectionalDlg.obj
 0001:00016590       ?OnPin12@CGioBidirectionalDlg@@IEAAXXZ 0000000067d97590 f   GioBidirectionalDlg.obj
 0001:00016880       ?StringCbCatA@@YAJPEAD_KPEBD@Z 0000000067d97880 f i GioBidirectionalDlg.obj
 0001:00016940       ??_GCGioBidirectionalDlg@@UEAAPEAXI@Z 0000000067d97940 f i GioBidirectionalDlg.obj
 0001:00016990       ??1CGioBidirectionalDlg@@UEAA@XZ 0000000067d97990 f i GioBidirectionalDlg.obj
 0001:00016a20       ??_ECGioBidirectionalDlg@@UEAAPEAXI@Z 0000000067d97a20 f i GioBidirectionalDlg.obj
 0001:00016ac0       ??0CGioInputDlg@@QEAA@PEAVCWnd@@IPEAVSapGio@@@Z 0000000067d97ac0 f   GioInputDlg.obj
 0001:00016c20       ?DoDataExchange@CGioInputDlg@@MEAAXPEAVCDataExchange@@@Z 0000000067d97c20 f   GioInputDlg.obj
 0001:00016cc0       ?MoveWindow@CGioInputDlg@@QEAAII@Z 0000000067d97cc0 f   GioInputDlg.obj
 0001:00016d80       ?GetMessageMap@CGioInputDlg@@MEBAPEBUAFX_MSGMAP@@XZ 0000000067d97d80 f   GioInputDlg.obj
 0001:00016db0       ?GetThisMessageMap@CGioInputDlg@@KAPEBUAFX_MSGMAP@@XZ 0000000067d97db0 f   GioInputDlg.obj
 0001:00016dd0       ?PreTranslateMessage@CGioInputDlg@@UEAAHPEAUtagMSG@@@Z 0000000067d97dd0 f   GioInputDlg.obj
 0001:00016e30       ?GioCallbackInfo@CGioInputDlg@@SAXPEAVSapGioCallbackInfo@@@Z 0000000067d97e30 f   GioInputDlg.obj
 0001:00016ea0       ?Create@CGioInputDlg@@QEAAHXZ 0000000067d97ea0 f   GioInputDlg.obj
 0001:00016f00       ?OnInitDialog@CGioInputDlg@@MEAAHXZ 0000000067d97f00 f   GioInputDlg.obj
 0001:00017cb0       ?OnSelchangeComboSignalEvent@CGioInputDlg@@IEAAXXZ 0000000067d98cb0 f   GioInputDlg.obj
 0001:00017d10       ?OnEnableCallback@CGioInputDlg@@IEAAXXZ 0000000067d98d10 f   GioInputDlg.obj
 0001:00017e60       ?Update@CGioInputDlg@@QEAAHXZ 0000000067d98e60 f   GioInputDlg.obj
 0001:000180f0       ?OnSelchangeComboInputLevel@CGioInputDlg@@IEAAXXZ 0000000067d990f0 f   GioInputDlg.obj
 0001:00018200       ?OnCtlColor@CGioInputDlg@@IEAAPEAUHBRUSH__@@PEAVCDC@@PEAVCWnd@@I@Z 0000000067d99200 f   GioInputDlg.obj
 0001:00018290       ?ResetInterruptCount@CGioInputDlg@@IEAAHXZ 0000000067d99290 f   GioInputDlg.obj
 0001:000183b0       ?OnBtReset@CGioInputDlg@@IEAAXXZ 0000000067d993b0 f   GioInputDlg.obj
 0001:000186a0       ??_GCGioInputDlg@@UEAAPEAXI@Z 0000000067d996a0 f i GioInputDlg.obj
 0001:000186f0       ??1CGioInputDlg@@UEAA@XZ   0000000067d996f0 f i GioInputDlg.obj
 0001:00018780       ??_ECGioInputDlg@@UEAAPEAXI@Z 0000000067d99780 f i GioInputDlg.obj
 0001:00018820       ??0CGioOutputDlg@@QEAA@PEAVCWnd@@IPEAVSapGio@@@Z 0000000067d99820 f   GioOutputDlg.obj
 0001:000189a0       ?DoDataExchange@CGioOutputDlg@@MEAAXPEAVCDataExchange@@@Z 0000000067d999a0 f   GioOutputDlg.obj
 0001:00018a60       ?PreTranslateMessage@CGioOutputDlg@@UEAAHPEAUtagMSG@@@Z 0000000067d99a60 f   GioOutputDlg.obj
 0001:00018ac0       ?MoveWindow@CGioOutputDlg@@QEAAII@Z 0000000067d99ac0 f   GioOutputDlg.obj
 0001:00018b80       ?GetMessageMap@CGioOutputDlg@@MEBAPEBUAFX_MSGMAP@@XZ 0000000067d99b80 f   GioOutputDlg.obj
 0001:00018bb0       ?GetThisMessageMap@CGioOutputDlg@@KAPEBUAFX_MSGMAP@@XZ 0000000067d99bb0 f   GioOutputDlg.obj
 0001:00018bd0       ?Update@CGioOutputDlg@@QEAAHXZ 0000000067d99bd0 f   GioOutputDlg.obj
 0001:00018e50       ?Create@CGioOutputDlg@@QEAAHXZ 0000000067d99e50 f   GioOutputDlg.obj
 0001:00018eb0       ?OnInitDialog@CGioOutputDlg@@MEAAHXZ 0000000067d99eb0 f   GioOutputDlg.obj
 0001:00019b30       ?InitOutputDlg@CGioOutputDlg@@QEAAHXZ 0000000067d9ab30 f   GioOutputDlg.obj
 0001:00019d40       ?InitComboOutputState@CGioOutputDlg@@QEAAXXZ 0000000067d9ad40 f   GioOutputDlg.obj
 0001:0001a050       ?OnSelchangeComboOutputState@CGioOutputDlg@@IEAAXXZ 0000000067d9b050 f   GioOutputDlg.obj
 0001:0001a090       ?UpdateIO@CGioOutputDlg@@IEAAXXZ 0000000067d9b090 f   GioOutputDlg.obj
 0001:0001a2c0       ?OnCtlColor@CGioOutputDlg@@IEAAPEAUHBRUSH__@@PEAVCDC@@PEAVCWnd@@I@Z 0000000067d9b2c0 f   GioOutputDlg.obj
 0001:0001a350       ?ChangePinState@CGioOutputDlg@@QEAAXPEAVCButton@@@Z 0000000067d9b350 f   GioOutputDlg.obj
 0001:0001a470       ?OnPin1@CGioOutputDlg@@IEAAXXZ 0000000067d9b470 f   GioOutputDlg.obj
 0001:0001a4c0       ?OnPin2@CGioOutputDlg@@IEAAXXZ 0000000067d9b4c0 f   GioOutputDlg.obj
 0001:0001a510       ?OnPin3@CGioOutputDlg@@IEAAXXZ 0000000067d9b510 f   GioOutputDlg.obj
 0001:0001a560       ?OnPin4@CGioOutputDlg@@IEAAXXZ 0000000067d9b560 f   GioOutputDlg.obj
 0001:0001a5b0       ?OnPin5@CGioOutputDlg@@IEAAXXZ 0000000067d9b5b0 f   GioOutputDlg.obj
 0001:0001a600       ?OnPin6@CGioOutputDlg@@IEAAXXZ 0000000067d9b600 f   GioOutputDlg.obj
 0001:0001a650       ?OnPin7@CGioOutputDlg@@IEAAXXZ 0000000067d9b650 f   GioOutputDlg.obj
 0001:0001a6a0       ?OnPin8@CGioOutputDlg@@IEAAXXZ 0000000067d9b6a0 f   GioOutputDlg.obj
 0001:0001a6f0       ?OnPin9@CGioOutputDlg@@IEAAXXZ 0000000067d9b6f0 f   GioOutputDlg.obj
 0001:0001a740       ?OnPin10@CGioOutputDlg@@IEAAXXZ 0000000067d9b740 f   GioOutputDlg.obj
 0001:0001a790       ?OnPin11@CGioOutputDlg@@IEAAXXZ 0000000067d9b790 f   GioOutputDlg.obj
 0001:0001a7e0       ?OnPin12@CGioOutputDlg@@IEAAXXZ 0000000067d9b7e0 f   GioOutputDlg.obj
 0001:0001aae0       ??_GCGioOutputDlg@@UEAAPEAXI@Z 0000000067d9bae0 f i GioOutputDlg.obj
 0001:0001ab30       ??1CGioOutputDlg@@UEAA@XZ  0000000067d9bb30 f i GioOutputDlg.obj
 0001:0001abe0       ??_ECGioOutputDlg@@UEAAPEAXI@Z 0000000067d9bbe0 f i GioOutputDlg.obj
 0001:0001ac80       ?_GetBaseClass@CImageExWnd@@KAPEAUCRuntimeClass@@XZ 0000000067d9bc80 f   ImageExWnd.obj
 0001:0001acb0       ?GetThisClass@CImageExWnd@@SAPEAUCRuntimeClass@@XZ 0000000067d9bcb0 f   ImageExWnd.obj
 0001:0001acd0       ?GetRuntimeClass@CImageExWnd@@UEBAPEAUCRuntimeClass@@XZ 0000000067d9bcd0 f   ImageExWnd.obj
 0001:0001acf0       ??0CImageExWnd@@QEAA@XZ    0000000067d9bcf0 f   ImageExWnd.obj
 0001:0001afb0       ??1CImageExWnd@@UEAA@XZ    0000000067d9bfb0 f   ImageExWnd.obj
 0001:0001b140       ?AttachSapView@CImageExWnd@@QEAA_NPEAVSapView@@@Z 0000000067d9c140 f   ImageExWnd.obj
 0001:0001b1a0       ?AttachEventHandler@CImageExWnd@@QEAAXPEAVCImageExWndEventHandler@@@Z 0000000067d9c1a0 f   ImageExWnd.obj
 0001:0001b1d0       ?CenterImage@CImageExWnd@@QEAAX_N@Z 0000000067d9c1d0 f   ImageExWnd.obj
 0001:0001b220       ?IsImageCentered@CImageExWnd@@QEBA_NXZ 0000000067d9c220 f   ImageExWnd.obj
 0001:0001b260       ?Refresh@CImageExWnd@@QEAAXXZ 0000000067d9c260 f   ImageExWnd.obj
 0001:0001b2b0       ?Reset@CImageExWnd@@QEAAXXZ 0000000067d9c2b0 f   ImageExWnd.obj
 0001:0001b300       ?SupportROI@CImageExWnd@@QEAAX_N@Z 0000000067d9c300 f   ImageExWnd.obj
 0001:0001b350       ?ActivateROI@CImageExWnd@@QEAAX_N@Z 0000000067d9c350 f   ImageExWnd.obj
 0001:0001b3a0       ?SetROI@CImageExWnd@@QEAAXHHII@Z 0000000067d9c3a0 f   ImageExWnd.obj
 0001:0001b410       ?SetROI@CImageExWnd@@QEAAXVCPoint@@0@Z 0000000067d9c410 f   ImageExWnd.obj
 0001:0001b470       ?SetROI@CImageExWnd@@QEAAXVCRect@@@Z 0000000067d9c470 f   ImageExWnd.obj
 0001:0001b4e0       ?IsRoiSupported@CImageExWnd@@QEBA_NXZ 0000000067d9c4e0 f   ImageExWnd.obj
 0001:0001b520       ?IsRoiActive@CImageExWnd@@QEBA_NXZ 0000000067d9c520 f   ImageExWnd.obj
 0001:0001b560       ?GetROI@CImageExWnd@@QEBAXAEAI000@Z 0000000067d9c560 f   ImageExWnd.obj
 0001:0001b5d0       ?GetROI@CImageExWnd@@QEBAXAEAVCPoint@@0@Z 0000000067d9c5d0 f   ImageExWnd.obj
 0001:0001b630       ?GetROI@CImageExWnd@@QEBAXAEAVCRect@@@Z 0000000067d9c630 f   ImageExWnd.obj
 0001:0001b680       ?SetPixelStringFormatDecimal@CImageExWnd@@QEAAX_N@Z 0000000067d9c680 f   ImageExWnd.obj
 0001:0001b6d0       ?IsPixelStringFormatDecimal@CImageExWnd@@QEBA_NXZ 0000000067d9c6d0 f   ImageExWnd.obj
 0001:0001b710       ?GetPixelString@CImageExWnd@@QEBA?AV?$CStringT@DV?$StrTraitMFC_DLL@DV?$ChTraitsCRT@D@ATL@@@@@ATL@@VCPoint@@@Z 0000000067d9c710 f   ImageExWnd.obj
 0001:0001b780       ?NotifyMarkerChanged@CImageExWnd@@IEAAXXZ 0000000067d9c780 f   ImageExWnd.obj
 0001:0001b7e0       ?NotifyInteractiveMarkerChanged@CImageExWnd@@IEAAXH@Z 0000000067d9c7e0 f   ImageExWnd.obj
 0001:0001b840       ?PixelChanged@CImageExWnd@@MEAAXHH@Z 0000000067d9c840 f   ImageExWnd.obj
 0001:0001b8b0       ?ScaleChanged@CImageExWnd@@MEAAXXZ 0000000067d9c8b0 f   ImageExWnd.obj
 0001:0001b950       ?RoiChanged@CImageExWnd@@MEAAXXZ 0000000067d9c950 f   ImageExWnd.obj
 0001:0001b9b0       ?ViewChanged@CImageExWnd@@MEAAXXZ 0000000067d9c9b0 f   ImageExWnd.obj
 0001:0001ba50       ?EnableMarker@CImageExWnd@@QEAAX_N@Z 0000000067d9ca50 f   ImageExWnd.obj
 0001:0001bb20       ?IsMarkerEnabled@CImageExWnd@@QEBA_NXZ 0000000067d9cb20 f   ImageExWnd.obj
 0001:0001bb40       ?SetMarkerLine@CImageExWnd@@QEAAXI@Z 0000000067d9cb40 f   ImageExWnd.obj
 0001:0001bbe0       ?GetMarkerLine@CImageExWnd@@QEBAIXZ 0000000067d9cbe0 f   ImageExWnd.obj
 0001:0001bc00       ?ValidateMarkerLineIndex@CImageExWnd@@IEAAHH@Z 0000000067d9cc00 f   ImageExWnd.obj
 0001:0001bc40       ?GetMessageMap@CImageExWnd@@MEBAPEBUAFX_MSGMAP@@XZ 0000000067d9cc40 f   ImageExWnd.obj
 0001:0001bc70       ?GetThisMessageMap@CImageExWnd@@KAPEBUAFX_MSGMAP@@XZ 0000000067d9cc70 f   ImageExWnd.obj
 0001:0001bc90       ?PreCreateWindow@CImageExWnd@@MEAAHAEAUtagCREATESTRUCTA@@@Z 0000000067d9cc90 f   ImageExWnd.obj
 0001:0001bce0       ?CreateChildControls@CImageExWnd@@IEAAHXZ 0000000067d9cce0 f   ImageExWnd.obj
 0001:0001bec0       ?OnCreate@CImageExWnd@@IEAAHPEAUtagCREATESTRUCTA@@@Z 0000000067d9cec0 f   ImageExWnd.obj
 0001:0001bf30       ?PreSubclassWindow@CImageExWnd@@MEAAXXZ 0000000067d9cf30 f   ImageExWnd.obj
 0001:0001bfa0       ?OnDestroy@CImageExWnd@@IEAAXXZ 0000000067d9cfa0 f   ImageExWnd.obj
 0001:0001c060       ?PreTranslateMessage@CImageExWnd@@MEAAHPEAUtagMSG@@@Z 0000000067d9d060 f   ImageExWnd.obj
 0001:0001c160       ?OnPaint@CImageExWnd@@IEAAXXZ 0000000067d9d160 f   ImageExWnd.obj
 0001:0001c550       ?PaintMarker@CImageExWnd@@IEAAXAEAVCDC@@H@Z 0000000067d9d550 f   ImageExWnd.obj
 0001:0001c7b0       ?OnEraseBkgnd@CImageExWnd@@IEAAHPEAVCDC@@@Z 0000000067d9d7b0 f   ImageExWnd.obj
 0001:0001c7d0       ?UpdateLayout@CImageExWnd@@IEAAXXZ 0000000067d9d7d0 f   ImageExWnd.obj
 0001:0001cc30       ?OnSize@CImageExWnd@@IEAAXIHH@Z 0000000067d9dc30 f   ImageExWnd.obj
 0001:0001cc90       ?OnSetFocus@CImageExWnd@@IEAAXPEAVCWnd@@@Z 0000000067d9dc90 f   ImageExWnd.obj
 0001:0001cce0       ?OnMouseMove@CImageExWnd@@IEAAXIVCPoint@@@Z 0000000067d9dce0 f   ImageExWnd.obj
 0001:0001cf20       ?OnMouseLeave@CImageExWnd@@IEAA_J_K_J@Z 0000000067d9df20 f   ImageExWnd.obj
 0001:0001cfa0       ?OnLButtonDown@CImageExWnd@@IEAAXIVCPoint@@@Z 0000000067d9dfa0 f   ImageExWnd.obj
 0001:0001d040       ?UpdateScrollBars@CImageExWnd@@IEAAXXZ 0000000067d9e040 f   ImageExWnd.obj
 0001:0001d300       ?OnHScroll@CImageExWnd@@IEAAXIIPEAVCScrollBar@@@Z 0000000067d9e300 f   ImageExWnd.obj
 0001:0001d560       ?OnVScroll@CImageExWnd@@IEAAXIIPEAVCScrollBar@@@Z 0000000067d9e560 f   ImageExWnd.obj
 0001:0001d7c0       ??0CImageViewportWndEventHandler@@QEAA@XZ 0000000067d9e7c0 f i ImageExWnd.obj
 0001:0001d7e0       ?PixelChanged@CImageViewportWndEventHandler@@UEAAXHH@Z 0000000067d9e7e0 f i ImageExWnd.obj
 0001:0001d800       ?ScaleChanged@CImageViewportWndEventHandler@@UEAAXXZ 0000000067d9e800 f i ImageExWnd.obj
 0001:0001d810       ?RoiChanged@CImageViewportWndEventHandler@@UEAAXXZ 0000000067d9e810 f i ImageExWnd.obj
 0001:0001d820       ?ViewChanged@CImageViewportWndEventHandler@@UEAAXXZ 0000000067d9e820 f i ImageExWnd.obj
 0001:0001d830       ??_GCImageExWnd@@UEAAPEAXI@Z 0000000067d9e830 f i ImageExWnd.obj
 0001:0001d880       ??_ECImageExWnd@@UEAAPEAXI@Z 0000000067d9e880 f i ImageExWnd.obj
 0001:0001d920       ?_GetBaseClass@CImageFilterEditorDlg@@KAPEAUCRuntimeClass@@XZ 0000000067d9e920 f   ImageFilterEditorDlg.obj
 0001:0001d950       ?GetThisClass@CImageFilterEditorDlg@@SAPEAUCRuntimeClass@@XZ 0000000067d9e950 f   ImageFilterEditorDlg.obj
 0001:0001d970       ?GetRuntimeClass@CImageFilterEditorDlg@@UEBAPEAUCRuntimeClass@@XZ 0000000067d9e970 f   ImageFilterEditorDlg.obj
 0001:0001d990       ??0CImageFilterEditorDlg@@QEAA@PEAVSapAcquisition@@PEAVCWnd@@@Z 0000000067d9e990 f   ImageFilterEditorDlg.obj
 0001:0001db10       ??1CImageFilterEditorDlg@@UEAA@XZ 0000000067d9eb10 f   ImageFilterEditorDlg.obj
 0001:0001dbf0       ?OnInitDialog@CImageFilterEditorDlg@@MEAAHXZ 0000000067d9ebf0 f   ImageFilterEditorDlg.obj
 0001:0001df40       ?CreateCoeffEditControls@CImageFilterEditorDlg@@IEAA_NH@Z 0000000067d9ef40 f   ImageFilterEditorDlg.obj
 0001:0001e160       ?DestroyCoeffEditControls@CImageFilterEditorDlg@@IEAAXXZ 0000000067d9f160 f   ImageFilterEditorDlg.obj
 0001:0001e2b0       ?InitControls@CImageFilterEditorDlg@@IEAAXXZ 0000000067d9f2b0 f   ImageFilterEditorDlg.obj
 0001:0001e5f0       ?UpdateState@CImageFilterEditorDlg@@IEAA_NXZ 0000000067d9f5f0 f   ImageFilterEditorDlg.obj
 0001:0001e6a0       ?UpdateKernelSizeCombo@CImageFilterEditorDlg@@IEAAXXZ 0000000067d9f6a0 f   ImageFilterEditorDlg.obj
 0001:0001e7a0       ?ArrangeCoeffEditControls@CImageFilterEditorDlg@@IEAAXXZ 0000000067d9f7a0 f   ImageFilterEditorDlg.obj
 0001:0001ec00       ?ConvertToDecimal@CImageFilterEditorDlg@@KA_NV?$CStringT@DV?$StrTraitMFC_DLL@DV?$ChTraitsCRT@D@ATL@@@@@ATL@@AEAN@Z 0000000067d9fc00 f   ImageFilterEditorDlg.obj
 0001:0001ed80       ?ReadCoefficients@CImageFilterEditorDlg@@IEAA_NXZ 0000000067d9fd80 f   ImageFilterEditorDlg.obj
 0001:0001f010       ?ReadCoefficientsFromBuffer@CImageFilterEditorDlg@@IEAA_NAEAVSapBuffer@@@Z 0000000067da0010 f   ImageFilterEditorDlg.obj
 0001:0001f360       ?WriteCoefficients@CImageFilterEditorDlg@@IEAA_NXZ 0000000067da0360 f   ImageFilterEditorDlg.obj
 0001:0001f5f0       ?WriteCoefficientsToBuffer@CImageFilterEditorDlg@@IEAA_NAEAVSapBuffer@@@Z 0000000067da05f0 f   ImageFilterEditorDlg.obj
 0001:0001fb40       ?DoDataExchange@CImageFilterEditorDlg@@MEAAXPEAVCDataExchange@@@Z 0000000067da0b40 f   ImageFilterEditorDlg.obj
 0001:0001fc30       ?GetMessageMap@CImageFilterEditorDlg@@MEBAPEBUAFX_MSGMAP@@XZ 0000000067da0c30 f   ImageFilterEditorDlg.obj
 0001:0001fc60       ?GetThisMessageMap@CImageFilterEditorDlg@@KAPEBUAFX_MSGMAP@@XZ 0000000067da0c60 f   ImageFilterEditorDlg.obj
 0001:0001fc80       ?OnCheckImageFilterEnable@CImageFilterEditorDlg@@IEAAXXZ 0000000067da0c80 f   ImageFilterEditorDlg.obj
 0001:0001fd10       ?OnChangeImageFilterIndex@CImageFilterEditorDlg@@IEAAXXZ 0000000067da0d10 f   ImageFilterEditorDlg.obj
 0001:0001fd50       ?OnChangeImageFilterSize@CImageFilterEditorDlg@@IEAAXXZ 0000000067da0d50 f   ImageFilterEditorDlg.obj
 0001:0001fd90       ?OnBnClickedBtnImport@CImageFilterEditorDlg@@IEAAXXZ 0000000067da0d90 f   ImageFilterEditorDlg.obj
 0001:00020080       ?OnBnClickedBtnExport@CImageFilterEditorDlg@@IEAAXXZ 0000000067da1080 f   ImageFilterEditorDlg.obj
 0001:00020450       ?OnOK@CImageFilterEditorDlg@@MEAAXXZ 0000000067da1450 f   ImageFilterEditorDlg.obj
 0001:000204e0       ?PreTranslateMessage@CImageFilterEditorDlg@@MEAAHPEAUtagMSG@@@Z 0000000067da14e0 f   ImageFilterEditorDlg.obj
 0001:00020550       ??_ECEdit@@UEAAPEAXI@Z     0000000067da1550 f i ImageFilterEditorDlg.obj
 0001:000205f0       ??_D?$basic_istringstream@DU?$char_traits@D@std@@V?$allocator@D@2@@std@@QEAAXXZ 0000000067da15f0 f i ImageFilterEditorDlg.obj
 0001:00020640       ??0?$basic_istringstream@DU?$char_traits@D@std@@V?$allocator@D@2@@std@@QEAA@AEBV?$basic_string@DU?$char_traits@D@std@@V?$allocator@D@2@@1@H@Z 0000000067da1640 f i ImageFilterEditorDlg.obj
 0001:00020720       ??1?$basic_istringstream@DU?$char_traits@D@std@@V?$allocator@D@2@@std@@UEAA@XZ 0000000067da1720 f i ImageFilterEditorDlg.obj
 0001:000207a0       ??1?$basic_stringbuf@DU?$char_traits@D@std@@V?$allocator@D@2@@std@@UEAA@XZ 0000000067da17a0 f i ImageFilterEditorDlg.obj
 0001:00020800       ?overflow@?$basic_stringbuf@DU?$char_traits@D@std@@V?$allocator@D@2@@std@@MEAAHH@Z 0000000067da1800 f i ImageFilterEditorDlg.obj
 0001:00020d20       ?pbackfail@?$basic_stringbuf@DU?$char_traits@D@std@@V?$allocator@D@2@@std@@MEAAHH@Z 0000000067da1d20 f i ImageFilterEditorDlg.obj
 0001:00020e50       ?underflow@?$basic_stringbuf@DU?$char_traits@D@std@@V?$allocator@D@2@@std@@MEAAHXZ 0000000067da1e50 f i ImageFilterEditorDlg.obj
 0001:00020fb0       ?seekoff@?$basic_stringbuf@DU?$char_traits@D@std@@V?$allocator@D@2@@std@@MEAA?AV?$fpos@H@2@_JHH@Z 0000000067da1fb0 f i ImageFilterEditorDlg.obj
 0001:00021310       ?seekpos@?$basic_stringbuf@DU?$char_traits@D@std@@V?$allocator@D@2@@std@@MEAA?AV?$fpos@H@2@V32@H@Z 0000000067da2310 f i ImageFilterEditorDlg.obj
 0001:00021560       ??_E?$basic_istringstream@DU?$char_traits@D@std@@V?$allocator@D@2@@std@@UEAAPEAXI@Z 0000000067da2560 f i ImageFilterEditorDlg.obj
 0001:00021560       ??_G?$basic_istringstream@DU?$char_traits@D@std@@V?$allocator@D@2@@std@@UEAAPEAXI@Z 0000000067da2560 f i ImageFilterEditorDlg.obj
 0001:000215d0       ??_E?$basic_stringbuf@DU?$char_traits@D@std@@V?$allocator@D@2@@std@@UEAAPEAXI@Z 0000000067da25d0 f i ImageFilterEditorDlg.obj
 0001:000215d0       ??_G?$basic_stringbuf@DU?$char_traits@D@std@@V?$allocator@D@2@@std@@UEAAPEAXI@Z 0000000067da25d0 f i ImageFilterEditorDlg.obj
 0001:00021620       ??B?$fpos@H@std@@QEBA_JXZ  0000000067da2620 f i ImageFilterEditorDlg.obj
 0001:00021640       ??0?$basic_stringbuf@DU?$char_traits@D@std@@V?$allocator@D@2@@std@@QEAA@AEBV?$basic_string@DU?$char_traits@D@std@@V?$allocator@D@2@@1@H@Z 0000000067da2640 f i ImageFilterEditorDlg.obj
 0001:000216f0       ?_Tidy@?$basic_stringbuf@DU?$char_traits@D@std@@V?$allocator@D@2@@std@@IEAAXXZ 0000000067da26f0 f i ImageFilterEditorDlg.obj
 0001:000217e0       ?_Init@?$basic_stringbuf@DU?$char_traits@D@std@@V?$allocator@D@2@@std@@IEAAXPEBD_KH@Z 0000000067da27e0 f i ImageFilterEditorDlg.obj
 0001:00021980       ?_Getstate@?$basic_stringbuf@DU?$char_traits@D@std@@V?$allocator@D@2@@std@@AEAAHH@Z 0000000067da2980 f i ImageFilterEditorDlg.obj
 0001:00021a10       ?copy@?$char_traits@D@std@@SAPEADPEADPEBD_K@Z 0000000067da2a10 f i ImageFilterEditorDlg.obj
 0001:00021a60       ?eq@?$char_traits@D@std@@SA_NAEBD0@Z 0000000067da2a60 f i ImageFilterEditorDlg.obj
 0001:00021ac0       ?to_char_type@?$char_traits@D@std@@SADAEBH@Z 0000000067da2ac0 f i ImageFilterEditorDlg.obj
 0001:00021ad0       ?to_int_type@?$char_traits@D@std@@SAHAEBD@Z 0000000067da2ad0 f i ImageFilterEditorDlg.obj
 0001:00021ae0       ?eq_int_type@?$char_traits@D@std@@SA_NAEBH0@Z 0000000067da2ae0 f i ImageFilterEditorDlg.obj
 0001:00021b30       ?not_eof@?$char_traits@D@std@@SAHAEBH@Z 0000000067da2b30 f i ImageFilterEditorDlg.obj
 0001:00021ba0       ?eof@?$char_traits@D@std@@SAHXZ 0000000067da2ba0 f i ImageFilterEditorDlg.obj
 0001:00021bb0       ??_GCImageFilterEditorDlg@@UEAAPEAXI@Z 0000000067da2bb0 f i ImageFilterEditorDlg.obj
 0001:00021c00       ??_ECImageFilterEditorDlg@@UEAAPEAXI@Z 0000000067da2c00 f i ImageFilterEditorDlg.obj
 0001:00021ca0       ??0?$basic_string@DU?$char_traits@D@std@@V?$allocator@D@2@@std@@QEAA@PEBD@Z 0000000067da2ca0 f i ImageFilterEditorDlg.obj
 0001:00021d20       ??1?$basic_string@DU?$char_traits@D@std@@V?$allocator@D@2@@std@@QEAA@XZ 0000000067da2d20 f i ImageFilterEditorDlg.obj
 0001:00021d70       ?c_str@?$basic_string@DU?$char_traits@D@std@@V?$allocator@D@2@@std@@QEBAPEBDXZ 0000000067da2d70 f i ImageFilterEditorDlg.obj
 0001:00021da0       ?size@?$basic_string@DU?$char_traits@D@std@@V?$allocator@D@2@@std@@QEBA_KXZ 0000000067da2da0 f i ImageFilterEditorDlg.obj
 0001:00021dc0       ?assign@?$basic_string@DU?$char_traits@D@std@@V?$allocator@D@2@@std@@QEAAAEAV12@PEBD@Z 0000000067da2dc0 f i ImageFilterEditorDlg.obj
 0001:00021e20       ?length@?$char_traits@D@std@@SA_KPEBD@Z 0000000067da2e20 f i ImageFilterEditorDlg.obj
 0001:00021e50       ?_Tidy@?$basic_string@DU?$char_traits@D@std@@V?$allocator@D@2@@std@@QEAAX_N_K@Z 0000000067da2e50 f i ImageFilterEditorDlg.obj
 0001:00021f10       ?_Myptr@?$basic_string@DU?$char_traits@D@std@@V?$allocator@D@2@@std@@QEBAPEBDXZ 0000000067da2f10 f i ImageFilterEditorDlg.obj
 0001:00021f60       ??0?$_String_val@DV?$allocator@D@std@@@std@@QEAA@V?$allocator@D@1@@Z 0000000067da2f60 f i ImageFilterEditorDlg.obj
 0001:00022030       ??0_Container_proxy@std@@QEAA@XZ 0000000067da3030 f i ImageFilterEditorDlg.obj
 0001:00022060       ??1?$_String_val@DV?$allocator@D@std@@@std@@QEAA@XZ 0000000067da3060 f i ImageFilterEditorDlg.obj
 0001:00022100       ??0?$allocator@D@std@@QEAA@XZ 0000000067da3100 f i ImageFilterEditorDlg.obj
 0001:00022110       ??0?$allocator@D@std@@QEAA@AEBV01@@Z 0000000067da3110 f i ImageFilterEditorDlg.obj
 0001:00022130       ??0?$fpos@H@std@@QEAA@_J@Z 0000000067da3130 f i ImageFilterEditorDlg.obj
 0001:00022170       ?assign@?$basic_string@DU?$char_traits@D@std@@V?$allocator@D@2@@std@@QEAAAEAV12@PEBD_K@Z 0000000067da3170 f i ImageFilterEditorDlg.obj
 0001:00022250       ?_Eos@?$basic_string@DU?$char_traits@D@std@@V?$allocator@D@2@@std@@QEAAX_K@Z 0000000067da3250 f i ImageFilterEditorDlg.obj
 0001:000222b0       ?assign@?$char_traits@D@std@@SAXAEADAEBD@Z 0000000067da32b0 f i ImageFilterEditorDlg.obj
 0001:000222d0       ?_Myptr@?$basic_string@DU?$char_traits@D@std@@V?$allocator@D@2@@std@@QEAAPEADXZ 0000000067da32d0 f i ImageFilterEditorDlg.obj
 0001:00022320       ?deallocate@?$allocator@D@std@@QEAAXPEAD_K@Z 0000000067da3320 f i ImageFilterEditorDlg.obj
 0001:00022360       ?deallocate@?$allocator@U_Container_proxy@std@@@std@@QEAAXPEAU_Container_proxy@2@_K@Z 0000000067da3360 f i ImageFilterEditorDlg.obj
 0001:000223a0       ?allocate@?$allocator@U_Container_proxy@std@@@std@@QEAAPEAU_Container_proxy@2@_K@Z 0000000067da33a0 f i ImageFilterEditorDlg.obj
 0001:000223e0       ?assign@?$basic_string@DU?$char_traits@D@std@@V?$allocator@D@2@@std@@QEAAAEAV12@AEBV12@_K1@Z 0000000067da33e0 f i ImageFilterEditorDlg.obj
 0001:00022500       ?_Xran@?$basic_string@DU?$char_traits@D@std@@V?$allocator@D@2@@std@@QEBAXXZ 0000000067da3500 f i ImageFilterEditorDlg.obj
 0001:00022540       ?_Grow@?$basic_string@DU?$char_traits@D@std@@V?$allocator@D@2@@std@@QEAA_N_K_N@Z 0000000067da3540 f i ImageFilterEditorDlg.obj
 0001:00022640       ?_Inside@?$basic_string@DU?$char_traits@D@std@@V?$allocator@D@2@@std@@QEAA_NPEBD@Z 0000000067da3640 f i ImageFilterEditorDlg.obj
 0001:000226b0       ?_Xlen@?$basic_string@DU?$char_traits@D@std@@V?$allocator@D@2@@std@@QEBAXXZ 0000000067da36b0 f i ImageFilterEditorDlg.obj
 0001:000226f0       ?erase@?$basic_string@DU?$char_traits@D@std@@V?$allocator@D@2@@std@@QEAAAEAV12@_K0@Z 0000000067da36f0 f i ImageFilterEditorDlg.obj
 0001:00022800       ?move@?$char_traits@D@std@@SAPEADPEADPEBD_K@Z 0000000067da3800 f i ImageFilterEditorDlg.obj
 0001:00022850       ?max_size@?$basic_string@DU?$char_traits@D@std@@V?$allocator@D@2@@std@@QEBA_KXZ 0000000067da3850 f i ImageFilterEditorDlg.obj
 0001:000228b0       ?_Copy@?$basic_string@DU?$char_traits@D@std@@V?$allocator@D@2@@std@@QEAAX_K0@Z 0000000067da38b0 f i ImageFilterEditorDlg.obj
 0001:00022a40       ?allocate@?$allocator@D@std@@QEAAPEAD_K@Z 0000000067da3a40 f i ImageFilterEditorDlg.obj
 0001:00022a80       ?max_size@?$allocator@D@std@@QEBA_KXZ 0000000067da3a80 f i ImageFilterEditorDlg.obj
 0001:00022ad0       ??$_Debug_pointer@D@std@@YAXPEBDPEB_WI@Z 0000000067da3ad0 f i ImageFilterEditorDlg.obj
 0001:00022b20       ??$?0D@?$allocator@U_Container_proxy@std@@@std@@QEAA@AEBV?$allocator@D@1@@Z 0000000067da3b20 f i ImageFilterEditorDlg.obj
 0001:00022b40       ??$_Cons_val@V?$allocator@U_Container_proxy@std@@@std@@U_Container_proxy@2@U32@@std@@YAXAEAV?$allocator@U_Container_proxy@std@@@0@PEAU_Container_proxy@0@$$QEAU20@@Z 0000000067da3b40 f i ImageFilterEditorDlg.obj
 0001:00022b90       ??$_Dest_val@V?$allocator@U_Container_proxy@std@@@std@@U_Container_proxy@2@@std@@YAXAEAV?$allocator@U_Container_proxy@std@@@0@PEAU_Container_proxy@0@@Z 0000000067da3b90 f i ImageFilterEditorDlg.obj
 0001:00022bd0       ??$_Allocate@U_Container_proxy@std@@@std@@YAPEAU_Container_proxy@0@_KPEAU10@@Z 0000000067da3bd0 f i ImageFilterEditorDlg.obj
 0001:00022c70       ??0bad_alloc@std@@QEAA@PEBD@Z 0000000067da3c70 f i ImageFilterEditorDlg.obj
 0001:00022cc0       ??1bad_alloc@std@@UEAA@XZ  0000000067da3cc0 f i ImageFilterEditorDlg.obj
 0001:00022d00       ??_Gbad_alloc@std@@UEAAPEAXI@Z 0000000067da3d00 f i ImageFilterEditorDlg.obj
 0001:00022d00       ??_Ebad_alloc@std@@UEAAPEAXI@Z 0000000067da3d00 f i ImageFilterEditorDlg.obj
 0001:00022d50       ??$_Allocate@D@std@@YAPEAD_KPEAD@Z 0000000067da3d50 f i ImageFilterEditorDlg.obj
 0001:00022de0       ??0bad_alloc@std@@QEAA@AEBV01@@Z 0000000067da3de0 f i ImageFilterEditorDlg.obj
 0001:00022e30       ?construct@?$allocator@U_Container_proxy@std@@@std@@QEAAXPEAU_Container_proxy@2@$$QEAU32@@Z 0000000067da3e30 f i ImageFilterEditorDlg.obj
 0001:00022ee0       ??2@YAPEAX_KPEAX@Z         0000000067da3ee0 f i ImageFilterEditorDlg.obj
 0001:00022f00       ??3@YAXPEAX0@Z             0000000067da3f00 f i ImageFilterEditorDlg.obj
 0001:00022f10       ?destroy@?$allocator@U_Container_proxy@std@@@std@@QEAAXPEAU_Container_proxy@2@@Z 0000000067da3f10 f i ImageFilterEditorDlg.obj
 0001:00022f50       ??$forward@U_Container_proxy@std@@@std@@YA$$QEAU_Container_proxy@0@AEAU10@@Z 0000000067da3f50 f i ImageFilterEditorDlg.obj
 0001:00022f60       ??$_Destroy@U_Container_proxy@std@@@std@@YAXPEAU_Container_proxy@0@@Z 0000000067da3f60 f i ImageFilterEditorDlg.obj
 0001:00022f70       ?_GetBaseClass@CImageViewportWnd@@KAPEAUCRuntimeClass@@XZ 0000000067da3f70 f   ImageViewportWnd.obj
 0001:00022fa0       ?GetThisClass@CImageViewportWnd@@SAPEAUCRuntimeClass@@XZ 0000000067da3fa0 f   ImageViewportWnd.obj
 0001:00022fc0       ?GetRuntimeClass@CImageViewportWnd@@UEBAPEAUCRuntimeClass@@XZ 0000000067da3fc0 f   ImageViewportWnd.obj
 0001:00022fe0       ??0CImageViewportWnd@@QEAA@XZ 0000000067da3fe0 f   ImageViewportWnd.obj
 0001:00023190       ??1CImageViewportWnd@@UEAA@XZ 0000000067da4190 f   ImageViewportWnd.obj
 0001:00023270       ?AttachSapView@CImageViewportWnd@@QEAA_NPEAVSapView@@@Z 0000000067da4270 f   ImageViewportWnd.obj
 0001:00023320       ?ViewCallback@CImageViewportWnd@@CAXPEAVSapViewCallbackInfo@@@Z 0000000067da4320 f   ImageViewportWnd.obj
 0001:00023380       ?AttachEventHandler@CImageViewportWnd@@QEAAXPEAVCImageViewportWndEventHandler@@@Z 0000000067da4380 f   ImageViewportWnd.obj
 0001:000233b0       ?CenterImage@CImageViewportWnd@@QEAAX_N@Z 0000000067da43b0 f   ImageViewportWnd.obj
 0001:00023420       ?IsImageCentered@CImageViewportWnd@@QEBA_NXZ 0000000067da4420 f   ImageViewportWnd.obj
 0001:00023440       ?OnEraseBkgnd@CImageViewportWnd@@IEAAHPEAVCDC@@@Z 0000000067da4440 f   ImageViewportWnd.obj
 0001:00023460       ?OnPaint@CImageViewportWnd@@IEAAXXZ 0000000067da4460 f   ImageViewportWnd.obj
 0001:00023770       ?PaintROI@CImageViewportWnd@@AEAAXXZ 0000000067da4770 f   ImageViewportWnd.obj
 0001:00023e90       ?GetMessageMap@CImageViewportWnd@@MEBAPEBUAFX_MSGMAP@@XZ 0000000067da4e90 f   ImageViewportWnd.obj
 0001:00023ec0       ?GetThisMessageMap@CImageViewportWnd@@KAPEBUAFX_MSGMAP@@XZ 0000000067da4ec0 f   ImageViewportWnd.obj
 0001:00023ee0       ?PreSubclassWindow@CImageViewportWnd@@MEAAXXZ 0000000067da4ee0 f   ImageViewportWnd.obj
 0001:00023fe0       ?PreTranslateMessage@CImageViewportWnd@@MEAAHPEAUtagMSG@@@Z 0000000067da4fe0 f   ImageViewportWnd.obj
 0001:00024050       ?OnSize@CImageViewportWnd@@IEAAXIHH@Z 0000000067da5050 f   ImageViewportWnd.obj
 0001:00024100       ?OnLButtonDown@CImageViewportWnd@@IEAAXIVCPoint@@@Z 0000000067da5100 f   ImageViewportWnd.obj
 0001:000243d0       ?OnLButtonUp@CImageViewportWnd@@IEAAXIVCPoint@@@Z 0000000067da53d0 f   ImageViewportWnd.obj
 0001:000244b0       ?OnLButtonDblClk@CImageViewportWnd@@IEAAXIVCPoint@@@Z 0000000067da54b0 f   ImageViewportWnd.obj
 0001:000247f0       ?OnKeyDown@CImageViewportWnd@@IEAAXIII@Z 0000000067da57f0 f   ImageViewportWnd.obj
 0001:000249e0       ?OnKeyUp@CImageViewportWnd@@IEAAXIII@Z 0000000067da59e0 f   ImageViewportWnd.obj
 0001:00024a60       ?OnSysKeyDown@CImageViewportWnd@@IEAAXIII@Z 0000000067da5a60 f   ImageViewportWnd.obj
 0001:00024b70       ?OnMouseMove@CImageViewportWnd@@IEAAXIVCPoint@@@Z 0000000067da5b70 f   ImageViewportWnd.obj
 0001:00024dc0       ?OnMouseLeave@CImageViewportWnd@@IEAA_J_K_J@Z 0000000067da5dc0 f   ImageViewportWnd.obj
 0001:00024e50       ?OnMouseWheel@CImageViewportWnd@@IEAAHIFVCPoint@@@Z 0000000067da5e50 f   ImageViewportWnd.obj
 0001:00025050       ?OnSetCursor@CImageViewportWnd@@IEAAHPEAVCWnd@@II@Z 0000000067da6050 f   ImageViewportWnd.obj
 0001:000253b0       ?NotifyPixelChanged@CImageViewportWnd@@AEAAXHH@Z 0000000067da63b0 f   ImageViewportWnd.obj
 0001:00025420       ?NotifyScaleChanged@CImageViewportWnd@@AEAAXXZ 0000000067da6420 f   ImageViewportWnd.obj
 0001:00025480       ?NotifyRoiChanged@CImageViewportWnd@@AEAAXXZ 0000000067da6480 f   ImageViewportWnd.obj
 0001:000254e0       ?NotifyViewChanged@CImageViewportWnd@@AEAAXXZ 0000000067da64e0 f   ImageViewportWnd.obj
 0001:00025540       ?UpdateScales@CImageViewportWnd@@AEAAXMM@Z 0000000067da6540 f   ImageViewportWnd.obj
 0001:00025d00       ?MoveInView@CImageViewportWnd@@AEAAXVCPoint@@@Z 0000000067da6d00 f   ImageViewportWnd.obj
 0001:00026120       ?MoveRoi@CImageViewportWnd@@AEAAXVCPoint@@@Z 0000000067da7120 f   ImageViewportWnd.obj
 0001:00026330       ?MoveRoiAnchor@CImageViewportWnd@@AEAAXVCPoint@@@Z 0000000067da7330 f   ImageViewportWnd.obj
 0001:000264f0       ?TranslatePointToNativeView@CImageViewportWnd@@AEBA?AVCPoint@@V2@@Z 0000000067da74f0 f   ImageViewportWnd.obj
 0001:00026790       ?TranslatePointToDestinationView@CImageViewportWnd@@AEBA?AVCPoint@@V2@@Z 0000000067da7790 f   ImageViewportWnd.obj
 0001:00026920       ?GetDstRectFromCurrentScalingOptions@CImageViewportWnd@@AEBA?AVCRect@@XZ 0000000067da7920 f   ImageViewportWnd.obj
 0001:00026aa0       ?ChangeZoom@CImageViewportWnd@@AEAAX_N0VCPoint@@00@Z 0000000067da7aa0 f   ImageViewportWnd.obj
 0001:00026cc0       ?SupportROI@CImageViewportWnd@@QEAAX_N@Z 0000000067da7cc0 f   ImageViewportWnd.obj
 0001:00026cf0       ?ActivateROI@CImageViewportWnd@@QEAAX_N@Z 0000000067da7cf0 f   ImageViewportWnd.obj
 0001:00026d60       ?SetROI@CImageViewportWnd@@QEAAXHHII@Z 0000000067da7d60 f   ImageViewportWnd.obj
 0001:00026e30       ?SetROI@CImageViewportWnd@@QEAAXVCPoint@@0@Z 0000000067da7e30 f   ImageViewportWnd.obj
 0001:00026ea0       ?SetROI@CImageViewportWnd@@QEAAXVCRect@@@Z 0000000067da7ea0 f   ImageViewportWnd.obj
 0001:00026f10       ?IsRoiSupported@CImageViewportWnd@@QEBA_NXZ 0000000067da7f10 f   ImageViewportWnd.obj
 0001:00026f30       ?IsRoiActive@CImageViewportWnd@@QEBA_NXZ 0000000067da7f30 f   ImageViewportWnd.obj
 0001:00026f90       ?GetROI@CImageViewportWnd@@QEBAXAEAI000@Z 0000000067da7f90 f   ImageViewportWnd.obj
 0001:00027030       ?GetROI@CImageViewportWnd@@QEBAXAEAVCPoint@@0@Z 0000000067da8030 f   ImageViewportWnd.obj
 0001:000270a0       ?GetROI@CImageViewportWnd@@QEBAXAEAVCRect@@@Z 0000000067da80a0 f   ImageViewportWnd.obj
 0001:00027100       ?ValidateRoi@CImageViewportWnd@@AEAAXXZ 0000000067da8100 f   ImageViewportWnd.obj
 0001:000272c0       ?MoveMouseCursor@CImageViewportWnd@@AEBAXHH@Z 0000000067da82c0 f   ImageViewportWnd.obj
 0001:000273e0       ?SetPixelStringFormatDecimal@CImageViewportWnd@@QEAAX_N@Z 0000000067da83e0 f   ImageViewportWnd.obj
 0001:00027410       ?IsPixelStringFormatDecimal@CImageViewportWnd@@QEBA_NXZ 0000000067da8410 f   ImageViewportWnd.obj
 0001:00027430       ?GetPixelString@CImageViewportWnd@@QEBA?AV?$CStringT@DV?$StrTraitMFC_DLL@DV?$ChTraitsCRT@D@ATL@@@@@ATL@@VCPoint@@@Z 0000000067da8430 f   ImageViewportWnd.obj
 0001:00027590       ?Refresh@CImageViewportWnd@@QEAAXXZ 0000000067da8590 f   ImageViewportWnd.obj
 0001:00027680       ?Reset@CImageViewportWnd@@QEAAXXZ 0000000067da8680 f   ImageViewportWnd.obj
 0001:000277c0       ??0SImageViewportROI@@QEAA@XZ 0000000067da87c0 f i ImageViewportWnd.obj
 0001:00027870       ??1SImageViewportROI@@QEAA@XZ 0000000067da8870 f i ImageViewportWnd.obj
 0001:000278f0       ??_H@YAXPEAX_KHP6APEAX0@Z@Z 0000000067da88f0 f i ImageViewportWnd.obj
 0001:00027960       ??_GCImageViewportWnd@@UEAAPEAXI@Z 0000000067da8960 f i ImageViewportWnd.obj
 0001:000279b0       ??_ECImageViewportWnd@@UEAAPEAXI@Z 0000000067da89b0 f i ImageViewportWnd.obj
 0001:00027a50       ??0CImageWnd@@QEAA@PEAVSapView@@PEAVCWnd@@PEAVCScrollBar@@21@Z 0000000067da8a50 f   ImageWnd.obj
 0001:00027c50       ??0CImageWnd@@QEAA@PEAVSapView@@PEAVCWnd@@@Z 0000000067da8c50 f   ImageWnd.obj
 0001:00027df0       ??1CImageWnd@@UEAA@XZ      0000000067da8df0 f   ImageWnd.obj
 0001:00027e40       ?GetScrollPos@CImageWnd@@IEAAHH@Z 0000000067da8e40 f   ImageWnd.obj
 0001:00027ef0       ?GetScrollRange@CImageWnd@@IEAAXHPEAH0@Z 0000000067da8ef0 f   ImageWnd.obj
 0001:00027fc0       ?GetScrollInfo@CImageWnd@@IEAAHHPEAUtagSCROLLINFO@@@Z 0000000067da8fc0 f   ImageWnd.obj
 0001:000280b0       ?SetScrollPos@CImageWnd@@IEAAHHHH@Z 0000000067da90b0 f   ImageWnd.obj
 0001:000281a0       ?SetScrollInfo@CImageWnd@@IEAAHHPEAUtagSCROLLINFO@@H@Z 0000000067da91a0 f   ImageWnd.obj
 0001:000282a0       ?IsPointInside@CImageWnd@@QEAAHVCPoint@@@Z 0000000067da92a0 f   ImageWnd.obj
 0001:000282f0       ?TranslateMousePos@CImageWnd@@QEAA?AVCPoint@@V2@@Z 0000000067da92f0 f   ImageWnd.obj
 0001:000283c0       ?TranslatePos@CImageWnd@@QEAA?AVCPoint@@V2@@Z 0000000067da93c0 f   ImageWnd.obj
 0001:00028600       ?UntranslatePos@CImageWnd@@QEAA?AVCPoint@@V2@@Z 0000000067da9600 f   ImageWnd.obj
 0001:00028820       ?UpdateClientArea@CImageWnd@@QEAAXK@Z 0000000067da9820 f   ImageWnd.obj
 0001:00028a00       ?UpdateClientArea@CImageWnd@@QEAAXXZ 0000000067da9a00 f   ImageWnd.obj
 0001:00028a90       ?OnMove@CImageWnd@@QEAAXXZ 0000000067da9a90 f   ImageWnd.obj
 0001:00028b10       ?OnPaint@CImageWnd@@QEAAXXZ 0000000067da9b10 f   ImageWnd.obj
 0001:00028b90       ?OnSize@CImageWnd@@QEAAXH@Z 0000000067da9b90 f   ImageWnd.obj
 0001:00029250       ?Invalidate@CImageWnd@@QEAAXH@Z 0000000067daa250 f   ImageWnd.obj
 0001:000292c0       ?UpdateScrollBars@CImageWnd@@IEAAXXZ 0000000067daa2c0 f   ImageWnd.obj
 0001:00029730       ?OnHScroll@CImageWnd@@QEAAXII@Z 0000000067daa730 f   ImageWnd.obj
 0001:00029910       ?OnVScroll@CImageWnd@@QEAAXII@Z 0000000067daa910 f   ImageWnd.obj
 0001:00029af0       ?DisplayRoiTracker@CImageWnd@@QEAAXXZ 0000000067daaaf0 f   ImageWnd.obj
 0001:00029cb0       ?HideRoiTracker@CImageWnd@@QEAAXXZ 0000000067daacb0 f   ImageWnd.obj
 0001:00029db0       ?UpdateRectTracker@CImageWnd@@IEAAXXZ 0000000067daadb0 f   ImageWnd.obj
 0001:00029e60       ?ValidateRoi@CImageWnd@@IEAA?AVCRect@@V2@@Z 0000000067daae60 f   ImageWnd.obj
 0001:0002a000       ?GetSelectedRoi@CImageWnd@@QEAA?AVCRect@@XZ 0000000067dab000 f   ImageWnd.obj
 0001:0002a070       ?SelectRoi@CImageWnd@@QEAAXVCRect@@@Z 0000000067dab070 f   ImageWnd.obj
 0001:0002a140       ?OnLButtonDown@CImageWnd@@QEAAHVCPoint@@@Z 0000000067dab140 f   ImageWnd.obj
 0001:0002a390       ?OnSetCursor@CImageWnd@@QEAAHI@Z 0000000067dab390 f   ImageWnd.obj
 0001:0002a500       ?SetPixelStringFormatDecimal@CImageWnd@@QEAAXH@Z 0000000067dab500 f   ImageWnd.obj
 0001:0002a530       ?GetPixelString@CImageWnd@@SA?AV?$CStringT@DV?$StrTraitMFC_DLL@DV?$ChTraitsCRT@D@ATL@@@@@ATL@@PEAVSapBuffer@@VCPoint@@HH@Z 0000000067dab530 f   ImageWnd.obj
 0001:0002b570       ?GetPixelString@CImageWnd@@QEAA?AV?$CStringT@DV?$StrTraitMFC_DLL@DV?$ChTraitsCRT@D@ATL@@@@@ATL@@VCPoint@@@Z 0000000067dac570 f   ImageWnd.obj
 0001:0002b6f0       ?AdjustRect@CSapRectTracker@@UEAAXHPEAUtagRECT@@@Z 0000000067dac6f0 f   ImageWnd.obj
 0001:0002b800       ?SetLimitRect@CSapRectTracker@@QEAAXPEAVCRect@@@Z 0000000067dac800 f   ImageWnd.obj
 0001:0002b850       ??0CSapRectTracker@@QEAA@XZ 0000000067dac850 f i ImageWnd.obj
 0001:0002b8b0       ??_ECImageWnd@@UEAAPEAXI@Z 0000000067dac8b0 f i ImageWnd.obj
 0001:0002b950       ??1CSapRectTracker@@UEAA@XZ 0000000067dac950 f i ImageWnd.obj
 0001:0002b980       ??_ECSapRectTracker@@UEAAPEAXI@Z 0000000067dac980 f i ImageWnd.obj
 0001:0002b980       ??_GCSapRectTracker@@UEAAPEAXI@Z 0000000067dac980 f i ImageWnd.obj
 0001:0002b9d0       ??0CJpegFileDlg@@QEAA@PEAVCWnd@@H@Z 0000000067dac9d0 f   JpegFileDlg.obj
 0001:0002ba90       ?OnFinalRelease@CJpegFileDlg@@UEAAXXZ 0000000067daca90 f   JpegFileDlg.obj
 0001:0002bad0       ?DoDataExchange@CJpegFileDlg@@MEAAXPEAVCDataExchange@@@Z 0000000067dacad0 f   JpegFileDlg.obj
 0001:0002bb50       ?GetMessageMap@CJpegFileDlg@@MEBAPEBUAFX_MSGMAP@@XZ 0000000067dacb50 f   JpegFileDlg.obj
 0001:0002bb80       ?GetThisMessageMap@CJpegFileDlg@@KAPEBUAFX_MSGMAP@@XZ 0000000067dacb80 f   JpegFileDlg.obj
 0001:0002bba0       ?GetThisDispatchMap@CJpegFileDlg@@KAPEBUAFX_DISPMAP@@XZ 0000000067dacba0 f   JpegFileDlg.obj
 0001:0002bbc0       ?GetDispatchMap@CJpegFileDlg@@MEBAPEBUAFX_DISPMAP@@XZ 0000000067dacbc0 f   JpegFileDlg.obj
 0001:0002bbe0       ?GetThisInterfaceMap@CJpegFileDlg@@KAPEBUAFX_INTERFACEMAP@@XZ 0000000067dacbe0 f   JpegFileDlg.obj
 0001:0002bc00       ?GetInterfaceMap@CJpegFileDlg@@MEBAPEBUAFX_INTERFACEMAP@@XZ 0000000067dacc00 f   JpegFileDlg.obj
 0001:0002bc20       ?OnVScroll@CJpegFileDlg@@IEAAXIIPEAVCScrollBar@@@Z 0000000067dacc20 f   JpegFileDlg.obj
 0001:0002bd20       ?OnOK@CJpegFileDlg@@MEAAXXZ 0000000067dacd20 f   JpegFileDlg.obj
 0001:0002bd90       ?OnUpdateJpgEditQuality@CJpegFileDlg@@IEAAXXZ 0000000067dacd90 f   JpegFileDlg.obj
 0001:0002bdd0       ??_GCJpegFileDlg@@UEAAPEAXI@Z 0000000067dacdd0 f i JpegFileDlg.obj
 0001:0002bdd0       ??_ECJpegFileDlg@@UEAAPEAXI@Z 0000000067dacdd0 f i JpegFileDlg.obj
 0001:0002be20       ??1CJpegFileDlg@@UEAA@XZ   0000000067dace20 f i JpegFileDlg.obj
 0001:0002be50       ?_GetBaseClass@CLoadSaveDlg@@KAPEAUCRuntimeClass@@XZ 0000000067dace50 f   LoadSaveDlg.obj
 0001:0002be80       ?GetThisClass@CLoadSaveDlg@@SAPEAUCRuntimeClass@@XZ 0000000067dace80 f   LoadSaveDlg.obj
 0001:0002bea0       ?GetRuntimeClass@CLoadSaveDlg@@UEBAPEAUCRuntimeClass@@XZ 0000000067dacea0 f   LoadSaveDlg.obj
 0001:0002bec0       ??0CLoadSaveDlg@@QEAA@PEAVCWnd@@PEAVSapBuffer@@HH@Z 0000000067dacec0 f   LoadSaveDlg.obj
 0001:0002c070       ?UpdateBuffer@CLoadSaveDlg@@IEAAHXZ 0000000067dad070 f   LoadSaveDlg.obj
 0001:0002c590       ?DoModal@CLoadSaveDlg@@UEAA_JXZ 0000000067dad590 f   LoadSaveDlg.obj
 0001:0002c690       ?LoadSettings@CLoadSaveDlg@@IEAAXXZ 0000000067dad690 f   LoadSaveDlg.obj
 0001:0002c780       ?SaveSettings@CLoadSaveDlg@@IEAAXXZ 0000000067dad780 f   LoadSaveDlg.obj
 0001:0002c880       ?SetOptions@CLoadSaveDlg@@IEAAHXZ 0000000067dad880 f   LoadSaveDlg.obj
 0001:0002ca70       ?AddTiffOptions@CLoadSaveDlg@@IEAAHXZ 0000000067dada70 f   LoadSaveDlg.obj
 0001:0002cc00       ?AddRawOptions@CLoadSaveDlg@@IEAAHXZ 0000000067dadc00 f   LoadSaveDlg.obj
 0001:0002ce90       ?AddJpegOptions@CLoadSaveDlg@@IEAAHXZ 0000000067dade90 f   LoadSaveDlg.obj
 0001:0002cfb0       ?AddAviOptions@CLoadSaveDlg@@IEAAHXZ 0000000067dadfb0 f   LoadSaveDlg.obj
 0001:0002d0a0       ?SetFilterIndex@CLoadSaveDlg@@IEAAXXZ 0000000067dae0a0 f   LoadSaveDlg.obj
 0001:0002d1a0       ?OnTypeChange@CLoadSaveDlg@@MEAAXXZ 0000000067dae1a0 f   LoadSaveDlg.obj
 0001:0002d270       ?GetMessageMap@CLoadSaveDlg@@MEBAPEBUAFX_MSGMAP@@XZ 0000000067dae270 f   LoadSaveDlg.obj
 0001:0002d2a0       ?GetThisMessageMap@CLoadSaveDlg@@KAPEBUAFX_MSGMAP@@XZ 0000000067dae2a0 f   LoadSaveDlg.obj
 0001:0002d420       ?GetCompressionLevel@CTiffFileDlg@@QEAAHXZ 0000000067dae420 f i LoadSaveDlg.obj
 0001:0002d440       ?GetCompressionType@CTiffFileDlg@@QEAAHXZ 0000000067dae440 f i LoadSaveDlg.obj
 0001:0002d460       ??1CTiffFileDlg@@UEAA@XZ   0000000067dae460 f i LoadSaveDlg.obj
 0001:0002d490       ?GetRawFileWidth@CRawFileDlg@@QEAAHXZ 0000000067dae490 f i LoadSaveDlg.obj
 0001:0002d4b0       ?GetRawFileHeight@CRawFileDlg@@QEAAHXZ 0000000067dae4b0 f i LoadSaveDlg.obj
 0001:0002d4d0       ?GetRawFileOffset@CRawFileDlg@@QEAAHXZ 0000000067dae4d0 f i LoadSaveDlg.obj
 0001:0002d4f0       ?GetRawFileFormat@CRawFileDlg@@QEAAHXZ 0000000067dae4f0 f i LoadSaveDlg.obj
 0001:0002d510       ??1CRawFileDlg@@UEAA@XZ    0000000067dae510 f i LoadSaveDlg.obj
 0001:0002d560       ?GetJpegFileQuality@CJpegFileDlg@@QEAAHXZ 0000000067dae560 f i LoadSaveDlg.obj
 0001:0002d580       ?GetFirstFrame@CAviFileDlg@@QEAAHXZ 0000000067dae580 f i LoadSaveDlg.obj
 0001:0002d5a0       ??_GCLoadSaveDlg@@UEAAPEAXI@Z 0000000067dae5a0 f i LoadSaveDlg.obj
 0001:0002d5f0       ??_ECLoadSaveDlg@@UEAAPEAXI@Z 0000000067dae5f0 f i LoadSaveDlg.obj
 0001:0002d690       ??0CLScanDlg@@QEAA@PEAVCWnd@@PEAVSapAcquisition@@@Z 0000000067dae690 f   LScanDlg.obj
 0001:0002d7e0       ?DoDataExchange@CLScanDlg@@MEAAXPEAVCDataExchange@@@Z 0000000067dae7e0 f   LScanDlg.obj
 0001:0002d940       ?GetMessageMap@CLScanDlg@@MEBAPEBUAFX_MSGMAP@@XZ 0000000067dae940 f   LScanDlg.obj
 0001:0002d970       ?GetThisMessageMap@CLScanDlg@@KAPEBUAFX_MSGMAP@@XZ 0000000067dae970 f   LScanDlg.obj
 0001:0002d990       ?OnOK@CLScanDlg@@MEAAXXZ   0000000067dae990 f   LScanDlg.obj
 0001:0002e350       ?OnInitDialog@CLScanDlg@@MEAAHXZ 0000000067daf350 f   LScanDlg.obj
 0001:0002f5c0       ?UpdateWindow@CLScanDlg@@IEAAXXZ 0000000067db05c0 f   LScanDlg.obj
 0001:0002fab0       ?OnKillfocusEditLineIntegration@CLScanDlg@@IEAAXXZ 0000000067db0ab0 f   LScanDlg.obj
 0001:0002fb00       ?OnExternalFrameTriggerEnable@CLScanDlg@@IEAAXXZ 0000000067db0b00 f   LScanDlg.obj
 0001:0002fbd0       ?OnExternalLineTriggerEnable@CLScanDlg@@IEAAXXZ 0000000067db0bd0 f   LScanDlg.obj
 0001:0002fcc0       ?OnLineIntegrate@CLScanDlg@@IEAAXXZ 0000000067db0cc0 f   LScanDlg.obj
 0001:0002fd00       ?OnVScroll@CLScanDlg@@IEAAXIIPEAVCScrollBar@@@Z 0000000067db0d00 f   LScanDlg.obj
 0001:0002fe90       ?VerifyLineIntegrateDuration@CLScanDlg@@IEAAXXZ 0000000067db0e90 f   LScanDlg.obj
 0001:00030050       ?OnInternalLineTriggerEnable@CLScanDlg@@IEAAXXZ 0000000067db1050 f   LScanDlg.obj
 0001:00030100       ?OnLineIntegrateEnable@CLScanDlg@@IEAAXXZ 0000000067db1100 f   LScanDlg.obj
 0001:00030190       ?OnShaftEncoderEnable@CLScanDlg@@IEAAXXZ 0000000067db1190 f   LScanDlg.obj
 0001:00030390       ??_ECLScanDlg@@WBBI@EAAPEAXI@Z 0000000067db1390 f i LScanDlg.obj
 0001:000303a0       ??_GCLScanDlg@@UEAAPEAXI@Z 0000000067db13a0 f i LScanDlg.obj
 0001:000303f0       ??1CLScanDlg@@UEAA@XZ      0000000067db13f0 f i LScanDlg.obj
 0001:00030470       ??_ECLScanDlg@@UEAAPEAXI@Z 0000000067db1470 f i LScanDlg.obj
 0001:00030510       ??0CRawFileDlg@@QEAA@PEAVCWnd@@HHHH@Z 0000000067db1510 f   RawFileDlg.obj
 0001:00030670       ?DoDataExchange@CRawFileDlg@@MEAAXPEAVCDataExchange@@@Z 0000000067db1670 f   RawFileDlg.obj
 0001:00030730       ?GetMessageMap@CRawFileDlg@@MEBAPEBUAFX_MSGMAP@@XZ 0000000067db1730 f   RawFileDlg.obj
 0001:00030760       ?GetThisMessageMap@CRawFileDlg@@KAPEBUAFX_MSGMAP@@XZ 0000000067db1760 f   RawFileDlg.obj
 0001:00030780       ?OnOK@CRawFileDlg@@MEAAXXZ 0000000067db1780 f   RawFileDlg.obj
 0001:000308e0       ?OnInitDialog@CRawFileDlg@@MEAAHXZ 0000000067db18e0 f   RawFileDlg.obj
 0001:00030a60       ?OnSelchangeComboFormat@CRawFileDlg@@IEAAXXZ 0000000067db1a60 f   RawFileDlg.obj
 0001:00030ad0       ??_GCRawFileDlg@@UEAAPEAXI@Z 0000000067db1ad0 f i RawFileDlg.obj
 0001:00030ad0       ??_ECRawFileDlg@@UEAAPEAXI@Z 0000000067db1ad0 f i RawFileDlg.obj
 0001:00030b20       ExtRawDllMain              0000000067db1b20 f   SapClassGui.obj
 0001:00030bc0       ?SapClassGuiInitModule@@YAXXZ 0000000067db1bc0 f   SapClassGui.obj
 0001:00030c40       DllMain                    0000000067db1c40 f   SapClassGui.obj
 0001:00030d60       ??B?$CTypedSimpleList@PEAUCRuntimeClass@@@@QEAAPEAUCRuntimeClass@@XZ 0000000067db1d60 f i SapClassGui.obj
 0001:00030d90       ??B?$CTypedSimpleList@PEAVCOleObjectFactory@@@@QEAAPEAVCOleObjectFactory@@XZ 0000000067db1d90 f i SapClassGui.obj
 0001:00030dc0       ??0CTraceFileAndLineInfo@ATL@@QEAA@PEBDH@Z 0000000067db1dc0 f i SapClassGui.obj
 0001:00030df0       ??RCTraceFileAndLineInfo@ATL@@QEBAXPEBDZZ 0000000067db1df0 f i SapClassGui.obj
 0001:00030e90       ?TraceV@CTrace@ATL@@QEBAXPEBDH_KI0PEAD@Z 0000000067db1e90 f i SapClassGui.obj
 0001:00030f00       ??BCTraceCategory@ATL@@QEBA_KXZ 0000000067db1f00 f i SapClassGui.obj
 0001:00030f10       ?GetHead@CSimpleList@@QEBAPEAXXZ 0000000067db1f10 f i SapClassGui.obj
 0001:00030f20       ?_AfxInitManaged@@YAHXZ    0000000067db1f20 f i SapClassGui.obj
 0001:00030f30       ??0CImageWnd@@QEAA@AEBV0@@Z 0000000067db1f30 f i SapClassGui.obj
 0001:00031090       ??4CImageWnd@@QEAAAEAV0@AEBV0@@Z 0000000067db2090 f i SapClassGui.obj
 0001:000311e0       ??_GCImageWnd@@UEAAPEAXI@Z 0000000067db21e0 f i SapClassGui.obj
 0001:00031230       ??0CSapRectTracker@@QEAA@AEBV0@@Z 0000000067db2230 f i SapClassGui.obj
 0001:000312b0       ??4CSapRectTracker@@QEAAAEAV0@AEBV0@@Z 0000000067db22b0 f i SapClassGui.obj
 0001:00031320       ??0CRectTracker@@QEAA@AEBV0@@Z 0000000067db2320 f i SapClassGui.obj
 0001:00031440       ??4CRectTracker@@QEAAAEAV0@AEBV0@@Z 0000000067db2440 f i SapClassGui.obj
 0001:00031550       ??_GCRectTracker@@UEAAPEAXI@Z 0000000067db2550 f i SapClassGui.obj
 0001:00031550       ??_ECRectTracker@@UEAAPEAXI@Z 0000000067db2550 f i SapClassGui.obj
 0001:000315a0       ??0CImageViewportWndEventHandler@@QEAA@AEBV0@@Z 0000000067db25a0 f i SapClassGui.obj
 0001:000315d0       ??4CImageViewportWndEventHandler@@QEAAAEAV0@AEBV0@@Z 0000000067db25d0 f i SapClassGui.obj
 0001:000315f0       ?MarkerChanged@CImageExWndEventHandler@@UEAAXXZ 0000000067db25f0 f i SapClassGui.obj
 0001:00031600       ?InteractiveMarkerChanged@CImageExWndEventHandler@@UEAAXH@Z 0000000067db2600 f i SapClassGui.obj
 0001:00031610       ??0CImageExWndEventHandler@@QEAA@XZ 0000000067db2610 f i SapClassGui.obj
 0001:00031660       ??0CImageExWndEventHandler@@QEAA@AEBV0@@Z 0000000067db2660 f i SapClassGui.obj
 0001:000316b0       ??4CImageExWndEventHandler@@QEAAAEAV0@AEBV0@@Z 0000000067db26b0 f i SapClassGui.obj
 0001:000316f0       ?GetBuffer@CBufDlg@@QEAAAEAVSapBuffer@@XZ 0000000067db26f0 f i SapClassGui.obj
 0001:00031710       ?GetServerCategory@CAcqConfigDlg@@QEAA?AW4ServerCategory@1@XZ 0000000067db2710 f i SapClassGui.obj
 0001:00031730       ?SetCameraLinkServerFlag@CAcqConfigDlg@@QEAAX_N@Z 0000000067db2730 f i SapClassGui.obj
 0001:00031750       ?GetAcquisition@CAcqConfigDlg@@QEAAAEAVSapAcquisition@@XZ 0000000067db2750 f i SapClassGui.obj
 0001:00031770       ??1CViewDlg@@UEAA@XZ       0000000067db2770 f i SapClassGui.obj
 0001:00031810       ??_FCViewDlg@@QEAAXXZ      0000000067db2810 f i SapClassGui.obj
 0001:00031850       ?GetType@CLoadSaveDlg@@QEAAHXZ 0000000067db2850 f i SapClassGui.obj
 0001:00031870       ?GetOptions@CLoadSaveDlg@@QEAA?AV?$CStringT@DV?$StrTraitMFC_DLL@DV?$ChTraitsCRT@D@ATL@@@@@ATL@@XZ 0000000067db2870 f i SapClassGui.obj
 0001:000318d0       ?GetStartFrame@CLoadSaveDlg@@QEAAHXZ 0000000067db28d0 f i SapClassGui.obj
 0001:000318f0       ?GetRawFileWidth@CLoadSaveDlg@@QEAAHXZ 0000000067db28f0 f i SapClassGui.obj
 0001:00031910       ?GetRawFileHeight@CLoadSaveDlg@@QEAAHXZ 0000000067db2910 f i SapClassGui.obj
 0001:00031930       ?GetRawFileOffset@CLoadSaveDlg@@QEAAHXZ 0000000067db2930 f i SapClassGui.obj
 0001:00031950       ?GetRawFileFormat@CLoadSaveDlg@@QEAAHXZ 0000000067db2950 f i SapClassGui.obj
 0001:00031970       ??0Thank_you@Define_the_symbol__ATL_MIXED@@QEAA@XZ 0000000067db2970 f i SapClassGui.obj
 0001:00031990       ?one@Thank_you@Define_the_symbol__ATL_MIXED@@UEAAXXZ 0000000067db2990 f i SapClassGui.obj
 0001:000319a0       ??0CTiffFileDlg@@QEAA@PEAVCWnd@@HH@Z 0000000067db29a0 f   TiffFileDlg.obj
 0001:00031aa0       ?DoDataExchange@CTiffFileDlg@@MEAAXPEAVCDataExchange@@@Z 0000000067db2aa0 f   TiffFileDlg.obj
 0001:00031b40       ?GetMessageMap@CTiffFileDlg@@MEBAPEBUAFX_MSGMAP@@XZ 0000000067db2b40 f   TiffFileDlg.obj
 0001:00031b70       ?GetThisMessageMap@CTiffFileDlg@@KAPEBUAFX_MSGMAP@@XZ 0000000067db2b70 f   TiffFileDlg.obj
 0001:00031b90       ?OnVScroll@CTiffFileDlg@@IEAAXIIPEAVCScrollBar@@@Z 0000000067db2b90 f   TiffFileDlg.obj
 0001:00031c70       ?OnUpdateTiffEditCompressionLevel@CTiffFileDlg@@IEAAXXZ 0000000067db2c70 f   TiffFileDlg.obj
 0001:00031cb0       ?OnOK@CTiffFileDlg@@MEAAXXZ 0000000067db2cb0 f   TiffFileDlg.obj
 0001:00031d60       ??_ECTiffFileDlg@@UEAAPEAXI@Z 0000000067db2d60 f i TiffFileDlg.obj
 0001:00031d60       ??_GCTiffFileDlg@@UEAAPEAXI@Z 0000000067db2d60 f i TiffFileDlg.obj
 0001:00031db0       ?DoDataExchange@CViewDlg@@MEAAXPEAVCDataExchange@@@Z 0000000067db2db0 f   ViewDlg.obj
 0001:00031ff0       ?GetMessageMap@CViewDlg@@MEBAPEBUAFX_MSGMAP@@XZ 0000000067db2ff0 f   ViewDlg.obj
 0001:00032020       ?GetThisMessageMap@CViewDlg@@KAPEBUAFX_MSGMAP@@XZ 0000000067db3020 f   ViewDlg.obj
 0001:00032040       ??0CViewDlg@@QEAA@PEAVCWnd@@PEAVSapView@@@Z 0000000067db3040 f   ViewDlg.obj
 0001:000323b0       ?OnInitDialog@CViewDlg@@MEAAHXZ 0000000067db33b0 f   ViewDlg.obj
 0001:000327c0       ?LoadSettings@CViewDlg@@IEAAXXZ 0000000067db37c0 f   ViewDlg.obj
 0001:00032830       ?SaveSettings@CViewDlg@@IEAAXXZ 0000000067db3830 f   ViewDlg.obj
 0001:000328a0       ?OnUpdateEditViewRange@CViewDlg@@IEAAXXZ 0000000067db38a0 f   ViewDlg.obj
 0001:00032950       ?OnHScroll@CViewDlg@@IEAAXIIPEAVCScrollBar@@@Z 0000000067db3950 f   ViewDlg.obj
 0001:00032a80       ?SetRange@CViewDlg@@IEAAXXZ 0000000067db3a80 f   ViewDlg.obj
 0001:00032b10       ?OnUpdateScaleHeight@CViewDlg@@IEAAXXZ 0000000067db3b10 f   ViewDlg.obj
 0001:00032c40       ?OnUpdateScaleHeightFactor@CViewDlg@@IEAAXXZ 0000000067db3c40 f   ViewDlg.obj
 0001:00032d70       ?OnUpdateScaleWidth@CViewDlg@@IEAAXXZ 0000000067db3d70 f   ViewDlg.obj
 0001:00032ea0       ?OnUpdateScaleWidthFactor@CViewDlg@@IEAAXXZ 0000000067db3ea0 f   ViewDlg.obj
 0001:00032fd0       ?OnDeltaposSpinScaleHeight@CViewDlg@@IEAAXPEAUtagNMHDR@@PEA_J@Z 0000000067db3fd0 f   ViewDlg.obj
 0001:00033170       ?OnDeltaposSpinScaleHeightFactor@CViewDlg@@IEAAXPEAUtagNMHDR@@PEA_J@Z 0000000067db4170 f   ViewDlg.obj
 0001:00033340       ?OnDeltaposSpinScaleWidth@CViewDlg@@IEAAXPEAUtagNMHDR@@PEA_J@Z 0000000067db4340 f   ViewDlg.obj
 0001:000334e0       ?OnDeltaposSpinScaleWidthFactor@CViewDlg@@IEAAXPEAUtagNMHDR@@PEA_J@Z 0000000067db44e0 f   ViewDlg.obj
 0001:000336b0       ?OnLockAspectRatio@CViewDlg@@IEAAXXZ 0000000067db46b0 f   ViewDlg.obj
 0001:00033780       ?OnScalingNone@CViewDlg@@IEAAXXZ 0000000067db4780 f   ViewDlg.obj
 0001:00033890       ?OnScalingFitToWindow@CViewDlg@@IEAAXXZ 0000000067db4890 f   ViewDlg.obj
 0001:00033be0       ?OnSelchangeViewFormat@CViewDlg@@IEAAXXZ 0000000067db4be0 f   ViewDlg.obj
 0001:00033c60       ?OnOK@CViewDlg@@MEAAXXZ    0000000067db4c60 f   ViewDlg.obj
 0001:00033d00       ?OnCancel@CViewDlg@@MEAAXXZ 0000000067db4d00 f   ViewDlg.obj
 0001:00033d50       ?floor@@YAMM@Z             0000000067db4d50 f i ViewDlg.obj
 0001:00033d80       ??_GCViewDlg@@UEAAPEAXI@Z  0000000067db4d80 f i ViewDlg.obj
 0001:00033dd0       ??_ECViewDlg@@UEAAPEAXI@Z  0000000067db4dd0 f i ViewDlg.obj
 0001:00033e6e       CorAcqGetCap               0000000067db4e6e f   Corapi:CorApi.dll
 0001:00033e74       ??1SapAcquisition@@UEAA@XZ 0000000067db4e74 f   SapClassBasic:SapClassBasic82.dll
 0001:00033e7a       ??1SapManager@@UEAA@XZ     0000000067db4e7a f   SapClassBasic:SapClassBasic82.dll
 0001:00033e80       ??0SapAcquisition@@QEAA@VSapLocation@@@Z 0000000067db4e80 f   SapClassBasic:SapClassBasic82.dll
 0001:00033e86       ??0SapLocation@@QEAA@HH@Z  0000000067db4e86 f   SapClassBasic:SapClassBasic82.dll
 0001:00033e8c       ??0SapManager@@QEAA@XZ     0000000067db4e8c f   SapClassBasic:SapClassBasic82.dll
 0001:00033e92       ??1SapLocation@@UEAA@XZ    0000000067db4e92 f   SapClassBasic:SapClassBasic82.dll
 0001:00033e98       ?GetResourceIndex@SapLocation@@QEBAHXZ 0000000067db4e98 f   SapClassBasic:SapClassBasic82.dll
 0001:00033e9e       ?GetServerName@SapManager@@SAHVSapLocation@@PEADH@Z 0000000067db4e9e f   SapClassBasic:SapClassBasic82.dll
 0001:00033ea4       ??0SapLocation@@QEAA@AEBV0@@Z 0000000067db4ea4 f   SapClassBasic:SapClassBasic82.dll
 0001:00033eaa       ?GetConfigFile@SapAcquisition@@QEBAPEBDXZ 0000000067db4eaa f   SapClassBasic:SapClassBasic82.dll
 0001:00033eb0       ?GetLocation@SapXferNode@@QEBA?AVSapLocation@@XZ 0000000067db4eb0 f   SapClassBasic:SapClassBasic82.dll
 0001:00033eb6       ??4SapAcquisition@@QEAAAEAV0@AEBV0@@Z 0000000067db4eb6 f   SapClassBasic:SapClassBasic82.dll
 0001:00033ebc       ??0SapLocation@@QEAA@PEBDH@Z 0000000067db4ebc f   SapClassBasic:SapClassBasic82.dll
 0001:00033ec2       ?SetLocation@SapXferNode@@QEAAHVSapLocation@@@Z 0000000067db4ec2 f   SapClassBasic:SapClassBasic82.dll
 0001:00033ec8       ?GetServerName@SapManager@@SAHHPEADH@Z 0000000067db4ec8 f   SapClassBasic:SapClassBasic82.dll
 0001:00033ece       ?GetResourceCount@SapManager@@SAHHH@Z 0000000067db4ece f   SapClassBasic:SapClassBasic82.dll
 0001:00033ed4       ?GetServerCount@SapManager@@SAHXZ 0000000067db4ed4 f   SapClassBasic:SapClassBasic82.dll
 0001:00033eda       ?IsResourceAvailable@SapManager@@SAHPEBDHH@Z 0000000067db4eda f   SapClassBasic:SapClassBasic82.dll
 0001:00033ee0       ?GetResourceName@SapManager@@SAHPEBDHHPEADH@Z 0000000067db4ee0 f   SapClassBasic:SapClassBasic82.dll
 0001:00033ee6       ?GetResourceCount@SapManager@@SAHPEBDH@Z 0000000067db4ee6 f   SapClassBasic:SapClassBasic82.dll
 0001:00033eec       ?GetServerIndex@SapManager@@SAHPEBD@Z 0000000067db4eec f   SapClassBasic:SapClassBasic82.dll
 0001:00033ef2       ?GetResourceCount@SapManager@@SAHVSapLocation@@H@Z 0000000067db4ef2 f   SapClassBasic:SapClassBasic82.dll
 0001:00033ef8       ?DisplayStatus@SapManager@@SAIPEBDI@Z 0000000067db4ef8 f   SapClassBasic:SapClassBasic82.dll
 0001:00033efe       ??1SapDataFRGB@@UEAA@XZ    0000000067db4efe f   SapClassBasic:SapClassBasic82.dll
 0001:00033f04       ?IsEnabled@SapBayer@@QEBAHXZ 0000000067db4f04 f   SapClassBasic:SapClassBasic82.dll
 0001:00033f0a       ?IsLutEnabled@SapBayer@@QEBAHXZ 0000000067db4f0a f   SapClassBasic:SapClassBasic82.dll
 0001:00033f10       ?GetGamma@SapBayer@@QEBAMXZ 0000000067db4f10 f   SapClassBasic:SapClassBasic82.dll
 0001:00033f16       ?Blue@SapDataFRGB@@QEAAMXZ 0000000067db4f16 f   SapClassBasic:SapClassBasic82.dll
 0001:00033f1c       ?Green@SapDataFRGB@@QEAAMXZ 0000000067db4f1c f   SapClassBasic:SapClassBasic82.dll
 0001:00033f22       ?Red@SapDataFRGB@@QEAAMXZ  0000000067db4f22 f   SapClassBasic:SapClassBasic82.dll
 0001:00033f28       ?GetWBGain@SapBayer@@QEBA?AVSapDataFRGB@@XZ 0000000067db4f28 f   SapClassBasic:SapClassBasic82.dll
 0001:00033f2e       ?GetMethod@SapBayer@@QEBAHXZ 0000000067db4f2e f   SapClassBasic:SapClassBasic82.dll
 0001:00033f34       ?GetAlign@SapBayer@@QEBAHXZ 0000000067db4f34 f   SapClassBasic:SapClassBasic82.dll
 0001:00033f3a       ?GetAvailMethod@SapBayer@@QEBAHXZ 0000000067db4f3a f   SapClassBasic:SapClassBasic82.dll
 0001:00033f40       ?GetAvailAlign@SapBayer@@QEBAHXZ 0000000067db4f40 f   SapClassBasic:SapClassBasic82.dll
 0001:00033f46       ?IsSoftware@SapBayer@@QEBAHXZ 0000000067db4f46 f   SapClassBasic:SapClassBasic82.dll
 0001:00033f4c       ??0SapDataFRGB@@QEAA@MMM@Z 0000000067db4f4c f   SapClassBasic:SapClassBasic82.dll
 0001:00033f52       ??BSapManager@@QEBAHXZ     0000000067db4f52 f   SapClassBasic:SapClassBasic82.dll
 0001:00033f58       ??1SapBuffer@@UEAA@XZ      0000000067db4f58 f   SapClassBasic:SapClassBasic82.dll
 0001:00033f5e       ?IsBufferTypeSupported@SapBuffer@@SAHVSapLocation@@H@Z 0000000067db4f5e f   SapClassBasic:SapClassBasic82.dll
 0001:00033f64       ??4SapLocation@@QEAAAEAV0@AEBV0@@Z 0000000067db4f64 f   SapClassBasic:SapClassBasic82.dll
 0001:00033f6a       ?GetSrcNode@SapXferNode@@QEBAPEAV1@XZ 0000000067db4f6a f   SapClassBasic:SapClassBasic82.dll
 0001:00033f70       ?GetPixelDepth@SapBuffer@@QEBAHXZ 0000000067db4f70 f   SapClassBasic:SapClassBasic82.dll
 0001:00033f76       ?GetType@SapBuffer@@QEBAHXZ 0000000067db4f76 f   SapClassBasic:SapClassBasic82.dll
 0001:00033f7c       ?GetFormat@SapBuffer@@QEBAHXZ 0000000067db4f7c f   SapClassBasic:SapClassBasic82.dll
 0001:00033f82       ?GetHeight@SapBuffer@@QEBAHXZ 0000000067db4f82 f   SapClassBasic:SapClassBasic82.dll
 0001:00033f88       ?GetWidth@SapBuffer@@QEBAHXZ 0000000067db4f88 f   SapClassBasic:SapClassBasic82.dll
 0001:00033f8e       ??0SapLocation@@QEAA@XZ    0000000067db4f8e f   SapClassBasic:SapClassBasic82.dll
 0001:00033f94       ??0SapBuffer@@QEAA@HHHHHVSapLocation@@@Z 0000000067db4f94 f   SapClassBasic:SapClassBasic82.dll
 0001:00033f9a       ?GetPixelDepthMax@SapManager@@SAHH@Z 0000000067db4f9a f   SapClassBasic:SapClassBasic82.dll
 0001:00033fa0       ?GetPixelDepthMin@SapManager@@SAHH@Z 0000000067db4fa0 f   SapClassBasic:SapClassBasic82.dll
 0001:00033fa6       ?IsEnabled@SapColorConversion@@QEBAHXZ 0000000067db4fa6 f   SapClassBasic:SapClassBasic82.dll
 0001:00033fac       ?IsLutEnabled@SapColorConversion@@QEBAHXZ 0000000067db4fac f   SapClassBasic:SapClassBasic82.dll
 0001:00033fb2       ?GetGamma@SapColorConversion@@QEBAMXZ 0000000067db4fb2 f   SapClassBasic:SapClassBasic82.dll
 0001:00033fb8       ?GetWBGain@SapColorConversion@@QEBA?AVSapDataFRGB@@XZ 0000000067db4fb8 f   SapClassBasic:SapClassBasic82.dll
 0001:00033fbe       ?GetMethod@SapColorConversion@@QEBAHXZ 0000000067db4fbe f   SapClassBasic:SapClassBasic82.dll
 0001:00033fc4       ?GetAlign@SapColorConversion@@QEBAHXZ 0000000067db4fc4 f   SapClassBasic:SapClassBasic82.dll
 0001:00033fca       ?GetAvailMethod@SapColorConversion@@QEBAHXZ 0000000067db4fca f   SapClassBasic:SapClassBasic82.dll
 0001:00033fd0       ?GetAvailAlign@SapColorConversion@@QEBAHXZ 0000000067db4fd0 f   SapClassBasic:SapClassBasic82.dll
 0001:00033fd6       ?IsHardwareEnabled@SapColorConversion@@QEBAHXZ 0000000067db4fd6 f   SapClassBasic:SapClassBasic82.dll
 0001:00033fdc       ?Destroy@SapFeature@@UEAAHXZ 0000000067db4fdc f   SapClassBasic:SapClassBasic82.dll
 0001:00033fe2       ?GetDisplayName@SapFeature@@QEAAHPEADH@Z 0000000067db4fe2 f   SapClassBasic:SapClassBasic82.dll
 0001:00033fe8       ?GetFeatureInfo@SapAcqDevice@@QEAAHPEBDPEAVSapFeature@@@Z 0000000067db4fe8 f   SapClassBasic:SapClassBasic82.dll
 0001:00033fee       ?GetFileNameByIndex@SapAcqDevice@@QEAAHHPEADH@Z 0000000067db4fee f   SapClassBasic:SapClassBasic82.dll
 0001:00033ff4       ?GetFileCount@SapAcqDevice@@QEAAHPEAH@Z 0000000067db4ff4 f   SapClassBasic:SapClassBasic82.dll
 0001:00033ffa       ??1SapFeature@@UEAA@XZ     0000000067db4ffa f   SapClassBasic:SapClassBasic82.dll
 0001:00034000       ?GetFeatureValue@SapAcqDevice@@QEAAHPEBDPEADH@Z 0000000067db5000 f   SapClassBasic:SapClassBasic82.dll
 0001:00034006       ?IsFeatureAvailable@SapAcqDevice@@QEAAHPEBDPEAH@Z 0000000067db5006 f   SapClassBasic:SapClassBasic82.dll
 0001:0003400c       ?Create@SapFeature@@UEAAHXZ 0000000067db500c f   SapClassBasic:SapClassBasic82.dll
 0001:00034012       ??0SapFeature@@QEAA@VSapLocation@@@Z 0000000067db5012 f   SapClassBasic:SapClassBasic82.dll
 0001:00034018       ?GetAcqDevice@SapFlatField@@QEBAPEAVSapAcqDevice@@XZ 0000000067db5018 f   SapClassBasic:SapClassBasic82.dll
 0001:0003401e       ?GetNumFlatField@SapFlatField@@QEBAHXZ 0000000067db501e f   SapClassBasic:SapClassBasic82.dll
 0001:00034024       ?GetBlackPixelPercentage@SapFlatField@@QEBAMXZ 0000000067db5024 f   SapClassBasic:SapClassBasic82.dll
 0001:0003402a       ?IsClippedGainOffsetDefects@SapFlatField@@QEBAHXZ 0000000067db502a f   SapClassBasic:SapClassBasic82.dll
 0001:00034030       ?GetIndex@SapFlatField@@QEBAHXZ 0000000067db5030 f   SapClassBasic:SapClassBasic82.dll
 0001:00034036       ?GetDeviationMaxWhite@SapFlatField@@QEBAHXZ 0000000067db5036 f   SapClassBasic:SapClassBasic82.dll
 0001:0003403c       ?GetDeviationMaxBlack@SapFlatField@@QEBAHXZ 0000000067db503c f   SapClassBasic:SapClassBasic82.dll
 0001:00034042       ?GetGainDivisor@SapFlatField@@QEBAHXZ 0000000067db5042 f   SapClassBasic:SapClassBasic82.dll
 0001:00034048       ?GetVerticalOffset@SapFlatField@@QEBAHXZ 0000000067db5048 f   SapClassBasic:SapClassBasic82.dll
 0001:0003404e       ?GetNumFramesAverage@SapFlatField@@QEBAHXZ 0000000067db504e f   SapClassBasic:SapClassBasic82.dll
 0001:00034054       ?GetNumLinesAverage@SapFlatField@@QEBAHXZ 0000000067db5054 f   SapClassBasic:SapClassBasic82.dll
 0001:0003405a       ?GetVideoType@SapFlatField@@QEBA?AW4VideoType@SapAcquisition@@XZ 0000000067db505a f   SapClassBasic:SapClassBasic82.dll
 0001:00034060       ?GetCorrectionType@SapFlatField@@QEBA?AW4CorrectionType@1@XZ 0000000067db5060 f   SapClassBasic:SapClassBasic82.dll
 0001:00034066       ?GetOffsetMinMax@SapFlatField@@QEAAXPEAH0@Z 0000000067db5066 f   SapClassBasic:SapClassBasic82.dll
 0001:0003406c       ?Load@SapBuffer@@UEAAHPEBD0HH@Z 0000000067db506c f   SapClassBasic:SapClassBasic82.dll
 0001:00034072       ?Create@SapBuffer@@UEAAHXZ 0000000067db5072 f   SapClassBasic:SapClassBasic82.dll
 0001:00034078       ??0SapBuffer@@QEAA@PEBDHVSapLocation@@@Z 0000000067db5078 f   SapClassBasic:SapClassBasic82.dll
 0001:0003407e       ??0SapBuffer@@QEAA@HPEAVSapXferNode@@HVSapLocation@@@Z 0000000067db507e f   SapClassBasic:SapClassBasic82.dll
 0001:00034084       ?Destroy@SapBuffer@@UEAAHXZ 0000000067db5084 f   SapClassBasic:SapClassBasic82.dll
 0001:0003408a       ?GetXferParams@SapXferNode@@UEBA?AVSapXferParams@@H@Z 0000000067db508a f   SapClassBasic:SapClassBasic82.dll
 0001:00034090       ?GetInputXferParams@SapXferNode@@UEBA?AVSapXferParams@@H@Z 0000000067db5090 f   SapClassBasic:SapClassBasic82.dll
 0001:00034096       ?GetOutputXferParams@SapXferNode@@UEBA?AVSapXferParams@@H@Z 0000000067db5096 f   SapClassBasic:SapClassBasic82.dll
 0001:0003409c       ?SetSrcNode@SapXferNode@@UEAAHPEAV1@H@Z 0000000067db509c f   SapClassBasic:SapClassBasic82.dll
 0001:000340a2       ?SetXferParams@SapXferNode@@UEAAHVSapXferParams@@H@Z 0000000067db50a2 f   SapClassBasic:SapClassBasic82.dll
 0001:000340a8       ?SetInputXferParams@SapXferNode@@UEAAHVSapXferParams@@H@Z 0000000067db50a8 f   SapClassBasic:SapClassBasic82.dll
 0001:000340ae       ?SetOutputXferParams@SapXferNode@@UEAAHVSapXferParams@@H@Z 0000000067db50ae f   SapClassBasic:SapClassBasic82.dll
 0001:000340b4       ?GetHandle@SapBuffer@@UEBAPEAU__CORHANDLE@@H@Z 0000000067db50b4 f   SapClassBasic:SapClassBasic82.dll
 0001:000340ba       ?GetHandle@SapBuffer@@UEBAPEAU__CORHANDLE@@XZ 0000000067db50ba f   SapClassBasic:SapClassBasic82.dll
 0001:000340c0       ?GetXferParamsFromSrcNode@SapXferNode@@UEAAXXZ 0000000067db50c0 f   SapClassBasic:SapClassBasic82.dll
 0001:000340c6       ?GetXferNodeType@SapBuffer@@UEAA?AW4XferNodeType@SapXferNode@@XZ 0000000067db50c6 f   SapClassBasic:SapClassBasic82.dll
 0001:000340cc       ?IsBuffer@SapXferNode@@UEAAHXZ 0000000067db50cc f   SapClassBasic:SapClassBasic82.dll
 0001:000340d2       ??ASapBuffer@@UEBAPEAU__CORHANDLE@@H@Z 0000000067db50d2 f   SapClassBasic:SapClassBasic82.dll
 0001:000340d8       ?GetCount@SapBuffer@@UEBAHXZ 0000000067db50d8 f   SapClassBasic:SapClassBasic82.dll
 0001:000340de       ?GetIndex@SapBuffer@@UEBAHXZ 0000000067db50de f   SapClassBasic:SapClassBasic82.dll
 0001:000340e4       ?SetIndex@SapBuffer@@UEAAHH@Z 0000000067db50e4 f   SapClassBasic:SapClassBasic82.dll
 0001:000340ea       ?ResetIndex@SapBuffer@@UEAAXXZ 0000000067db50ea f   SapClassBasic:SapClassBasic82.dll
 0001:000340f0       ?Next@SapBuffer@@UEAAXXZ   0000000067db50f0 f   SapClassBasic:SapClassBasic82.dll
 0001:000340f6       ?GetTrash@SapBuffer@@UEBAPEAU__CORHANDLE@@XZ 0000000067db50f6 f   SapClassBasic:SapClassBasic82.dll
 0001:000340fc       ?Empty@SapBuffer@@UEAAHH@Z 0000000067db50fc f   SapClassBasic:SapClassBasic82.dll
 0001:00034102       ?Empty@SapBuffer@@UEAAHXZ  0000000067db5102 f   SapClassBasic:SapClassBasic82.dll
 0001:00034108       ?EmptyAll@SapBuffer@@UEAAHXZ 0000000067db5108 f   SapClassBasic:SapClassBasic82.dll
 0001:0003410e       ?SetCount@SapBuffer@@UEAAHH@Z 0000000067db510e f   SapClassBasic:SapClassBasic82.dll
 0001:00034114       ?SetWidth@SapBuffer@@UEAAHH@Z 0000000067db5114 f   SapClassBasic:SapClassBasic82.dll
 0001:0003411a       ?SetHeight@SapBuffer@@UEAAHH@Z 0000000067db511a f   SapClassBasic:SapClassBasic82.dll
 0001:00034120       ?SetFormat@SapBuffer@@UEAAHH@Z 0000000067db5120 f   SapClassBasic:SapClassBasic82.dll
 0001:00034126       ?SetType@SapBuffer@@UEAAHH@Z 0000000067db5126 f   SapClassBasic:SapClassBasic82.dll
 0001:0003412c       ?SetPixelDepth@SapBuffer@@UEAAHH@Z 0000000067db512c f   SapClassBasic:SapClassBasic82.dll
 0001:00034132       ?SetVirtualAddress@SapBuffer@@UEAAHQEAPEAX@Z 0000000067db5132 f   SapClassBasic:SapClassBasic82.dll
 0001:00034138       ?SetPhysicalAddress@SapBuffer@@UEAAHQEA_K@Z 0000000067db5138 f   SapClassBasic:SapClassBasic82.dll
 0001:0003413e       ?SetParameters@SapBuffer@@UEAAHHQEA_KHHHH@Z 0000000067db513e f   SapClassBasic:SapClassBasic82.dll
 0001:00034144       ?SetParameters@SapBuffer@@UEAAHHQEAPEAXHHHH@Z 0000000067db5144 f   SapClassBasic:SapClassBasic82.dll
 0001:0003414a       ?SetParameters@SapBuffer@@UEAAHHHHHH@Z 0000000067db514a f   SapClassBasic:SapClassBasic82.dll
 0001:00034150       ?SetParametersFromFile@SapBuffer@@UEAAHPEBDH@Z 0000000067db5150 f   SapClassBasic:SapClassBasic82.dll
 0001:00034156       ?SetFrameRate@SapBuffer@@UEAAXM@Z 0000000067db5156 f   SapClassBasic:SapClassBasic82.dll
 0001:0003415c       ?GetAddress@SapBuffer@@UEAAHH_K0PEAXPEAPEAX@Z 0000000067db515c f   SapClassBasic:SapClassBasic82.dll
 0001:00034162       ?GetAddress@SapBuffer@@UEAAHH_K0PEAPEAX@Z 0000000067db5162 f   SapClassBasic:SapClassBasic82.dll
 0001:00034168       ?GetAddress@SapBuffer@@UEAAH_K0PEAXPEAPEAX@Z 0000000067db5168 f   SapClassBasic:SapClassBasic82.dll
 0001:0003416e       ?GetAddress@SapBuffer@@UEAAH_K0PEAPEAX@Z 0000000067db516e f   SapClassBasic:SapClassBasic82.dll
 0001:00034174       ?GetAddress@SapBuffer@@UEAAHHPEAXPEAPEAX@Z 0000000067db5174 f   SapClassBasic:SapClassBasic82.dll
 0001:0003417a       ?GetAddress@SapBuffer@@UEAAHHPEAPEAX@Z 0000000067db517a f   SapClassBasic:SapClassBasic82.dll
 0001:00034180       ?GetAddress@SapBuffer@@UEAAHPEAXPEAPEAX@Z 0000000067db5180 f   SapClassBasic:SapClassBasic82.dll
 0001:00034186       ?GetAddress@SapBuffer@@UEAAHPEAPEAX@Z 0000000067db5186 f   SapClassBasic:SapClassBasic82.dll
 0001:0003418c       ?ReleaseAddress@SapBuffer@@UEAAHHPEAX@Z 0000000067db518c f   SapClassBasic:SapClassBasic82.dll
 0001:00034192       ?ReleaseAddress@SapBuffer@@UEAAHPEAX@Z 0000000067db5192 f   SapClassBasic:SapClassBasic82.dll
 0001:00034198       ?IsMapped@SapBuffer@@UEAAHXZ 0000000067db5198 f   SapClassBasic:SapClassBasic82.dll
 0001:0003419e       ?IsMapped@SapBuffer@@UEAAHH@Z 0000000067db519e f   SapClassBasic:SapClassBasic82.dll
 0001:000341a4       ?GetCounterStamp@SapBuffer@@UEAAHHPEAH@Z 0000000067db51a4 f   SapClassBasic:SapClassBasic82.dll
 0001:000341aa       ?GetCounterStamp@SapBuffer@@UEAAHPEAH@Z 0000000067db51aa f   SapClassBasic:SapClassBasic82.dll
 0001:000341b0       ?GetHostCounterStamp@SapBuffer@@UEAAHHPEA_K@Z 0000000067db51b0 f   SapClassBasic:SapClassBasic82.dll
 0001:000341b6       ?GetHostCounterStamp@SapBuffer@@UEAAHPEA_K@Z 0000000067db51b6 f   SapClassBasic:SapClassBasic82.dll
 0001:000341bc       ?GetDeviceTimeStamp@SapBuffer@@UEAAHHPEA_K@Z 0000000067db51bc f   SapClassBasic:SapClassBasic82.dll
 0001:000341c2       ?GetDeviceTimeStamp@SapBuffer@@UEAAHPEA_K@Z 0000000067db51c2 f   SapClassBasic:SapClassBasic82.dll
 0001:000341c8       ?GetSpaceUsed@SapBuffer@@UEAAHHPEAH@Z 0000000067db51c8 f   SapClassBasic:SapClassBasic82.dll
 0001:000341ce       ?GetSpaceUsed@SapBuffer@@UEAAHPEAH@Z 0000000067db51ce f   SapClassBasic:SapClassBasic82.dll
 0001:000341d4       ?GetHandles@SapBuffer@@UEBAPEAPEAU__CORHANDLE@@XZ 0000000067db51d4 f   SapClassBasic:SapClassBasic82.dll
 0001:000341da       ?IsCapabilityValid@SapBuffer@@UEAAHH@Z 0000000067db51da f   SapClassBasic:SapClassBasic82.dll
 0001:000341e0       ?GetCapability@SapBuffer@@UEAAHHHPEAX@Z 0000000067db51e0 f   SapClassBasic:SapClassBasic82.dll
 0001:000341e6       ?GetCapability@SapBuffer@@UEAAHHPEAX@Z 0000000067db51e6 f   SapClassBasic:SapClassBasic82.dll
 0001:000341ec       ?IsParameterValid@SapBuffer@@UEAAHHH@Z 0000000067db51ec f   SapClassBasic:SapClassBasic82.dll
 0001:000341f2       ?IsParameterValid@SapBuffer@@UEAAHH@Z 0000000067db51f2 f   SapClassBasic:SapClassBasic82.dll
 0001:000341f8       ?GetParameter@SapBuffer@@UEAAHHHPEAX@Z 0000000067db51f8 f   SapClassBasic:SapClassBasic82.dll
 0001:000341fe       ?GetParameter@SapBuffer@@UEAAHHPEAX@Z 0000000067db51fe f   SapClassBasic:SapClassBasic82.dll
 0001:00034204       ?SetParameter@SapBuffer@@UEAAHHHPEAX@Z 0000000067db5204 f   SapClassBasic:SapClassBasic82.dll
 0001:0003420a       ?SetParameter@SapBuffer@@UEAAHHPEAX@Z 0000000067db520a f   SapClassBasic:SapClassBasic82.dll
 0001:00034210       ?SetParameter@SapBuffer@@UEAAHHHH@Z 0000000067db5210 f   SapClassBasic:SapClassBasic82.dll
 0001:00034216       ?SetParameter@SapBuffer@@UEAAHHH@Z 0000000067db5216 f   SapClassBasic:SapClassBasic82.dll
 0001:0003421c       ?GetParent@SapBuffer@@UEAAPEAV1@XZ 0000000067db521c f   SapClassBasic:SapClassBasic82.dll
 0001:00034222       ?GetRoot@SapBuffer@@UEAAPEAV1@XZ 0000000067db5222 f   SapClassBasic:SapClassBasic82.dll
 0001:00034228       ?SetState@SapBuffer@@UEAAHHH@Z 0000000067db5228 f   SapClassBasic:SapClassBasic82.dll
 0001:0003422e       ?SetState@SapBuffer@@UEAAHH@Z 0000000067db522e f   SapClassBasic:SapClassBasic82.dll
 0001:00034234       ?SetAllState@SapBuffer@@UEAAHH@Z 0000000067db5234 f   SapClassBasic:SapClassBasic82.dll
 0001:0003423a       ?GetState@SapBuffer@@UEAAHHPEAH@Z 0000000067db523a f   SapClassBasic:SapClassBasic82.dll
 0001:00034240       ?GetState@SapBuffer@@UEAAHPEAH@Z 0000000067db5240 f   SapClassBasic:SapClassBasic82.dll
 0001:00034246       ?GetNumPages@SapBuffer@@UEAAHPEAH@Z 0000000067db5246 f   SapClassBasic:SapClassBasic82.dll
 0001:0003424c       ?SetPage@SapBuffer@@UEAAHHH@Z 0000000067db524c f   SapClassBasic:SapClassBasic82.dll
 0001:00034252       ?SetPage@SapBuffer@@UEAAHH@Z 0000000067db5252 f   SapClassBasic:SapClassBasic82.dll
 0001:00034258       ?SetAllPage@SapBuffer@@UEAAHH@Z 0000000067db5258 f   SapClassBasic:SapClassBasic82.dll
 0001:0003425e       ?GetPage@SapBuffer@@UEAAHHPEAH@Z 0000000067db525e f   SapClassBasic:SapClassBasic82.dll
 0001:00034264       ?GetPage@SapBuffer@@UEAAHPEAH@Z 0000000067db5264 f   SapClassBasic:SapClassBasic82.dll
 0001:0003426a       ?IsMultiFormat@SapBuffer@@UEAAHXZ 0000000067db526a f   SapClassBasic:SapClassBasic82.dll
 0001:00034270       ?GetPageFormat@SapBuffer@@UEAAHPEAH@Z 0000000067db5270 f   SapClassBasic:SapClassBasic82.dll
 0001:00034276       ?Clear@SapBuffer@@UEAAHHVSapData@@@Z 0000000067db5276 f   SapClassBasic:SapClassBasic82.dll
 0001:0003427c       ?Clear@SapBuffer@@UEAAHVSapData@@@Z 0000000067db527c f   SapClassBasic:SapClassBasic82.dll
 0001:00034282       ?Clear@SapBuffer@@UEAAHH@Z 0000000067db5282 f   SapClassBasic:SapClassBasic82.dll
 0001:00034288       ?Clear@SapBuffer@@UEAAHXZ  0000000067db5288 f   SapClassBasic:SapClassBasic82.dll
 0001:0003428e       ?Load@SapBuffer@@UEAAHPEBDHHH0@Z 0000000067db528e f   SapClassBasic:SapClassBasic82.dll
 0001:00034294       ?Save@SapBuffer@@UEAAHPEBD0HH@Z 0000000067db5294 f   SapClassBasic:SapClassBasic82.dll
 0001:0003429a       ?Read@SapBuffer@@UEAAHH_KHPEAX@Z 0000000067db529a f   SapClassBasic:SapClassBasic82.dll
 0001:000342a0       ?Read@SapBuffer@@UEAAH_KHPEAX@Z 0000000067db52a0 f   SapClassBasic:SapClassBasic82.dll
 0001:000342a6       ?ReadElement@SapBuffer@@UEAAHHHPEAH00@Z 0000000067db52a6 f   SapClassBasic:SapClassBasic82.dll
 0001:000342ac       ?ReadElement@SapBuffer@@UEAAHHHHPEAVSapData@@@Z 0000000067db52ac f   SapClassBasic:SapClassBasic82.dll
 0001:000342b2       ?ReadElement@SapBuffer@@UEAAHHHPEAVSapData@@@Z 0000000067db52b2 f   SapClassBasic:SapClassBasic82.dll
 0001:000342b8       ?ReadElement@SapBuffer@@UEAAHHHHPEAX@Z 0000000067db52b8 f   SapClassBasic:SapClassBasic82.dll
 0001:000342be       ?ReadElement@SapBuffer@@UEAAHHHPEAX@Z 0000000067db52be f   SapClassBasic:SapClassBasic82.dll
 0001:000342c4       ?ReadLine@SapBuffer@@UEAAHHHHHHPEAXPEAH@Z 0000000067db52c4 f   SapClassBasic:SapClassBasic82.dll
 0001:000342ca       ?ReadLine@SapBuffer@@UEAAHHHHHPEAXPEAH@Z 0000000067db52ca f   SapClassBasic:SapClassBasic82.dll
 0001:000342d0       ?ReadRect@SapBuffer@@UEAAHHHHHHPEAX@Z 0000000067db52d0 f   SapClassBasic:SapClassBasic82.dll
 0001:000342d6       ?ReadRect@SapBuffer@@UEAAHHHHHPEAX@Z 0000000067db52d6 f   SapClassBasic:SapClassBasic82.dll
 0001:000342dc       ?Write@SapBuffer@@UEAAHH_KHPEBX@Z 0000000067db52dc f   SapClassBasic:SapClassBasic82.dll
 0001:000342e2       ?Write@SapBuffer@@UEAAH_KHPEBX@Z 0000000067db52e2 f   SapClassBasic:SapClassBasic82.dll
 0001:000342e8       ?WriteElement@SapBuffer@@UEAAHHHHVSapData@@@Z 0000000067db52e8 f   SapClassBasic:SapClassBasic82.dll
 0001:000342ee       ?WriteElement@SapBuffer@@UEAAHHHVSapData@@@Z 0000000067db52ee f   SapClassBasic:SapClassBasic82.dll
 0001:000342f4       ?WriteElement@SapBuffer@@UEAAHHHHPEBX@Z 0000000067db52f4 f   SapClassBasic:SapClassBasic82.dll
 0001:000342fa       ?WriteElement@SapBuffer@@UEAAHHHPEBX@Z 0000000067db52fa f   SapClassBasic:SapClassBasic82.dll
 0001:00034300       ?WriteLine@SapBuffer@@UEAAHHHHHHPEBXPEAH@Z 0000000067db5300 f   SapClassBasic:SapClassBasic82.dll
 0001:00034306       ?WriteLine@SapBuffer@@UEAAHHHHHPEBXPEAH@Z 0000000067db5306 f   SapClassBasic:SapClassBasic82.dll
 0001:0003430c       ?WriteRect@SapBuffer@@UEAAHHHHHHPEBX@Z 0000000067db530c f   SapClassBasic:SapClassBasic82.dll
 0001:00034312       ?WriteRect@SapBuffer@@UEAAHHHHHPEBX@Z 0000000067db5312 f   SapClassBasic:SapClassBasic82.dll
 0001:00034318       ?Copy@SapBuffer@@UEAAHPEAV1@HH@Z 0000000067db5318 f   SapClassBasic:SapClassBasic82.dll
 0001:0003431e       ?Copy@SapBuffer@@UEAAHPEAV1@@Z 0000000067db531e f   SapClassBasic:SapClassBasic82.dll
 0001:00034324       ?CopyAll@SapBuffer@@UEAAHPEAV1@@Z 0000000067db5324 f   SapClassBasic:SapClassBasic82.dll
 0001:0003432a       ?CopyRect@SapBuffer@@UEAAHPEAV1@HHHHHHHH@Z 0000000067db532a f   SapClassBasic:SapClassBasic82.dll
 0001:00034330       ?ColorConvert@SapBuffer@@UEAAHPEAV1@HHHHVSapDataFRGB@@PEAVSapLut@@@Z 0000000067db5330 f   SapClassBasic:SapClassBasic82.dll
 0001:00034336       ?ColorConvert@SapBuffer@@UEAAHPEAV1@HHVSapDataFRGB@@PEAVSapLut@@@Z 0000000067db5336 f   SapClassBasic:SapClassBasic82.dll
 0001:0003433c       ?ColorWhiteBalance@SapBuffer@@UEAAHHHPEAVSapDataFRGB@@@Z 0000000067db533c f   SapClassBasic:SapClassBasic82.dll
 0001:00034342       ?ColorWhiteBalance@SapBuffer@@UEAAHHPEAVSapDataFRGB@@@Z 0000000067db5342 f   SapClassBasic:SapClassBasic82.dll
 0001:00034348       ?SplitComponents@SapBuffer@@UEAAHPEAV1@00H@Z 0000000067db5348 f   SapClassBasic:SapClassBasic82.dll
 0001:0003434e       ?SplitComponents@SapBuffer@@UEAAHPEAV1@00@Z 0000000067db534e f   SapClassBasic:SapClassBasic82.dll
 0001:00034354       ?SplitComponents@SapBuffer@@UEAAHPEAV1@H@Z 0000000067db5354 f   SapClassBasic:SapClassBasic82.dll
 0001:0003435a       ?SplitComponents@SapBuffer@@UEAAHPEAV1@@Z 0000000067db535a f   SapClassBasic:SapClassBasic82.dll
 0001:00034360       ?MergeComponents@SapBuffer@@UEAAHPEAV1@00H@Z 0000000067db5360 f   SapClassBasic:SapClassBasic82.dll
 0001:00034366       ?MergeComponents@SapBuffer@@UEAAHPEAV1@00@Z 0000000067db5366 f   SapClassBasic:SapClassBasic82.dll
 0001:0003436c       ?MergeComponents@SapBuffer@@UEAAHPEAV1@H@Z 0000000067db536c f   SapClassBasic:SapClassBasic82.dll
 0001:00034372       ?MergeComponents@SapBuffer@@UEAAHPEAV1@@Z 0000000067db5372 f   SapClassBasic:SapClassBasic82.dll
 0001:00034378       ?Register@SapBuffer@@UEAAHPEBD@Z 0000000067db5378 f   SapClassBasic:SapClassBasic82.dll
 0001:0003437e       ?Unregister@SapBuffer@@UEAAHXZ 0000000067db537e f   SapClassBasic:SapClassBasic82.dll
 0001:00034384       ?GetNumRoi@SapBuffer@@UEBAHXZ 0000000067db5384 f   SapClassBasic:SapClassBasic82.dll
 0001:0003438a       ?GetRoi@SapBuffer@@UEBAQEAUtagRECT@@H@Z 0000000067db538a f   SapClassBasic:SapClassBasic82.dll
 0001:00034390       ?AddRoi@SapBuffer@@UEAAHUtagRECT@@@Z 0000000067db5390 f   SapClassBasic:SapClassBasic82.dll
 0001:00034396       ?RemoveAllRoi@SapBuffer@@UEAAHXZ 0000000067db5396 f   SapClassBasic:SapClassBasic82.dll
 0001:0003439c       ?GetChild@SapBuffer@@UEBAPEAU__CORHANDLE@@HH@Z 0000000067db539c f   SapClassBasic:SapClassBasic82.dll
 0001:000343a2       ?BayerConvert@SapBuffer@@UEAAHPEAV1@HHHHVSapDataFRGB@@PEAVSapLut@@@Z 0000000067db53a2 f   SapClassBasic:SapClassBasic82.dll
 0001:000343a8       ?BayerConvert@SapBuffer@@UEAAHPEAV1@HHVSapDataFRGB@@PEAVSapLut@@@Z 0000000067db53a8 f   SapClassBasic:SapClassBasic82.dll
 0001:000343ae       ?BayerWhiteBalance@SapBuffer@@UEAAHHHPEAVSapDataFRGB@@@Z 0000000067db53ae f   SapClassBasic:SapClassBasic82.dll
 0001:000343b4       ?BayerWhiteBalance@SapBuffer@@UEAAHHPEAVSapDataFRGB@@@Z 0000000067db53b4 f   SapClassBasic:SapClassBasic82.dll
 0001:000343ba       ?Construct@SapBuffer@@MEAAXPEBDPEAVSapDisplay@@@Z 0000000067db53ba f   SapClassBasic:SapClassBasic82.dll
 0001:000343c0       ?GetLastStatus@SapManager@@SAPEBDXZ 0000000067db53c0 f   SapClassBasic:SapClassBasic82.dll
 0001:000343c6       ?GetAverage@SapFlatFieldStats@@QEBAHH@Z 0000000067db53c6 f   SapClassBasic:SapClassBasic82.dll
 0001:000343cc       ?GetNumComponents@SapFlatFieldStats@@QEBAHXZ 0000000067db53cc f   SapClassBasic:SapClassBasic82.dll
 0001:000343d2       ??1SapFlatFieldStats@@QEAA@XZ 0000000067db53d2 f   SapClassBasic:SapClassBasic82.dll
 0001:000343d8       ??0SapFlatFieldStats@@QEAA@XZ 0000000067db53d8 f   SapClassBasic:SapClassBasic82.dll
 0001:000343de       ??1SapFlatFieldDefects@@QEAA@XZ 0000000067db53de f   SapClassBasic:SapClassBasic82.dll
 0001:000343e4       ?GetNumDefects@SapFlatFieldDefects@@QEBAHXZ 0000000067db53e4 f   SapClassBasic:SapClassBasic82.dll
 0001:000343ea       ?GetDefectRatio@SapFlatFieldDefects@@QEBAMXZ 0000000067db53ea f   SapClassBasic:SapClassBasic82.dll
 0001:000343f0       ?GetNumClusters@SapFlatFieldDefects@@QEBAHXZ 0000000067db53f0 f   SapClassBasic:SapClassBasic82.dll
 0001:000343f6       ??0SapFlatFieldDefects@@QEAA@XZ 0000000067db53f6 f   SapClassBasic:SapClassBasic82.dll
 0001:000343fc       ?GetClusterMapPixelCount@SapFlatField@@QEBAHXZ 0000000067db53fc f   SapClassBasic:SapClassBasic82.dll
 0001:00034402       ?SetClusterMap@SapFlatField@@QEAAHPEBD@Z 0000000067db5402 f   SapClassBasic:SapClassBasic82.dll
 0001:00034408       ?GetStdDeviation@SapFlatFieldStats@@QEBAHH@Z 0000000067db5408 f   SapClassBasic:SapClassBasic82.dll
 0001:0003440e       ?GetLow@SapFlatFieldStats@@QEBAHH@Z 0000000067db540e f   SapClassBasic:SapClassBasic82.dll
 0001:00034414       ?GetHigh@SapFlatFieldStats@@QEBAHH@Z 0000000067db5414 f   SapClassBasic:SapClassBasic82.dll
 0001:0003441a       ?GetPeakPosition@SapFlatFieldStats@@QEBAHH@Z 0000000067db541a f   SapClassBasic:SapClassBasic82.dll
 0001:00034420       ?GetPixelRatio@SapFlatFieldStats@@QEBAMH@Z 0000000067db5420 f   SapClassBasic:SapClassBasic82.dll
 0001:00034426       ?GetNumPixels@SapFlatFieldStats@@QEBAHH@Z 0000000067db5426 f   SapClassBasic:SapClassBasic82.dll
 0001:0003442c       ?WriteFile@SapAcqDevice@@QEAAHPEBDH@Z 0000000067db542c f   SapClassBasic:SapClassBasic82.dll
 0001:00034432       ?SetCommandTimeout@SapManager@@SAXH@Z 0000000067db5432 f   SapClassBasic:SapClassBasic82.dll
 0001:00034438       ?GetCommandTimeout@SapManager@@SAHXZ 0000000067db5438 f   SapClassBasic:SapClassBasic82.dll
 0001:0003443e       ?GetPinNumber@SapGioCallbackInfo@@QEBAHXZ 0000000067db543e f   SapClassBasic:SapClassBasic82.dll
 0001:00034444       ?GetContext@SapGioCallbackInfo@@QEBAPEAXXZ 0000000067db5444 f   SapClassBasic:SapClassBasic82.dll
 0001:0003444a       ?GetNumPins@SapGio@@QEBAHXZ 0000000067db544a f   SapClassBasic:SapClassBasic82.dll
 0001:00034450       ?SetDisplayStatusMode@SapManager@@SAHHP6AXPEAVSapManCallbackInfo@@@ZPEAX@Z 0000000067db5450 f   SapClassBasic:SapClassBasic82.dll
 0001:00034456       ?GetBuffer@SapView@@QEBAPEAVSapBuffer@@XZ 0000000067db5456 f   SapClassBasic:SapClassBasic82.dll
 0001:0003445c       ?Top@SapViewScaleParams@@QEBAHXZ 0000000067db545c f   SapClassBasic:SapClassBasic82.dll
 0001:00034462       ?Left@SapViewScaleParams@@QEBAHXZ 0000000067db5462 f   SapClassBasic:SapClassBasic82.dll
 0001:00034468       ?Height@SapViewScaleParams@@QEBAHXZ 0000000067db5468 f   SapClassBasic:SapClassBasic82.dll
 0001:0003446e       ?Width@SapViewScaleParams@@QEBAHXZ 0000000067db546e f   SapClassBasic:SapClassBasic82.dll
 0001:00034474       ?GetScaleParamsSrc@SapView@@QEAAAEBVSapViewScaleParams@@XZ 0000000067db5474 f   SapClassBasic:SapClassBasic82.dll
 0001:0003447a       ?GetImageFilterKernelSize@SapAcquisition@@QEAAHIPEAW4ImageFilterKernelSize@1@@Z 0000000067db547a f   SapClassBasic:SapClassBasic82.dll
 0001:00034480       ?IsImageFilterAvailable@SapAcquisition@@QEBAHXZ 0000000067db5480 f   SapClassBasic:SapClassBasic82.dll
 0001:00034486       ?IsImageFilterEnabled@SapAcquisition@@QEAAHXZ 0000000067db5486 f   SapClassBasic:SapClassBasic82.dll
 0001:0003448c       ?GetImageFilter@SapAcquisition@@QEAAHIPEAVSapBuffer@@@Z 0000000067db548c f   SapClassBasic:SapClassBasic82.dll
 0001:00034492       ?Mono@SapDataMono@@QEAAHXZ 0000000067db5492 f   SapClassBasic:SapClassBasic82.dll
 0001:00034498       ??1SapDataMono@@UEAA@XZ    0000000067db5498 f   SapClassBasic:SapClassBasic82.dll
 0001:0003449e       ??0SapDataMono@@QEAA@XZ    0000000067db549e f   SapClassBasic:SapClassBasic82.dll
 0001:000344a4       ?SetImageFilter@SapAcquisition@@QEAAHIPEAVSapBuffer@@@Z 0000000067db54a4 f   SapClassBasic:SapClassBasic82.dll
 0001:000344aa       ??0SapData@@QEAA@AEBV0@@Z  0000000067db54aa f   SapClassBasic:SapClassBasic82.dll
 0001:000344b0       ?Set@SapDataMono@@QEAAXH@Z 0000000067db54b0 f   SapClassBasic:SapClassBasic82.dll
 0001:000344b6       ?EnableImageFilter@SapAcquisition@@QEAAHH@Z 0000000067db54b6 f   SapClassBasic:SapClassBasic82.dll
 0001:000344bc       ?GetContext@SapViewCallbackInfo@@QEBAPEAXXZ 0000000067db54bc f   SapClassBasic:SapClassBasic82.dll
 0001:000344c2       ?ZoomHorz@SapViewScaleParams@@QEBAMXZ 0000000067db54c2 f   SapClassBasic:SapClassBasic82.dll
 0001:000344c8       ?ZoomVert@SapViewScaleParams@@QEBAMXZ 0000000067db54c8 f   SapClassBasic:SapClassBasic82.dll
 0001:000344ce       ??1SapViewScaleParams@@QEAA@XZ 0000000067db54ce f   SapClassBasic:SapClassBasic82.dll
 0001:000344d4       ?SetHeight@SapViewScaleParams@@QEAAXH@Z 0000000067db54d4 f   SapClassBasic:SapClassBasic82.dll
 0001:000344da       ?SetWidth@SapViewScaleParams@@QEAAXH@Z 0000000067db54da f   SapClassBasic:SapClassBasic82.dll
 0001:000344e0       ?SetLeft@SapViewScaleParams@@QEAAXH@Z 0000000067db54e0 f   SapClassBasic:SapClassBasic82.dll
 0001:000344e6       ?SetTop@SapViewScaleParams@@QEAAXH@Z 0000000067db54e6 f   SapClassBasic:SapClassBasic82.dll
 0001:000344ec       ??0SapViewScaleParams@@QEAA@XZ 0000000067db54ec f   SapClassBasic:SapClassBasic82.dll
 0001:000344f2       ?GetScaleParamsDst@SapView@@QEAAAEBVSapViewScaleParams@@XZ 0000000067db54f2 f   SapClassBasic:SapClassBasic82.dll
 0001:000344f8       ?GetScrollRange@SapView@@QEBA?AUtagSIZE@@XZ 0000000067db54f8 f   SapClassBasic:SapClassBasic82.dll
 0001:000344fe       ?GetScrollPos@SapView@@QEBA?AUtagPOINT@@XZ 0000000067db54fe f   SapClassBasic:SapClassBasic82.dll
 0001:00034504       ?GetScalingMode@SapView@@QEBA?AW4ScalingMode@1@XZ 0000000067db5504 f   SapClassBasic:SapClassBasic82.dll
 0001:0003450a       ??1SapData@@UEAA@XZ        0000000067db550a f   SapClassBasic:SapClassBasic82.dll
 0001:00034510       ??0SapDataRGB@@QEAA@AEBVSapData@@@Z 0000000067db5510 f   SapClassBasic:SapClassBasic82.dll
 0001:00034516       ??0SapData@@QEAA@XZ        0000000067db5516 f   SapClassBasic:SapClassBasic82.dll
 0001:0003451c       ??1SapDataRGB@@UEAA@XZ     0000000067db551c f   SapClassBasic:SapClassBasic82.dll
 0001:00034522       ?Red@SapDataRGB@@QEAAHXZ   0000000067db5522 f   SapClassBasic:SapClassBasic82.dll
 0001:00034528       ?Green@SapDataRGB@@QEAAHXZ 0000000067db5528 f   SapClassBasic:SapClassBasic82.dll
 0001:0003452e       ?Blue@SapDataRGB@@QEAAHXZ  0000000067db552e f   SapClassBasic:SapClassBasic82.dll
 0001:00034534       ??0SapDataRGB@@QEAA@XZ     0000000067db5534 f   SapClassBasic:SapClassBasic82.dll
 0001:0003453a       ??1SapDataRGBA@@UEAA@XZ    0000000067db553a f   SapClassBasic:SapClassBasic82.dll
 0001:00034540       ?Red@SapDataRGBA@@QEAAHXZ  0000000067db5540 f   SapClassBasic:SapClassBasic82.dll
 0001:00034546       ?Green@SapDataRGBA@@QEAAHXZ 0000000067db5546 f   SapClassBasic:SapClassBasic82.dll
 0001:0003454c       ?Blue@SapDataRGBA@@QEAAHXZ 0000000067db554c f   SapClassBasic:SapClassBasic82.dll
 0001:00034552       ?Alpha@SapDataRGBA@@QEAAHXZ 0000000067db5552 f   SapClassBasic:SapClassBasic82.dll
 0001:00034558       ??0SapDataRGBA@@QEAA@XZ    0000000067db5558 f   SapClassBasic:SapClassBasic82.dll
 0001:0003455e       ??1SapDataYUV@@UEAA@XZ     0000000067db555e f   SapClassBasic:SapClassBasic82.dll
 0001:00034564       ?Y@SapDataYUV@@QEAAHXZ     0000000067db5564 f   SapClassBasic:SapClassBasic82.dll
 0001:0003456a       ?U@SapDataYUV@@QEAAHXZ     0000000067db556a f   SapClassBasic:SapClassBasic82.dll
 0001:00034570       ?V@SapDataYUV@@QEAAHXZ     0000000067db5570 f   SapClassBasic:SapClassBasic82.dll
 0001:00034576       ??0SapDataYUV@@QEAA@XZ     0000000067db5576 f   SapClassBasic:SapClassBasic82.dll
 0001:0003457c       ??1SapDataHSV@@UEAA@XZ     0000000067db557c f   SapClassBasic:SapClassBasic82.dll
 0001:00034582       ?H@SapDataHSV@@QEAAHXZ     0000000067db5582 f   SapClassBasic:SapClassBasic82.dll
 0001:00034588       ?S@SapDataHSV@@QEAAHXZ     0000000067db5588 f   SapClassBasic:SapClassBasic82.dll
 0001:0003458e       ?V@SapDataHSV@@QEAAHXZ     0000000067db558e f   SapClassBasic:SapClassBasic82.dll
 0001:00034594       ??0SapDataHSV@@QEAA@XZ     0000000067db5594 f   SapClassBasic:SapClassBasic82.dll
 0001:0003459a       ??1SapDataLABA@@UEAA@XZ    0000000067db559a f   SapClassBasic:SapClassBasic82.dll
 0001:000345a0       ?L@SapDataLABA@@QEAAHXZ    0000000067db55a0 f   SapClassBasic:SapClassBasic82.dll
 0001:000345a6       ?A@SapDataLABA@@QEAAHXZ    0000000067db55a6 f   SapClassBasic:SapClassBasic82.dll
 0001:000345ac       ?B@SapDataLABA@@QEAAHXZ    0000000067db55ac f   SapClassBasic:SapClassBasic82.dll
 0001:000345b2       ??0SapDataLABA@@QEAA@XZ    0000000067db55b2 f   SapClassBasic:SapClassBasic82.dll
 0001:000345b8       ??1SapDataLAB@@UEAA@XZ     0000000067db55b8 f   SapClassBasic:SapClassBasic82.dll
 0001:000345be       ?L@SapDataLAB@@QEAAHXZ     0000000067db55be f   SapClassBasic:SapClassBasic82.dll
 0001:000345c4       ?A@SapDataLAB@@QEAAHXZ     0000000067db55c4 f   SapClassBasic:SapClassBasic82.dll
 0001:000345ca       ?B@SapDataLAB@@QEAAHXZ     0000000067db55ca f   SapClassBasic:SapClassBasic82.dll
 0001:000345d0       ??0SapDataLAB@@QEAA@XZ     0000000067db55d0 f   SapClassBasic:SapClassBasic82.dll
 0001:000345d6       ??1SapDataHSI@@UEAA@XZ     0000000067db55d6 f   SapClassBasic:SapClassBasic82.dll
 0001:000345dc       ?H@SapDataHSI@@QEAAHXZ     0000000067db55dc f   SapClassBasic:SapClassBasic82.dll
 0001:000345e2       ?S@SapDataHSI@@QEAAHXZ     0000000067db55e2 f   SapClassBasic:SapClassBasic82.dll
 0001:000345e8       ?I@SapDataHSI@@QEAAHXZ     0000000067db55e8 f   SapClassBasic:SapClassBasic82.dll
 0001:000345ee       ??0SapDataHSI@@QEAA@XZ     0000000067db55ee f   SapClassBasic:SapClassBasic82.dll
 0001:000345f4       ?GetStringFromFormat@SapManager@@SAHHPEAD@Z 0000000067db55f4 f   SapClassBasic:SapClassBasic82.dll
 0001:000345fa       ??3@YAXPEAX@Z              0000000067db55fa f   mfc100d:mfc100d.dll
 0001:00034600       ??0CDialog@@QEAA@IPEAVCWnd@@@Z 0000000067db5600 f   mfc100d:mfc100d.dll
 0001:00034606       ?GetRuntimeClass@CDialog@@UEBAPEAUCRuntimeClass@@XZ 0000000067db5606 f   mfc100d:mfc100d.dll
 0001:0003460c       ?Serialize@CObject@@UEAAXAEAVCArchive@@@Z 0000000067db560c f   mfc100d:mfc100d.dll
 0001:00034612       ?AssertValid@CDialog@@UEBAXXZ 0000000067db5612 f   mfc100d:mfc100d.dll
 0001:00034618       ?Dump@CDialog@@UEBAXAEAVCDumpContext@@@Z 0000000067db5618 f   mfc100d:mfc100d.dll
 0001:0003461e       ?OnCmdMsg@CDialog@@UEAAHIHPEAXPEAUAFX_CMDHANDLERINFO@@@Z 0000000067db561e f   mfc100d:mfc100d.dll
 0001:00034624       ?OnFinalRelease@CWnd@@UEAAXXZ 0000000067db5624 f   mfc100d:mfc100d.dll
 0001:0003462a       ?IsInvokeAllowed@CCmdTarget@@UEAAHJ@Z 0000000067db562a f   mfc100d:mfc100d.dll
 0001:00034630       ?GetDispatchIID@CCmdTarget@@UEAAHPEAU_GUID@@@Z 0000000067db5630 f   mfc100d:mfc100d.dll
 0001:00034636       ?GetTypeInfoCount@CCmdTarget@@UEAAIXZ 0000000067db5636 f   mfc100d:mfc100d.dll
 0001:0003463c       ?GetTypeLibCache@CCmdTarget@@UEAAPEAVCTypeLibCache@@XZ 0000000067db563c f   mfc100d:mfc100d.dll
 0001:00034642       ?GetTypeLib@CCmdTarget@@UEAAJKPEAPEAUITypeLib@@@Z 0000000067db5642 f   mfc100d:mfc100d.dll
 0001:00034648       ?GetCommandMap@CCmdTarget@@MEBAPEBUAFX_OLECMDMAP@@XZ 0000000067db5648 f   mfc100d:mfc100d.dll
 0001:0003464e       ?GetDispatchMap@CCmdTarget@@MEBAPEBUAFX_DISPMAP@@XZ 0000000067db564e f   mfc100d:mfc100d.dll
 0001:00034654       ?GetConnectionMap@CCmdTarget@@MEBAPEBUAFX_CONNECTIONMAP@@XZ 0000000067db5654 f   mfc100d:mfc100d.dll
 0001:0003465a       ?GetInterfaceMap@CWnd@@MEBAPEBUAFX_INTERFACEMAP@@XZ 0000000067db565a f   mfc100d:mfc100d.dll
 0001:00034660       ?GetEventSinkMap@CCmdTarget@@MEBAPEBUAFX_EVENTSINKMAP@@XZ 0000000067db5660 f   mfc100d:mfc100d.dll
 0001:00034666       ?OnCreateAggregates@CCmdTarget@@UEAAHXZ 0000000067db5666 f   mfc100d:mfc100d.dll
 0001:0003466c       ?GetInterfaceHook@CCmdTarget@@UEAAPEAUIUnknown@@PEBX@Z 0000000067db566c f   mfc100d:mfc100d.dll
 0001:00034672       ?GetExtraConnectionPoints@CCmdTarget@@MEAAHPEAVCPtrArray@@@Z 0000000067db5672 f   mfc100d:mfc100d.dll
 0001:00034678       ?GetConnectionHook@CCmdTarget@@MEAAPEAUIConnectionPoint@@AEBU_GUID@@@Z 0000000067db5678 f   mfc100d:mfc100d.dll
 0001:0003467e       ?PreSubclassWindow@CWnd@@UEAAXXZ 0000000067db567e f   mfc100d:mfc100d.dll
 0001:00034684       ?Create@CWnd@@UEAAHPEBD0KAEBUtagRECT@@PEAV1@IPEAUCCreateContext@@@Z 0000000067db5684 f   mfc100d:mfc100d.dll
 0001:0003468a       ?CreateEx@CWnd@@UEAAHKPEBD0KAEBUtagRECT@@PEAV1@IPEAX@Z 0000000067db568a f   mfc100d:mfc100d.dll
 0001:00034690       ?CreateEx@CWnd@@UEAAHKPEBD0KHHHHPEAUHWND__@@PEAUHMENU__@@PEAX@Z 0000000067db5690 f   mfc100d:mfc100d.dll
 0001:00034696       ?DestroyWindow@CWnd@@UEAAHXZ 0000000067db5696 f   mfc100d:mfc100d.dll
 0001:0003469c       ?PreCreateWindow@CWnd@@UEAAHAEAUtagCREATESTRUCTA@@@Z 0000000067db569c f   mfc100d:mfc100d.dll
 0001:000346a2       ?CalcWindowRect@CWnd@@UEAAXPEAUtagRECT@@I@Z 0000000067db56a2 f   mfc100d:mfc100d.dll
 0001:000346a8       ?GetMenu@CWnd@@UEBAPEAVCMenu@@XZ 0000000067db56a8 f   mfc100d:mfc100d.dll
 0001:000346ae       ?SetMenu@CWnd@@UEAAHPEAVCMenu@@@Z 0000000067db56ae f   mfc100d:mfc100d.dll
 0001:000346b4       ?OnToolHitTest@CWnd@@UEBA_JVCPoint@@PEAUtagTOOLINFOA@@@Z 0000000067db56b4 f   mfc100d:mfc100d.dll
 0001:000346ba       ?GetScrollBarCtrl@CWnd@@UEBAPEAVCScrollBar@@H@Z 0000000067db56ba f   mfc100d:mfc100d.dll
 0001:000346c0       ?WinHelpA@CWnd@@UEAAX_KI@Z 0000000067db56c0 f   mfc100d:mfc100d.dll
 0001:000346c6       ?HtmlHelpA@CWnd@@UEAAX_KI@Z 0000000067db56c6 f   mfc100d:mfc100d.dll
 0001:000346cc       ?WinHelpInternal@CWnd@@UEAAX_KI@Z 0000000067db56cc f   mfc100d:mfc100d.dll
 0001:000346d2       ?ContinueModal@CWnd@@UEAAHXZ 0000000067db56d2 f   mfc100d:mfc100d.dll
 0001:000346d8       ?EndModalLoop@CWnd@@UEAAXH@Z 0000000067db56d8 f   mfc100d:mfc100d.dll
 0001:000346de       ?OnDrawIconicThumbnailOrLivePreview@CWnd@@UEAAXAEAVCDC@@VCRect@@VCSize@@HAEAH@Z 0000000067db56de f   mfc100d:mfc100d.dll
 0001:000346e4       ?EnsureStdObj@CWnd@@UEAAJXZ 0000000067db56e4 f   mfc100d:mfc100d.dll
 0001:000346ea       ?get_accParent@CWnd@@UEAAJPEAPEAUIDispatch@@@Z 0000000067db56ea f   mfc100d:mfc100d.dll
 0001:000346f0       ?get_accChildCount@CWnd@@UEAAJPEAJ@Z 0000000067db56f0 f   mfc100d:mfc100d.dll
 0001:000346f6       ?get_accChild@CWnd@@UEAAJUtagVARIANT@@PEAPEAUIDispatch@@@Z 0000000067db56f6 f   mfc100d:mfc100d.dll
 0001:000346fc       ?get_accName@CWnd@@UEAAJUtagVARIANT@@PEAPEA_W@Z 0000000067db56fc f   mfc100d:mfc100d.dll
 0001:00034702       ?get_accValue@CWnd@@UEAAJUtagVARIANT@@PEAPEA_W@Z 0000000067db5702 f   mfc100d:mfc100d.dll
 0001:00034708       ?get_accDescription@CWnd@@UEAAJUtagVARIANT@@PEAPEA_W@Z 0000000067db5708 f   mfc100d:mfc100d.dll
 0001:0003470e       ?get_accRole@CWnd@@UEAAJUtagVARIANT@@PEAU2@@Z 0000000067db570e f   mfc100d:mfc100d.dll
 0001:00034714       ?get_accState@CWnd@@UEAAJUtagVARIANT@@PEAU2@@Z 0000000067db5714 f   mfc100d:mfc100d.dll
 0001:0003471a       ?get_accHelp@CWnd@@UEAAJUtagVARIANT@@PEAPEA_W@Z 0000000067db571a f   mfc100d:mfc100d.dll
 0001:00034720       ?get_accHelpTopic@CWnd@@UEAAJPEAPEA_WUtagVARIANT@@PEAJ@Z 0000000067db5720 f   mfc100d:mfc100d.dll
 0001:00034726       ?get_accKeyboardShortcut@CWnd@@UEAAJUtagVARIANT@@PEAPEA_W@Z 0000000067db5726 f   mfc100d:mfc100d.dll
 0001:0003472c       ?get_accFocus@CWnd@@UEAAJPEAUtagVARIANT@@@Z 0000000067db572c f   mfc100d:mfc100d.dll
 0001:00034732       ?get_accSelection@CWnd@@UEAAJPEAUtagVARIANT@@@Z 0000000067db5732 f   mfc100d:mfc100d.dll
 0001:00034738       ?get_accDefaultAction@CWnd@@UEAAJUtagVARIANT@@PEAPEA_W@Z 0000000067db5738 f   mfc100d:mfc100d.dll
 0001:0003473e       ?accSelect@CWnd@@UEAAJJUtagVARIANT@@@Z 0000000067db573e f   mfc100d:mfc100d.dll
 0001:00034744       ?accLocation@CWnd@@UEAAJPEAJ000UtagVARIANT@@@Z 0000000067db5744 f   mfc100d:mfc100d.dll
 0001:0003474a       ?accNavigate@CWnd@@UEAAJJUtagVARIANT@@PEAU2@@Z 0000000067db574a f   mfc100d:mfc100d.dll
 0001:00034750       ?accHitTest@CWnd@@UEAAJJJPEAUtagVARIANT@@@Z 0000000067db5750 f   mfc100d:mfc100d.dll
 0001:00034756       ?accDoDefaultAction@CWnd@@UEAAJUtagVARIANT@@@Z 0000000067db5756 f   mfc100d:mfc100d.dll
 0001:0003475c       ?put_accName@CWnd@@UEAAJUtagVARIANT@@PEA_W@Z 0000000067db575c f   mfc100d:mfc100d.dll
 0001:00034762       ?put_accValue@CWnd@@UEAAJUtagVARIANT@@PEA_W@Z 0000000067db5762 f   mfc100d:mfc100d.dll
 0001:00034768       ?SetProxy@CWnd@@UEAAJPEAUIAccessibleProxy@@@Z 0000000067db5768 f   mfc100d:mfc100d.dll
 0001:0003476e       ?CreateAccessibleProxy@CWnd@@UEAAJ_K_JPEA_J@Z 0000000067db576e f   mfc100d:mfc100d.dll
 0001:00034774       ?OnCommand@CWnd@@MEAAH_K_J@Z 0000000067db5774 f   mfc100d:mfc100d.dll
 0001:0003477a       ?OnNotify@CWnd@@MEAAH_K_JPEA_J@Z 0000000067db577a f   mfc100d:mfc100d.dll
 0001:00034780       ?GetSuperWndProcAddr@CWnd@@MEAAPEAP6A_JPEAUHWND__@@I_K_J@ZXZ 0000000067db5780 f   mfc100d:mfc100d.dll
 0001:00034786       ?BeginModalState@CWnd@@UEAAXXZ 0000000067db5786 f   mfc100d:mfc100d.dll
 0001:0003478c       ?EndModalState@CWnd@@UEAAXXZ 0000000067db578c f   mfc100d:mfc100d.dll
 0001:00034792       ?PreTranslateMessage@CDialog@@UEAAHPEAUtagMSG@@@Z 0000000067db5792 f   mfc100d:mfc100d.dll
 0001:00034798       ?OnAmbientProperty@CWnd@@UEAAHPEAVCOleControlSite@@JPEAUtagVARIANT@@@Z 0000000067db5798 f   mfc100d:mfc100d.dll
 0001:0003479e       ?WindowProc@CWnd@@MEAA_JI_K_J@Z 0000000067db579e f   mfc100d:mfc100d.dll
 0001:000347a4       ?OnWndMsg@CWnd@@MEAAHI_K_JPEA_J@Z 0000000067db57a4 f   mfc100d:mfc100d.dll
 0001:000347aa       ?DefWindowProcA@CWnd@@MEAA_JI_K_J@Z 0000000067db57aa f   mfc100d:mfc100d.dll
 0001:000347b0       ?PostNcDestroy@CWnd@@MEAAXXZ 0000000067db57b0 f   mfc100d:mfc100d.dll
 0001:000347b6       ?OnChildNotify@CWnd@@MEAAHI_K_JPEA_J@Z 0000000067db57b6 f   mfc100d:mfc100d.dll
 0001:000347bc       ?OnTouchInputs@CWnd@@MEAAHIPEAUtagTOUCHINPUT@@@Z 0000000067db57bc f   mfc100d:mfc100d.dll
 0001:000347c2       ?OnTouchInput@CWnd@@MEAAHVCPoint@@HHPEAUtagTOUCHINPUT@@@Z 0000000067db57c2 f   mfc100d:mfc100d.dll
 0001:000347c8       ?GetGestureStatus@CWnd@@MEAAKVCPoint@@@Z 0000000067db57c8 f   mfc100d:mfc100d.dll
 0001:000347ce       ?OnGestureZoom@CWnd@@MEAAHVCPoint@@J@Z 0000000067db57ce f   mfc100d:mfc100d.dll
 0001:000347d4       ?OnGesturePan@CWnd@@MEAAHVCPoint@@0@Z 0000000067db57d4 f   mfc100d:mfc100d.dll
 0001:000347da       ?OnGestureRotate@CWnd@@MEAAHVCPoint@@N@Z 0000000067db57da f   mfc100d:mfc100d.dll
 0001:000347e0       ?OnGestureTwoFingerTap@CWnd@@MEAAHVCPoint@@@Z 0000000067db57e0 f   mfc100d:mfc100d.dll
 0001:000347e6       ?OnGesturePressAndTap@CWnd@@MEAAHVCPoint@@J@Z 0000000067db57e6 f   mfc100d:mfc100d.dll
 0001:000347ec       ?CheckAutoCenter@CDialog@@UEAAHXZ 0000000067db57ec f   mfc100d:mfc100d.dll
 0001:000347f2       ?IsFrameWnd@CWnd@@UEBAHXZ  0000000067db57f2 f   mfc100d:mfc100d.dll
 0001:000347f8       ?CreateControlContainer@CWnd@@MEAAHPEAPEAVCOleControlContainer@@@Z 0000000067db57f8 f   mfc100d:mfc100d.dll
 0001:000347fe       ?CreateControlSite@CWnd@@MEAAHPEAVCOleControlContainer@@PEAPEAVCOleControlSite@@IAEBU_GUID@@@Z 0000000067db57fe f   mfc100d:mfc100d.dll
 0001:00034804       ?SetOccDialogInfo@CDialog@@MEAAHPEAU_AFX_OCC_DIALOG_INFO@@@Z 0000000067db5804 f   mfc100d:mfc100d.dll
 0001:0003480a       ?GetOccDialogInfo@CDialog@@MEAAPEAU_AFX_OCC_DIALOG_INFO@@XZ 0000000067db580a f   mfc100d:mfc100d.dll
 0001:00034810       ?Create@CDialog@@UEAAHIPEAVCWnd@@@Z 0000000067db5810 f   mfc100d:mfc100d.dll
 0001:00034816       ?Create@CDialog@@UEAAHPEBDPEAVCWnd@@@Z 0000000067db5816 f   mfc100d:mfc100d.dll
 0001:0003481c       ?CreateIndirect@CDialog@@UEAAHPEAXPEAVCWnd@@@Z 0000000067db581c f   mfc100d:mfc100d.dll
 0001:00034822       ?CreateIndirect@CDialog@@UEAAHPEBUDLGTEMPLATE@@PEAVCWnd@@PEAX@Z 0000000067db5822 f   mfc100d:mfc100d.dll
 0001:00034828       ?DoModal@CDialog@@UEAA_JXZ 0000000067db5828 f   mfc100d:mfc100d.dll
 0001:0003482e       ?OnSetFont@CDialog@@UEAAXPEAVCFont@@@Z 0000000067db582e f   mfc100d:mfc100d.dll
 0001:00034834       ?OnOK@CDialog@@MEAAXXZ     0000000067db5834 f   mfc100d:mfc100d.dll
 0001:0003483a       ?OnCancel@CDialog@@MEAAXXZ 0000000067db583a f   mfc100d:mfc100d.dll
 0001:00034840       ?PreInitDialog@CDialog@@MEAAXXZ 0000000067db5840 f   mfc100d:mfc100d.dll
 0001:00034846       ?DoDataExchange@CWnd@@MEAAXPEAVCDataExchange@@@Z 0000000067db5846 f   mfc100d:mfc100d.dll
 0001:0003484c       ?GetThisMessageMap@CDialog@@KAPEBUAFX_MSGMAP@@XZ 0000000067db584c f   mfc100d:mfc100d.dll
 0001:00034852       ?SetTimer@CWnd@@QEAA_K_KIP6AXPEAUHWND__@@I0K@Z@Z 0000000067db5852 f   mfc100d:mfc100d.dll
 0001:00034858       ?SetWindowPos@CWnd@@QEAAHPEBV1@HHHHI@Z 0000000067db5858 f   mfc100d:mfc100d.dll
 0001:0003485e       ?GetWindowRect@CWnd@@QEBAXPEAUtagRECT@@@Z 0000000067db585e f   mfc100d:mfc100d.dll
 0001:00034864       ?OnInitDialog@CDialog@@UEAAHXZ 0000000067db5864 f   mfc100d:mfc100d.dll
 0001:0003486a       ?KillTimer@CWnd@@QEAAH_K@Z 0000000067db586a f   mfc100d:mfc100d.dll
 0001:00034870       ?OnTimer@CWnd@@IEAAX_K@Z   0000000067db5870 f   mfc100d:mfc100d.dll
 0001:00034876       ??3CObject@@SAXPEAX@Z      0000000067db5876 f   mfc100d:mfc100d.dll
 0001:0003487c       ??1CDialog@@UEAA@XZ        0000000067db587c f   mfc100d:mfc100d.dll
 0001:00034882       ??_V@YAXPEAX@Z             0000000067db5882 f   mfc100d:mfc100d.dll
 0001:00034888       ??1?$CStringT@DV?$StrTraitMFC_DLL@DV?$ChTraitsCRT@D@ATL@@@@@ATL@@QEAA@XZ 0000000067db5888 f   mfc100d:mfc100d.dll
 0001:0003488e       ??1CListBox@@UEAA@XZ       0000000067db588e f   mfc100d:mfc100d.dll
 0001:00034894       ??1CEdit@@UEAA@XZ          0000000067db5894 f   mfc100d:mfc100d.dll
 0001:0003489a       ??1CComboBox@@UEAA@XZ      0000000067db589a f   mfc100d:mfc100d.dll
 0001:000348a0       ?AfxGetApp@@YAPEAVCWinApp@@XZ 0000000067db58a0 f   mfc100d:mfc100d.dll
 0001:000348a6       ??0?$CStringT@DV?$StrTraitMFC_DLL@DV?$ChTraitsCRT@D@ATL@@@@@ATL@@QEAA@XZ 0000000067db58a6 f   mfc100d:mfc100d.dll
 0001:000348ac       ??0CListBox@@QEAA@XZ       0000000067db58ac f   mfc100d:mfc100d.dll
 0001:000348b2       ??0CEdit@@QEAA@XZ          0000000067db58b2 f   mfc100d:mfc100d.dll
 0001:000348b8       ??0CComboBox@@QEAA@XZ      0000000067db58b8 f   mfc100d:mfc100d.dll
 0001:000348be       ??4?$CStringT@DV?$StrTraitMFC_DLL@DV?$ChTraitsCRT@D@ATL@@@@@ATL@@QEAAAEAV01@AEBV01@@Z 0000000067db58be f   mfc100d:mfc100d.dll
 0001:000348c4       ??0?$CStringT@DV?$StrTraitMFC_DLL@DV?$ChTraitsCRT@D@ATL@@@@@ATL@@QEAA@PEBD@Z 0000000067db58c4 f   mfc100d:mfc100d.dll
 0001:000348ca       ??4?$CStringT@DV?$StrTraitMFC_DLL@DV?$ChTraitsCRT@D@ATL@@@@@ATL@@QEAAAEAV01@PEBD@Z 0000000067db58ca f   mfc100d:mfc100d.dll
 0001:000348d0       ??B?$CSimpleStringT@D$00@ATL@@QEBAPEBDXZ 0000000067db58d0 f   mfc100d:mfc100d.dll
 0001:000348d6       ??0?$CStringT@DV?$StrTraitMFC_DLL@DV?$ChTraitsCRT@D@ATL@@@@@ATL@@QEAA@AEBV01@@Z 0000000067db58d6 f   mfc100d:mfc100d.dll
 0001:000348dc       ?DDX_Check@@YAXPEAVCDataExchange@@HAEAH@Z 0000000067db58dc f   mfc100d:mfc100d.dll
 0001:000348e2       ?DDX_CBIndex@@YAXPEAVCDataExchange@@HAEAH@Z 0000000067db58e2 f   mfc100d:mfc100d.dll
 0001:000348e8       ?DDX_CBString@@YAXPEAVCDataExchange@@HAEAV?$CStringT@DV?$StrTraitMFC_DLL@DV?$ChTraitsCRT@D@ATL@@@@@ATL@@@Z 0000000067db58e8 f   mfc100d:mfc100d.dll
 0001:000348ee       ?DDX_Control@@YAXPEAVCDataExchange@@HAEAVCWnd@@@Z 0000000067db58ee f   mfc100d:mfc100d.dll
 0001:000348f4       ?BringWindowToTop@CWnd@@QEAAXXZ 0000000067db58f4 f   mfc100d:mfc100d.dll
 0001:000348fa       ?IsEmpty@?$CSimpleStringT@D$00@ATL@@QEBA_NXZ 0000000067db58fa f   mfc100d:mfc100d.dll
 0001:00034900       ?SetDlgItemTextA@CWnd@@QEAAXHPEBD@Z 0000000067db5900 f   mfc100d:mfc100d.dll
 0001:00034906       ?GetLBText@CComboBox@@QEBAXHAEAV?$CStringT@DV?$StrTraitMFC_DLL@DV?$ChTraitsCRT@D@ATL@@@@@ATL@@@Z 0000000067db5906 f   mfc100d:mfc100d.dll
 0001:0003490c       ?SetCurSel@CComboBox@@QEAAHH@Z 0000000067db590c f   mfc100d:mfc100d.dll
 0001:00034912       ?SelectString@CComboBox@@QEAAHHPEBD@Z 0000000067db5912 f   mfc100d:mfc100d.dll
 0001:00034918       ?SetItemData@CComboBox@@QEAAHH_K@Z 0000000067db5918 f   mfc100d:mfc100d.dll
 0001:0003491e       ?GetCount@CComboBox@@QEBAHXZ 0000000067db591e f   mfc100d:mfc100d.dll
 0001:00034924       ?AddString@CComboBox@@QEAAHPEBD@Z 0000000067db5924 f   mfc100d:mfc100d.dll
 0001:0003492a       ?ResetContent@CComboBox@@QEAAXXZ 0000000067db592a f   mfc100d:mfc100d.dll
 0001:00034930       ?GetPathName@CFileDialog@@QEBA?AV?$CStringT@DV?$StrTraitMFC_DLL@DV?$ChTraitsCRT@D@ATL@@@@@ATL@@XZ 0000000067db5930 f   mfc100d:mfc100d.dll
 0001:00034936       ??1CFileDialog@@UEAA@XZ    0000000067db5936 f   mfc100d:mfc100d.dll
 0001:0003493c       ?ReleaseBuffer@?$CSimpleStringT@D$00@ATL@@QEAAXH@Z 0000000067db593c f   mfc100d:mfc100d.dll
 0001:00034942       ?DoModal@CFileDialog@@UEAA_JXZ 0000000067db5942 f   mfc100d:mfc100d.dll
 0001:00034948       ?GetOFN@CFileDialog@@QEAAAEAUtagOFNA@@XZ 0000000067db5948 f   mfc100d:mfc100d.dll
 0001:0003494e       ??0CFileDialog@@QEAA@HPEBD0K0PEAVCWnd@@KH@Z 0000000067db594e f   mfc100d:mfc100d.dll
 0001:00034954       ?UpdateData@CWnd@@QEAAHH@Z 0000000067db5954 f   mfc100d:mfc100d.dll
 0001:0003495a       ?EnableWindow@CWnd@@QEAAHH@Z 0000000067db595a f   mfc100d:mfc100d.dll
 0001:00034960       ?GetDlgItem@CWnd@@QEBAPEAV1@H@Z 0000000067db5960 f   mfc100d:mfc100d.dll
 0001:00034966       ?GetItemData@CComboBox@@QEBA_KH@Z 0000000067db5966 f   mfc100d:mfc100d.dll
 0001:0003496c       ?GetCurSel@CComboBox@@QEBAHXZ 0000000067db596c f   mfc100d:mfc100d.dll
 0001:00034972       ?MessageBoxA@CWnd@@QEAAHPEBD0I@Z 0000000067db5972 f   mfc100d:mfc100d.dll
 0001:00034978       ?CompareNoCase@?$CStringT@DV?$StrTraitMFC_DLL@DV?$ChTraitsCRT@D@ATL@@@@@ATL@@QEBAHPEBD@Z 0000000067db5978 f   mfc100d:mfc100d.dll
 0001:0003497e       ?GetBuffer@?$CSimpleStringT@D$00@ATL@@QEAAPEADH@Z 0000000067db597e f   mfc100d:mfc100d.dll
 0001:00034984       ?Concatenate@?$CSimpleStringT@D$00@ATL@@KAXAEAV12@PEBDH1H@Z 0000000067db5984 f   mfc100d:mfc100d.dll
 0001:0003498a       ?GetLength@?$CSimpleStringT@D$00@ATL@@QEBAHXZ 0000000067db598a f   mfc100d:mfc100d.dll
 0001:00034990       ??0?$CStringT@DV?$StrTraitMFC_DLL@DV?$ChTraitsCRT@D@ATL@@@@@ATL@@QEAA@PEAUIAtlStringMgr@1@@Z 0000000067db5990 f   mfc100d:mfc100d.dll
 0001:00034996       ?GetManager@?$CStringT@DV?$StrTraitMFC_DLL@DV?$ChTraitsCRT@D@ATL@@@@@ATL@@QEBAPEAUIAtlStringMgr@2@XZ 0000000067db5996 f   mfc100d:mfc100d.dll
 0001:0003499c       ?OnVScroll@CWnd@@IEAAXIIPEAVCScrollBar@@@Z 0000000067db599c f   mfc100d:mfc100d.dll
 0001:000349a2       ?GetCheck@CButton@@QEBAHXZ 0000000067db59a2 f   mfc100d:mfc100d.dll
 0001:000349a8       ?SetCheck@CButton@@QEAAXH@Z 0000000067db59a8 f   mfc100d:mfc100d.dll
 0001:000349ae       ?AfxMessageBox@@YAHPEBDII@Z 0000000067db59ae f   mfc100d:mfc100d.dll
 0001:000349b4       ??1CScrollBar@@UEAA@XZ     0000000067db59b4 f   mfc100d:mfc100d.dll
 0001:000349ba       ??0CScrollBar@@QEAA@XZ     0000000067db59ba f   mfc100d:mfc100d.dll
 0001:000349c0       ?DDX_Text@@YAXPEAVCDataExchange@@HAEAH@Z 0000000067db59c0 f   mfc100d:mfc100d.dll
 0001:000349c6       ?DDV_MinMaxInt@@YAXPEAVCDataExchange@@HHH@Z 0000000067db59c6 f   mfc100d:mfc100d.dll
 0001:000349cc       ?GetDlgCtrlID@CWnd@@QEBAHXZ 0000000067db59cc f   mfc100d:mfc100d.dll
 0001:000349d2       ?DDX_Radio@@YAXPEAVCDataExchange@@HAEAH@Z 0000000067db59d2 f   mfc100d:mfc100d.dll
 0001:000349d8       ?DDX_Text@@YAXPEAVCDataExchange@@HAEAM@Z 0000000067db59d8 f   mfc100d:mfc100d.dll
 0001:000349de       ?OnShowWindow@CWnd@@IEAAXHI@Z 0000000067db59de f   mfc100d:mfc100d.dll
 0001:000349e4       ?AfxFindResourceHandle@@YAPEAUHINSTANCE__@@PEBD0@Z 0000000067db59e4 f   mfc100d:mfc100d.dll
 0001:000349ea       ?DDV_MinMaxUInt@@YAXPEAVCDataExchange@@III@Z 0000000067db59ea f   mfc100d:mfc100d.dll
 0001:000349f0       ?DDX_Text@@YAXPEAVCDataExchange@@HAEAV?$CStringT@DV?$StrTraitMFC_DLL@DV?$ChTraitsCRT@D@ATL@@@@@ATL@@@Z 0000000067db59f0 f   mfc100d:mfc100d.dll
 0001:000349f6       ?StringLength@?$CSimpleStringT@D$00@ATL@@SAHPEBD@Z 0000000067db59f6 f   mfc100d:mfc100d.dll
 0001:000349fc       ??1CSliderCtrl@@UEAA@XZ    0000000067db59fc f   mfc100d:mfc100d.dll
 0001:00034a02       ??0CSliderCtrl@@QEAA@XZ    0000000067db5a02 f   mfc100d:mfc100d.dll
 0001:00034a08       ?DDX_Text@@YAXPEAVCDataExchange@@HAEAJ@Z 0000000067db5a08 f   mfc100d:mfc100d.dll
 0001:00034a0e       ?CheckRadioButton@CWnd@@QEAAXHHH@Z 0000000067db5a0e f   mfc100d:mfc100d.dll
 0001:00034a14       ?SetPos@CSliderCtrl@@QEAAXH@Z 0000000067db5a14 f   mfc100d:mfc100d.dll
 0001:00034a1a       ?SetPageSize@CSliderCtrl@@QEAAHH@Z 0000000067db5a1a f   mfc100d:mfc100d.dll
 0001:00034a20       ?SetTicFreq@CSliderCtrl@@QEAAXH@Z 0000000067db5a20 f   mfc100d:mfc100d.dll
 0001:00034a26       ?SetRange@CSliderCtrl@@QEAAXHHH@Z 0000000067db5a26 f   mfc100d:mfc100d.dll
 0001:00034a2c       ?OnHScroll@CWnd@@IEAAXIIPEAVCScrollBar@@@Z 0000000067db5a2c f   mfc100d:mfc100d.dll
 0001:00034a32       ??1CStatic@@UEAA@XZ        0000000067db5a32 f   mfc100d:mfc100d.dll
 0001:00034a38       ??1CButton@@UEAA@XZ        0000000067db5a38 f   mfc100d:mfc100d.dll
 0001:00034a3e       ??0CStatic@@QEAA@XZ        0000000067db5a3e f   mfc100d:mfc100d.dll
 0001:00034a44       ??0CButton@@QEAA@XZ        0000000067db5a44 f   mfc100d:mfc100d.dll
 0001:00034a4a       ?DDV_MinMaxDWord@@YAXPEAVCDataExchange@@KKK@Z 0000000067db5a4a f   mfc100d:mfc100d.dll
 0001:00034a50       ?Find@?$CStringT@DV?$StrTraitMFC_DLL@DV?$ChTraitsCRT@D@ATL@@@@@ATL@@QEBAHPEBDH@Z 0000000067db5a50 f   mfc100d:mfc100d.dll
 0001:00034a56       ?ShowWindow@CWnd@@QEAAHH@Z 0000000067db5a56 f   mfc100d:mfc100d.dll
 0001:00034a5c       ?SetWindowTextA@CWnd@@QEAAXPEBD@Z 0000000067db5a5c f   mfc100d:mfc100d.dll
 0001:00034a62       ?Format@?$CStringT@DV?$StrTraitMFC_DLL@DV?$ChTraitsCRT@D@ATL@@@@@ATL@@QEAAXPEBDZZ 0000000067db5a62 f   mfc100d:mfc100d.dll
 0001:00034a68       ?OnDestroy@CWnd@@IEAAXXZ   0000000067db5a68 f   mfc100d:mfc100d.dll
 0001:00034a6e       ??3@YAXPEAXPEBDH@Z         0000000067db5a6e f   mfc100d:mfc100d.dll
 0001:00034a74       ?GetParent@CWnd@@QEBAPEAV1@XZ 0000000067db5a74 f   mfc100d:mfc100d.dll
 0001:00034a7a       ??2@YAPEAX_KPEBDH@Z        0000000067db5a7a f   mfc100d:mfc100d.dll
 0001:00034a80       ?ResetContent@CListBox@@QEAAXXZ 0000000067db5a80 f   mfc100d:mfc100d.dll
 0001:00034a86       ?IsWindowEnabled@CWnd@@QEBAHXZ 0000000067db5a86 f   mfc100d:mfc100d.dll
 0001:00034a8c       ?SetCurSel@CListBox@@QEAAHH@Z 0000000067db5a8c f   mfc100d:mfc100d.dll
 0001:00034a92       ?GetCount@CListBox@@QEBAHXZ 0000000067db5a92 f   mfc100d:mfc100d.dll
 0001:00034a98       ?AddString@CListBox@@QEAAHPEBD@Z 0000000067db5a98 f   mfc100d:mfc100d.dll
 0001:00034a9e       ?ReleaseDC@CWnd@@QEAAHPEAVCDC@@@Z 0000000067db5a9e f   mfc100d:mfc100d.dll
 0001:00034aa4       ?SetHorizontalExtent@CListBox@@QEAAXH@Z 0000000067db5aa4 f   mfc100d:mfc100d.dll
 0001:00034aaa       ?GetHorizontalExtent@CListBox@@QEBAHXZ 0000000067db5aaa f   mfc100d:mfc100d.dll
 0001:00034ab0       ?GetTextExtent@CDC@@QEBA?AVCSize@@AEBV?$CStringT@DV?$StrTraitMFC_DLL@DV?$ChTraitsCRT@D@ATL@@@@@ATL@@@Z 0000000067db5ab0 f   mfc100d:mfc100d.dll
 0001:00034ab6       ?GetDC@CWnd@@QEAAPEAVCDC@@XZ 0000000067db5ab6 f   mfc100d:mfc100d.dll
 0001:00034abc       ??Y?$CStringT@DV?$StrTraitMFC_DLL@DV?$ChTraitsCRT@D@ATL@@@@@ATL@@QEAAAEAV01@AEBV?$CSimpleStringT@D$00@1@@Z 0000000067db5abc f   mfc100d:mfc100d.dll
 0001:00034ac2       ??Y?$CStringT@DV?$StrTraitMFC_DLL@DV?$ChTraitsCRT@D@ATL@@@@@ATL@@QEAAAEAV01@PEBD@Z 0000000067db5ac2 f   mfc100d:mfc100d.dll
 0001:00034ac8       ??1CWaitCursor@@QEAA@XZ    0000000067db5ac8 f   mfc100d:mfc100d.dll
 0001:00034ace       ??0CWaitCursor@@QEAA@XZ    0000000067db5ace f   mfc100d:mfc100d.dll
 0001:00034ad4       ??0CBrush@@QEAA@XZ         0000000067db5ad4 f   mfc100d:mfc100d.dll
 0001:00034ada       ?MoveWindow@CWnd@@QEAAXPEBUtagRECT@@H@Z 0000000067db5ada f   mfc100d:mfc100d.dll
 0001:00034ae0       ?GetClientRect@CWnd@@QEBAXPEAUtagRECT@@@Z 0000000067db5ae0 f   mfc100d:mfc100d.dll
 0001:00034ae6       ??_U@YAPEAX_KPEBDH@Z       0000000067db5ae6 f   mfc100d:mfc100d.dll
 0001:00034aec       ?GetSafeHandle@CGdiObject@@QEBAPEAXXZ 0000000067db5aec f   mfc100d:mfc100d.dll
 0001:00034af2       ?OnCtlColor@CWnd@@IEAAPEAUHBRUSH__@@PEAVCDC@@PEAV1@I@Z 0000000067db5af2 f   mfc100d:mfc100d.dll
 0001:00034af8       ?SetButtonStyle@CButton@@QEAAXIH@Z 0000000067db5af8 f   mfc100d:mfc100d.dll
 0001:00034afe       ?GetWindowTextA@CWnd@@QEBAXAEAV?$CStringT@DV?$StrTraitMFC_DLL@DV?$ChTraitsCRT@D@ATL@@@@@ATL@@@Z 0000000067db5afe f   mfc100d:mfc100d.dll
 0001:00034b04       ??1CBrush@@UEAA@XZ         0000000067db5b04 f   mfc100d:mfc100d.dll
 0001:00034b0a       ?RedrawWindow@CWnd@@QEAAHPEBUtagRECT@@PEAVCRgn@@I@Z 0000000067db5b0a f   mfc100d:mfc100d.dll
 0001:00034b10       ?ModifyStyle@CWnd@@QEAAHKKI@Z 0000000067db5b10 f   mfc100d:mfc100d.dll
 0001:00034b16       ?GetThisClass@CStatic@@SAPEAUCRuntimeClass@@XZ 0000000067db5b16 f   mfc100d:mfc100d.dll
 0001:00034b1c       ??1CPen@@UEAA@XZ           0000000067db5b1c f   mfc100d:mfc100d.dll
 0001:00034b22       ??1CRgn@@UEAA@XZ           0000000067db5b22 f   mfc100d:mfc100d.dll
 0001:00034b28       ?CreatePen@CPen@@QEAAHHHK@Z 0000000067db5b28 f   mfc100d:mfc100d.dll
 0001:00034b2e       ?CreateSolidBrush@CBrush@@QEAAHK@Z 0000000067db5b2e f   mfc100d:mfc100d.dll
 0001:00034b34       ?CreateRectRgnIndirect@CRgn@@QEAAHPEBUtagRECT@@@Z 0000000067db5b34 f   mfc100d:mfc100d.dll
 0001:00034b3a       ??0CPen@@QEAA@XZ           0000000067db5b3a f   mfc100d:mfc100d.dll
 0001:00034b40       ??0CRgn@@QEAA@XZ           0000000067db5b40 f   mfc100d:mfc100d.dll
 0001:00034b46       ?AssertValid@CWnd@@UEBAXXZ 0000000067db5b46 f   mfc100d:mfc100d.dll
 0001:00034b4c       ?Dump@CWnd@@UEBAXAEAVCDumpContext@@@Z 0000000067db5b4c f   mfc100d:mfc100d.dll
 0001:00034b52       ?OnCmdMsg@CCmdTarget@@UEAAHIHPEAXPEAUAFX_CMDHANDLERINFO@@@Z 0000000067db5b52 f   mfc100d:mfc100d.dll
 0001:00034b58       ?OnChildNotify@CStatic@@MEAAHI_K_JPEA_J@Z 0000000067db5b58 f   mfc100d:mfc100d.dll
 0001:00034b5e       ?CheckAutoCenter@CWnd@@UEAAHXZ 0000000067db5b5e f   mfc100d:mfc100d.dll
 0001:00034b64       ?SetOccDialogInfo@CWnd@@MEAAHPEAU_AFX_OCC_DIALOG_INFO@@@Z 0000000067db5b64 f   mfc100d:mfc100d.dll
 0001:00034b6a       ?GetOccDialogInfo@CWnd@@MEAAPEAU_AFX_OCC_DIALOG_INFO@@XZ 0000000067db5b6a f   mfc100d:mfc100d.dll
 0001:00034b70       ?Create@CStatic@@UEAAHPEBDKAEBUtagRECT@@PEAVCWnd@@I@Z 0000000067db5b70 f   mfc100d:mfc100d.dll
 0001:00034b76       ?DrawItem@CStatic@@UEAAXPEAUtagDRAWITEMSTRUCT@@@Z 0000000067db5b76 f   mfc100d:mfc100d.dll
 0001:00034b7c       ?DeleteObject@CGdiObject@@QEAAHXZ 0000000067db5b7c f   mfc100d:mfc100d.dll
 0001:00034b82       ?Invalidate@CWnd@@QEAAXH@Z 0000000067db5b82 f   mfc100d:mfc100d.dll
 0001:00034b88       ?GetThisMessageMap@CWnd@@KAPEBUAFX_MSGMAP@@XZ 0000000067db5b88 f   mfc100d:mfc100d.dll
 0001:00034b8e       ?GetSafeHwnd@CWnd@@QEBAPEAUHWND__@@XZ 0000000067db5b8e f   mfc100d:mfc100d.dll
 0001:00034b94       ?OnCreate@CWnd@@IEAAHPEAUtagCREATESTRUCTA@@@Z 0000000067db5b94 f   mfc100d:mfc100d.dll
 0001:00034b9a       ?PreTranslateMessage@CWnd@@UEAAHPEAUtagMSG@@@Z 0000000067db5b9a f   mfc100d:mfc100d.dll
 0001:00034ba0       ??1CPaintDC@@UEAA@XZ       0000000067db5ba0 f   mfc100d:mfc100d.dll
 0001:00034ba6       ??1CDC@@UEAA@XZ            0000000067db5ba6 f   mfc100d:mfc100d.dll
 0001:00034bac       ??1CBitmap@@UEAA@XZ        0000000067db5bac f   mfc100d:mfc100d.dll
 0001:00034bb2       ?DeleteDC@CDC@@QEAAHXZ     0000000067db5bb2 f   mfc100d:mfc100d.dll
 0001:00034bb8       ?BitBlt@CDC@@QEAAHHHHHPEAV1@HHK@Z 0000000067db5bb8 f   mfc100d:mfc100d.dll
 0001:00034bbe       ?SelectObject@CDC@@QEAAPEAVCBrush@@PEAV2@@Z 0000000067db5bbe f   mfc100d:mfc100d.dll
 0001:00034bc4       ?SelectObject@CDC@@QEAAPEAVCPen@@PEAV2@@Z 0000000067db5bc4 f   mfc100d:mfc100d.dll
 0001:00034bca       ?FillRgn@CDC@@QEAAHPEAVCRgn@@PEAVCBrush@@@Z 0000000067db5bca f   mfc100d:mfc100d.dll
 0001:00034bd0       ?SelectObject@CDC@@QEAAPEAVCBitmap@@PEAV2@@Z 0000000067db5bd0 f   mfc100d:mfc100d.dll
 0001:00034bd6       ?CreateCompatibleBitmap@CBitmap@@QEAAHPEAVCDC@@HH@Z 0000000067db5bd6 f   mfc100d:mfc100d.dll
 0001:00034bdc       ?CreateCompatibleDC@CDC@@QEAAHPEAV1@@Z 0000000067db5bdc f   mfc100d:mfc100d.dll
 0001:00034be2       ?GetRgnBox@CRgn@@QEBAHPEAUtagRECT@@@Z 0000000067db5be2 f   mfc100d:mfc100d.dll
 0001:00034be8       ?SelectClipRgn@CDC@@QEAAHPEAVCRgn@@@Z 0000000067db5be8 f   mfc100d:mfc100d.dll
 0001:00034bee       ??0CBitmap@@QEAA@XZ        0000000067db5bee f   mfc100d:mfc100d.dll
 0001:00034bf4       ??0CDC@@QEAA@XZ            0000000067db5bf4 f   mfc100d:mfc100d.dll
 0001:00034bfa       ??0CPaintDC@@QEAA@PEAVCWnd@@@Z 0000000067db5bfa f   mfc100d:mfc100d.dll
 0001:00034c00       ?Rectangle@CDC@@QEAAHPEBUtagRECT@@@Z 0000000067db5c00 f   mfc100d:mfc100d.dll
 0001:00034c06       ?FillRect@CDC@@QEAAXPEBUtagRECT@@PEAVCBrush@@@Z 0000000067db5c06 f   mfc100d:mfc100d.dll
 0001:00034c0c       ?CombineRgn@CRgn@@QEAAHPEBV1@0H@Z 0000000067db5c0c f   mfc100d:mfc100d.dll
 0001:00034c12       ?SetRectRgn@CRgn@@QEAAXPEBUtagRECT@@@Z 0000000067db5c12 f   mfc100d:mfc100d.dll
 0001:00034c18       ?OnSize@CWnd@@IEAAXIHH@Z   0000000067db5c18 f   mfc100d:mfc100d.dll
 0001:00034c1e       ?SetFocus@CWnd@@QEAAPEAV1@XZ 0000000067db5c1e f   mfc100d:mfc100d.dll
 0001:00034c24       ?OnMouseMove@CWnd@@IEAAXIVCPoint@@@Z 0000000067db5c24 f   mfc100d:mfc100d.dll
 0001:00034c2a       ?OnLButtonDown@CWnd@@IEAAXIVCPoint@@@Z 0000000067db5c2a f   mfc100d:mfc100d.dll
 0001:00034c30       ?SetScrollInfo@CScrollBar@@QEAAHPEAUtagSCROLLINFO@@H@Z 0000000067db5c30 f   mfc100d:mfc100d.dll
 0001:00034c36       ?GetScrollInfo@CScrollBar@@QEAAHPEAUtagSCROLLINFO@@I@Z 0000000067db5c36 f   mfc100d:mfc100d.dll
 0001:00034c3c       ?GetThisClass@CDialog@@SAPEAUCRuntimeClass@@XZ 0000000067db5c3c f   mfc100d:mfc100d.dll
 0001:00034c42       ?EndDialog@CDialog@@QEAAXH@Z 0000000067db5c42 f   mfc100d:mfc100d.dll
 0001:00034c48       ?SetFont@CWnd@@QEAAXPEAVCFont@@H@Z 0000000067db5c48 f   mfc100d:mfc100d.dll
 0001:00034c4e       ?GetFont@CWnd@@QEBAPEAVCFont@@XZ 0000000067db5c4e f   mfc100d:mfc100d.dll
 0001:00034c54       ?Create@CEdit@@QEAAHKAEBUtagRECT@@PEAVCWnd@@I@Z 0000000067db5c54 f   mfc100d:mfc100d.dll
 0001:00034c5a       ??_U@YAPEAX_K@Z            0000000067db5c5a f   mfc100d:mfc100d.dll
 0001:00034c60       ?InsertString@CComboBox@@QEAAHHPEBD@Z 0000000067db5c60 f   mfc100d:mfc100d.dll
 0001:00034c66       ?ScreenToClient@CWnd@@QEBAXPEAUtagRECT@@@Z 0000000067db5c66 f   mfc100d:mfc100d.dll
 0001:00034c6c       ??2@YAPEAX_K@Z             0000000067db5c6c f   mfc100d:mfc100d.dll
 0001:00034c72       ?CreateStockObject@CGdiObject@@QEAAHH@Z 0000000067db5c72 f   mfc100d:mfc100d.dll
 0001:00034c78       ?LoadStandardCursor@CWinApp@@QEBAPEAUHICON__@@PEBD@Z 0000000067db5c78 f   mfc100d:mfc100d.dll
 0001:00034c7e       ?OnLButtonUp@CWnd@@IEAAXIVCPoint@@@Z 0000000067db5c7e f   mfc100d:mfc100d.dll
 0001:00034c84       ?OnLButtonDblClk@CWnd@@IEAAXIVCPoint@@@Z 0000000067db5c84 f   mfc100d:mfc100d.dll
 0001:00034c8a       ?OnKeyDown@CWnd@@IEAAXIII@Z 0000000067db5c8a f   mfc100d:mfc100d.dll
 0001:00034c90       ?OnKeyUp@CWnd@@IEAAXIII@Z  0000000067db5c90 f   mfc100d:mfc100d.dll
 0001:00034c96       ?OnSysKeyDown@CWnd@@IEAAXIII@Z 0000000067db5c96 f   mfc100d:mfc100d.dll
 0001:00034c9c       ?OnMouseWheel@CWnd@@IEAAHIFVCPoint@@@Z 0000000067db5c9c f   mfc100d:mfc100d.dll
 0001:00034ca2       ?ClientToScreen@CWnd@@QEBAXPEAUtagRECT@@@Z 0000000067db5ca2 f   mfc100d:mfc100d.dll
 0001:00034ca8       ?OnSetCursor@CWnd@@IEAAHPEAV1@II@Z 0000000067db5ca8 f   mfc100d:mfc100d.dll
 0001:00034cae       ?ScreenToClient@CWnd@@QEBAXPEAUtagPOINT@@@Z 0000000067db5cae f   mfc100d:mfc100d.dll
 0001:00034cb4       ??0CRectTracker@@QEAA@XZ   0000000067db5cb4 f   mfc100d:mfc100d.dll
 0001:00034cba       ?DrawTrackerRect@CRectTracker@@UEAAXPEBUtagRECT@@PEAVCWnd@@PEAVCDC@@1@Z 0000000067db5cba f   mfc100d:mfc100d.dll
 0001:00034cc0       ?OnChangedRect@CRectTracker@@UEAAXAEBVCRect@@@Z 0000000067db5cc0 f   mfc100d:mfc100d.dll
 0001:00034cc6       ?GetHandleMask@CRectTracker@@UEBAIXZ 0000000067db5cc6 f   mfc100d:mfc100d.dll
 0001:00034ccc       ?GetHandleSize@CRectTracker@@MEBAHPEBUtagRECT@@@Z 0000000067db5ccc f   mfc100d:mfc100d.dll
 0001:00034cd2       ?GetScrollInfo@CWnd@@QEAAHHPEAUtagSCROLLINFO@@I@Z 0000000067db5cd2 f   mfc100d:mfc100d.dll
 0001:00034cd8       ?SetScrollInfo@CWnd@@QEAAHHPEAUtagSCROLLINFO@@H@Z 0000000067db5cd8 f   mfc100d:mfc100d.dll
 0001:00034cde       ?FillSolidRect@CDC@@QEAAXPEBUtagRECT@@K@Z 0000000067db5cde f   mfc100d:mfc100d.dll
 0001:00034ce4       ?GetBkColor@CDC@@QEBAKXZ   0000000067db5ce4 f   mfc100d:mfc100d.dll
 0001:00034cea       ?InvalidateRect@CWnd@@QEAAXPEBUtagRECT@@H@Z 0000000067db5cea f   mfc100d:mfc100d.dll
 0001:00034cf0       ?MoveWindow@CWnd@@QEAAXHHHHH@Z 0000000067db5cf0 f   mfc100d:mfc100d.dll
 0001:00034cf6       ?ShowScrollBar@CScrollBar@@QEAAXH@Z 0000000067db5cf6 f   mfc100d:mfc100d.dll
 0001:00034cfc       ??1CClientDC@@UEAA@XZ      0000000067db5cfc f   mfc100d:mfc100d.dll
 0001:00034d02       ?Draw@CRectTracker@@QEBAXPEAVCDC@@@Z 0000000067db5d02 f   mfc100d:mfc100d.dll
 0001:00034d08       ?SetWindowOrg@CDC@@QEAA?AVCPoint@@HH@Z 0000000067db5d08 f   mfc100d:mfc100d.dll
 0001:00034d0e       ??0CClientDC@@QEAA@PEAVCWnd@@@Z 0000000067db5d0e f   mfc100d:mfc100d.dll
 0001:00034d14       ?Track@CRectTracker@@QEAAHPEAVCWnd@@VCPoint@@H0@Z 0000000067db5d14 f   mfc100d:mfc100d.dll
 0001:00034d1a       ?TrackRubberBand@CRectTracker@@QEAAHPEAVCWnd@@VCPoint@@H@Z 0000000067db5d1a f   mfc100d:mfc100d.dll
 0001:00034d20       ?HitTest@CRectTracker@@QEBAHVCPoint@@@Z 0000000067db5d20 f   mfc100d:mfc100d.dll
 0001:00034d26       ?SetCursor@CRectTracker@@QEBAHPEAVCWnd@@I@Z 0000000067db5d26 f   mfc100d:mfc100d.dll
 0001:00034d2c       ??1CRectTracker@@UEAA@XZ   0000000067db5d2c f   mfc100d:mfc100d.dll
 0001:00034d32       ?GetThisInterfaceMap@CWnd@@KAPEBUAFX_INTERFACEMAP@@XZ 0000000067db5d32 f   mfc100d:mfc100d.dll
 0001:00034d38       ?GetThisDispatchMap@CCmdTarget@@KAPEBUAFX_DISPMAP@@XZ 0000000067db5d38 f   mfc100d:mfc100d.dll
 0001:00034d3e       ?DDX_Text@@YAXPEAVCDataExchange@@HAEAI@Z 0000000067db5d3e f   mfc100d:mfc100d.dll
 0001:00034d44       ?GetThisClass@CFileDialog@@SAPEAUCRuntimeClass@@XZ 0000000067db5d44 f   mfc100d:mfc100d.dll
 0001:00034d4a       ?Dump@CFileDialog@@UEBAXAEAVCDumpContext@@@Z 0000000067db5d4a f   mfc100d:mfc100d.dll
 0001:00034d50       ?GetInterfaceMap@CFileDialog@@MEBAPEBUAFX_INTERFACEMAP@@XZ 0000000067db5d50 f   mfc100d:mfc100d.dll
 0001:00034d56       ?OnNotify@CFileDialog@@MEAAH_K_JPEA_J@Z 0000000067db5d56 f   mfc100d:mfc100d.dll
 0001:00034d5c       ?OnOK@CCommonDialog@@MEAAXXZ 0000000067db5d5c f   mfc100d:mfc100d.dll
 0001:00034d62       ?OnCancel@CCommonDialog@@MEAAXXZ 0000000067db5d62 f   mfc100d:mfc100d.dll
 0001:00034d68       ?UpdateOFNFromShellDialog@CFileDialog@@UEAAXXZ 0000000067db5d68 f   mfc100d:mfc100d.dll
 0001:00034d6e       ?OnShareViolation@CFileDialog@@MEAAIPEBD@Z 0000000067db5d6e f   mfc100d:mfc100d.dll
 0001:00034d74       ?OnFileNameOK@CFileDialog@@MEAAHXZ 0000000067db5d74 f   mfc100d:mfc100d.dll
 0001:00034d7a       ?OnLBSelChangedNotify@CFileDialog@@MEAAXIII@Z 0000000067db5d7a f   mfc100d:mfc100d.dll
 0001:00034d80       ?OnInitDone@CFileDialog@@MEAAXXZ 0000000067db5d80 f   mfc100d:mfc100d.dll
 0001:00034d86       ?OnFileNameChange@CFileDialog@@MEAAXXZ 0000000067db5d86 f   mfc100d:mfc100d.dll
 0001:00034d8c       ?OnFolderChange@CFileDialog@@MEAAXXZ 0000000067db5d8c f   mfc100d:mfc100d.dll
 0001:00034d92       ?OnItemSelected@CFileDialog@@MEAAXKK@Z 0000000067db5d92 f   mfc100d:mfc100d.dll
 0001:00034d98       ?OnButtonClicked@CFileDialog@@MEAAXK@Z 0000000067db5d98 f   mfc100d:mfc100d.dll
 0001:00034d9e       ?OnCheckButtonToggled@CFileDialog@@MEAAXKH@Z 0000000067db5d9e f   mfc100d:mfc100d.dll
 0001:00034da4       ?OnControlActivating@CFileDialog@@MEAAXK@Z 0000000067db5da4 f   mfc100d:mfc100d.dll
 0001:00034daa       ?AfxAssertValidObject@@YAXPEBVCObject@@PEBDH@Z 0000000067db5daa f   mfc100d:mfc100d.dll
 0001:00034db0       ?GetFileTitle@CFileDialog@@QEBA?AV?$CStringT@DV?$StrTraitMFC_DLL@DV?$ChTraitsCRT@D@ATL@@@@@ATL@@XZ 0000000067db5db0 f   mfc100d:mfc100d.dll
 0001:00034db6       ?GetForegroundWindow@CWnd@@SAPEAV1@XZ 0000000067db5db6 f   mfc100d:mfc100d.dll
 0001:00034dbc       ?GetThisMessageMap@CCommonDialog@@KAPEBUAFX_MSGMAP@@XZ 0000000067db5dbc f   mfc100d:mfc100d.dll
 0001:00034dc2       ?AfxGetModuleState@@YAPEAVAFX_MODULE_STATE@@XZ 0000000067db5dc2 f   mfc100d:mfc100d.dll
 0001:00034dc8       ??3CObject@@SAXPEAXPEBDH@Z 0000000067db5dc8 f   mfc100d:mfc100d.dll
 0001:00034dce       ??0CDynLinkLibrary@@QEAA@AEAUAFX_EXTENSION_MODULE@@H@Z 0000000067db5dce f   mfc100d:mfc100d.dll
 0001:00034dd4       ??2CObject@@SAPEAX_KPEBDH@Z 0000000067db5dd4 f   mfc100d:mfc100d.dll
 0001:00034dda       ?AfxTermExtensionModule@@YAXAEAUAFX_EXTENSION_MODULE@@H@Z 0000000067db5dda f   mfc100d:mfc100d.dll
 0001:00034de0       ?AfxInitExtensionModule@@YAHAEAUAFX_EXTENSION_MODULE@@PEAUHINSTANCE__@@@Z 0000000067db5de0 f   mfc100d:mfc100d.dll
 0001:00034de6       ?AdjustRect@CRectTracker@@UEAAXHPEAUtagRECT@@@Z 0000000067db5de6 f   mfc100d:mfc100d.dll
 0001:00034dec       ??1CSpinButtonCtrl@@UEAA@XZ 0000000067db5dec f   mfc100d:mfc100d.dll
 0001:00034df2       ?DDV_MinMaxFloat@@YAXPEAVCDataExchange@@AEBMMM@Z 0000000067db5df2 f   mfc100d:mfc100d.dll
 0001:00034df8       ?DDX_Text@@YAXPEAVCDataExchange@@HAEAK@Z 0000000067db5df8 f   mfc100d:mfc100d.dll
 0001:00034dfe       ??0CSpinButtonCtrl@@QEAA@XZ 0000000067db5dfe f   mfc100d:mfc100d.dll
 0001:00034e10       ??_Estringdispid@CComTypeInfoHolder@ATL@@QEAAPEAXI@Z 0000000067db5e10 f i mfcs100d:nolib.obj
 0001:00034ea0       ??1stringdispid@CComTypeInfoHolder@ATL@@QEAA@XZ 0000000067db5ea0 f i mfcs100d:nolib.obj
 0001:00034ec0       ??1CComBSTR@ATL@@QEAA@XZ   0000000067db5ec0 f i mfcs100d:nolib.obj
 0001:00034ee0       _RTC_InitBase              0000000067db5ee0 f   msvcrtd:_init_.obj
 0001:00034f20       _RTC_Shutdown              0000000067db5f20 f   msvcrtd:_init_.obj
 0001:00034f50       ??0type_info@@AEAA@AEBV0@@Z 0000000067db5f50 f   msvcrtd:ti_inst.obj
 0001:00034f70       ??_Etype_info@@UEAAPEAXI@Z 0000000067db5f70 f i msvcrtd:ti_inst.obj
 0001:00035000       ??4type_info@@AEAAAEAV0@AEBV0@@Z 0000000067db6000 f   msvcrtd:ti_inst.obj
 0001:00035010       ??_M@YAXPEAX_KHP6AX0@Z@Z   0000000067db6010 f   msvcrtd:ehvecdtr.obj
 0001:000350c0       ?__ArrayUnwind@@YAXPEAX_KHP6AX0@Z@Z 0000000067db60c0 f   msvcrtd:ehvecdtr.obj
 0001:0003514a       __CxxFrameHandler3         0000000067db614a f   msvcrtd:MSVCR100D.dll
 0001:00035150       __GSHandlerCheck_EH        0000000067db6150 f   msvcrtd:gshandlereh.obj
 0001:00035210       __security_check_cookie    0000000067db6210 f   msvcrtd:amdsecgs.obj
 0001:00035230       _RTC_CheckStackVars        0000000067db6230 f   msvcrtd:_stack_.obj
 0001:000352c0       _RTC_AllocaHelper          0000000067db62c0 f   msvcrtd:_stack_.obj
 0001:00035300       _RTC_CheckStackVars2       0000000067db6300 f   msvcrtd:_stack_.obj
 0001:00035408       strstr                     0000000067db6408 f   msvcrtd:MSVCR100D.dll
 0001:00035410       __GSHandlerCheck           0000000067db6410 f   msvcrtd:gshandler.obj
 0001:00035450       __GSHandlerCheckCommon     0000000067db6450 f   msvcrtd:gshandler.obj
 0001:00035548       _splitpath_s               0000000067db6548 f   msvcrtd:MSVCR100D.dll
 0001:0003554e       strrchr                    0000000067db654e f   msvcrtd:MSVCR100D.dll
 0001:00035554       _vsnprintf                 0000000067db6554 f   msvcrtd:MSVCR100D.dll
 0001:00035560       _onexit                    0000000067db6560 f   msvcrtd:atonexit.obj
 0001:00035620       atexit                     0000000067db6620 f   msvcrtd:atonexit.obj
 0001:00035654       memset                     0000000067db6654 f   msvcrtd:MSVCR100D.dll
 0001:0003565a       strcmp                     0000000067db665a f   msvcrtd:MSVCR100D.dll
 0001:00035660       ??_L@YAXPEAX_KHP6AX0@Z2@Z  0000000067db6660 f   msvcrtd:ehvecctr.obj
 0001:000356ec       memcpy                     0000000067db66ec f   msvcrtd:MSVCR100D.dll
 0001:000356f2       strlen                     0000000067db66f2 f   msvcrtd:MSVCR100D.dll
 0001:000356f8       memmove                    0000000067db66f8 f   msvcrtd:MSVCR100D.dll
 0001:000356fe       _CxxThrowException         0000000067db66fe f   msvcrtd:MSVCR100D.dll
 0001:00035704       ??0exception@std@@QEAA@AEBV01@@Z 0000000067db6704 f   msvcrtd:MSVCR100D.dll
 0001:0003570a       ??0exception@std@@QEAA@AEBQEBD@Z 0000000067db670a f   msvcrtd:MSVCR100D.dll
 0001:00035710       ?what@exception@std@@UEBAPEBDXZ 0000000067db6710 f   msvcrtd:MSVCR100D.dll
 0001:00035716       ??1exception@std@@UEAA@XZ  0000000067db6716 f   msvcrtd:MSVCR100D.dll
 0001:0003571c       floorf                     0000000067db671c f   msvcrtd:MSVCR100D.dll
 0001:000357c0       _CRT_INIT                  0000000067db67c0 f   msvcrtd:crtdll.obj
 0001:00035b80       NtCurrentTeb               0000000067db6b80 f i msvcrtd:crtdll.obj
 0001:00035b90       _DllMainCRTStartup         0000000067db6b90 f   msvcrtd:crtdll.obj
 0001:00035d50       _RTC_NumErrors             0000000067db6d50 f   msvcrtd:_userapi_.obj
 0001:00035d60       _RTC_GetErrDesc            0000000067db6d60 f   msvcrtd:_userapi_.obj
 0001:00035d80       _RTC_SetErrorType          0000000067db6d80 f   msvcrtd:_userapi_.obj
 0001:00035da0       _RTC_SetErrorFunc          0000000067db6da0 f   msvcrtd:_userapi_.obj
 0001:00035dc0       _RTC_SetErrorFuncW         0000000067db6dc0 f   msvcrtd:_userapi_.obj
 0001:00035de0       ?_RTC_GetErrorFunc@@YAP6AHHPEBDH00ZZPEBX@Z 0000000067db6de0 f   msvcrtd:_userapi_.obj
 0001:00035df0       ?_RTC_GetErrorFuncW@@YAP6AHHPEB_WH00ZZPEBX@Z 0000000067db6df0 f   msvcrtd:_userapi_.obj
 0001:00035df8       _CRT_RTC_INITW             0000000067db6df8 f   msvcrtd:MSVCR100D.dll
 0001:00035dfe       __C_specific_handler       0000000067db6dfe f   msvcrtd:MSVCR100D.dll
 0001:00035e04       ?terminate@@YAXXZ          0000000067db6e04 f   msvcrtd:MSVCR100D.dll
 0001:00035e10       __report_gsfailure         0000000067db6e10 f   msvcrtd:gs_report.obj
 0001:00035f60       ?_RTC_Failure@@YAXPEAXH@Z  0000000067db6f60 f   msvcrtd:_error_.obj
 0001:000362c0       ?_RTC_StackFailure@@YAXPEAXPEBD@Z 0000000067db72c0 f   msvcrtd:_error_.obj
 0001:000363d0       ?_RTC_AllocaFailure@@YAXPEAXPEAU_RTC_ALLOCA_NODE@@H@Z 0000000067db73d0 f   msvcrtd:_error_.obj
 0001:00036610       _RTC_UninitUse             0000000067db7610 f   msvcrtd:_error_.obj
 0001:0003671e       _unlock                    0000000067db771e f   msvcrtd:MSVCR100D.dll
 0001:00036724       __dllonexit                0000000067db7724 f   msvcrtd:MSVCR100D.dll
 0001:0003672a       _lock                      0000000067db772a f   msvcrtd:MSVCR100D.dll
 0001:00036730       __clean_type_info_names    0000000067db7730 f   msvcrtd:tncleanup.obj
 0001:00036750       _RTC_Initialize            0000000067db7750 f   msvcrtd:_initsect_.obj
 0001:00036790       _RTC_Terminate             0000000067db7790 f   msvcrtd:_initsect_.obj
 0001:000367ce       _malloc_dbg                0000000067db77ce f   msvcrtd:MSVCR100D.dll
 0001:000367d4       _free_dbg                  0000000067db77d4 f   msvcrtd:MSVCR100D.dll
 0001:000367da       _encoded_null              0000000067db77da f   msvcrtd:MSVCR100D.dll
 0001:000367e0       _CrtSetCheckCount          0000000067db77e0 f   msvcrtd:MSVCR100D.dll
 0001:000367f0       _ValidateImageBase         0000000067db77f0 f   msvcrtd:pesect.obj
 0001:00036870       _FindPESection             0000000067db7870 f   msvcrtd:pesect.obj
 0001:00036920       _IsNonwritableInCurrentImage 0000000067db7920 f   msvcrtd:pesect.obj
 0001:000369ae       _initterm                  0000000067db79ae f   msvcrtd:MSVCR100D.dll
 0001:000369b4       _initterm_e                0000000067db79b4 f   msvcrtd:MSVCR100D.dll
 0001:000369ba       _amsg_exit                 0000000067db79ba f   msvcrtd:MSVCR100D.dll
 0001:000369c0       __security_init_cookie     0000000067db79c0 f   msvcrtd:gs_support.obj
 0001:00036ace       __CppXcptFilter            0000000067db7ace f   msvcrtd:MSVCR100D.dll
 0001:00036ad4       ?_type_info_dtor_internal_method@type_info@@QEAAXXZ 0000000067db7ad4 f   msvcrtd:MSVCR100D.dll
 0001:00036ad4       ??1type_info@@UEAA@XZ      0000000067db7ad4 f   msvcrtd:MSVCR100D.dll
 0001:00036ada       __crt_debugger_hook        0000000067db7ada f   msvcrtd:MSVCR100D.dll
 0001:00036ae0       ?_RTC_GetSrcLine@@YAHPEAEPEA_WKPEAH1K@Z 0000000067db7ae0 f   msvcrtd:_pdblkup_.obj
 0001:000370a2       __clean_type_info_names_internal 0000000067db80a2 f   msvcrtd:MSVCR100D.dll
 0001:000370a8       GetTickCount               0000000067db80a8 f   kernel32:KERNEL32.dll
 0001:000370ae       GetPrivateProfileStringA   0000000067db80ae f   kernel32:KERNEL32.dll
 0001:000370b4       Sleep                      0000000067db80b4 f   kernel32:KERNEL32.dll
 0001:000370ba       EncodePointer              0000000067db80ba f   kernel32:KERNEL32.dll
 0001:000370c0       DecodePointer              0000000067db80c0 f   kernel32:KERNEL32.dll
 0001:000370c6       TerminateProcess           0000000067db80c6 f   kernel32:KERNEL32.dll
 0001:000370cc       GetCurrentProcess          0000000067db80cc f   kernel32:KERNEL32.dll
 0001:000370d2       UnhandledExceptionFilter   0000000067db80d2 f   kernel32:KERNEL32.dll
 0001:000370d8       SetUnhandledExceptionFilter 0000000067db80d8 f   kernel32:KERNEL32.dll
 0001:000370de       IsDebuggerPresent          0000000067db80de f   kernel32:KERNEL32.dll
 0001:000370e4       RtlVirtualUnwind           0000000067db80e4 f   kernel32:KERNEL32.dll
 0001:000370ea       RtlLookupFunctionEntry     0000000067db80ea f   kernel32:KERNEL32.dll
 0001:000370f0       RtlCaptureContext          0000000067db80f0 f   kernel32:KERNEL32.dll
 0001:000370f6       WideCharToMultiByte        0000000067db80f6 f   kernel32:KERNEL32.dll
 0001:000370fc       MultiByteToWideChar        0000000067db80fc f   kernel32:KERNEL32.dll
 0001:00037102       RaiseException             0000000067db8102 f   kernel32:KERNEL32.dll
 0001:00037108       lstrlenA                   0000000067db8108 f   kernel32:KERNEL32.dll
 0001:0003710e       GetProcAddress             0000000067db810e f   kernel32:KERNEL32.dll
 0001:00037114       LoadLibraryW               0000000067db8114 f   kernel32:KERNEL32.dll
 0001:0003711a       QueryPerformanceCounter    0000000067db811a f   kernel32:KERNEL32.dll
 0001:00037120       GetCurrentThreadId         0000000067db8120 f   kernel32:KERNEL32.dll
 0001:00037126       GetCurrentProcessId        0000000067db8126 f   kernel32:KERNEL32.dll
 0001:0003712c       GetSystemTimeAsFileTime    0000000067db812c f   kernel32:KERNEL32.dll
 0001:00037132       HeapFree                   0000000067db8132 f   kernel32:KERNEL32.dll
 0001:00037138       HeapAlloc                  0000000067db8138 f   kernel32:KERNEL32.dll
 0001:0003713e       GetProcessHeap             0000000067db813e f   kernel32:KERNEL32.dll
 0001:00037144       GetModuleFileNameW         0000000067db8144 f   kernel32:KERNEL32.dll
 0001:0003714a       VirtualQuery               0000000067db814a f   kernel32:KERNEL32.dll
 0001:00037150       FreeLibrary                0000000067db8150 f   kernel32:KERNEL32.dll
 0001:00037156       GetFocus                   0000000067db8156 f   user32:USER32.dll
 0001:0003715c       SetDlgItemTextA            0000000067db815c f   user32:USER32.dll
 0001:00037162       SetForegroundWindow        0000000067db8162 f   user32:USER32.dll
 0001:00037168       GetSystemMetrics           0000000067db8168 f   user32:USER32.dll
 0001:0003716e       TrackMouseEvent            0000000067db816e f   user32:USER32.dll
 0001:00037174       SetCursor                  0000000067db8174 f   user32:USER32.dll
 0001:0003717a       GetCursorPos               0000000067db817a f   user32:USER32.dll
 0001:00037180       SetCursorPos               0000000067db8180 f   user32:USER32.dll
 0001:00037186       IsIconic                   0000000067db8186 f   user32:USER32.dll
 0001:0003718c       GetSaveFileNameA           0000000067db818c f   comdlg32:COMDLG32.dll
 0001:000371a0       ??0CSize@@QEAA@XZ          0000000067db81a0 f   atlsd:atltypes.obj
 0001:000371d0       ??0CSize@@QEAA@HH@Z        0000000067db81d0 f   atlsd:atltypes.obj
 0001:00037200       ??0CSize@@QEAA@UtagSIZE@@@Z 0000000067db8200 f   atlsd:atltypes.obj
 0001:00037220       ??0CSize@@QEAA@UtagPOINT@@@Z 0000000067db8220 f   atlsd:atltypes.obj
 0001:00037240       ??0CSize@@QEAA@K@Z         0000000067db8240 f   atlsd:atltypes.obj
 0001:00037280       ??8CSize@@QEBAHUtagSIZE@@@Z 0000000067db8280 f   atlsd:atltypes.obj
 0001:000372d0       ??9CSize@@QEBAHUtagSIZE@@@Z 0000000067db82d0 f   atlsd:atltypes.obj
 0001:00037320       ??YCSize@@QEAAXUtagSIZE@@@Z 0000000067db8320 f   atlsd:atltypes.obj
 0001:00037360       ??ZCSize@@QEAAXUtagSIZE@@@Z 0000000067db8360 f   atlsd:atltypes.obj
 0001:000373a0       ?SetSize@CSize@@QEAAXHH@Z  0000000067db83a0 f   atlsd:atltypes.obj
 0001:000373d0       ??HCSize@@QEBA?AV0@UtagSIZE@@@Z 0000000067db83d0 f   atlsd:atltypes.obj
 0001:00037420       ??GCSize@@QEBA?AV0@UtagSIZE@@@Z 0000000067db8420 f   atlsd:atltypes.obj
 0001:00037470       ??GCSize@@QEBA?AV0@XZ      0000000067db8470 f   atlsd:atltypes.obj
 0001:000374b0       ??HCSize@@QEBA?AVCPoint@@UtagPOINT@@@Z 0000000067db84b0 f   atlsd:atltypes.obj
 0001:00037500       ??GCSize@@QEBA?AVCPoint@@UtagPOINT@@@Z 0000000067db8500 f   atlsd:atltypes.obj
 0001:00037550       ??HCSize@@QEBA?AVCRect@@PEBUtagRECT@@@Z 0000000067db8550 f   atlsd:atltypes.obj
 0001:000375c0       ??GCSize@@QEBA?AVCRect@@PEBUtagRECT@@@Z 0000000067db85c0 f   atlsd:atltypes.obj
 0001:00037630       ??0CPoint@@QEAA@XZ         0000000067db8630 f   atlsd:atltypes.obj
 0001:00037660       ??0CPoint@@QEAA@HH@Z       0000000067db8660 f   atlsd:atltypes.obj
 0001:00037690       ??0CPoint@@QEAA@UtagPOINT@@@Z 0000000067db8690 f   atlsd:atltypes.obj
 0001:000376b0       ??0CPoint@@QEAA@UtagSIZE@@@Z 0000000067db86b0 f   atlsd:atltypes.obj
 0001:000376d0       ??0CPoint@@QEAA@_J@Z       0000000067db86d0 f   atlsd:atltypes.obj
 0001:00037710       ?Offset@CPoint@@QEAAXHH@Z  0000000067db8710 f   atlsd:atltypes.obj
 0001:00037750       ?Offset@CPoint@@QEAAXUtagPOINT@@@Z 0000000067db8750 f   atlsd:atltypes.obj
 0001:00037790       ?Offset@CPoint@@QEAAXUtagSIZE@@@Z 0000000067db8790 f   atlsd:atltypes.obj
 0001:000377d0       ?SetPoint@CPoint@@QEAAXHH@Z 0000000067db87d0 f   atlsd:atltypes.obj
 0001:00037800       ??8CPoint@@QEBAHUtagPOINT@@@Z 0000000067db8800 f   atlsd:atltypes.obj
 0001:00037850       ??9CPoint@@QEBAHUtagPOINT@@@Z 0000000067db8850 f   atlsd:atltypes.obj
 0001:000378a0       ??YCPoint@@QEAAXUtagSIZE@@@Z 0000000067db88a0 f   atlsd:atltypes.obj
 0001:000378e0       ??ZCPoint@@QEAAXUtagSIZE@@@Z 0000000067db88e0 f   atlsd:atltypes.obj
 0001:00037920       ??YCPoint@@QEAAXUtagPOINT@@@Z 0000000067db8920 f   atlsd:atltypes.obj
 0001:00037960       ??ZCPoint@@QEAAXUtagPOINT@@@Z 0000000067db8960 f   atlsd:atltypes.obj
 0001:000379a0       ??HCPoint@@QEBA?AV0@UtagSIZE@@@Z 0000000067db89a0 f   atlsd:atltypes.obj
 0001:000379f0       ??GCPoint@@QEBA?AV0@UtagSIZE@@@Z 0000000067db89f0 f   atlsd:atltypes.obj
 0001:00037a40       ??GCPoint@@QEBA?AV0@XZ     0000000067db8a40 f   atlsd:atltypes.obj
 0001:00037a80       ??HCPoint@@QEBA?AV0@UtagPOINT@@@Z 0000000067db8a80 f   atlsd:atltypes.obj
 0001:00037ad0       ??GCPoint@@QEBA?AVCSize@@UtagPOINT@@@Z 0000000067db8ad0 f   atlsd:atltypes.obj
 0001:00037b20       ??HCPoint@@QEBA?AVCRect@@PEBUtagRECT@@@Z 0000000067db8b20 f   atlsd:atltypes.obj
 0001:00037b90       ??GCPoint@@QEBA?AVCRect@@PEBUtagRECT@@@Z 0000000067db8b90 f   atlsd:atltypes.obj
 0001:00037c00       ??0CRect@@QEAA@XZ          0000000067db8c00 f   atlsd:atltypes.obj
 0001:00037c40       ??0CRect@@QEAA@HHHH@Z      0000000067db8c40 f   atlsd:atltypes.obj
 0001:00037c90       ??0CRect@@QEAA@AEBUtagRECT@@@Z 0000000067db8c90 f   atlsd:atltypes.obj
 0001:00037cc0       ??0CRect@@QEAA@PEBUtagRECT@@@Z 0000000067db8cc0 f   atlsd:atltypes.obj
 0001:00037cf0       ??0CRect@@QEAA@UtagPOINT@@UtagSIZE@@@Z 0000000067db8cf0 f   atlsd:atltypes.obj
 0001:00037d50       ??0CRect@@QEAA@UtagPOINT@@0@Z 0000000067db8d50 f   atlsd:atltypes.obj
 0001:00037da0       ?Width@CRect@@QEBAHXZ      0000000067db8da0 f   atlsd:atltypes.obj
 0001:00037dc0       ?Height@CRect@@QEBAHXZ     0000000067db8dc0 f   atlsd:atltypes.obj
 0001:00037de0       ?Size@CRect@@QEBA?AVCSize@@XZ 0000000067db8de0 f   atlsd:atltypes.obj
 0001:00037e30       ?TopLeft@CRect@@QEAAAEAVCPoint@@XZ 0000000067db8e30 f   atlsd:atltypes.obj
 0001:00037e40       ?BottomRight@CRect@@QEAAAEAVCPoint@@XZ 0000000067db8e40 f   atlsd:atltypes.obj
 0001:00037e50       ?TopLeft@CRect@@QEBAAEBVCPoint@@XZ 0000000067db8e50 f   atlsd:atltypes.obj
 0001:00037e60       ?BottomRight@CRect@@QEBAAEBVCPoint@@XZ 0000000067db8e60 f   atlsd:atltypes.obj
 0001:00037e70       ?CenterPoint@CRect@@QEBA?AVCPoint@@XZ 0000000067db8e70 f   atlsd:atltypes.obj
 0001:00037ed0       ?SwapLeftRight@CRect@@QEAAXXZ 0000000067db8ed0 f   atlsd:atltypes.obj
 0001:00037ef0       ?SwapLeftRight@CRect@@SAXPEAUtagRECT@@@Z 0000000067db8ef0 f   atlsd:atltypes.obj
 0001:00037f30       ??BCRect@@QEAAPEAUtagRECT@@XZ 0000000067db8f30 f   atlsd:atltypes.obj
 0001:00037f40       ??BCRect@@QEBAPEBUtagRECT@@XZ 0000000067db8f40 f   atlsd:atltypes.obj
 0001:00037f50       ?IsRectEmpty@CRect@@QEBAHXZ 0000000067db8f50 f   atlsd:atltypes.obj
 0001:00037f70       ?IsRectNull@CRect@@QEBAHXZ 0000000067db8f70 f   atlsd:atltypes.obj
 0001:00037fc0       ?PtInRect@CRect@@QEBAHUtagPOINT@@@Z 0000000067db8fc0 f   atlsd:atltypes.obj
 0001:00037ff0       ?SetRect@CRect@@QEAAXHHHH@Z 0000000067db8ff0 f   atlsd:atltypes.obj
 0001:00038030       ?SetRect@CRect@@QEAAXUtagPOINT@@0@Z 0000000067db9030 f   atlsd:atltypes.obj
 0001:00038070       ?SetRectEmpty@CRect@@QEAAXXZ 0000000067db9070 f   atlsd:atltypes.obj
 0001:00038090       ?CopyRect@CRect@@QEAAXPEBUtagRECT@@@Z 0000000067db9090 f   atlsd:atltypes.obj
 0001:000380c0       ?EqualRect@CRect@@QEBAHPEBUtagRECT@@@Z 0000000067db90c0 f   atlsd:atltypes.obj
 0001:000380f0       ?InflateRect@CRect@@QEAAXHH@Z 0000000067db90f0 f   atlsd:atltypes.obj
 0001:00038120       ?InflateRect@CRect@@QEAAXUtagSIZE@@@Z 0000000067db9120 f   atlsd:atltypes.obj
 0001:00038150       ?DeflateRect@CRect@@QEAAXHH@Z 0000000067db9150 f   atlsd:atltypes.obj
 0001:00038190       ?DeflateRect@CRect@@QEAAXUtagSIZE@@@Z 0000000067db9190 f   atlsd:atltypes.obj
 0001:000381c0       ?OffsetRect@CRect@@QEAAXHH@Z 0000000067db91c0 f   atlsd:atltypes.obj
 0001:000381f0       ?OffsetRect@CRect@@QEAAXUtagPOINT@@@Z 0000000067db91f0 f   atlsd:atltypes.obj
 0001:00038220       ?OffsetRect@CRect@@QEAAXUtagSIZE@@@Z 0000000067db9220 f   atlsd:atltypes.obj
 0001:00038250       ?MoveToY@CRect@@QEAAXH@Z   0000000067db9250 f   atlsd:atltypes.obj
 0001:00038290       ?MoveToX@CRect@@QEAAXH@Z   0000000067db9290 f   atlsd:atltypes.obj
 0001:000382d0       ?MoveToXY@CRect@@QEAAXHH@Z 0000000067db92d0 f   atlsd:atltypes.obj
 0001:00038310       ?MoveToXY@CRect@@QEAAXUtagPOINT@@@Z 0000000067db9310 f   atlsd:atltypes.obj
 0001:00038340       ?IntersectRect@CRect@@QEAAHPEBUtagRECT@@0@Z 0000000067db9340 f   atlsd:atltypes.obj
 0001:00038370       ?UnionRect@CRect@@QEAAHPEBUtagRECT@@0@Z 0000000067db9370 f   atlsd:atltypes.obj
 0001:000383a0       ??4CRect@@QEAAXAEBUtagRECT@@@Z 0000000067db93a0 f   atlsd:atltypes.obj
 0001:000383d0       ??8CRect@@QEBAHAEBUtagRECT@@@Z 0000000067db93d0 f   atlsd:atltypes.obj
 0001:00038400       ??9CRect@@QEBAHAEBUtagRECT@@@Z 0000000067db9400 f   atlsd:atltypes.obj
 0001:00038440       ??YCRect@@QEAAXUtagPOINT@@@Z 0000000067db9440 f   atlsd:atltypes.obj
 0001:00038470       ??YCRect@@QEAAXUtagSIZE@@@Z 0000000067db9470 f   atlsd:atltypes.obj
 0001:000384a0       ??YCRect@@QEAAXPEBUtagRECT@@@Z 0000000067db94a0 f   atlsd:atltypes.obj
 0001:000384d0       ??ZCRect@@QEAAXUtagPOINT@@@Z 0000000067db94d0 f   atlsd:atltypes.obj
 0001:00038500       ??ZCRect@@QEAAXUtagSIZE@@@Z 0000000067db9500 f   atlsd:atltypes.obj
 0001:00038530       ??ZCRect@@QEAAXPEBUtagRECT@@@Z 0000000067db9530 f   atlsd:atltypes.obj
 0001:00038560       ??_4CRect@@QEAAXAEBUtagRECT@@@Z 0000000067db9560 f   atlsd:atltypes.obj
 0001:00038590       ??_5CRect@@QEAAXAEBUtagRECT@@@Z 0000000067db9590 f   atlsd:atltypes.obj
 0001:000385c0       ??HCRect@@QEBA?AV0@UtagPOINT@@@Z 0000000067db95c0 f   atlsd:atltypes.obj
 0001:00038660       ??GCRect@@QEBA?AV0@UtagPOINT@@@Z 0000000067db9660 f   atlsd:atltypes.obj
 0001:00038700       ??HCRect@@QEBA?AV0@UtagSIZE@@@Z 0000000067db9700 f   atlsd:atltypes.obj
 0001:000387a0       ??GCRect@@QEBA?AV0@UtagSIZE@@@Z 0000000067db97a0 f   atlsd:atltypes.obj
 0001:00038840       ??HCRect@@QEBA?AV0@PEBUtagRECT@@@Z 0000000067db9840 f   atlsd:atltypes.obj
 0001:000388b0       ??GCRect@@QEBA?AV0@PEBUtagRECT@@@Z 0000000067db98b0 f   atlsd:atltypes.obj
 0001:00038920       ??ICRect@@QEBA?AV0@AEBUtagRECT@@@Z 0000000067db9920 f   atlsd:atltypes.obj
 0001:00038990       ??UCRect@@QEBA?AV0@AEBUtagRECT@@@Z 0000000067db9990 f   atlsd:atltypes.obj
 0001:00038a00       ?SubtractRect@CRect@@QEAAHPEBUtagRECT@@0@Z 0000000067db9a00 f   atlsd:atltypes.obj
 0001:00038a30       ?NormalizeRect@CRect@@QEAAXXZ 0000000067db9a30 f   atlsd:atltypes.obj
 0001:00038ab0       ?InflateRect@CRect@@QEAAXPEBUtagRECT@@@Z 0000000067db9ab0 f   atlsd:atltypes.obj
 0001:00038b20       ?InflateRect@CRect@@QEAAXHHHH@Z 0000000067db9b20 f   atlsd:atltypes.obj
 0001:00038b90       ?DeflateRect@CRect@@QEAAXPEBUtagRECT@@@Z 0000000067db9b90 f   atlsd:atltypes.obj
 0001:00038c00       ?DeflateRect@CRect@@QEAAXHHHH@Z 0000000067db9c00 f   atlsd:atltypes.obj
 0001:00038c70       ?MulDiv@CRect@@QEBA?AV1@HH@Z 0000000067db9c70 f   atlsd:atltypes.obj
 0001:00038d20       ??0CAtlAllocator@@QEAA@XZ  0000000067db9d20 f i atlsd:Externs.obj
 0001:00038d80       ??0CTraceSnapshot@@QEAA@XZ 0000000067db9d80 f i atlsd:Externs.obj
 0001:00038db0       ??0?$CSimpleArray@UCModuleInfo@CTraceSnapshot@@V?$CSimpleArrayEqualHelper@UCModuleInfo@CTraceSnapshot@@@ATL@@@ATL@@QEAA@XZ 0000000067db9db0 f i atlsd:Externs.obj
 0001:00038de0       ??0?$CSimpleArray@_KV?$CSimpleArrayEqualHelper@_K@ATL@@@ATL@@QEAA@XZ 0000000067db9de0 f i atlsd:Externs.obj
 0001:00038f20       ??0CAtlException@ATL@@QEAA@J@Z 0000000067db9f20 f i atlsd:Externs.obj
 0001:00038f40       ?AtlCrtErrorCheck@ATL@@YAHH@Z 0000000067db9f40 f i atlsd:Externs.obj
 0001:00038fb0       ?AtlThrowImpl@ATL@@YAXJ@Z  0000000067db9fb0 f i atlsd:Externs.obj
 0001:00039070       ??RCTraceFileAndLineInfo@ATL@@QEBAX_KIPEBDZZ 0000000067dba070 f i atlsd:Externs.obj
 0001:000390f0       ?_AtlRaiseException@ATL@@YAXKK@Z 0000000067dba0f0 f i atlsd:Externs.obj
 0001:00039120       ??0CTrace@ATL@@AEAA@P6AHHPEBDH00ZZ@Z 0000000067dba120 f i atlsd:Externs.obj
 0001:00039170       ??1CAtlAllocator@@QEAA@XZ  0000000067dba170 f i atlsd:Externs.obj
 0001:000391a0       ??1CTraceSnapshot@@QEAA@XZ 0000000067dba1a0 f i atlsd:Externs.obj
 0001:000391d0       ??1?$CSimpleArray@UCModuleInfo@CTraceSnapshot@@V?$CSimpleArrayEqualHelper@UCModuleInfo@CTraceSnapshot@@@ATL@@@ATL@@QEAA@XZ 0000000067dba1d0 f i atlsd:Externs.obj
 0001:000391f0       ??1?$CSimpleArray@_KV?$CSimpleArrayEqualHelper@_K@ATL@@@ATL@@QEAA@XZ 0000000067dba1f0 f i atlsd:Externs.obj
 0001:00039210       ?RemoveAll@?$CSimpleArray@UCModuleInfo@CTraceSnapshot@@V?$CSimpleArrayEqualHelper@UCModuleInfo@CTraceSnapshot@@@ATL@@@ATL@@QEAAXXZ 0000000067dba210 f i atlsd:Externs.obj
 0001:00039280       ?RemoveAll@?$CSimpleArray@_KV?$CSimpleArrayEqualHelper@_K@ATL@@@ATL@@QEAAXXZ 0000000067dba280 f i atlsd:Externs.obj
 0001:000392f0       ??1CTrace@ATL@@AEAA@XZ     0000000067dba2f0 f i atlsd:Externs.obj
 0001:00039310       ??0CTraceCategory@ATL@@QEAA@PEBDI@Z 0000000067dba310 f i atlsd:atltrace.obj
 0001:00039370       ?ChangeCategory@CTrace@ATL@@QEAA_N_KIW4ATLTRACESTATUS@2@@Z 0000000067dba370 f i atlsd:atltrace.obj
 0001:000393c0       ?RegisterCategory@CTrace@ATL@@QEAA_KPEBD@Z 0000000067dba3c0 f i atlsd:atltrace.obj
 0001:000393f0       ?NotifyTool@ATL@@YAXXZ     0000000067dba3f0 f   atlsd:AtlDebugAPI.obj
 0001:00039430       AtlTraceRegister           0000000067dba430 f   atlsd:AtlDebugAPI.obj
 0001:000394d0       AtlTraceUnregister         0000000067dba4d0 f   atlsd:AtlDebugAPI.obj
 0001:00039510       AtlTraceRegisterCategoryA  0000000067dba510 f   atlsd:AtlDebugAPI.obj
 0001:000395a0       AtlTraceRegisterCategoryU  0000000067dba5a0 f   atlsd:AtlDebugAPI.obj
 0001:00039600       AtlTraceModifyProcess      0000000067dba600 f   atlsd:AtlDebugAPI.obj
 0001:00039720       ?GetProcess@CAtlAllocator@@QEBAPEAVCAtlTraceProcess@@XZ 0000000067dba720 f i atlsd:AtlDebugAPI.obj
 0001:00039730       AtlTraceModifyModule       0000000067dba730 f   atlsd:AtlDebugAPI.obj
 0001:00039870       AtlTraceModifyCategory     0000000067dba870 f   atlsd:AtlDebugAPI.obj
 0001:00039970       AtlTraceGetProcess         0000000067dba970 f   atlsd:AtlDebugAPI.obj
 0001:00039ab0       AtlTraceGetModule          0000000067dbaab0 f   atlsd:AtlDebugAPI.obj
 0001:00039c30       AtlTraceGetCategory        0000000067dbac30 f   atlsd:AtlDebugAPI.obj
 0001:00039d70       AtlTraceGetUpdateEventNameA 0000000067dbad70 f   atlsd:AtlDebugAPI.obj
 0001:00039db0       AtlTraceGetUpdateEventNameA_s 0000000067dbadb0 f   atlsd:AtlDebugAPI.obj
 0001:00039df0       AtlTraceGetUpdateEventNameU 0000000067dbadf0 f   atlsd:AtlDebugAPI.obj
 0001:00039e70       AtlTraceGetUpdateEventNameU_s 0000000067dbae70 f   atlsd:AtlDebugAPI.obj
 0001:00039f00       AtlTraceVA                 0000000067dbaf00 f   atlsd:AtlDebugAPI.obj
 0001:0003a2e0       ?Name@CAtlTraceCategory@@QEBAPEB_WXZ 0000000067dbb2e0 f i atlsd:AtlDebugAPI.obj
 0001:0003a2f0       AtlTraceVU                 0000000067dbb2f0 f   atlsd:AtlDebugAPI.obj
 0001:0003a700       AtlTraceOpenProcess        0000000067dbb700 f   atlsd:AtlDebugAPI.obj
 0001:0003a880       ??_GCAtlAllocator@@QEAAPEAXI@Z 0000000067dbb880 f i atlsd:AtlDebugAPI.obj
 0001:0003a8c0       AtlTraceCloseProcess       0000000067dbb8c0 f   atlsd:AtlDebugAPI.obj
 0001:0003a9a0       AtlTraceSnapshotProcess    0000000067dbb9a0 f   atlsd:AtlDebugAPI.obj
 0001:0003aa40       AtlTraceGetProcessInfo     0000000067dbba40 f   atlsd:AtlDebugAPI.obj
 0001:0003ac70       ?Path@CAtlTraceModuleInfo@@QEBAPEB_WXZ 0000000067dbbc70 f i atlsd:AtlDebugAPI.obj
 0001:0003ac80       ?Name@CAtlTraceModuleInfo@@QEBAPEB_WXZ 0000000067dbbc80 f i atlsd:AtlDebugAPI.obj
 0001:0003aca0       ?Id@CAtlTraceProcess@@QEBAKXZ 0000000067dbbca0 f i atlsd:AtlDebugAPI.obj
 0001:0003acc0       AtlTraceGetModuleInfo      0000000067dbbcc0 f   atlsd:AtlDebugAPI.obj
 0001:0003af10       AtlTraceGetCategoryInfo    0000000067dbbf10 f   atlsd:AtlDebugAPI.obj
 0001:0003b410       ?CrtDbgReport@CAtlTraceModule@@QEBAP6AHHPEBDH00ZZXZ 0000000067dbc410 f i atlsd:AtlDebugAPI.obj
 0001:0003b430       ?_IsTracingEnabled@ATL@@YA_N_K0I@Z 0000000067dbc430 f   atlsd:AtlDebugAPI.obj
 0001:0003b480       ?GetSize@?$CSimpleArray@UCModuleInfo@CTraceSnapshot@@V?$CSimpleArrayEqualHelper@UCModuleInfo@CTraceSnapshot@@@ATL@@@ATL@@QEBAHXZ 0000000067dbc480 f i atlsd:AtlDebugAPI.obj
 0001:0003b490       ??A?$CSimpleArray@UCModuleInfo@CTraceSnapshot@@V?$CSimpleArrayEqualHelper@UCModuleInfo@CTraceSnapshot@@@ATL@@@ATL@@QEAAAEAUCModuleInfo@CTraceSnapshot@@H@Z 0000000067dbc490 f i atlsd:AtlDebugAPI.obj
 0001:0003b520       ?strcpy_s@Checked@ATL@@YAXPEAD_KPEBD@Z 0000000067dbc520 f i atlsd:AtlDebugAPI.obj
 0001:0003b560       ?wcscpy_s@Checked@ATL@@YAXPEA_W_KPEB_W@Z 0000000067dbc560 f i atlsd:AtlDebugAPI.obj
 0001:0003b5a0       ??0?$CA2WEX@$0IA@@ATL@@QEAA@PEBD@Z 0000000067dbc5a0 f i atlsd:AtlDebugAPI.obj
 0001:0003b5e0       ?_AtlGetConversionACP@ATL@@YAIXZ 0000000067dbc5e0 f i atlsd:AtlDebugAPI.obj
 0001:0003b5f0       ??1?$CA2WEX@$0IA@@ATL@@QEAA@XZ 0000000067dbc5f0 f i atlsd:AtlDebugAPI.obj
 0001:0003b620       ??B?$CA2WEX@$0IA@@ATL@@QEBAPEA_WXZ 0000000067dbc620 f i atlsd:AtlDebugAPI.obj
 0001:0003b630       ?Init@?$CA2WEX@$0IA@@ATL@@AEAAXPEBDI@Z 0000000067dbc630 f i atlsd:AtlDebugAPI.obj
 0001:0003b7a0       ?AtlThrowLastWin32@ATL@@YAXXZ 0000000067dbc7a0 f i atlsd:AtlDebugAPI.obj
 0001:0003b7d0       HRESULT_FROM_WIN32         0000000067dbc7d0 f i atlsd:AtlDebugAPI.obj
 0001:0003b810       ??$AtlConvFreeMemory@_W@ATL@@YAXPEA_W0H@Z 0000000067dbc810 f i atlsd:AtlDebugAPI.obj
 0001:0003b860       ??$AtlConvAllocMemory@_W@ATL@@YAXPEAPEA_WHPEA_WH@Z 0000000067dbc860 f i atlsd:AtlDebugAPI.obj
 0001:0003bac0       ?Init@CAtlAllocator@@QEAA_NPEBDK@Z 0000000067dbcac0 f   atlsd:Allocate.obj
 0001:0003bf20       ?IncRef@CAtlTraceProcess@@QEAAIXZ 0000000067dbcf20 f i atlsd:Allocate.obj
 0001:0003bf50       ?Base@CAtlTraceProcess@@QEBAPEAXXZ 0000000067dbcf50 f i atlsd:Allocate.obj
 0001:0003bf70       ?Open@CAtlAllocator@@QEAA_NPEBD@Z 0000000067dbcf70 f   atlsd:Allocate.obj
 0001:0003c0b0       ?Close@CAtlAllocator@@QEAAX_N@Z 0000000067dbd0b0 f   atlsd:Allocate.obj
 0001:0003c130       ?DecRef@CAtlTraceProcess@@QEAAIXZ 0000000067dbd130 f i atlsd:Allocate.obj
 0001:0003c160       ?GetModule@CAtlAllocator@@QEBAPEAVCAtlTraceModule@@H@Z 0000000067dbd160 f   atlsd:Allocate.obj
 0001:0003c220       ?ModuleCount@CAtlTraceProcess@@QEBAHXZ 0000000067dbd220 f i atlsd:Allocate.obj
 0001:0003c240       ?GetCategory@CAtlAllocator@@QEBAPEAVCAtlTraceCategory@@H@Z 0000000067dbd240 f   atlsd:Allocate.obj
 0001:0003c320       ?MaxSize@CAtlTraceProcess@@QEBA_KXZ 0000000067dbd320 f i atlsd:Allocate.obj
 0001:0003c340       ?CategoryCount@CAtlTraceProcess@@QEBAHXZ 0000000067dbd340 f i atlsd:Allocate.obj
 0001:0003c360       ?GetCategoryCount@CAtlAllocator@@QEBAHH@Z 0000000067dbd360 f   atlsd:Allocate.obj
 0001:0003c400       ?GetCategoryCount@CAtlAllocator@@QEBAHAEBVCAtlTraceModule@@@Z 0000000067dbd400 f   atlsd:Allocate.obj
 0001:0003c480       ?GetModuleCount@CAtlAllocator@@QEBAHXZ 0000000067dbd480 f   atlsd:Allocate.obj
 0001:0003c4f0       ?FindModule@CAtlAllocator@@QEBA_NPEB_WPEAI@Z 0000000067dbd4f0 f   atlsd:Allocate.obj
 0001:0003c590       ?AddModule@CAtlAllocator@@QEAAHPEAUHINSTANCE__@@@Z 0000000067dbd590 f   atlsd:Allocate.obj
 0001:0003c800       ?TryAllocate@CAtlTraceSettings@@QEAA_NXZ 0000000067dbd800 f i atlsd:Allocate.obj
 0001:0003c850       ?MarkValid@CAtlTraceSettings@@QEAAXJ@Z 0000000067dbd850 f i atlsd:Allocate.obj
 0001:0003c8b0       ?IncModuleCount@CAtlTraceProcess@@QEAAXI@Z 0000000067dbd8b0 f i atlsd:Allocate.obj
 0001:0003c8e0       ?AddCategory@CAtlAllocator@@QEAAHHPEB_W@Z 0000000067dbd8e0 f   atlsd:Allocate.obj
 0001:0003cbd0       ?TryAddRef@CAtlTraceSettings@@QEAA_NXZ 0000000067dbdbd0 f i atlsd:Allocate.obj
 0001:0003cc20       ?Release@CAtlTraceSettings@@QEAAXXZ 0000000067dbdc20 f i atlsd:Allocate.obj
 0001:0003cc60       ?IncCategoryCount@CAtlTraceProcess@@QEAAXI@Z 0000000067dbdc60 f i atlsd:Allocate.obj
 0001:0003cc90       ?RemoveModule@CAtlAllocator@@QEAA_NH@Z 0000000067dbdc90 f   atlsd:Allocate.obj
 0001:0003cd70       ?CleanUp@CAtlAllocator@@QEAAXXZ 0000000067dbdd70 f   atlsd:Allocate.obj
 0001:0003cd90       ?TakeSnapshot@CAtlAllocator@@QEAAXXZ 0000000067dbdd90 f   atlsd:Allocate.obj
 0001:0003d030       ?ReleaseSnapshot@CAtlAllocator@@QEAAXXZ 0000000067dbe030 f   atlsd:Allocate.obj
 0001:0003d140       ?Add@?$CSimpleArray@UCModuleInfo@CTraceSnapshot@@V?$CSimpleArrayEqualHelper@UCModuleInfo@CTraceSnapshot@@@ATL@@@ATL@@QEAAHAEBUCModuleInfo@CTraceSnapshot@@@Z 0000000067dbe140 f i atlsd:Allocate.obj
 0001:0003d2c0       ?GetSize@?$CSimpleArray@_KV?$CSimpleArrayEqualHelper@_K@ATL@@@ATL@@QEBAHXZ 0000000067dbe2c0 f i atlsd:Allocate.obj
 0001:0003d2d0       ?Add@?$CSimpleArray@_KV?$CSimpleArrayEqualHelper@_K@ATL@@@ATL@@QEAAHAEB_K@Z 0000000067dbe2d0 f i atlsd:Allocate.obj
 0001:0003d450       ?RemoveAt@?$CSimpleArray@_KV?$CSimpleArrayEqualHelper@_K@ATL@@@ATL@@QEAAHH@Z 0000000067dbe450 f i atlsd:Allocate.obj
 0001:0003d560       ??A?$CSimpleArray@_KV?$CSimpleArrayEqualHelper@_K@ATL@@@ATL@@QEAAAEA_KH@Z 0000000067dbe560 f i atlsd:Allocate.obj
 0001:0003d5f0       ?InternalSetAtIndex@?$CSimpleArray@UCModuleInfo@CTraceSnapshot@@V?$CSimpleArrayEqualHelper@UCModuleInfo@CTraceSnapshot@@@ATL@@@ATL@@QEAAXHAEBUCModuleInfo@CTraceSnapshot@@@Z 0000000067dbe5f0 f i atlsd:Allocate.obj
 0001:0003d660       ?InternalSetAtIndex@?$CSimpleArray@_KV?$CSimpleArrayEqualHelper@_K@ATL@@@ATL@@QEAAXHAEB_K@Z 0000000067dbe660 f i atlsd:Allocate.obj
 0001:0003d6d0       ??0Wrapper@?$CSimpleArray@UCModuleInfo@CTraceSnapshot@@V?$CSimpleArrayEqualHelper@UCModuleInfo@CTraceSnapshot@@@ATL@@@ATL@@QEAA@AEBUCModuleInfo@CTraceSnapshot@@@Z 0000000067dbe6d0 f i atlsd:Allocate.obj
 0001:0003d720       ??0Wrapper@?$CSimpleArray@_KV?$CSimpleArrayEqualHelper@_K@ATL@@@ATL@@QEAA@AEB_K@Z 0000000067dbe720 f i atlsd:Allocate.obj
 0001:0003d740       ??$?2UCModuleInfo@CTraceSnapshot@@@Wrapper@?$CSimpleArray@UCModuleInfo@CTraceSnapshot@@V?$CSimpleArrayEqualHelper@UCModuleInfo@CTraceSnapshot@@@ATL@@@ATL@@SAPEAX_KPEAUCModuleInfo@CTraceSnapshot@@@Z 0000000067dbe740 f i atlsd:Allocate.obj
 0001:0003d750       ??$?2_K@Wrapper@?$CSimpleArray@_KV?$CSimpleArrayEqualHelper@_K@ATL@@@ATL@@SAPEAX_KPEA_K@Z 0000000067dbe750 f i atlsd:Allocate.obj
 0001:0003d760       ?memmove_s@Checked@ATL@@YAXPEAX_KPEBX1@Z 0000000067dbe760 f i atlsd:Allocate.obj
 0001:0003d7a0       ??0CAtlTraceModuleInfo@@QEAA@XZ 0000000067dbe7a0 f   atlsd:AtlTraceModuleManager.obj
 0001:0003d7f0       ?Reset@CAtlTraceModuleInfo@@QEAAXPEAUHINSTANCE__@@@Z 0000000067dbe7f0 f   atlsd:AtlTraceModuleManager.obj
 0001:0003d960       ??0CAtlTraceCategory@@QEAA@XZ 0000000067dbe960 f   atlsd:AtlTraceModuleManager.obj
 0001:0003d9b0       ??0CAtlTraceSettings@@QEAA@XZ 0000000067dbe9b0 f i atlsd:AtlTraceModuleManager.obj
 0001:0003d9f0       ?Reset@CAtlTraceCategory@@QEAAXPEB_WJ@Z 0000000067dbe9f0 f   atlsd:AtlTraceModuleManager.obj
 0001:0003da50       ??0CAtlTraceModule@@QEAA@XZ 0000000067dbea50 f   atlsd:AtlTraceModuleManager.obj
 0001:0003da90       ?CrtDbgReport@CAtlTraceModule@@QEAAXP6AHHPEBDH00ZZ@Z 0000000067dbea90 f   atlsd:AtlTraceModuleManager.obj
 0001:0003dae0       ??0CAtlTraceProcess@@QEAA@_K@Z 0000000067dbeae0 f   atlsd:AtlTraceModuleManager.obj
 0001:0003dbe0       ?GetNextCookie@CAtlTraceProcess@@QEAAJXZ 0000000067dbebe0 f   atlsd:AtlTraceModuleManager.obj
 0001:0003dbfe       SysFreeString              0000000067dbebfe f   oleaut32:OLEAUT32.dll
 0001:0003dc04       ?eof@ios_base@std@@QEBA_NXZ 0000000067dbec04 f   msvcprtd:MSVCP100D.dll
 0001:0003dc0a       ?fail@ios_base@std@@QEBA_NXZ 0000000067dbec0a f   msvcprtd:MSVCP100D.dll
 0001:0003dc10       ??5?$basic_istream@DU?$char_traits@D@std@@@std@@QEAAAEAV01@P6AAEAV01@AEAV01@@Z@Z 0000000067dbec10 f   msvcprtd:MSVCP100D.dll
 0001:0003dc16       ?ws@std@@YAAEAV?$basic_istream@DU?$char_traits@D@std@@@1@AEAV21@@Z 0000000067dbec16 f   msvcprtd:MSVCP100D.dll
 0001:0003dc1c       ??5?$basic_istream@DU?$char_traits@D@std@@@std@@QEAAAEAV01@AEAN@Z 0000000067dbec1c f   msvcprtd:MSVCP100D.dll
 0001:0003dc22       ??1?$basic_ios@DU?$char_traits@D@std@@@std@@UEAA@XZ 0000000067dbec22 f   msvcprtd:MSVCP100D.dll
 0001:0003dc28       ??1?$basic_istream@DU?$char_traits@D@std@@@std@@UEAA@XZ 0000000067dbec28 f   msvcprtd:MSVCP100D.dll
 0001:0003dc2e       ??0?$basic_istream@DU?$char_traits@D@std@@@std@@QEAA@PEAV?$basic_streambuf@DU?$char_traits@D@std@@@1@_N@Z 0000000067dbec2e f   msvcprtd:MSVCP100D.dll
 0001:0003dc34       ??0?$basic_ios@DU?$char_traits@D@std@@@std@@IEAA@XZ 0000000067dbec34 f   msvcprtd:MSVCP100D.dll
 0001:0003dc3a       ??1?$basic_streambuf@DU?$char_traits@D@std@@@std@@UEAA@XZ 0000000067dbec3a f   msvcprtd:MSVCP100D.dll
 0001:0003dc40       ?_Lock@?$basic_streambuf@DU?$char_traits@D@std@@@std@@UEAAXXZ 0000000067dbec40 f   msvcprtd:MSVCP100D.dll
 0001:0003dc46       ?_Unlock@?$basic_streambuf@DU?$char_traits@D@std@@@std@@UEAAXXZ 0000000067dbec46 f   msvcprtd:MSVCP100D.dll
 0001:0003dc4c       ?showmanyc@?$basic_streambuf@DU?$char_traits@D@std@@@std@@MEAA_JXZ 0000000067dbec4c f   msvcprtd:MSVCP100D.dll
 0001:0003dc52       ?uflow@?$basic_streambuf@DU?$char_traits@D@std@@@std@@MEAAHXZ 0000000067dbec52 f   msvcprtd:MSVCP100D.dll
 0001:0003dc58       ?xsgetn@?$basic_streambuf@DU?$char_traits@D@std@@@std@@MEAA_JPEAD_J@Z 0000000067dbec58 f   msvcprtd:MSVCP100D.dll
 0001:0003dc5e       ?xsputn@?$basic_streambuf@DU?$char_traits@D@std@@@std@@MEAA_JPEBD_J@Z 0000000067dbec5e f   msvcprtd:MSVCP100D.dll
 0001:0003dc64       ?setbuf@?$basic_streambuf@DU?$char_traits@D@std@@@std@@MEAAPEAV12@PEAD_J@Z 0000000067dbec64 f   msvcprtd:MSVCP100D.dll
 0001:0003dc6a       ?sync@?$basic_streambuf@DU?$char_traits@D@std@@@std@@MEAAHXZ 0000000067dbec6a f   msvcprtd:MSVCP100D.dll
 0001:0003dc70       ?imbue@?$basic_streambuf@DU?$char_traits@D@std@@@std@@MEAAXAEBVlocale@2@@Z 0000000067dbec70 f   msvcprtd:MSVCP100D.dll
 0001:0003dc76       ?gptr@?$basic_streambuf@DU?$char_traits@D@std@@@std@@IEBAPEADXZ 0000000067dbec76 f   msvcprtd:MSVCP100D.dll
 0001:0003dc7c       ?setg@?$basic_streambuf@DU?$char_traits@D@std@@@std@@IEAAXPEAD00@Z 0000000067dbec7c f   msvcprtd:MSVCP100D.dll
 0001:0003dc82       ?setp@?$basic_streambuf@DU?$char_traits@D@std@@@std@@IEAAXPEAD0@Z 0000000067dbec82 f   msvcprtd:MSVCP100D.dll
 0001:0003dc88       ?eback@?$basic_streambuf@DU?$char_traits@D@std@@@std@@IEBAPEADXZ 0000000067dbec88 f   msvcprtd:MSVCP100D.dll
 0001:0003dc8e       ?_Pninc@?$basic_streambuf@DU?$char_traits@D@std@@@std@@IEAAPEADXZ 0000000067dbec8e f   msvcprtd:MSVCP100D.dll
 0001:0003dc94       ?setp@?$basic_streambuf@DU?$char_traits@D@std@@@std@@IEAAXPEAD00@Z 0000000067dbec94 f   msvcprtd:MSVCP100D.dll
 0001:0003dc9a       ?pbase@?$basic_streambuf@DU?$char_traits@D@std@@@std@@IEBAPEADXZ 0000000067dbec9a f   msvcprtd:MSVCP100D.dll
 0001:0003dca0       ?epptr@?$basic_streambuf@DU?$char_traits@D@std@@@std@@IEBAPEADXZ 0000000067dbeca0 f   msvcprtd:MSVCP100D.dll
 0001:0003dca6       ?pptr@?$basic_streambuf@DU?$char_traits@D@std@@@std@@IEBAPEADXZ 0000000067dbeca6 f   msvcprtd:MSVCP100D.dll
 0001:0003dcac       ?gbump@?$basic_streambuf@DU?$char_traits@D@std@@@std@@IEAAXH@Z 0000000067dbecac f   msvcprtd:MSVCP100D.dll
 0001:0003dcb2       ?egptr@?$basic_streambuf@DU?$char_traits@D@std@@@std@@IEBAPEADXZ 0000000067dbecb2 f   msvcprtd:MSVCP100D.dll
 0001:0003dcb8       ?pbump@?$basic_streambuf@DU?$char_traits@D@std@@@std@@IEAAXH@Z 0000000067dbecb8 f   msvcprtd:MSVCP100D.dll
 0001:0003dcbe       ??0?$basic_streambuf@DU?$char_traits@D@std@@@std@@IEAA@XZ 0000000067dbecbe f   msvcprtd:MSVCP100D.dll
 0001:0003dcc4       ??1_Container_base12@std@@QEAA@XZ 0000000067dbecc4 f   msvcprtd:MSVCP100D.dll
 0001:0003dcca       ??0_Container_base12@std@@QEAA@XZ 0000000067dbecca f   msvcprtd:MSVCP100D.dll
 0001:0003dcd0       ?_Orphan_all@_Container_base12@std@@QEAAXXZ 0000000067dbecd0 f   msvcprtd:MSVCP100D.dll
 0001:0003dcd6       ?_Xout_of_range@std@@YAXPEBD@Z 0000000067dbecd6 f   msvcprtd:MSVCP100D.dll
 0001:0003dcdc       ?_Xlength_error@std@@YAXPEBD@Z 0000000067dbecdc f   msvcprtd:MSVCP100D.dll
 0001:0003dce2       ?_Debug_message@std@@YAXPEB_W0I@Z 0000000067dbece2 f   msvcprtd:MSVCP100D.dll
 0001:0003dce8       _snprintf_s                0000000067dbece8 f   msvcrtd:MSVCR100D.dll
 0001:0003dcee       _errno                     0000000067dbecee f   msvcrtd:MSVCR100D.dll
 0001:0003dcf4       _CrtDbgReportW             0000000067dbecf4 f   msvcrtd:MSVCR100D.dll
 0001:0003dcfa       _CrtDbgReport              0000000067dbecfa f   msvcrtd:MSVCR100D.dll
 0001:0003dd00       free                       0000000067dbed00 f   msvcrtd:MSVCR100D.dll
 0001:0003dd06       strcpy                     0000000067dbed06 f   msvcrtd:MSVCR100D.dll
 0001:0003dd0c       wcscpy                     0000000067dbed0c f   msvcrtd:MSVCR100D.dll
 0001:0003dd12       _vsnprintf_s               0000000067dbed12 f   msvcrtd:MSVCR100D.dll
 0001:0003dd18       _vsnwprintf_s              0000000067dbed18 f   msvcrtd:MSVCR100D.dll
 0001:0003dd1e       _snwprintf_s               0000000067dbed1e f   msvcrtd:MSVCR100D.dll
 0001:0003dd24       wcscpy_s                   0000000067dbed24 f   msvcrtd:MSVCR100D.dll
 0001:0003dd2a       wcsncpy_s                  0000000067dbed2a f   msvcrtd:MSVCR100D.dll
 0001:0003dd30       strcpy_s                   0000000067dbed30 f   msvcrtd:MSVCR100D.dll
 0001:0003dd36       calloc                     0000000067dbed36 f   msvcrtd:MSVCR100D.dll
 0001:0003dd3c       _recalloc                  0000000067dbed3c f   msvcrtd:MSVCR100D.dll
 0001:0003dd42       memcmp                     0000000067dbed42 f   msvcrtd:MSVCR100D.dll
 0001:0003dd48       _wcsicmp                   0000000067dbed48 f   msvcrtd:MSVCR100D.dll
 0001:0003dd4e       memmove_s                  0000000067dbed4e f   msvcrtd:MSVCR100D.dll
 0001:0003dd54       wcslen                     0000000067dbed54 f   msvcrtd:MSVCR100D.dll
 0001:0003dd5a       MulDiv                     0000000067dbed5a f   kernel32:KERNEL32.dll
 0001:0003dd60       CloseHandle                0000000067dbed60 f   kernel32:KERNEL32.dll
 0001:0003dd66       SetEvent                   0000000067dbed66 f   kernel32:KERNEL32.dll
 0001:0003dd6c       OpenEventA                 0000000067dbed6c f   kernel32:KERNEL32.dll
 0001:0003dd72       OutputDebugStringA         0000000067dbed72 f   kernel32:KERNEL32.dll
 0001:0003dd78       OutputDebugStringW         0000000067dbed78 f   kernel32:KERNEL32.dll
 0001:0003dd7e       GetLastError               0000000067dbed7e f   kernel32:KERNEL32.dll
 0001:0003dd84       VirtualAlloc               0000000067dbed84 f   kernel32:KERNEL32.dll
 0001:0003dd8a       UnmapViewOfFile            0000000067dbed8a f   kernel32:KERNEL32.dll
 0001:0003dd90       GetSystemInfo              0000000067dbed90 f   kernel32:KERNEL32.dll
 0001:0003dd96       MapViewOfFile              0000000067dbed96 f   kernel32:KERNEL32.dll
 0001:0003dd9c       CreateFileMappingA         0000000067dbed9c f   kernel32:KERNEL32.dll
 0001:0003dda2       GetCurrentThread           0000000067dbeda2 f   kernel32:KERNEL32.dll
 0001:0003dda8       OpenFileMappingA           0000000067dbeda8 f   kernel32:KERNEL32.dll
 0001:0003ddae       CopyRect                   0000000067dbedae f   user32:USER32.dll
 0001:0003ddb4       IsRectEmpty                0000000067dbedb4 f   user32:USER32.dll
 0001:0003ddba       PtInRect                   0000000067dbedba f   user32:USER32.dll
 0001:0003ddc0       SetRect                    0000000067dbedc0 f   user32:USER32.dll
 0001:0003ddc6       SetRectEmpty               0000000067dbedc6 f   user32:USER32.dll
 0001:0003ddcc       EqualRect                  0000000067dbedcc f   user32:USER32.dll
 0001:0003ddd2       InflateRect                0000000067dbedd2 f   user32:USER32.dll
 0001:0003ddd8       OffsetRect                 0000000067dbedd8 f   user32:USER32.dll
 0001:0003ddde       IntersectRect              0000000067dbedde f   user32:USER32.dll
 0001:0003dde4       UnionRect                  0000000067dbede4 f   user32:USER32.dll
 0001:0003ddea       SubtractRect               0000000067dbedea f   user32:USER32.dll
 0001:0003ddf0       SetThreadToken             0000000067dbedf0 f   advapi32:ADVAPI32.dll
 0001:0003ddf6       RevertToSelf               0000000067dbedf6 f   advapi32:ADVAPI32.dll
 0001:0003ddfc       OpenThreadToken            0000000067dbedfc f   advapi32:ADVAPI32.dll
 0002:00000000       __imp_SetThreadToken       0000000067dc5000     advapi32:ADVAPI32.dll
 0002:00000008       __imp_OpenThreadToken      0000000067dc5008     advapi32:ADVAPI32.dll
 0002:00000010       __imp_RevertToSelf         0000000067dc5010     advapi32:ADVAPI32.dll
 0002:00000018       \177ADVAPI32_NULL_THUNK_DATA 0000000067dc5018     advapi32:ADVAPI32.dll
 0002:00000020       __imp_GetSaveFileNameA     0000000067dc5020     comdlg32:COMDLG32.dll
 0002:00000028       \177COMDLG32_NULL_THUNK_DATA 0000000067dc5028     comdlg32:COMDLG32.dll
 0002:00000030       __imp_CorAcqGetCap         0000000067dc5030     Corapi:CorApi.dll
 0002:00000038       \177CorApi_NULL_THUNK_DATA 0000000067dc5038     Corapi:CorApi.dll
 0002:00000040       __imp_OpenFileMappingA     0000000067dc5040     kernel32:KERNEL32.dll
 0002:00000048       __imp_GetCurrentThread     0000000067dc5048     kernel32:KERNEL32.dll
 0002:00000050       __imp_CreateFileMappingA   0000000067dc5050     kernel32:KERNEL32.dll
 0002:00000058       __imp_MapViewOfFile        0000000067dc5058     kernel32:KERNEL32.dll
 0002:00000060       __imp_GetSystemInfo        0000000067dc5060     kernel32:KERNEL32.dll
 0002:00000068       __imp_UnmapViewOfFile      0000000067dc5068     kernel32:KERNEL32.dll
 0002:00000070       __imp_VirtualAlloc         0000000067dc5070     kernel32:KERNEL32.dll
 0002:00000078       __imp_GetLastError         0000000067dc5078     kernel32:KERNEL32.dll
 0002:00000080       __imp_OutputDebugStringW   0000000067dc5080     kernel32:KERNEL32.dll
 0002:00000088       __imp_OutputDebugStringA   0000000067dc5088     kernel32:KERNEL32.dll
 0002:00000090       __imp_OpenEventA           0000000067dc5090     kernel32:KERNEL32.dll
 0002:00000098       __imp_SetEvent             0000000067dc5098     kernel32:KERNEL32.dll
 0002:000000a0       __imp_CloseHandle          0000000067dc50a0     kernel32:KERNEL32.dll
 0002:000000a8       __imp_MulDiv               0000000067dc50a8     kernel32:KERNEL32.dll
 0002:000000b0       __imp_FreeLibrary          0000000067dc50b0     kernel32:KERNEL32.dll
 0002:000000b8       __imp_VirtualQuery         0000000067dc50b8     kernel32:KERNEL32.dll
 0002:000000c0       __imp_GetModuleFileNameW   0000000067dc50c0     kernel32:KERNEL32.dll
 0002:000000c8       __imp_GetProcessHeap       0000000067dc50c8     kernel32:KERNEL32.dll
 0002:000000d0       __imp_HeapAlloc            0000000067dc50d0     kernel32:KERNEL32.dll
 0002:000000d8       __imp_HeapFree             0000000067dc50d8     kernel32:KERNEL32.dll
 0002:000000e0       __imp_GetSystemTimeAsFileTime 0000000067dc50e0     kernel32:KERNEL32.dll
 0002:000000e8       __imp_GetCurrentProcessId  0000000067dc50e8     kernel32:KERNEL32.dll
 0002:000000f0       __imp_GetCurrentThreadId   0000000067dc50f0     kernel32:KERNEL32.dll
 0002:000000f8       __imp_QueryPerformanceCounter 0000000067dc50f8     kernel32:KERNEL32.dll
 0002:00000100       __imp_LoadLibraryW         0000000067dc5100     kernel32:KERNEL32.dll
 0002:00000108       __imp_GetProcAddress       0000000067dc5108     kernel32:KERNEL32.dll
 0002:00000110       __imp_lstrlenA             0000000067dc5110     kernel32:KERNEL32.dll
 0002:00000118       __imp_RaiseException       0000000067dc5118     kernel32:KERNEL32.dll
 0002:00000120       __imp_MultiByteToWideChar  0000000067dc5120     kernel32:KERNEL32.dll
 0002:00000128       __imp_WideCharToMultiByte  0000000067dc5128     kernel32:KERNEL32.dll
 0002:00000130       __imp_RtlCaptureContext    0000000067dc5130     kernel32:KERNEL32.dll
 0002:00000138       __imp_RtlLookupFunctionEntry 0000000067dc5138     kernel32:KERNEL32.dll
 0002:00000140       __imp_RtlVirtualUnwind     0000000067dc5140     kernel32:KERNEL32.dll
 0002:00000148       __imp_GetTickCount         0000000067dc5148     kernel32:KERNEL32.dll
 0002:00000150       __imp_GetPrivateProfileStringA 0000000067dc5150     kernel32:KERNEL32.dll
 0002:00000158       __imp_Sleep                0000000067dc5158     kernel32:KERNEL32.dll
 0002:00000160       __imp_EncodePointer        0000000067dc5160     kernel32:KERNEL32.dll
 0002:00000168       __imp_DecodePointer        0000000067dc5168     kernel32:KERNEL32.dll
 0002:00000170       __imp_TerminateProcess     0000000067dc5170     kernel32:KERNEL32.dll
 0002:00000178       __imp_GetCurrentProcess    0000000067dc5178     kernel32:KERNEL32.dll
 0002:00000180       __imp_UnhandledExceptionFilter 0000000067dc5180     kernel32:KERNEL32.dll
 0002:00000188       __imp_SetUnhandledExceptionFilter 0000000067dc5188     kernel32:KERNEL32.dll
 0002:00000190       __imp_IsDebuggerPresent    0000000067dc5190     kernel32:KERNEL32.dll
 0002:00000198       \177KERNEL32_NULL_THUNK_DATA 0000000067dc5198     kernel32:KERNEL32.dll
 0002:000001a0       __imp_?setg@?$basic_streambuf@DU?$char_traits@D@std@@@std@@IEAAXPEAD00@Z 0000000067dc51a0     msvcprtd:MSVCP100D.dll
 0002:000001a8       __imp_?eback@?$basic_streambuf@DU?$char_traits@D@std@@@std@@IEBAPEADXZ 0000000067dc51a8     msvcprtd:MSVCP100D.dll
 0002:000001b0       __imp_?_Pninc@?$basic_streambuf@DU?$char_traits@D@std@@@std@@IEAAPEADXZ 0000000067dc51b0     msvcprtd:MSVCP100D.dll
 0002:000001b8       __imp_?setp@?$basic_streambuf@DU?$char_traits@D@std@@@std@@IEAAXPEAD00@Z 0000000067dc51b8     msvcprtd:MSVCP100D.dll
 0002:000001c0       __imp_?pbase@?$basic_streambuf@DU?$char_traits@D@std@@@std@@IEBAPEADXZ 0000000067dc51c0     msvcprtd:MSVCP100D.dll
 0002:000001c8       __imp_?epptr@?$basic_streambuf@DU?$char_traits@D@std@@@std@@IEBAPEADXZ 0000000067dc51c8     msvcprtd:MSVCP100D.dll
 0002:000001d0       __imp_?pptr@?$basic_streambuf@DU?$char_traits@D@std@@@std@@IEBAPEADXZ 0000000067dc51d0     msvcprtd:MSVCP100D.dll
 0002:000001d8       __imp_?gbump@?$basic_streambuf@DU?$char_traits@D@std@@@std@@IEAAXH@Z 0000000067dc51d8     msvcprtd:MSVCP100D.dll
 0002:000001e0       __imp_?egptr@?$basic_streambuf@DU?$char_traits@D@std@@@std@@IEBAPEADXZ 0000000067dc51e0     msvcprtd:MSVCP100D.dll
 0002:000001e8       __imp_?pbump@?$basic_streambuf@DU?$char_traits@D@std@@@std@@IEAAXH@Z 0000000067dc51e8     msvcprtd:MSVCP100D.dll
 0002:000001f0       __imp_?_BADOFF@std@@3_JB   0000000067dc51f0     msvcprtd:MSVCP100D.dll
 0002:000001f8       __imp_??0?$basic_streambuf@DU?$char_traits@D@std@@@std@@IEAA@XZ 0000000067dc51f8     msvcprtd:MSVCP100D.dll
 0002:00000200       __imp_??1_Container_base12@std@@QEAA@XZ 0000000067dc5200     msvcprtd:MSVCP100D.dll
 0002:00000208       __imp_??0_Container_base12@std@@QEAA@XZ 0000000067dc5208     msvcprtd:MSVCP100D.dll
 0002:00000210       __imp_?_Orphan_all@_Container_base12@std@@QEAAXXZ 0000000067dc5210     msvcprtd:MSVCP100D.dll
 0002:00000218       __imp_?_Xout_of_range@std@@YAXPEBD@Z 0000000067dc5218     msvcprtd:MSVCP100D.dll
 0002:00000220       __imp_?_Xlength_error@std@@YAXPEBD@Z 0000000067dc5220     msvcprtd:MSVCP100D.dll
 0002:00000228       __imp_?_Debug_message@std@@YAXPEB_W0I@Z 0000000067dc5228     msvcprtd:MSVCP100D.dll
 0002:00000230       __imp_?setp@?$basic_streambuf@DU?$char_traits@D@std@@@std@@IEAAXPEAD0@Z 0000000067dc5230     msvcprtd:MSVCP100D.dll
 0002:00000238       __imp_?eof@ios_base@std@@QEBA_NXZ 0000000067dc5238     msvcprtd:MSVCP100D.dll
 0002:00000240       __imp_?fail@ios_base@std@@QEBA_NXZ 0000000067dc5240     msvcprtd:MSVCP100D.dll
 0002:00000248       __imp_??5?$basic_istream@DU?$char_traits@D@std@@@std@@QEAAAEAV01@P6AAEAV01@AEAV01@@Z@Z 0000000067dc5248     msvcprtd:MSVCP100D.dll
 0002:00000250       __imp_?ws@std@@YAAEAV?$basic_istream@DU?$char_traits@D@std@@@1@AEAV21@@Z 0000000067dc5250     msvcprtd:MSVCP100D.dll
 0002:00000258       __imp_??5?$basic_istream@DU?$char_traits@D@std@@@std@@QEAAAEAV01@AEAN@Z 0000000067dc5258     msvcprtd:MSVCP100D.dll
 0002:00000260       __imp_??1?$basic_ios@DU?$char_traits@D@std@@@std@@UEAA@XZ 0000000067dc5260     msvcprtd:MSVCP100D.dll
 0002:00000268       __imp_??1?$basic_istream@DU?$char_traits@D@std@@@std@@UEAA@XZ 0000000067dc5268     msvcprtd:MSVCP100D.dll
 0002:00000270       __imp_??0?$basic_istream@DU?$char_traits@D@std@@@std@@QEAA@PEAV?$basic_streambuf@DU?$char_traits@D@std@@@1@_N@Z 0000000067dc5270     msvcprtd:MSVCP100D.dll
 0002:00000278       __imp_??0?$basic_ios@DU?$char_traits@D@std@@@std@@IEAA@XZ 0000000067dc5278     msvcprtd:MSVCP100D.dll
 0002:00000280       __imp_??1?$basic_streambuf@DU?$char_traits@D@std@@@std@@UEAA@XZ 0000000067dc5280     msvcprtd:MSVCP100D.dll
 0002:00000288       __imp_?_Lock@?$basic_streambuf@DU?$char_traits@D@std@@@std@@UEAAXXZ 0000000067dc5288     msvcprtd:MSVCP100D.dll
 0002:00000290       __imp_?_Unlock@?$basic_streambuf@DU?$char_traits@D@std@@@std@@UEAAXXZ 0000000067dc5290     msvcprtd:MSVCP100D.dll
 0002:00000298       __imp_?showmanyc@?$basic_streambuf@DU?$char_traits@D@std@@@std@@MEAA_JXZ 0000000067dc5298     msvcprtd:MSVCP100D.dll
 0002:000002a0       __imp_?uflow@?$basic_streambuf@DU?$char_traits@D@std@@@std@@MEAAHXZ 0000000067dc52a0     msvcprtd:MSVCP100D.dll
 0002:000002a8       __imp_?xsgetn@?$basic_streambuf@DU?$char_traits@D@std@@@std@@MEAA_JPEAD_J@Z 0000000067dc52a8     msvcprtd:MSVCP100D.dll
 0002:000002b0       __imp_?xsputn@?$basic_streambuf@DU?$char_traits@D@std@@@std@@MEAA_JPEBD_J@Z 0000000067dc52b0     msvcprtd:MSVCP100D.dll
 0002:000002b8       __imp_?setbuf@?$basic_streambuf@DU?$char_traits@D@std@@@std@@MEAAPEAV12@PEAD_J@Z 0000000067dc52b8     msvcprtd:MSVCP100D.dll
 0002:000002c0       __imp_?sync@?$basic_streambuf@DU?$char_traits@D@std@@@std@@MEAAHXZ 0000000067dc52c0     msvcprtd:MSVCP100D.dll
 0002:000002c8       __imp_?imbue@?$basic_streambuf@DU?$char_traits@D@std@@@std@@MEAAXAEBVlocale@2@@Z 0000000067dc52c8     msvcprtd:MSVCP100D.dll
 0002:000002d0       __imp_?gptr@?$basic_streambuf@DU?$char_traits@D@std@@@std@@IEBAPEADXZ 0000000067dc52d0     msvcprtd:MSVCP100D.dll
 0002:000002d8       \177MSVCP100D_NULL_THUNK_DATA 0000000067dc52d8     msvcprtd:MSVCP100D.dll
 0002:000002e0       __imp___clean_type_info_names_internal 0000000067dc52e0     msvcrtd:MSVCR100D.dll
 0002:000002e8       __imp___crt_debugger_hook  0000000067dc52e8     msvcrtd:MSVCR100D.dll
 0002:000002f0       __imp_?_type_info_dtor_internal_method@type_info@@QEAAXXZ 0000000067dc52f0     msvcrtd:MSVCR100D.dll
 0002:000002f8       __imp___CppXcptFilter      0000000067dc52f8     msvcrtd:MSVCR100D.dll
 0002:00000300       __imp__amsg_exit           0000000067dc5300     msvcrtd:MSVCR100D.dll
 0002:00000308       __imp__initterm_e          0000000067dc5308     msvcrtd:MSVCR100D.dll
 0002:00000310       __imp__initterm            0000000067dc5310     msvcrtd:MSVCR100D.dll
 0002:00000318       __imp__CrtSetCheckCount    0000000067dc5318     msvcrtd:MSVCR100D.dll
 0002:00000320       __imp__encoded_null        0000000067dc5320     msvcrtd:MSVCR100D.dll
 0002:00000328       __imp__free_dbg            0000000067dc5328     msvcrtd:MSVCR100D.dll
 0002:00000330       __imp__malloc_dbg          0000000067dc5330     msvcrtd:MSVCR100D.dll
 0002:00000338       __imp__onexit              0000000067dc5338     msvcrtd:MSVCR100D.dll
 0002:00000340       __imp__lock                0000000067dc5340     msvcrtd:MSVCR100D.dll
 0002:00000348       __imp___dllonexit          0000000067dc5348     msvcrtd:MSVCR100D.dll
 0002:00000350       __imp__unlock              0000000067dc5350     msvcrtd:MSVCR100D.dll
 0002:00000358       __imp_?terminate@@YAXXZ    0000000067dc5358     msvcrtd:MSVCR100D.dll
 0002:00000360       __imp___C_specific_handler 0000000067dc5360     msvcrtd:MSVCR100D.dll
 0002:00000368       __imp__CRT_RTC_INITW       0000000067dc5368     msvcrtd:MSVCR100D.dll
 0002:00000370       __imp_floorf               0000000067dc5370     msvcrtd:MSVCR100D.dll
 0002:00000378       __imp__snprintf_s          0000000067dc5378     msvcrtd:MSVCR100D.dll
 0002:00000380       __imp__errno               0000000067dc5380     msvcrtd:MSVCR100D.dll
 0002:00000388       __imp__CrtDbgReportW       0000000067dc5388     msvcrtd:MSVCR100D.dll
 0002:00000390       __imp__CrtDbgReport        0000000067dc5390     msvcrtd:MSVCR100D.dll
 0002:00000398       __imp_free                 0000000067dc5398     msvcrtd:MSVCR100D.dll
 0002:000003a0       __imp_strcpy               0000000067dc53a0     msvcrtd:MSVCR100D.dll
 0002:000003a8       __imp_wcscpy               0000000067dc53a8     msvcrtd:MSVCR100D.dll
 0002:000003b0       __imp__vsnprintf_s         0000000067dc53b0     msvcrtd:MSVCR100D.dll
 0002:000003b8       __imp__vsnwprintf_s        0000000067dc53b8     msvcrtd:MSVCR100D.dll
 0002:000003c0       __imp__snwprintf_s         0000000067dc53c0     msvcrtd:MSVCR100D.dll
 0002:000003c8       __imp_wcscpy_s             0000000067dc53c8     msvcrtd:MSVCR100D.dll
 0002:000003d0       __imp_wcsncpy_s            0000000067dc53d0     msvcrtd:MSVCR100D.dll
 0002:000003d8       __imp_strcpy_s             0000000067dc53d8     msvcrtd:MSVCR100D.dll
 0002:000003e0       __imp_calloc               0000000067dc53e0     msvcrtd:MSVCR100D.dll
 0002:000003e8       __imp__recalloc            0000000067dc53e8     msvcrtd:MSVCR100D.dll
 0002:000003f0       __imp_memcmp               0000000067dc53f0     msvcrtd:MSVCR100D.dll
 0002:000003f8       __imp__wcsicmp             0000000067dc53f8     msvcrtd:MSVCR100D.dll
 0002:00000400       __imp_memmove_s            0000000067dc5400     msvcrtd:MSVCR100D.dll
 0002:00000408       __imp_wcslen               0000000067dc5408     msvcrtd:MSVCR100D.dll
 0002:00000410       __imp_??1exception@std@@UEAA@XZ 0000000067dc5410     msvcrtd:MSVCR100D.dll
 0002:00000418       __imp_?what@exception@std@@UEBAPEBDXZ 0000000067dc5418     msvcrtd:MSVCR100D.dll
 0002:00000420       __imp_??0exception@std@@QEAA@AEBQEBD@Z 0000000067dc5420     msvcrtd:MSVCR100D.dll
 0002:00000428       __imp_??0exception@std@@QEAA@AEBV01@@Z 0000000067dc5428     msvcrtd:MSVCR100D.dll
 0002:00000430       __imp__CxxThrowException   0000000067dc5430     msvcrtd:MSVCR100D.dll
 0002:00000438       __imp_memmove              0000000067dc5438     msvcrtd:MSVCR100D.dll
 0002:00000440       __imp_strlen               0000000067dc5440     msvcrtd:MSVCR100D.dll
 0002:00000448       __imp_memcpy               0000000067dc5448     msvcrtd:MSVCR100D.dll
 0002:00000450       __imp_strcmp               0000000067dc5450     msvcrtd:MSVCR100D.dll
 0002:00000458       __imp_memset               0000000067dc5458     msvcrtd:MSVCR100D.dll
 0002:00000460       __imp__vsnprintf           0000000067dc5460     msvcrtd:MSVCR100D.dll
 0002:00000468       __imp_strrchr              0000000067dc5468     msvcrtd:MSVCR100D.dll
 0002:00000470       __imp__splitpath_s         0000000067dc5470     msvcrtd:MSVCR100D.dll
 0002:00000478       __imp___CxxFrameHandler3   0000000067dc5478     msvcrtd:MSVCR100D.dll
 0002:00000480       __imp_strstr               0000000067dc5480     msvcrtd:MSVCR100D.dll
 0002:00000488       \177MSVCR100D_NULL_THUNK_DATA 0000000067dc5488     msvcrtd:MSVCR100D.dll
 0002:00000490       __imp_SysFreeString        0000000067dc5490     oleaut32:OLEAUT32.dll
 0002:00000498       \177OLEAUT32_NULL_THUNK_DATA 0000000067dc5498     oleaut32:OLEAUT32.dll
 0002:000004a0       __imp_?GetCapability@SapBuffer@@UEAAHHHPEAX@Z 0000000067dc54a0     SapClassBasic:SapClassBasic82.dll
 0002:000004a8       __imp_?GetCapability@SapBuffer@@UEAAHHPEAX@Z 0000000067dc54a8     SapClassBasic:SapClassBasic82.dll
 0002:000004b0       __imp_?IsParameterValid@SapBuffer@@UEAAHHH@Z 0000000067dc54b0     SapClassBasic:SapClassBasic82.dll
 0002:000004b8       __imp_?IsParameterValid@SapBuffer@@UEAAHH@Z 0000000067dc54b8     SapClassBasic:SapClassBasic82.dll
 0002:000004c0       __imp_?GetParameter@SapBuffer@@UEAAHHHPEAX@Z 0000000067dc54c0     SapClassBasic:SapClassBasic82.dll
 0002:000004c8       __imp_?GetParameter@SapBuffer@@UEAAHHPEAX@Z 0000000067dc54c8     SapClassBasic:SapClassBasic82.dll
 0002:000004d0       __imp_?SetParameter@SapBuffer@@UEAAHHHPEAX@Z 0000000067dc54d0     SapClassBasic:SapClassBasic82.dll
 0002:000004d8       __imp_?SetParameter@SapBuffer@@UEAAHHPEAX@Z 0000000067dc54d8     SapClassBasic:SapClassBasic82.dll
 0002:000004e0       __imp_?SetParameter@SapBuffer@@UEAAHHHH@Z 0000000067dc54e0     SapClassBasic:SapClassBasic82.dll
 0002:000004e8       __imp_?SetParameter@SapBuffer@@UEAAHHH@Z 0000000067dc54e8     SapClassBasic:SapClassBasic82.dll
 0002:000004f0       __imp_?GetParent@SapBuffer@@UEAAPEAV1@XZ 0000000067dc54f0     SapClassBasic:SapClassBasic82.dll
 0002:000004f8       __imp_?GetRoot@SapBuffer@@UEAAPEAV1@XZ 0000000067dc54f8     SapClassBasic:SapClassBasic82.dll
 0002:00000500       __imp_?SetState@SapBuffer@@UEAAHHH@Z 0000000067dc5500     SapClassBasic:SapClassBasic82.dll
 0002:00000508       __imp_?SetState@SapBuffer@@UEAAHH@Z 0000000067dc5508     SapClassBasic:SapClassBasic82.dll
 0002:00000510       __imp_?SetAllState@SapBuffer@@UEAAHH@Z 0000000067dc5510     SapClassBasic:SapClassBasic82.dll
 0002:00000518       __imp_?GetState@SapBuffer@@UEAAHHPEAH@Z 0000000067dc5518     SapClassBasic:SapClassBasic82.dll
 0002:00000520       __imp_?GetState@SapBuffer@@UEAAHPEAH@Z 0000000067dc5520     SapClassBasic:SapClassBasic82.dll
 0002:00000528       __imp_?GetNumPages@SapBuffer@@UEAAHPEAH@Z 0000000067dc5528     SapClassBasic:SapClassBasic82.dll
 0002:00000530       __imp_?SetPage@SapBuffer@@UEAAHHH@Z 0000000067dc5530     SapClassBasic:SapClassBasic82.dll
 0002:00000538       __imp_?SetPage@SapBuffer@@UEAAHH@Z 0000000067dc5538     SapClassBasic:SapClassBasic82.dll
 0002:00000540       __imp_?SetAllPage@SapBuffer@@UEAAHH@Z 0000000067dc5540     SapClassBasic:SapClassBasic82.dll
 0002:00000548       __imp_?GetPage@SapBuffer@@UEAAHHPEAH@Z 0000000067dc5548     SapClassBasic:SapClassBasic82.dll
 0002:00000550       __imp_?GetPage@SapBuffer@@UEAAHPEAH@Z 0000000067dc5550     SapClassBasic:SapClassBasic82.dll
 0002:00000558       __imp_?IsMultiFormat@SapBuffer@@UEAAHXZ 0000000067dc5558     SapClassBasic:SapClassBasic82.dll
 0002:00000560       __imp_?GetPageFormat@SapBuffer@@UEAAHPEAH@Z 0000000067dc5560     SapClassBasic:SapClassBasic82.dll
 0002:00000568       __imp_?Clear@SapBuffer@@UEAAHHVSapData@@@Z 0000000067dc5568     SapClassBasic:SapClassBasic82.dll
 0002:00000570       __imp_?Clear@SapBuffer@@UEAAHVSapData@@@Z 0000000067dc5570     SapClassBasic:SapClassBasic82.dll
 0002:00000578       __imp_?Clear@SapBuffer@@UEAAHH@Z 0000000067dc5578     SapClassBasic:SapClassBasic82.dll
 0002:00000580       __imp_?Clear@SapBuffer@@UEAAHXZ 0000000067dc5580     SapClassBasic:SapClassBasic82.dll
 0002:00000588       __imp_?Load@SapBuffer@@UEAAHPEBDHHH0@Z 0000000067dc5588     SapClassBasic:SapClassBasic82.dll
 0002:00000590       __imp_?Save@SapBuffer@@UEAAHPEBD0HH@Z 0000000067dc5590     SapClassBasic:SapClassBasic82.dll
 0002:00000598       __imp_?Read@SapBuffer@@UEAAHH_KHPEAX@Z 0000000067dc5598     SapClassBasic:SapClassBasic82.dll
 0002:000005a0       __imp_?Read@SapBuffer@@UEAAH_KHPEAX@Z 0000000067dc55a0     SapClassBasic:SapClassBasic82.dll
 0002:000005a8       __imp_?ReadElement@SapBuffer@@UEAAHHHPEAH00@Z 0000000067dc55a8     SapClassBasic:SapClassBasic82.dll
 0002:000005b0       __imp_?ReadElement@SapBuffer@@UEAAHHHHPEAVSapData@@@Z 0000000067dc55b0     SapClassBasic:SapClassBasic82.dll
 0002:000005b8       __imp_?ReadElement@SapBuffer@@UEAAHHHPEAVSapData@@@Z 0000000067dc55b8     SapClassBasic:SapClassBasic82.dll
 0002:000005c0       __imp_?ReadElement@SapBuffer@@UEAAHHHHPEAX@Z 0000000067dc55c0     SapClassBasic:SapClassBasic82.dll
 0002:000005c8       __imp_?ReadElement@SapBuffer@@UEAAHHHPEAX@Z 0000000067dc55c8     SapClassBasic:SapClassBasic82.dll
 0002:000005d0       __imp_?ReadLine@SapBuffer@@UEAAHHHHHHPEAXPEAH@Z 0000000067dc55d0     SapClassBasic:SapClassBasic82.dll
 0002:000005d8       __imp_?ReadLine@SapBuffer@@UEAAHHHHHPEAXPEAH@Z 0000000067dc55d8     SapClassBasic:SapClassBasic82.dll
 0002:000005e0       __imp_?ReadRect@SapBuffer@@UEAAHHHHHHPEAX@Z 0000000067dc55e0     SapClassBasic:SapClassBasic82.dll
 0002:000005e8       __imp_?ReadRect@SapBuffer@@UEAAHHHHHPEAX@Z 0000000067dc55e8     SapClassBasic:SapClassBasic82.dll
 0002:000005f0       __imp_?Write@SapBuffer@@UEAAHH_KHPEBX@Z 0000000067dc55f0     SapClassBasic:SapClassBasic82.dll
 0002:000005f8       __imp_?Write@SapBuffer@@UEAAH_KHPEBX@Z 0000000067dc55f8     SapClassBasic:SapClassBasic82.dll
 0002:00000600       __imp_?WriteElement@SapBuffer@@UEAAHHHHVSapData@@@Z 0000000067dc5600     SapClassBasic:SapClassBasic82.dll
 0002:00000608       __imp_?WriteElement@SapBuffer@@UEAAHHHVSapData@@@Z 0000000067dc5608     SapClassBasic:SapClassBasic82.dll
 0002:00000610       __imp_?WriteElement@SapBuffer@@UEAAHHHHPEBX@Z 0000000067dc5610     SapClassBasic:SapClassBasic82.dll
 0002:00000618       __imp_?WriteElement@SapBuffer@@UEAAHHHPEBX@Z 0000000067dc5618     SapClassBasic:SapClassBasic82.dll
 0002:00000620       __imp_?WriteLine@SapBuffer@@UEAAHHHHHHPEBXPEAH@Z 0000000067dc5620     SapClassBasic:SapClassBasic82.dll
 0002:00000628       __imp_?WriteLine@SapBuffer@@UEAAHHHHHPEBXPEAH@Z 0000000067dc5628     SapClassBasic:SapClassBasic82.dll
 0002:00000630       __imp_?WriteRect@SapBuffer@@UEAAHHHHHHPEBX@Z 0000000067dc5630     SapClassBasic:SapClassBasic82.dll
 0002:00000638       __imp_?WriteRect@SapBuffer@@UEAAHHHHHPEBX@Z 0000000067dc5638     SapClassBasic:SapClassBasic82.dll
 0002:00000640       __imp_?Copy@SapBuffer@@UEAAHPEAV1@HH@Z 0000000067dc5640     SapClassBasic:SapClassBasic82.dll
 0002:00000648       __imp_?Copy@SapBuffer@@UEAAHPEAV1@@Z 0000000067dc5648     SapClassBasic:SapClassBasic82.dll
 0002:00000650       __imp_?CopyAll@SapBuffer@@UEAAHPEAV1@@Z 0000000067dc5650     SapClassBasic:SapClassBasic82.dll
 0002:00000658       __imp_?CopyRect@SapBuffer@@UEAAHPEAV1@HHHHHHHH@Z 0000000067dc5658     SapClassBasic:SapClassBasic82.dll
 0002:00000660       __imp_?ColorConvert@SapBuffer@@UEAAHPEAV1@HHHHVSapDataFRGB@@PEAVSapLut@@@Z 0000000067dc5660     SapClassBasic:SapClassBasic82.dll
 0002:00000668       __imp_?ColorConvert@SapBuffer@@UEAAHPEAV1@HHVSapDataFRGB@@PEAVSapLut@@@Z 0000000067dc5668     SapClassBasic:SapClassBasic82.dll
 0002:00000670       __imp_?ColorWhiteBalance@SapBuffer@@UEAAHHHPEAVSapDataFRGB@@@Z 0000000067dc5670     SapClassBasic:SapClassBasic82.dll
 0002:00000678       __imp_?ColorWhiteBalance@SapBuffer@@UEAAHHPEAVSapDataFRGB@@@Z 0000000067dc5678     SapClassBasic:SapClassBasic82.dll
 0002:00000680       __imp_?SplitComponents@SapBuffer@@UEAAHPEAV1@00H@Z 0000000067dc5680     SapClassBasic:SapClassBasic82.dll
 0002:00000688       __imp_?SplitComponents@SapBuffer@@UEAAHPEAV1@00@Z 0000000067dc5688     SapClassBasic:SapClassBasic82.dll
 0002:00000690       __imp_?SplitComponents@SapBuffer@@UEAAHPEAV1@H@Z 0000000067dc5690     SapClassBasic:SapClassBasic82.dll
 0002:00000698       __imp_?SplitComponents@SapBuffer@@UEAAHPEAV1@@Z 0000000067dc5698     SapClassBasic:SapClassBasic82.dll
 0002:000006a0       __imp_?MergeComponents@SapBuffer@@UEAAHPEAV1@00H@Z 0000000067dc56a0     SapClassBasic:SapClassBasic82.dll
 0002:000006a8       __imp_?MergeComponents@SapBuffer@@UEAAHPEAV1@00@Z 0000000067dc56a8     SapClassBasic:SapClassBasic82.dll
 0002:000006b0       __imp_?MergeComponents@SapBuffer@@UEAAHPEAV1@H@Z 0000000067dc56b0     SapClassBasic:SapClassBasic82.dll
 0002:000006b8       __imp_?MergeComponents@SapBuffer@@UEAAHPEAV1@@Z 0000000067dc56b8     SapClassBasic:SapClassBasic82.dll
 0002:000006c0       __imp_?Register@SapBuffer@@UEAAHPEBD@Z 0000000067dc56c0     SapClassBasic:SapClassBasic82.dll
 0002:000006c8       __imp_?Unregister@SapBuffer@@UEAAHXZ 0000000067dc56c8     SapClassBasic:SapClassBasic82.dll
 0002:000006d0       __imp_?GetNumRoi@SapBuffer@@UEBAHXZ 0000000067dc56d0     SapClassBasic:SapClassBasic82.dll
 0002:000006d8       __imp_?GetRoi@SapBuffer@@UEBAQEAUtagRECT@@H@Z 0000000067dc56d8     SapClassBasic:SapClassBasic82.dll
 0002:000006e0       __imp_?AddRoi@SapBuffer@@UEAAHUtagRECT@@@Z 0000000067dc56e0     SapClassBasic:SapClassBasic82.dll
 0002:000006e8       __imp_?RemoveAllRoi@SapBuffer@@UEAAHXZ 0000000067dc56e8     SapClassBasic:SapClassBasic82.dll
 0002:000006f0       __imp_?GetChild@SapBuffer@@UEBAPEAU__CORHANDLE@@HH@Z 0000000067dc56f0     SapClassBasic:SapClassBasic82.dll
 0002:000006f8       __imp_?BayerConvert@SapBuffer@@UEAAHPEAV1@HHHHVSapDataFRGB@@PEAVSapLut@@@Z 0000000067dc56f8     SapClassBasic:SapClassBasic82.dll
 0002:00000700       __imp_?BayerConvert@SapBuffer@@UEAAHPEAV1@HHVSapDataFRGB@@PEAVSapLut@@@Z 0000000067dc5700     SapClassBasic:SapClassBasic82.dll
 0002:00000708       __imp_?BayerWhiteBalance@SapBuffer@@UEAAHHHPEAVSapDataFRGB@@@Z 0000000067dc5708     SapClassBasic:SapClassBasic82.dll
 0002:00000710       __imp_?BayerWhiteBalance@SapBuffer@@UEAAHHPEAVSapDataFRGB@@@Z 0000000067dc5710     SapClassBasic:SapClassBasic82.dll
 0002:00000718       __imp_?Construct@SapBuffer@@MEAAXPEBDPEAVSapDisplay@@@Z 0000000067dc5718     SapClassBasic:SapClassBasic82.dll
 0002:00000720       __imp_?GetLastStatus@SapManager@@SAPEBDXZ 0000000067dc5720     SapClassBasic:SapClassBasic82.dll
 0002:00000728       __imp_?GetAverage@SapFlatFieldStats@@QEBAHH@Z 0000000067dc5728     SapClassBasic:SapClassBasic82.dll
 0002:00000730       __imp_?GetNumComponents@SapFlatFieldStats@@QEBAHXZ 0000000067dc5730     SapClassBasic:SapClassBasic82.dll
 0002:00000738       __imp_??1SapFlatFieldStats@@QEAA@XZ 0000000067dc5738     SapClassBasic:SapClassBasic82.dll
 0002:00000740       __imp_??0SapFlatFieldStats@@QEAA@XZ 0000000067dc5740     SapClassBasic:SapClassBasic82.dll
 0002:00000748       __imp_??1SapFlatFieldDefects@@QEAA@XZ 0000000067dc5748     SapClassBasic:SapClassBasic82.dll
 0002:00000750       __imp_?GetNumDefects@SapFlatFieldDefects@@QEBAHXZ 0000000067dc5750     SapClassBasic:SapClassBasic82.dll
 0002:00000758       __imp_?GetDefectRatio@SapFlatFieldDefects@@QEBAMXZ 0000000067dc5758     SapClassBasic:SapClassBasic82.dll
 0002:00000760       __imp_?GetNumClusters@SapFlatFieldDefects@@QEBAHXZ 0000000067dc5760     SapClassBasic:SapClassBasic82.dll
 0002:00000768       __imp_??0SapFlatFieldDefects@@QEAA@XZ 0000000067dc5768     SapClassBasic:SapClassBasic82.dll
 0002:00000770       __imp_?GetSpaceUsed@SapBuffer@@UEAAHPEAH@Z 0000000067dc5770     SapClassBasic:SapClassBasic82.dll
 0002:00000778       __imp_?SetClusterMap@SapFlatField@@QEAAHPEBD@Z 0000000067dc5778     SapClassBasic:SapClassBasic82.dll
 0002:00000780       __imp_?GetStdDeviation@SapFlatFieldStats@@QEBAHH@Z 0000000067dc5780     SapClassBasic:SapClassBasic82.dll
 0002:00000788       __imp_?GetLow@SapFlatFieldStats@@QEBAHH@Z 0000000067dc5788     SapClassBasic:SapClassBasic82.dll
 0002:00000790       __imp_?GetHigh@SapFlatFieldStats@@QEBAHH@Z 0000000067dc5790     SapClassBasic:SapClassBasic82.dll
 0002:00000798       __imp_?GetPeakPosition@SapFlatFieldStats@@QEBAHH@Z 0000000067dc5798     SapClassBasic:SapClassBasic82.dll
 0002:000007a0       __imp_?GetPixelRatio@SapFlatFieldStats@@QEBAMH@Z 0000000067dc57a0     SapClassBasic:SapClassBasic82.dll
 0002:000007a8       __imp_?GetNumPixels@SapFlatFieldStats@@QEBAHH@Z 0000000067dc57a8     SapClassBasic:SapClassBasic82.dll
 0002:000007b0       __imp_?WriteFile@SapAcqDevice@@QEAAHPEBDH@Z 0000000067dc57b0     SapClassBasic:SapClassBasic82.dll
 0002:000007b8       __imp_?SetCommandTimeout@SapManager@@SAXH@Z 0000000067dc57b8     SapClassBasic:SapClassBasic82.dll
 0002:000007c0       __imp_?GetCommandTimeout@SapManager@@SAHXZ 0000000067dc57c0     SapClassBasic:SapClassBasic82.dll
 0002:000007c8       __imp_?GetPinNumber@SapGioCallbackInfo@@QEBAHXZ 0000000067dc57c8     SapClassBasic:SapClassBasic82.dll
 0002:000007d0       __imp_?GetContext@SapGioCallbackInfo@@QEBAPEAXXZ 0000000067dc57d0     SapClassBasic:SapClassBasic82.dll
 0002:000007d8       __imp_?GetNumPins@SapGio@@QEBAHXZ 0000000067dc57d8     SapClassBasic:SapClassBasic82.dll
 0002:000007e0       __imp_?SetDisplayStatusMode@SapManager@@SAHHP6AXPEAVSapManCallbackInfo@@@ZPEAX@Z 0000000067dc57e0     SapClassBasic:SapClassBasic82.dll
 0002:000007e8       __imp_?GetBuffer@SapView@@QEBAPEAVSapBuffer@@XZ 0000000067dc57e8     SapClassBasic:SapClassBasic82.dll
 0002:000007f0       __imp_?Top@SapViewScaleParams@@QEBAHXZ 0000000067dc57f0     SapClassBasic:SapClassBasic82.dll
 0002:000007f8       __imp_?Left@SapViewScaleParams@@QEBAHXZ 0000000067dc57f8     SapClassBasic:SapClassBasic82.dll
 0002:00000800       __imp_?Height@SapViewScaleParams@@QEBAHXZ 0000000067dc5800     SapClassBasic:SapClassBasic82.dll
 0002:00000808       __imp_?Width@SapViewScaleParams@@QEBAHXZ 0000000067dc5808     SapClassBasic:SapClassBasic82.dll
 0002:00000810       __imp_?GetScaleParamsSrc@SapView@@QEAAAEBVSapViewScaleParams@@XZ 0000000067dc5810     SapClassBasic:SapClassBasic82.dll
 0002:00000818       __imp_?GetImageFilterKernelSize@SapAcquisition@@QEAAHIPEAW4ImageFilterKernelSize@1@@Z 0000000067dc5818     SapClassBasic:SapClassBasic82.dll
 0002:00000820       __imp_?IsImageFilterAvailable@SapAcquisition@@QEBAHXZ 0000000067dc5820     SapClassBasic:SapClassBasic82.dll
 0002:00000828       __imp_?IsImageFilterEnabled@SapAcquisition@@QEAAHXZ 0000000067dc5828     SapClassBasic:SapClassBasic82.dll
 0002:00000830       __imp_?GetImageFilter@SapAcquisition@@QEAAHIPEAVSapBuffer@@@Z 0000000067dc5830     SapClassBasic:SapClassBasic82.dll
 0002:00000838       __imp_?Mono@SapDataMono@@QEAAHXZ 0000000067dc5838     SapClassBasic:SapClassBasic82.dll
 0002:00000840       __imp_??1SapDataMono@@UEAA@XZ 0000000067dc5840     SapClassBasic:SapClassBasic82.dll
 0002:00000848       __imp_??0SapDataMono@@QEAA@XZ 0000000067dc5848     SapClassBasic:SapClassBasic82.dll
 0002:00000850       __imp_?SetImageFilter@SapAcquisition@@QEAAHIPEAVSapBuffer@@@Z 0000000067dc5850     SapClassBasic:SapClassBasic82.dll
 0002:00000858       __imp_??0SapData@@QEAA@AEBV0@@Z 0000000067dc5858     SapClassBasic:SapClassBasic82.dll
 0002:00000860       __imp_?Set@SapDataMono@@QEAAXH@Z 0000000067dc5860     SapClassBasic:SapClassBasic82.dll
 0002:00000868       __imp_?EnableImageFilter@SapAcquisition@@QEAAHH@Z 0000000067dc5868     SapClassBasic:SapClassBasic82.dll
 0002:00000870       __imp_?GetContext@SapViewCallbackInfo@@QEBAPEAXXZ 0000000067dc5870     SapClassBasic:SapClassBasic82.dll
 0002:00000878       __imp_?ZoomHorz@SapViewScaleParams@@QEBAMXZ 0000000067dc5878     SapClassBasic:SapClassBasic82.dll
 0002:00000880       __imp_?ZoomVert@SapViewScaleParams@@QEBAMXZ 0000000067dc5880     SapClassBasic:SapClassBasic82.dll
 0002:00000888       __imp_?IsCapabilityValid@SapBuffer@@UEAAHH@Z 0000000067dc5888     SapClassBasic:SapClassBasic82.dll
 0002:00000890       __imp_?SetHeight@SapViewScaleParams@@QEAAXH@Z 0000000067dc5890     SapClassBasic:SapClassBasic82.dll
 0002:00000898       __imp_?SetWidth@SapViewScaleParams@@QEAAXH@Z 0000000067dc5898     SapClassBasic:SapClassBasic82.dll
 0002:000008a0       __imp_?SetLeft@SapViewScaleParams@@QEAAXH@Z 0000000067dc58a0     SapClassBasic:SapClassBasic82.dll
 0002:000008a8       __imp_?SetTop@SapViewScaleParams@@QEAAXH@Z 0000000067dc58a8     SapClassBasic:SapClassBasic82.dll
 0002:000008b0       __imp_??0SapViewScaleParams@@QEAA@XZ 0000000067dc58b0     SapClassBasic:SapClassBasic82.dll
 0002:000008b8       __imp_?GetScaleParamsDst@SapView@@QEAAAEBVSapViewScaleParams@@XZ 0000000067dc58b8     SapClassBasic:SapClassBasic82.dll
 0002:000008c0       __imp_?GetScrollRange@SapView@@QEBA?AUtagSIZE@@XZ 0000000067dc58c0     SapClassBasic:SapClassBasic82.dll
 0002:000008c8       __imp_?GetScrollPos@SapView@@QEBA?AUtagPOINT@@XZ 0000000067dc58c8     SapClassBasic:SapClassBasic82.dll
 0002:000008d0       __imp_?GetScalingMode@SapView@@QEBA?AW4ScalingMode@1@XZ 0000000067dc58d0     SapClassBasic:SapClassBasic82.dll
 0002:000008d8       __imp_??1SapData@@UEAA@XZ  0000000067dc58d8     SapClassBasic:SapClassBasic82.dll
 0002:000008e0       __imp_??0SapDataRGB@@QEAA@AEBVSapData@@@Z 0000000067dc58e0     SapClassBasic:SapClassBasic82.dll
 0002:000008e8       __imp_??0SapData@@QEAA@XZ  0000000067dc58e8     SapClassBasic:SapClassBasic82.dll
 0002:000008f0       __imp_??1SapDataRGB@@UEAA@XZ 0000000067dc58f0     SapClassBasic:SapClassBasic82.dll
 0002:000008f8       __imp_?Red@SapDataRGB@@QEAAHXZ 0000000067dc58f8     SapClassBasic:SapClassBasic82.dll
 0002:00000900       __imp_?Green@SapDataRGB@@QEAAHXZ 0000000067dc5900     SapClassBasic:SapClassBasic82.dll
 0002:00000908       __imp_?Blue@SapDataRGB@@QEAAHXZ 0000000067dc5908     SapClassBasic:SapClassBasic82.dll
 0002:00000910       __imp_??0SapDataRGB@@QEAA@XZ 0000000067dc5910     SapClassBasic:SapClassBasic82.dll
 0002:00000918       __imp_??1SapDataRGBA@@UEAA@XZ 0000000067dc5918     SapClassBasic:SapClassBasic82.dll
 0002:00000920       __imp_?Red@SapDataRGBA@@QEAAHXZ 0000000067dc5920     SapClassBasic:SapClassBasic82.dll
 0002:00000928       __imp_?Green@SapDataRGBA@@QEAAHXZ 0000000067dc5928     SapClassBasic:SapClassBasic82.dll
 0002:00000930       __imp_?Blue@SapDataRGBA@@QEAAHXZ 0000000067dc5930     SapClassBasic:SapClassBasic82.dll
 0002:00000938       __imp_?Alpha@SapDataRGBA@@QEAAHXZ 0000000067dc5938     SapClassBasic:SapClassBasic82.dll
 0002:00000940       __imp_??0SapDataRGBA@@QEAA@XZ 0000000067dc5940     SapClassBasic:SapClassBasic82.dll
 0002:00000948       __imp_??1SapDataYUV@@UEAA@XZ 0000000067dc5948     SapClassBasic:SapClassBasic82.dll
 0002:00000950       __imp_?Y@SapDataYUV@@QEAAHXZ 0000000067dc5950     SapClassBasic:SapClassBasic82.dll
 0002:00000958       __imp_?U@SapDataYUV@@QEAAHXZ 0000000067dc5958     SapClassBasic:SapClassBasic82.dll
 0002:00000960       __imp_?V@SapDataYUV@@QEAAHXZ 0000000067dc5960     SapClassBasic:SapClassBasic82.dll
 0002:00000968       __imp_??0SapDataYUV@@QEAA@XZ 0000000067dc5968     SapClassBasic:SapClassBasic82.dll
 0002:00000970       __imp_??1SapDataHSV@@UEAA@XZ 0000000067dc5970     SapClassBasic:SapClassBasic82.dll
 0002:00000978       __imp_?H@SapDataHSV@@QEAAHXZ 0000000067dc5978     SapClassBasic:SapClassBasic82.dll
 0002:00000980       __imp_?S@SapDataHSV@@QEAAHXZ 0000000067dc5980     SapClassBasic:SapClassBasic82.dll
 0002:00000988       __imp_?V@SapDataHSV@@QEAAHXZ 0000000067dc5988     SapClassBasic:SapClassBasic82.dll
 0002:00000990       __imp_??0SapDataHSV@@QEAA@XZ 0000000067dc5990     SapClassBasic:SapClassBasic82.dll
 0002:00000998       __imp_??1SapDataLABA@@UEAA@XZ 0000000067dc5998     SapClassBasic:SapClassBasic82.dll
 0002:000009a0       __imp_?L@SapDataLABA@@QEAAHXZ 0000000067dc59a0     SapClassBasic:SapClassBasic82.dll
 0002:000009a8       __imp_?A@SapDataLABA@@QEAAHXZ 0000000067dc59a8     SapClassBasic:SapClassBasic82.dll
 0002:000009b0       __imp_?B@SapDataLABA@@QEAAHXZ 0000000067dc59b0     SapClassBasic:SapClassBasic82.dll
 0002:000009b8       __imp_??0SapDataLABA@@QEAA@XZ 0000000067dc59b8     SapClassBasic:SapClassBasic82.dll
 0002:000009c0       __imp_??1SapDataLAB@@UEAA@XZ 0000000067dc59c0     SapClassBasic:SapClassBasic82.dll
 0002:000009c8       __imp_?L@SapDataLAB@@QEAAHXZ 0000000067dc59c8     SapClassBasic:SapClassBasic82.dll
 0002:000009d0       __imp_?A@SapDataLAB@@QEAAHXZ 0000000067dc59d0     SapClassBasic:SapClassBasic82.dll
 0002:000009d8       __imp_?B@SapDataLAB@@QEAAHXZ 0000000067dc59d8     SapClassBasic:SapClassBasic82.dll
 0002:000009e0       __imp_??0SapDataLAB@@QEAA@XZ 0000000067dc59e0     SapClassBasic:SapClassBasic82.dll
 0002:000009e8       __imp_??1SapDataHSI@@UEAA@XZ 0000000067dc59e8     SapClassBasic:SapClassBasic82.dll
 0002:000009f0       __imp_?H@SapDataHSI@@QEAAHXZ 0000000067dc59f0     SapClassBasic:SapClassBasic82.dll
 0002:000009f8       __imp_?S@SapDataHSI@@QEAAHXZ 0000000067dc59f8     SapClassBasic:SapClassBasic82.dll
 0002:00000a00       __imp_?I@SapDataHSI@@QEAAHXZ 0000000067dc5a00     SapClassBasic:SapClassBasic82.dll
 0002:00000a08       __imp_??0SapDataHSI@@QEAA@XZ 0000000067dc5a08     SapClassBasic:SapClassBasic82.dll
 0002:00000a10       __imp_?GetStringFromFormat@SapManager@@SAHHPEAD@Z 0000000067dc5a10     SapClassBasic:SapClassBasic82.dll
 0002:00000a18       __imp_??1SapManager@@UEAA@XZ 0000000067dc5a18     SapClassBasic:SapClassBasic82.dll
 0002:00000a20       __imp_??0SapAcquisition@@QEAA@VSapLocation@@@Z 0000000067dc5a20     SapClassBasic:SapClassBasic82.dll
 0002:00000a28       __imp_?GetSpaceUsed@SapBuffer@@UEAAHHPEAH@Z 0000000067dc5a28     SapClassBasic:SapClassBasic82.dll
 0002:00000a30       __imp_?GetDeviceTimeStamp@SapBuffer@@UEAAHPEA_K@Z 0000000067dc5a30     SapClassBasic:SapClassBasic82.dll
 0002:00000a38       __imp_?GetDeviceTimeStamp@SapBuffer@@UEAAHHPEA_K@Z 0000000067dc5a38     SapClassBasic:SapClassBasic82.dll
 0002:00000a40       __imp_?GetHostCounterStamp@SapBuffer@@UEAAHPEA_K@Z 0000000067dc5a40     SapClassBasic:SapClassBasic82.dll
 0002:00000a48       __imp_?GetHostCounterStamp@SapBuffer@@UEAAHHPEA_K@Z 0000000067dc5a48     SapClassBasic:SapClassBasic82.dll
 0002:00000a50       __imp_?GetCounterStamp@SapBuffer@@UEAAHPEAH@Z 0000000067dc5a50     SapClassBasic:SapClassBasic82.dll
 0002:00000a58       __imp_?GetCounterStamp@SapBuffer@@UEAAHHPEAH@Z 0000000067dc5a58     SapClassBasic:SapClassBasic82.dll
 0002:00000a60       __imp_?IsMapped@SapBuffer@@UEAAHH@Z 0000000067dc5a60     SapClassBasic:SapClassBasic82.dll
 0002:00000a68       __imp_?IsMapped@SapBuffer@@UEAAHXZ 0000000067dc5a68     SapClassBasic:SapClassBasic82.dll
 0002:00000a70       __imp_?ReleaseAddress@SapBuffer@@UEAAHPEAX@Z 0000000067dc5a70     SapClassBasic:SapClassBasic82.dll
 0002:00000a78       __imp_?ReleaseAddress@SapBuffer@@UEAAHHPEAX@Z 0000000067dc5a78     SapClassBasic:SapClassBasic82.dll
 0002:00000a80       __imp_?GetAddress@SapBuffer@@UEAAHPEAPEAX@Z 0000000067dc5a80     SapClassBasic:SapClassBasic82.dll
 0002:00000a88       __imp_?GetAddress@SapBuffer@@UEAAHPEAXPEAPEAX@Z 0000000067dc5a88     SapClassBasic:SapClassBasic82.dll
 0002:00000a90       __imp_?GetAddress@SapBuffer@@UEAAHHPEAPEAX@Z 0000000067dc5a90     SapClassBasic:SapClassBasic82.dll
 0002:00000a98       __imp_?GetAddress@SapBuffer@@UEAAHHPEAXPEAPEAX@Z 0000000067dc5a98     SapClassBasic:SapClassBasic82.dll
 0002:00000aa0       __imp_?GetAddress@SapBuffer@@UEAAH_K0PEAPEAX@Z 0000000067dc5aa0     SapClassBasic:SapClassBasic82.dll
 0002:00000aa8       __imp_?GetAddress@SapBuffer@@UEAAH_K0PEAXPEAPEAX@Z 0000000067dc5aa8     SapClassBasic:SapClassBasic82.dll
 0002:00000ab0       __imp_?GetAddress@SapBuffer@@UEAAHH_K0PEAPEAX@Z 0000000067dc5ab0     SapClassBasic:SapClassBasic82.dll
 0002:00000ab8       __imp_?GetAddress@SapBuffer@@UEAAHH_K0PEAXPEAPEAX@Z 0000000067dc5ab8     SapClassBasic:SapClassBasic82.dll
 0002:00000ac0       __imp_?SetFrameRate@SapBuffer@@UEAAXM@Z 0000000067dc5ac0     SapClassBasic:SapClassBasic82.dll
 0002:00000ac8       __imp_?SetParametersFromFile@SapBuffer@@UEAAHPEBDH@Z 0000000067dc5ac8     SapClassBasic:SapClassBasic82.dll
 0002:00000ad0       __imp_?SetParameters@SapBuffer@@UEAAHHHHHH@Z 0000000067dc5ad0     SapClassBasic:SapClassBasic82.dll
 0002:00000ad8       __imp_?SetParameters@SapBuffer@@UEAAHHQEAPEAXHHHH@Z 0000000067dc5ad8     SapClassBasic:SapClassBasic82.dll
 0002:00000ae0       __imp_?SetParameters@SapBuffer@@UEAAHHQEA_KHHHH@Z 0000000067dc5ae0     SapClassBasic:SapClassBasic82.dll
 0002:00000ae8       __imp_?SetPhysicalAddress@SapBuffer@@UEAAHQEA_K@Z 0000000067dc5ae8     SapClassBasic:SapClassBasic82.dll
 0002:00000af0       __imp_?SetVirtualAddress@SapBuffer@@UEAAHQEAPEAX@Z 0000000067dc5af0     SapClassBasic:SapClassBasic82.dll
 0002:00000af8       __imp_?SetPixelDepth@SapBuffer@@UEAAHH@Z 0000000067dc5af8     SapClassBasic:SapClassBasic82.dll
 0002:00000b00       __imp_?SetType@SapBuffer@@UEAAHH@Z 0000000067dc5b00     SapClassBasic:SapClassBasic82.dll
 0002:00000b08       __imp_?SetFormat@SapBuffer@@UEAAHH@Z 0000000067dc5b08     SapClassBasic:SapClassBasic82.dll
 0002:00000b10       __imp_?SetHeight@SapBuffer@@UEAAHH@Z 0000000067dc5b10     SapClassBasic:SapClassBasic82.dll
 0002:00000b18       __imp_?SetWidth@SapBuffer@@UEAAHH@Z 0000000067dc5b18     SapClassBasic:SapClassBasic82.dll
 0002:00000b20       __imp_?SetCount@SapBuffer@@UEAAHH@Z 0000000067dc5b20     SapClassBasic:SapClassBasic82.dll
 0002:00000b28       __imp_?EmptyAll@SapBuffer@@UEAAHXZ 0000000067dc5b28     SapClassBasic:SapClassBasic82.dll
 0002:00000b30       __imp_?Empty@SapBuffer@@UEAAHXZ 0000000067dc5b30     SapClassBasic:SapClassBasic82.dll
 0002:00000b38       __imp_?Empty@SapBuffer@@UEAAHH@Z 0000000067dc5b38     SapClassBasic:SapClassBasic82.dll
 0002:00000b40       __imp_?GetTrash@SapBuffer@@UEBAPEAU__CORHANDLE@@XZ 0000000067dc5b40     SapClassBasic:SapClassBasic82.dll
 0002:00000b48       __imp_?Next@SapBuffer@@UEAAXXZ 0000000067dc5b48     SapClassBasic:SapClassBasic82.dll
 0002:00000b50       __imp_?ResetIndex@SapBuffer@@UEAAXXZ 0000000067dc5b50     SapClassBasic:SapClassBasic82.dll
 0002:00000b58       __imp_?SetIndex@SapBuffer@@UEAAHH@Z 0000000067dc5b58     SapClassBasic:SapClassBasic82.dll
 0002:00000b60       __imp_?GetIndex@SapBuffer@@UEBAHXZ 0000000067dc5b60     SapClassBasic:SapClassBasic82.dll
 0002:00000b68       __imp_?GetCount@SapBuffer@@UEBAHXZ 0000000067dc5b68     SapClassBasic:SapClassBasic82.dll
 0002:00000b70       __imp_??ASapBuffer@@UEBAPEAU__CORHANDLE@@H@Z 0000000067dc5b70     SapClassBasic:SapClassBasic82.dll
 0002:00000b78       __imp_?IsBuffer@SapXferNode@@UEAAHXZ 0000000067dc5b78     SapClassBasic:SapClassBasic82.dll
 0002:00000b80       __imp_?GetXferNodeType@SapBuffer@@UEAA?AW4XferNodeType@SapXferNode@@XZ 0000000067dc5b80     SapClassBasic:SapClassBasic82.dll
 0002:00000b88       __imp_?GetXferParamsFromSrcNode@SapXferNode@@UEAAXXZ 0000000067dc5b88     SapClassBasic:SapClassBasic82.dll
 0002:00000b90       __imp_?GetHandle@SapBuffer@@UEBAPEAU__CORHANDLE@@XZ 0000000067dc5b90     SapClassBasic:SapClassBasic82.dll
 0002:00000b98       __imp_?GetHandle@SapBuffer@@UEBAPEAU__CORHANDLE@@H@Z 0000000067dc5b98     SapClassBasic:SapClassBasic82.dll
 0002:00000ba0       __imp_?SetOutputXferParams@SapXferNode@@UEAAHVSapXferParams@@H@Z 0000000067dc5ba0     SapClassBasic:SapClassBasic82.dll
 0002:00000ba8       __imp_?SetInputXferParams@SapXferNode@@UEAAHVSapXferParams@@H@Z 0000000067dc5ba8     SapClassBasic:SapClassBasic82.dll
 0002:00000bb0       __imp_?SetXferParams@SapXferNode@@UEAAHVSapXferParams@@H@Z 0000000067dc5bb0     SapClassBasic:SapClassBasic82.dll
 0002:00000bb8       __imp_?SetSrcNode@SapXferNode@@UEAAHPEAV1@H@Z 0000000067dc5bb8     SapClassBasic:SapClassBasic82.dll
 0002:00000bc0       __imp_?GetOutputXferParams@SapXferNode@@UEBA?AVSapXferParams@@H@Z 0000000067dc5bc0     SapClassBasic:SapClassBasic82.dll
 0002:00000bc8       __imp_?GetInputXferParams@SapXferNode@@UEBA?AVSapXferParams@@H@Z 0000000067dc5bc8     SapClassBasic:SapClassBasic82.dll
 0002:00000bd0       __imp_?GetXferParams@SapXferNode@@UEBA?AVSapXferParams@@H@Z 0000000067dc5bd0     SapClassBasic:SapClassBasic82.dll
 0002:00000bd8       __imp_?Destroy@SapBuffer@@UEAAHXZ 0000000067dc5bd8     SapClassBasic:SapClassBasic82.dll
 0002:00000be0       __imp_??0SapBuffer@@QEAA@HPEAVSapXferNode@@HVSapLocation@@@Z 0000000067dc5be0     SapClassBasic:SapClassBasic82.dll
 0002:00000be8       __imp_??0SapBuffer@@QEAA@PEBDHVSapLocation@@@Z 0000000067dc5be8     SapClassBasic:SapClassBasic82.dll
 0002:00000bf0       __imp_?Create@SapBuffer@@UEAAHXZ 0000000067dc5bf0     SapClassBasic:SapClassBasic82.dll
 0002:00000bf8       __imp_?Load@SapBuffer@@UEAAHPEBD0HH@Z 0000000067dc5bf8     SapClassBasic:SapClassBasic82.dll
 0002:00000c00       __imp_?GetOffsetMinMax@SapFlatField@@QEAAXPEAH0@Z 0000000067dc5c00     SapClassBasic:SapClassBasic82.dll
 0002:00000c08       __imp_?GetCorrectionType@SapFlatField@@QEBA?AW4CorrectionType@1@XZ 0000000067dc5c08     SapClassBasic:SapClassBasic82.dll
 0002:00000c10       __imp_?GetVideoType@SapFlatField@@QEBA?AW4VideoType@SapAcquisition@@XZ 0000000067dc5c10     SapClassBasic:SapClassBasic82.dll
 0002:00000c18       __imp_?GetNumLinesAverage@SapFlatField@@QEBAHXZ 0000000067dc5c18     SapClassBasic:SapClassBasic82.dll
 0002:00000c20       __imp_?GetNumFramesAverage@SapFlatField@@QEBAHXZ 0000000067dc5c20     SapClassBasic:SapClassBasic82.dll
 0002:00000c28       __imp_?GetVerticalOffset@SapFlatField@@QEBAHXZ 0000000067dc5c28     SapClassBasic:SapClassBasic82.dll
 0002:00000c30       __imp_?GetGainDivisor@SapFlatField@@QEBAHXZ 0000000067dc5c30     SapClassBasic:SapClassBasic82.dll
 0002:00000c38       __imp_?GetDeviationMaxBlack@SapFlatField@@QEBAHXZ 0000000067dc5c38     SapClassBasic:SapClassBasic82.dll
 0002:00000c40       __imp_?GetDeviationMaxWhite@SapFlatField@@QEBAHXZ 0000000067dc5c40     SapClassBasic:SapClassBasic82.dll
 0002:00000c48       __imp_?GetIndex@SapFlatField@@QEBAHXZ 0000000067dc5c48     SapClassBasic:SapClassBasic82.dll
 0002:00000c50       __imp_?IsClippedGainOffsetDefects@SapFlatField@@QEBAHXZ 0000000067dc5c50     SapClassBasic:SapClassBasic82.dll
 0002:00000c58       __imp_?GetBlackPixelPercentage@SapFlatField@@QEBAMXZ 0000000067dc5c58     SapClassBasic:SapClassBasic82.dll
 0002:00000c60       __imp_?GetNumFlatField@SapFlatField@@QEBAHXZ 0000000067dc5c60     SapClassBasic:SapClassBasic82.dll
 0002:00000c68       __imp_?GetAcqDevice@SapFlatField@@QEBAPEAVSapAcqDevice@@XZ 0000000067dc5c68     SapClassBasic:SapClassBasic82.dll
 0002:00000c70       __imp_??1SapViewScaleParams@@QEAA@XZ 0000000067dc5c70     SapClassBasic:SapClassBasic82.dll
 0002:00000c78       __imp_?GetHandles@SapBuffer@@UEBAPEAPEAU__CORHANDLE@@XZ 0000000067dc5c78     SapClassBasic:SapClassBasic82.dll
 0002:00000c80       __imp_??0SapLocation@@QEAA@HH@Z 0000000067dc5c80     SapClassBasic:SapClassBasic82.dll
 0002:00000c88       __imp_??0SapManager@@QEAA@XZ 0000000067dc5c88     SapClassBasic:SapClassBasic82.dll
 0002:00000c90       __imp_??0SapFeature@@QEAA@VSapLocation@@@Z 0000000067dc5c90     SapClassBasic:SapClassBasic82.dll
 0002:00000c98       __imp_?Create@SapFeature@@UEAAHXZ 0000000067dc5c98     SapClassBasic:SapClassBasic82.dll
 0002:00000ca0       __imp_?IsFeatureAvailable@SapAcqDevice@@QEAAHPEBDPEAH@Z 0000000067dc5ca0     SapClassBasic:SapClassBasic82.dll
 0002:00000ca8       __imp_?GetFeatureValue@SapAcqDevice@@QEAAHPEBDPEADH@Z 0000000067dc5ca8     SapClassBasic:SapClassBasic82.dll
 0002:00000cb0       __imp_??1SapFeature@@UEAA@XZ 0000000067dc5cb0     SapClassBasic:SapClassBasic82.dll
 0002:00000cb8       __imp_?GetFileCount@SapAcqDevice@@QEAAHPEAH@Z 0000000067dc5cb8     SapClassBasic:SapClassBasic82.dll
 0002:00000cc0       __imp_?GetFileNameByIndex@SapAcqDevice@@QEAAHHPEADH@Z 0000000067dc5cc0     SapClassBasic:SapClassBasic82.dll
 0002:00000cc8       __imp_?GetFeatureInfo@SapAcqDevice@@QEAAHPEBDPEAVSapFeature@@@Z 0000000067dc5cc8     SapClassBasic:SapClassBasic82.dll
 0002:00000cd0       __imp_?GetDisplayName@SapFeature@@QEAAHPEADH@Z 0000000067dc5cd0     SapClassBasic:SapClassBasic82.dll
 0002:00000cd8       __imp_?Destroy@SapFeature@@UEAAHXZ 0000000067dc5cd8     SapClassBasic:SapClassBasic82.dll
 0002:00000ce0       __imp_?IsHardwareEnabled@SapColorConversion@@QEBAHXZ 0000000067dc5ce0     SapClassBasic:SapClassBasic82.dll
 0002:00000ce8       __imp_?GetAvailAlign@SapColorConversion@@QEBAHXZ 0000000067dc5ce8     SapClassBasic:SapClassBasic82.dll
 0002:00000cf0       __imp_?GetAvailMethod@SapColorConversion@@QEBAHXZ 0000000067dc5cf0     SapClassBasic:SapClassBasic82.dll
 0002:00000cf8       __imp_?GetAlign@SapColorConversion@@QEBAHXZ 0000000067dc5cf8     SapClassBasic:SapClassBasic82.dll
 0002:00000d00       __imp_??1SapLocation@@UEAA@XZ 0000000067dc5d00     SapClassBasic:SapClassBasic82.dll
 0002:00000d08       __imp_?GetMethod@SapColorConversion@@QEBAHXZ 0000000067dc5d08     SapClassBasic:SapClassBasic82.dll
 0002:00000d10       __imp_?GetWBGain@SapColorConversion@@QEBA?AVSapDataFRGB@@XZ 0000000067dc5d10     SapClassBasic:SapClassBasic82.dll
 0002:00000d18       __imp_?GetGamma@SapColorConversion@@QEBAMXZ 0000000067dc5d18     SapClassBasic:SapClassBasic82.dll
 0002:00000d20       __imp_??1SapAcquisition@@UEAA@XZ 0000000067dc5d20     SapClassBasic:SapClassBasic82.dll
 0002:00000d28       __imp_?IsLutEnabled@SapColorConversion@@QEBAHXZ 0000000067dc5d28     SapClassBasic:SapClassBasic82.dll
 0002:00000d30       __imp_?IsEnabled@SapColorConversion@@QEBAHXZ 0000000067dc5d30     SapClassBasic:SapClassBasic82.dll
 0002:00000d38       __imp_?GetPixelDepthMin@SapManager@@SAHH@Z 0000000067dc5d38     SapClassBasic:SapClassBasic82.dll
 0002:00000d40       __imp_?GetPixelDepthMax@SapManager@@SAHH@Z 0000000067dc5d40     SapClassBasic:SapClassBasic82.dll
 0002:00000d48       __imp_??0SapBuffer@@QEAA@HHHHHVSapLocation@@@Z 0000000067dc5d48     SapClassBasic:SapClassBasic82.dll
 0002:00000d50       __imp_??0SapLocation@@QEAA@XZ 0000000067dc5d50     SapClassBasic:SapClassBasic82.dll
 0002:00000d58       __imp_?GetWidth@SapBuffer@@QEBAHXZ 0000000067dc5d58     SapClassBasic:SapClassBasic82.dll
 0002:00000d60       __imp_?GetHeight@SapBuffer@@QEBAHXZ 0000000067dc5d60     SapClassBasic:SapClassBasic82.dll
 0002:00000d68       __imp_?GetFormat@SapBuffer@@QEBAHXZ 0000000067dc5d68     SapClassBasic:SapClassBasic82.dll
 0002:00000d70       __imp_?GetType@SapBuffer@@QEBAHXZ 0000000067dc5d70     SapClassBasic:SapClassBasic82.dll
 0002:00000d78       __imp_?GetPixelDepth@SapBuffer@@QEBAHXZ 0000000067dc5d78     SapClassBasic:SapClassBasic82.dll
 0002:00000d80       __imp_?GetSrcNode@SapXferNode@@QEBAPEAV1@XZ 0000000067dc5d80     SapClassBasic:SapClassBasic82.dll
 0002:00000d88       __imp_??4SapLocation@@QEAAAEAV0@AEBV0@@Z 0000000067dc5d88     SapClassBasic:SapClassBasic82.dll
 0002:00000d90       __imp_?IsBufferTypeSupported@SapBuffer@@SAHVSapLocation@@H@Z 0000000067dc5d90     SapClassBasic:SapClassBasic82.dll
 0002:00000d98       __imp_??1SapBuffer@@UEAA@XZ 0000000067dc5d98     SapClassBasic:SapClassBasic82.dll
 0002:00000da0       __imp_??BSapManager@@QEBAHXZ 0000000067dc5da0     SapClassBasic:SapClassBasic82.dll
 0002:00000da8       __imp_??0SapDataFRGB@@QEAA@MMM@Z 0000000067dc5da8     SapClassBasic:SapClassBasic82.dll
 0002:00000db0       __imp_?IsSoftware@SapBayer@@QEBAHXZ 0000000067dc5db0     SapClassBasic:SapClassBasic82.dll
 0002:00000db8       __imp_?GetAvailAlign@SapBayer@@QEBAHXZ 0000000067dc5db8     SapClassBasic:SapClassBasic82.dll
 0002:00000dc0       __imp_?GetAvailMethod@SapBayer@@QEBAHXZ 0000000067dc5dc0     SapClassBasic:SapClassBasic82.dll
 0002:00000dc8       __imp_?GetAlign@SapBayer@@QEBAHXZ 0000000067dc5dc8     SapClassBasic:SapClassBasic82.dll
 0002:00000dd0       __imp_?GetMethod@SapBayer@@QEBAHXZ 0000000067dc5dd0     SapClassBasic:SapClassBasic82.dll
 0002:00000dd8       __imp_?GetWBGain@SapBayer@@QEBA?AVSapDataFRGB@@XZ 0000000067dc5dd8     SapClassBasic:SapClassBasic82.dll
 0002:00000de0       __imp_?Red@SapDataFRGB@@QEAAMXZ 0000000067dc5de0     SapClassBasic:SapClassBasic82.dll
 0002:00000de8       __imp_?Green@SapDataFRGB@@QEAAMXZ 0000000067dc5de8     SapClassBasic:SapClassBasic82.dll
 0002:00000df0       __imp_?Blue@SapDataFRGB@@QEAAMXZ 0000000067dc5df0     SapClassBasic:SapClassBasic82.dll
 0002:00000df8       __imp_?GetGamma@SapBayer@@QEBAMXZ 0000000067dc5df8     SapClassBasic:SapClassBasic82.dll
 0002:00000e00       __imp_?IsLutEnabled@SapBayer@@QEBAHXZ 0000000067dc5e00     SapClassBasic:SapClassBasic82.dll
 0002:00000e08       __imp_?IsEnabled@SapBayer@@QEBAHXZ 0000000067dc5e08     SapClassBasic:SapClassBasic82.dll
 0002:00000e10       __imp_??1SapDataFRGB@@UEAA@XZ 0000000067dc5e10     SapClassBasic:SapClassBasic82.dll
 0002:00000e18       __imp_?DisplayStatus@SapManager@@SAIPEBDI@Z 0000000067dc5e18     SapClassBasic:SapClassBasic82.dll
 0002:00000e20       __imp_?GetResourceCount@SapManager@@SAHVSapLocation@@H@Z 0000000067dc5e20     SapClassBasic:SapClassBasic82.dll
 0002:00000e28       __imp_?GetServerIndex@SapManager@@SAHPEBD@Z 0000000067dc5e28     SapClassBasic:SapClassBasic82.dll
 0002:00000e30       __imp_?GetResourceCount@SapManager@@SAHPEBDH@Z 0000000067dc5e30     SapClassBasic:SapClassBasic82.dll
 0002:00000e38       __imp_?GetResourceName@SapManager@@SAHPEBDHHPEADH@Z 0000000067dc5e38     SapClassBasic:SapClassBasic82.dll
 0002:00000e40       __imp_?IsResourceAvailable@SapManager@@SAHPEBDHH@Z 0000000067dc5e40     SapClassBasic:SapClassBasic82.dll
 0002:00000e48       __imp_?GetServerCount@SapManager@@SAHXZ 0000000067dc5e48     SapClassBasic:SapClassBasic82.dll
 0002:00000e50       __imp_?GetResourceCount@SapManager@@SAHHH@Z 0000000067dc5e50     SapClassBasic:SapClassBasic82.dll
 0002:00000e58       __imp_?GetServerName@SapManager@@SAHHPEADH@Z 0000000067dc5e58     SapClassBasic:SapClassBasic82.dll
 0002:00000e60       __imp_?SetLocation@SapXferNode@@QEAAHVSapLocation@@@Z 0000000067dc5e60     SapClassBasic:SapClassBasic82.dll
 0002:00000e68       __imp_??0SapLocation@@QEAA@PEBDH@Z 0000000067dc5e68     SapClassBasic:SapClassBasic82.dll
 0002:00000e70       __imp_??4SapAcquisition@@QEAAAEAV0@AEBV0@@Z 0000000067dc5e70     SapClassBasic:SapClassBasic82.dll
 0002:00000e78       __imp_?GetLocation@SapXferNode@@QEBA?AVSapLocation@@XZ 0000000067dc5e78     SapClassBasic:SapClassBasic82.dll
 0002:00000e80       __imp_?GetConfigFile@SapAcquisition@@QEBAPEBDXZ 0000000067dc5e80     SapClassBasic:SapClassBasic82.dll
 0002:00000e88       __imp_??0SapLocation@@QEAA@AEBV0@@Z 0000000067dc5e88     SapClassBasic:SapClassBasic82.dll
 0002:00000e90       __imp_?GetServerName@SapManager@@SAHVSapLocation@@PEADH@Z 0000000067dc5e90     SapClassBasic:SapClassBasic82.dll
 0002:00000e98       __imp_?GetClusterMapPixelCount@SapFlatField@@QEBAHXZ 0000000067dc5e98     SapClassBasic:SapClassBasic82.dll
 0002:00000ea0       __imp_?GetResourceIndex@SapLocation@@QEBAHXZ 0000000067dc5ea0     SapClassBasic:SapClassBasic82.dll
 0002:00000ea8       \177SapClassBasic82_NULL_THUNK_DATA 0000000067dc5ea8     SapClassBasic:SapClassBasic82.dll
 0002:00000eb0       __imp_SubtractRect         0000000067dc5eb0     user32:USER32.dll
 0002:00000eb8       __imp_IntersectRect        0000000067dc5eb8     user32:USER32.dll
 0002:00000ec0       __imp_OffsetRect           0000000067dc5ec0     user32:USER32.dll
 0002:00000ec8       __imp_InflateRect          0000000067dc5ec8     user32:USER32.dll
 0002:00000ed0       __imp_EqualRect            0000000067dc5ed0     user32:USER32.dll
 0002:00000ed8       __imp_SetRectEmpty         0000000067dc5ed8     user32:USER32.dll
 0002:00000ee0       __imp_SetRect              0000000067dc5ee0     user32:USER32.dll
 0002:00000ee8       __imp_PtInRect             0000000067dc5ee8     user32:USER32.dll
 0002:00000ef0       __imp_IsRectEmpty          0000000067dc5ef0     user32:USER32.dll
 0002:00000ef8       __imp_CopyRect             0000000067dc5ef8     user32:USER32.dll
 0002:00000f00       __imp_IsIconic             0000000067dc5f00     user32:USER32.dll
 0002:00000f08       __imp_SetCursorPos         0000000067dc5f08     user32:USER32.dll
 0002:00000f10       __imp_GetCursorPos         0000000067dc5f10     user32:USER32.dll
 0002:00000f18       __imp_SetCursor            0000000067dc5f18     user32:USER32.dll
 0002:00000f20       __imp_TrackMouseEvent      0000000067dc5f20     user32:USER32.dll
 0002:00000f28       __imp_GetSystemMetrics     0000000067dc5f28     user32:USER32.dll
 0002:00000f30       __imp_SetForegroundWindow  0000000067dc5f30     user32:USER32.dll
 0002:00000f38       __imp_SetDlgItemTextA      0000000067dc5f38     user32:USER32.dll
 0002:00000f40       __imp_GetFocus             0000000067dc5f40     user32:USER32.dll
 0002:00000f48       __imp_UnionRect            0000000067dc5f48     user32:USER32.dll
 0002:00000f50       \177USER32_NULL_THUNK_DATA 0000000067dc5f50     user32:USER32.dll
 0002:00000f58       __imp_?AfxFindResourceHandle@@YAPEAUHINSTANCE__@@PEBD0@Z 0000000067dc5f58     mfc100d:mfc100d.dll
 0002:00000f60       __imp_?DDV_MinMaxUInt@@YAXPEAVCDataExchange@@III@Z 0000000067dc5f60     mfc100d:mfc100d.dll
 0002:00000f68       __imp_?DDX_Text@@YAXPEAVCDataExchange@@HAEAV?$CStringT@DV?$StrTraitMFC_DLL@DV?$ChTraitsCRT@D@ATL@@@@@ATL@@@Z 0000000067dc5f68     mfc100d:mfc100d.dll
 0002:00000f70       __imp_?StringLength@?$CSimpleStringT@D$00@ATL@@SAHPEBD@Z 0000000067dc5f70     mfc100d:mfc100d.dll
 0002:00000f78       __imp_??1CSliderCtrl@@UEAA@XZ 0000000067dc5f78     mfc100d:mfc100d.dll
 0002:00000f80       __imp_??0CSliderCtrl@@QEAA@XZ 0000000067dc5f80     mfc100d:mfc100d.dll
 0002:00000f88       __imp_?DDX_Text@@YAXPEAVCDataExchange@@HAEAJ@Z 0000000067dc5f88     mfc100d:mfc100d.dll
 0002:00000f90       __imp_?CheckRadioButton@CWnd@@QEAAXHHH@Z 0000000067dc5f90     mfc100d:mfc100d.dll
 0002:00000f98       __imp_?SetPos@CSliderCtrl@@QEAAXH@Z 0000000067dc5f98     mfc100d:mfc100d.dll
 0002:00000fa0       __imp_?SetPageSize@CSliderCtrl@@QEAAHH@Z 0000000067dc5fa0     mfc100d:mfc100d.dll
 0002:00000fa8       __imp_?SetTicFreq@CSliderCtrl@@QEAAXH@Z 0000000067dc5fa8     mfc100d:mfc100d.dll
 0002:00000fb0       __imp_?SetRange@CSliderCtrl@@QEAAXHHH@Z 0000000067dc5fb0     mfc100d:mfc100d.dll
 0002:00000fb8       __imp_?OnHScroll@CWnd@@IEAAXIIPEAVCScrollBar@@@Z 0000000067dc5fb8     mfc100d:mfc100d.dll
 0002:00000fc0       __imp_??1CStatic@@UEAA@XZ  0000000067dc5fc0     mfc100d:mfc100d.dll
 0002:00000fc8       __imp_??1CButton@@UEAA@XZ  0000000067dc5fc8     mfc100d:mfc100d.dll
 0002:00000fd0       __imp_??0CStatic@@QEAA@XZ  0000000067dc5fd0     mfc100d:mfc100d.dll
 0002:00000fd8       __imp_??0CButton@@QEAA@XZ  0000000067dc5fd8     mfc100d:mfc100d.dll
 0002:00000fe0       __imp_?DDV_MinMaxDWord@@YAXPEAVCDataExchange@@KKK@Z 0000000067dc5fe0     mfc100d:mfc100d.dll
 0002:00000fe8       __imp_?Find@?$CStringT@DV?$StrTraitMFC_DLL@DV?$ChTraitsCRT@D@ATL@@@@@ATL@@QEBAHPEBDH@Z 0000000067dc5fe8     mfc100d:mfc100d.dll
 0002:00000ff0       __imp_?ShowWindow@CWnd@@QEAAHH@Z 0000000067dc5ff0     mfc100d:mfc100d.dll
 0002:00000ff8       __imp_?SetWindowTextA@CWnd@@QEAAXPEBD@Z 0000000067dc5ff8     mfc100d:mfc100d.dll
 0002:00001000       __imp_?Format@?$CStringT@DV?$StrTraitMFC_DLL@DV?$ChTraitsCRT@D@ATL@@@@@ATL@@QEAAXPEBDZZ 0000000067dc6000     mfc100d:mfc100d.dll
 0002:00001008       __imp_?OnDestroy@CWnd@@IEAAXXZ 0000000067dc6008     mfc100d:mfc100d.dll
 0002:00001010       __imp_??3@YAXPEAXPEBDH@Z   0000000067dc6010     mfc100d:mfc100d.dll
 0002:00001018       __imp_?GetParent@CWnd@@QEBAPEAV1@XZ 0000000067dc6018     mfc100d:mfc100d.dll
 0002:00001020       __imp_??2@YAPEAX_KPEBDH@Z  0000000067dc6020     mfc100d:mfc100d.dll
 0002:00001028       __imp_?ResetContent@CListBox@@QEAAXXZ 0000000067dc6028     mfc100d:mfc100d.dll
 0002:00001030       __imp_?IsWindowEnabled@CWnd@@QEBAHXZ 0000000067dc6030     mfc100d:mfc100d.dll
 0002:00001038       __imp_?SetCurSel@CListBox@@QEAAHH@Z 0000000067dc6038     mfc100d:mfc100d.dll
 0002:00001040       __imp_?GetCount@CListBox@@QEBAHXZ 0000000067dc6040     mfc100d:mfc100d.dll
 0002:00001048       __imp_?AddString@CListBox@@QEAAHPEBD@Z 0000000067dc6048     mfc100d:mfc100d.dll
 0002:00001050       __imp_?ReleaseDC@CWnd@@QEAAHPEAVCDC@@@Z 0000000067dc6050     mfc100d:mfc100d.dll
 0002:00001058       __imp_?SetHorizontalExtent@CListBox@@QEAAXH@Z 0000000067dc6058     mfc100d:mfc100d.dll
 0002:00001060       __imp_?GetHorizontalExtent@CListBox@@QEBAHXZ 0000000067dc6060     mfc100d:mfc100d.dll
 0002:00001068       __imp_?GetTextExtent@CDC@@QEBA?AVCSize@@AEBV?$CStringT@DV?$StrTraitMFC_DLL@DV?$ChTraitsCRT@D@ATL@@@@@ATL@@@Z 0000000067dc6068     mfc100d:mfc100d.dll
 0002:00001070       __imp_?GetDC@CWnd@@QEAAPEAVCDC@@XZ 0000000067dc6070     mfc100d:mfc100d.dll
 0002:00001078       __imp_??Y?$CStringT@DV?$StrTraitMFC_DLL@DV?$ChTraitsCRT@D@ATL@@@@@ATL@@QEAAAEAV01@AEBV?$CSimpleStringT@D$00@1@@Z 0000000067dc6078     mfc100d:mfc100d.dll
 0002:00001080       __imp_??Y?$CStringT@DV?$StrTraitMFC_DLL@DV?$ChTraitsCRT@D@ATL@@@@@ATL@@QEAAAEAV01@PEBD@Z 0000000067dc6080     mfc100d:mfc100d.dll
 0002:00001088       __imp_??1CWaitCursor@@QEAA@XZ 0000000067dc6088     mfc100d:mfc100d.dll
 0002:00001090       __imp_??0CWaitCursor@@QEAA@XZ 0000000067dc6090     mfc100d:mfc100d.dll
 0002:00001098       __imp_??0CBrush@@QEAA@XZ   0000000067dc6098     mfc100d:mfc100d.dll
 0002:000010a0       __imp_?MoveWindow@CWnd@@QEAAXPEBUtagRECT@@H@Z 0000000067dc60a0     mfc100d:mfc100d.dll
 0002:000010a8       __imp_?GetClientRect@CWnd@@QEBAXPEAUtagRECT@@@Z 0000000067dc60a8     mfc100d:mfc100d.dll
 0002:000010b0       __imp_??_U@YAPEAX_KPEBDH@Z 0000000067dc60b0     mfc100d:mfc100d.dll
 0002:000010b8       __imp_?GetSafeHandle@CGdiObject@@QEBAPEAXXZ 0000000067dc60b8     mfc100d:mfc100d.dll
 0002:000010c0       __imp_?OnCtlColor@CWnd@@IEAAPEAUHBRUSH__@@PEAVCDC@@PEAV1@I@Z 0000000067dc60c0     mfc100d:mfc100d.dll
 0002:000010c8       __imp_?SetButtonStyle@CButton@@QEAAXIH@Z 0000000067dc60c8     mfc100d:mfc100d.dll
 0002:000010d0       __imp_?GetWindowTextA@CWnd@@QEBAXAEAV?$CStringT@DV?$StrTraitMFC_DLL@DV?$ChTraitsCRT@D@ATL@@@@@ATL@@@Z 0000000067dc60d0     mfc100d:mfc100d.dll
 0002:000010d8       __imp_??1CBrush@@UEAA@XZ   0000000067dc60d8     mfc100d:mfc100d.dll
 0002:000010e0       __imp_?RedrawWindow@CWnd@@QEAAHPEBUtagRECT@@PEAVCRgn@@I@Z 0000000067dc60e0     mfc100d:mfc100d.dll
 0002:000010e8       __imp_?ModifyStyle@CWnd@@QEAAHKKI@Z 0000000067dc60e8     mfc100d:mfc100d.dll
 0002:000010f0       __imp_?GetThisClass@CStatic@@SAPEAUCRuntimeClass@@XZ 0000000067dc60f0     mfc100d:mfc100d.dll
 0002:000010f8       __imp_??1CPen@@UEAA@XZ     0000000067dc60f8     mfc100d:mfc100d.dll
 0002:00001100       __imp_??1CRgn@@UEAA@XZ     0000000067dc6100     mfc100d:mfc100d.dll
 0002:00001108       __imp_?CreatePen@CPen@@QEAAHHHK@Z 0000000067dc6108     mfc100d:mfc100d.dll
 0002:00001110       __imp_?CreateSolidBrush@CBrush@@QEAAHK@Z 0000000067dc6110     mfc100d:mfc100d.dll
 0002:00001118       __imp_?CreateRectRgnIndirect@CRgn@@QEAAHPEBUtagRECT@@@Z 0000000067dc6118     mfc100d:mfc100d.dll
 0002:00001120       __imp_??0CPen@@QEAA@XZ     0000000067dc6120     mfc100d:mfc100d.dll
 0002:00001128       __imp_??0CRgn@@QEAA@XZ     0000000067dc6128     mfc100d:mfc100d.dll
 0002:00001130       __imp_?AssertValid@CWnd@@UEBAXXZ 0000000067dc6130     mfc100d:mfc100d.dll
 0002:00001138       __imp_?Dump@CWnd@@UEBAXAEAVCDumpContext@@@Z 0000000067dc6138     mfc100d:mfc100d.dll
 0002:00001140       __imp_?OnCmdMsg@CCmdTarget@@UEAAHIHPEAXPEAUAFX_CMDHANDLERINFO@@@Z 0000000067dc6140     mfc100d:mfc100d.dll
 0002:00001148       __imp_?OnChildNotify@CStatic@@MEAAHI_K_JPEA_J@Z 0000000067dc6148     mfc100d:mfc100d.dll
 0002:00001150       __imp_?CheckAutoCenter@CWnd@@UEAAHXZ 0000000067dc6150     mfc100d:mfc100d.dll
 0002:00001158       __imp_?SetOccDialogInfo@CWnd@@MEAAHPEAU_AFX_OCC_DIALOG_INFO@@@Z 0000000067dc6158     mfc100d:mfc100d.dll
 0002:00001160       __imp_?GetOccDialogInfo@CWnd@@MEAAPEAU_AFX_OCC_DIALOG_INFO@@XZ 0000000067dc6160     mfc100d:mfc100d.dll
 0002:00001168       __imp_?Create@CStatic@@UEAAHPEBDKAEBUtagRECT@@PEAVCWnd@@I@Z 0000000067dc6168     mfc100d:mfc100d.dll
 0002:00001170       __imp_?DrawItem@CStatic@@UEAAXPEAUtagDRAWITEMSTRUCT@@@Z 0000000067dc6170     mfc100d:mfc100d.dll
 0002:00001178       __imp_?DeleteObject@CGdiObject@@QEAAHXZ 0000000067dc6178     mfc100d:mfc100d.dll
 0002:00001180       __imp_?Invalidate@CWnd@@QEAAXH@Z 0000000067dc6180     mfc100d:mfc100d.dll
 0002:00001188       __imp_?GetThisMessageMap@CWnd@@KAPEBUAFX_MSGMAP@@XZ 0000000067dc6188     mfc100d:mfc100d.dll
 0002:00001190       __imp_?GetSafeHwnd@CWnd@@QEBAPEAUHWND__@@XZ 0000000067dc6190     mfc100d:mfc100d.dll
 0002:00001198       __imp_?OnCreate@CWnd@@IEAAHPEAUtagCREATESTRUCTA@@@Z 0000000067dc6198     mfc100d:mfc100d.dll
 0002:000011a0       __imp_?PreTranslateMessage@CWnd@@UEAAHPEAUtagMSG@@@Z 0000000067dc61a0     mfc100d:mfc100d.dll
 0002:000011a8       __imp_??1CPaintDC@@UEAA@XZ 0000000067dc61a8     mfc100d:mfc100d.dll
 0002:000011b0       __imp_??1CDC@@UEAA@XZ      0000000067dc61b0     mfc100d:mfc100d.dll
 0002:000011b8       __imp_??1CBitmap@@UEAA@XZ  0000000067dc61b8     mfc100d:mfc100d.dll
 0002:000011c0       __imp_?DeleteDC@CDC@@QEAAHXZ 0000000067dc61c0     mfc100d:mfc100d.dll
 0002:000011c8       __imp_?BitBlt@CDC@@QEAAHHHHHPEAV1@HHK@Z 0000000067dc61c8     mfc100d:mfc100d.dll
 0002:000011d0       __imp_?SelectObject@CDC@@QEAAPEAVCBrush@@PEAV2@@Z 0000000067dc61d0     mfc100d:mfc100d.dll
 0002:000011d8       __imp_?SelectObject@CDC@@QEAAPEAVCPen@@PEAV2@@Z 0000000067dc61d8     mfc100d:mfc100d.dll
 0002:000011e0       __imp_?FillRgn@CDC@@QEAAHPEAVCRgn@@PEAVCBrush@@@Z 0000000067dc61e0     mfc100d:mfc100d.dll
 0002:000011e8       __imp_?SelectObject@CDC@@QEAAPEAVCBitmap@@PEAV2@@Z 0000000067dc61e8     mfc100d:mfc100d.dll
 0002:000011f0       __imp_?CreateCompatibleBitmap@CBitmap@@QEAAHPEAVCDC@@HH@Z 0000000067dc61f0     mfc100d:mfc100d.dll
 0002:000011f8       __imp_?CreateCompatibleDC@CDC@@QEAAHPEAV1@@Z 0000000067dc61f8     mfc100d:mfc100d.dll
 0002:00001200       __imp_?GetRgnBox@CRgn@@QEBAHPEAUtagRECT@@@Z 0000000067dc6200     mfc100d:mfc100d.dll
 0002:00001208       __imp_?SelectClipRgn@CDC@@QEAAHPEAVCRgn@@@Z 0000000067dc6208     mfc100d:mfc100d.dll
 0002:00001210       __imp_??0CBitmap@@QEAA@XZ  0000000067dc6210     mfc100d:mfc100d.dll
 0002:00001218       __imp_??0CDC@@QEAA@XZ      0000000067dc6218     mfc100d:mfc100d.dll
 0002:00001220       __imp_??0CPaintDC@@QEAA@PEAVCWnd@@@Z 0000000067dc6220     mfc100d:mfc100d.dll
 0002:00001228       __imp_?Rectangle@CDC@@QEAAHPEBUtagRECT@@@Z 0000000067dc6228     mfc100d:mfc100d.dll
 0002:00001230       __imp_?FillRect@CDC@@QEAAXPEBUtagRECT@@PEAVCBrush@@@Z 0000000067dc6230     mfc100d:mfc100d.dll
 0002:00001238       __imp_?CombineRgn@CRgn@@QEAAHPEBV1@0H@Z 0000000067dc6238     mfc100d:mfc100d.dll
 0002:00001240       __imp_?SetRectRgn@CRgn@@QEAAXPEBUtagRECT@@@Z 0000000067dc6240     mfc100d:mfc100d.dll
 0002:00001248       __imp_?OnSize@CWnd@@IEAAXIHH@Z 0000000067dc6248     mfc100d:mfc100d.dll
 0002:00001250       __imp_?SetFocus@CWnd@@QEAAPEAV1@XZ 0000000067dc6250     mfc100d:mfc100d.dll
 0002:00001258       __imp_?OnMouseMove@CWnd@@IEAAXIVCPoint@@@Z 0000000067dc6258     mfc100d:mfc100d.dll
 0002:00001260       __imp_?OnLButtonDown@CWnd@@IEAAXIVCPoint@@@Z 0000000067dc6260     mfc100d:mfc100d.dll
 0002:00001268       __imp_?SetScrollInfo@CScrollBar@@QEAAHPEAUtagSCROLLINFO@@H@Z 0000000067dc6268     mfc100d:mfc100d.dll
 0002:00001270       __imp_?GetScrollInfo@CScrollBar@@QEAAHPEAUtagSCROLLINFO@@I@Z 0000000067dc6270     mfc100d:mfc100d.dll
 0002:00001278       __imp_?GetThisClass@CDialog@@SAPEAUCRuntimeClass@@XZ 0000000067dc6278     mfc100d:mfc100d.dll
 0002:00001280       __imp_?EndDialog@CDialog@@QEAAXH@Z 0000000067dc6280     mfc100d:mfc100d.dll
 0002:00001288       __imp_?SetFont@CWnd@@QEAAXPEAVCFont@@H@Z 0000000067dc6288     mfc100d:mfc100d.dll
 0002:00001290       __imp_?GetFont@CWnd@@QEBAPEAVCFont@@XZ 0000000067dc6290     mfc100d:mfc100d.dll
 0002:00001298       __imp_?Create@CEdit@@QEAAHKAEBUtagRECT@@PEAVCWnd@@I@Z 0000000067dc6298     mfc100d:mfc100d.dll
 0002:000012a0       __imp_??_U@YAPEAX_K@Z      0000000067dc62a0     mfc100d:mfc100d.dll
 0002:000012a8       __imp_?InsertString@CComboBox@@QEAAHHPEBD@Z 0000000067dc62a8     mfc100d:mfc100d.dll
 0002:000012b0       __imp_?ScreenToClient@CWnd@@QEBAXPEAUtagRECT@@@Z 0000000067dc62b0     mfc100d:mfc100d.dll
 0002:000012b8       __imp_??2@YAPEAX_K@Z       0000000067dc62b8     mfc100d:mfc100d.dll
 0002:000012c0       __imp_?CreateStockObject@CGdiObject@@QEAAHH@Z 0000000067dc62c0     mfc100d:mfc100d.dll
 0002:000012c8       __imp_?LoadStandardCursor@CWinApp@@QEBAPEAUHICON__@@PEBD@Z 0000000067dc62c8     mfc100d:mfc100d.dll
 0002:000012d0       __imp_?OnLButtonUp@CWnd@@IEAAXIVCPoint@@@Z 0000000067dc62d0     mfc100d:mfc100d.dll
 0002:000012d8       __imp_?OnLButtonDblClk@CWnd@@IEAAXIVCPoint@@@Z 0000000067dc62d8     mfc100d:mfc100d.dll
 0002:000012e0       __imp_?OnKeyDown@CWnd@@IEAAXIII@Z 0000000067dc62e0     mfc100d:mfc100d.dll
 0002:000012e8       __imp_?OnKeyUp@CWnd@@IEAAXIII@Z 0000000067dc62e8     mfc100d:mfc100d.dll
 0002:000012f0       __imp_?OnSysKeyDown@CWnd@@IEAAXIII@Z 0000000067dc62f0     mfc100d:mfc100d.dll
 0002:000012f8       __imp_?OnMouseWheel@CWnd@@IEAAHIFVCPoint@@@Z 0000000067dc62f8     mfc100d:mfc100d.dll
 0002:00001300       __imp_?ClientToScreen@CWnd@@QEBAXPEAUtagRECT@@@Z 0000000067dc6300     mfc100d:mfc100d.dll
 0002:00001308       __imp_?OnSetCursor@CWnd@@IEAAHPEAV1@II@Z 0000000067dc6308     mfc100d:mfc100d.dll
 0002:00001310       __imp_?ScreenToClient@CWnd@@QEBAXPEAUtagPOINT@@@Z 0000000067dc6310     mfc100d:mfc100d.dll
 0002:00001318       __imp_??0CRectTracker@@QEAA@XZ 0000000067dc6318     mfc100d:mfc100d.dll
 0002:00001320       __imp_?DrawTrackerRect@CRectTracker@@UEAAXPEBUtagRECT@@PEAVCWnd@@PEAVCDC@@1@Z 0000000067dc6320     mfc100d:mfc100d.dll
 0002:00001328       __imp_?OnChangedRect@CRectTracker@@UEAAXAEBVCRect@@@Z 0000000067dc6328     mfc100d:mfc100d.dll
 0002:00001330       __imp_?GetHandleMask@CRectTracker@@UEBAIXZ 0000000067dc6330     mfc100d:mfc100d.dll
 0002:00001338       __imp_?GetHandleSize@CRectTracker@@MEBAHPEBUtagRECT@@@Z 0000000067dc6338     mfc100d:mfc100d.dll
 0002:00001340       __imp_?GetScrollInfo@CWnd@@QEAAHHPEAUtagSCROLLINFO@@I@Z 0000000067dc6340     mfc100d:mfc100d.dll
 0002:00001348       __imp_?SetScrollInfo@CWnd@@QEAAHHPEAUtagSCROLLINFO@@H@Z 0000000067dc6348     mfc100d:mfc100d.dll
 0002:00001350       __imp_?FillSolidRect@CDC@@QEAAXPEBUtagRECT@@K@Z 0000000067dc6350     mfc100d:mfc100d.dll
 0002:00001358       __imp_?GetBkColor@CDC@@QEBAKXZ 0000000067dc6358     mfc100d:mfc100d.dll
 0002:00001360       __imp_?InvalidateRect@CWnd@@QEAAXPEBUtagRECT@@H@Z 0000000067dc6360     mfc100d:mfc100d.dll
 0002:00001368       __imp_?MoveWindow@CWnd@@QEAAXHHHHH@Z 0000000067dc6368     mfc100d:mfc100d.dll
 0002:00001370       __imp_?ShowScrollBar@CScrollBar@@QEAAXH@Z 0000000067dc6370     mfc100d:mfc100d.dll
 0002:00001378       __imp_??1CClientDC@@UEAA@XZ 0000000067dc6378     mfc100d:mfc100d.dll
 0002:00001380       __imp_?Draw@CRectTracker@@QEBAXPEAVCDC@@@Z 0000000067dc6380     mfc100d:mfc100d.dll
 0002:00001388       __imp_?SetWindowOrg@CDC@@QEAA?AVCPoint@@HH@Z 0000000067dc6388     mfc100d:mfc100d.dll
 0002:00001390       __imp_??0CClientDC@@QEAA@PEAVCWnd@@@Z 0000000067dc6390     mfc100d:mfc100d.dll
 0002:00001398       __imp_?Track@CRectTracker@@QEAAHPEAVCWnd@@VCPoint@@H0@Z 0000000067dc6398     mfc100d:mfc100d.dll
 0002:000013a0       __imp_?TrackRubberBand@CRectTracker@@QEAAHPEAVCWnd@@VCPoint@@H@Z 0000000067dc63a0     mfc100d:mfc100d.dll
 0002:000013a8       __imp_?HitTest@CRectTracker@@QEBAHVCPoint@@@Z 0000000067dc63a8     mfc100d:mfc100d.dll
 0002:000013b0       __imp_?SetCursor@CRectTracker@@QEBAHPEAVCWnd@@I@Z 0000000067dc63b0     mfc100d:mfc100d.dll
 0002:000013b8       __imp_??1CRectTracker@@UEAA@XZ 0000000067dc63b8     mfc100d:mfc100d.dll
 0002:000013c0       __imp_?GetThisInterfaceMap@CWnd@@KAPEBUAFX_INTERFACEMAP@@XZ 0000000067dc63c0     mfc100d:mfc100d.dll
 0002:000013c8       __imp_?GetThisDispatchMap@CCmdTarget@@KAPEBUAFX_DISPMAP@@XZ 0000000067dc63c8     mfc100d:mfc100d.dll
 0002:000013d0       __imp_?DDX_Text@@YAXPEAVCDataExchange@@HAEAI@Z 0000000067dc63d0     mfc100d:mfc100d.dll
 0002:000013d8       __imp_?GetThisClass@CFileDialog@@SAPEAUCRuntimeClass@@XZ 0000000067dc63d8     mfc100d:mfc100d.dll
 0002:000013e0       __imp_?Dump@CFileDialog@@UEBAXAEAVCDumpContext@@@Z 0000000067dc63e0     mfc100d:mfc100d.dll
 0002:000013e8       __imp_?GetInterfaceMap@CFileDialog@@MEBAPEBUAFX_INTERFACEMAP@@XZ 0000000067dc63e8     mfc100d:mfc100d.dll
 0002:000013f0       __imp_?OnNotify@CFileDialog@@MEAAH_K_JPEA_J@Z 0000000067dc63f0     mfc100d:mfc100d.dll
 0002:000013f8       __imp_?OnOK@CCommonDialog@@MEAAXXZ 0000000067dc63f8     mfc100d:mfc100d.dll
 0002:00001400       __imp_?OnCancel@CCommonDialog@@MEAAXXZ 0000000067dc6400     mfc100d:mfc100d.dll
 0002:00001408       __imp_?UpdateOFNFromShellDialog@CFileDialog@@UEAAXXZ 0000000067dc6408     mfc100d:mfc100d.dll
 0002:00001410       __imp_?OnShareViolation@CFileDialog@@MEAAIPEBD@Z 0000000067dc6410     mfc100d:mfc100d.dll
 0002:00001418       __imp_?OnFileNameOK@CFileDialog@@MEAAHXZ 0000000067dc6418     mfc100d:mfc100d.dll
 0002:00001420       __imp_?OnLBSelChangedNotify@CFileDialog@@MEAAXIII@Z 0000000067dc6420     mfc100d:mfc100d.dll
 0002:00001428       __imp_?OnInitDone@CFileDialog@@MEAAXXZ 0000000067dc6428     mfc100d:mfc100d.dll
 0002:00001430       __imp_?OnFileNameChange@CFileDialog@@MEAAXXZ 0000000067dc6430     mfc100d:mfc100d.dll
 0002:00001438       __imp_?OnFolderChange@CFileDialog@@MEAAXXZ 0000000067dc6438     mfc100d:mfc100d.dll
 0002:00001440       __imp_?OnItemSelected@CFileDialog@@MEAAXKK@Z 0000000067dc6440     mfc100d:mfc100d.dll
 0002:00001448       __imp_?OnButtonClicked@CFileDialog@@MEAAXK@Z 0000000067dc6448     mfc100d:mfc100d.dll
 0002:00001450       __imp_?OnShowWindow@CWnd@@IEAAXHI@Z 0000000067dc6450     mfc100d:mfc100d.dll
 0002:00001458       __imp_?OnControlActivating@CFileDialog@@MEAAXK@Z 0000000067dc6458     mfc100d:mfc100d.dll
 0002:00001460       __imp_?AfxAssertValidObject@@YAXPEBVCObject@@PEBDH@Z 0000000067dc6460     mfc100d:mfc100d.dll
 0002:00001468       __imp_?GetFileTitle@CFileDialog@@QEBA?AV?$CStringT@DV?$StrTraitMFC_DLL@DV?$ChTraitsCRT@D@ATL@@@@@ATL@@XZ 0000000067dc6468     mfc100d:mfc100d.dll
 0002:00001470       __imp_?GetForegroundWindow@CWnd@@SAPEAV1@XZ 0000000067dc6470     mfc100d:mfc100d.dll
 0002:00001478       __imp_?GetThisMessageMap@CCommonDialog@@KAPEBUAFX_MSGMAP@@XZ 0000000067dc6478     mfc100d:mfc100d.dll
 0002:00001480       __imp_?AfxGetModuleState@@YAPEAVAFX_MODULE_STATE@@XZ 0000000067dc6480     mfc100d:mfc100d.dll
 0002:00001488       __imp_??3CObject@@SAXPEAXPEBDH@Z 0000000067dc6488     mfc100d:mfc100d.dll
 0002:00001490       __imp_??0CDynLinkLibrary@@QEAA@AEAUAFX_EXTENSION_MODULE@@H@Z 0000000067dc6490     mfc100d:mfc100d.dll
 0002:00001498       __imp_??2CObject@@SAPEAX_KPEBDH@Z 0000000067dc6498     mfc100d:mfc100d.dll
 0002:000014a0       __imp_?AfxTermExtensionModule@@YAXAEAUAFX_EXTENSION_MODULE@@H@Z 0000000067dc64a0     mfc100d:mfc100d.dll
 0002:000014a8       __imp_?AfxInitExtensionModule@@YAHAEAUAFX_EXTENSION_MODULE@@PEAUHINSTANCE__@@@Z 0000000067dc64a8     mfc100d:mfc100d.dll
 0002:000014b0       __imp_?AdjustRect@CRectTracker@@UEAAXHPEAUtagRECT@@@Z 0000000067dc64b0     mfc100d:mfc100d.dll
 0002:000014b8       __imp_??1CSpinButtonCtrl@@UEAA@XZ 0000000067dc64b8     mfc100d:mfc100d.dll
 0002:000014c0       __imp_?DDV_MinMaxFloat@@YAXPEAVCDataExchange@@AEBMMM@Z 0000000067dc64c0     mfc100d:mfc100d.dll
 0002:000014c8       __imp_?DDX_Text@@YAXPEAVCDataExchange@@HAEAK@Z 0000000067dc64c8     mfc100d:mfc100d.dll
 0002:000014d0       __imp_??0CSpinButtonCtrl@@QEAA@XZ 0000000067dc64d0     mfc100d:mfc100d.dll
 0002:000014d8       __imp_?GetDlgItem@CWnd@@QEBAPEAV1@H@Z 0000000067dc64d8     mfc100d:mfc100d.dll
 0002:000014e0       __imp_?EnableWindow@CWnd@@QEAAHH@Z 0000000067dc64e0     mfc100d:mfc100d.dll
 0002:000014e8       __imp_?UpdateData@CWnd@@QEAAHH@Z 0000000067dc64e8     mfc100d:mfc100d.dll
 0002:000014f0       __imp_??0CFileDialog@@QEAA@HPEBD0K0PEAVCWnd@@KH@Z 0000000067dc64f0     mfc100d:mfc100d.dll
 0002:000014f8       __imp_?GetOFN@CFileDialog@@QEAAAEAUtagOFNA@@XZ 0000000067dc64f8     mfc100d:mfc100d.dll
 0002:00001500       __imp_?DoModal@CFileDialog@@UEAA_JXZ 0000000067dc6500     mfc100d:mfc100d.dll
 0002:00001508       __imp_?ReleaseBuffer@?$CSimpleStringT@D$00@ATL@@QEAAXH@Z 0000000067dc6508     mfc100d:mfc100d.dll
 0002:00001510       __imp_??1CFileDialog@@UEAA@XZ 0000000067dc6510     mfc100d:mfc100d.dll
 0002:00001518       __imp_?GetPathName@CFileDialog@@QEBA?AV?$CStringT@DV?$StrTraitMFC_DLL@DV?$ChTraitsCRT@D@ATL@@@@@ATL@@XZ 0000000067dc6518     mfc100d:mfc100d.dll
 0002:00001520       __imp_?ResetContent@CComboBox@@QEAAXXZ 0000000067dc6520     mfc100d:mfc100d.dll
 0002:00001528       __imp_?AddString@CComboBox@@QEAAHPEBD@Z 0000000067dc6528     mfc100d:mfc100d.dll
 0002:00001530       __imp_?GetCount@CComboBox@@QEBAHXZ 0000000067dc6530     mfc100d:mfc100d.dll
 0002:00001538       __imp_?SetItemData@CComboBox@@QEAAHH_K@Z 0000000067dc6538     mfc100d:mfc100d.dll
 0002:00001540       __imp_?SelectString@CComboBox@@QEAAHHPEBD@Z 0000000067dc6540     mfc100d:mfc100d.dll
 0002:00001548       __imp_?SetCurSel@CComboBox@@QEAAHH@Z 0000000067dc6548     mfc100d:mfc100d.dll
 0002:00001550       __imp_?GetLBText@CComboBox@@QEBAXHAEAV?$CStringT@DV?$StrTraitMFC_DLL@DV?$ChTraitsCRT@D@ATL@@@@@ATL@@@Z 0000000067dc6550     mfc100d:mfc100d.dll
 0002:00001558       __imp_?SetDlgItemTextA@CWnd@@QEAAXHPEBD@Z 0000000067dc6558     mfc100d:mfc100d.dll
 0002:00001560       __imp_?IsEmpty@?$CSimpleStringT@D$00@ATL@@QEBA_NXZ 0000000067dc6560     mfc100d:mfc100d.dll
 0002:00001568       __imp_?BringWindowToTop@CWnd@@QEAAXXZ 0000000067dc6568     mfc100d:mfc100d.dll
 0002:00001570       __imp_?DDX_Control@@YAXPEAVCDataExchange@@HAEAVCWnd@@@Z 0000000067dc6570     mfc100d:mfc100d.dll
 0002:00001578       __imp_?DDX_CBString@@YAXPEAVCDataExchange@@HAEAV?$CStringT@DV?$StrTraitMFC_DLL@DV?$ChTraitsCRT@D@ATL@@@@@ATL@@@Z 0000000067dc6578     mfc100d:mfc100d.dll
 0002:00001580       __imp_?DDX_CBIndex@@YAXPEAVCDataExchange@@HAEAH@Z 0000000067dc6580     mfc100d:mfc100d.dll
 0002:00001588       __imp_?DDX_Check@@YAXPEAVCDataExchange@@HAEAH@Z 0000000067dc6588     mfc100d:mfc100d.dll
 0002:00001590       __imp_??0?$CStringT@DV?$StrTraitMFC_DLL@DV?$ChTraitsCRT@D@ATL@@@@@ATL@@QEAA@AEBV01@@Z 0000000067dc6590     mfc100d:mfc100d.dll
 0002:00001598       __imp_??B?$CSimpleStringT@D$00@ATL@@QEBAPEBDXZ 0000000067dc6598     mfc100d:mfc100d.dll
 0002:000015a0       __imp_??4?$CStringT@DV?$StrTraitMFC_DLL@DV?$ChTraitsCRT@D@ATL@@@@@ATL@@QEAAAEAV01@PEBD@Z 0000000067dc65a0     mfc100d:mfc100d.dll
 0002:000015a8       __imp_??0?$CStringT@DV?$StrTraitMFC_DLL@DV?$ChTraitsCRT@D@ATL@@@@@ATL@@QEAA@PEBD@Z 0000000067dc65a8     mfc100d:mfc100d.dll
 0002:000015b0       __imp_??4?$CStringT@DV?$StrTraitMFC_DLL@DV?$ChTraitsCRT@D@ATL@@@@@ATL@@QEAAAEAV01@AEBV01@@Z 0000000067dc65b0     mfc100d:mfc100d.dll
 0002:000015b8       __imp_??0CComboBox@@QEAA@XZ 0000000067dc65b8     mfc100d:mfc100d.dll
 0002:000015c0       __imp_??0CEdit@@QEAA@XZ    0000000067dc65c0     mfc100d:mfc100d.dll
 0002:000015c8       __imp_??0CListBox@@QEAA@XZ 0000000067dc65c8     mfc100d:mfc100d.dll
 0002:000015d0       __imp_??0?$CStringT@DV?$StrTraitMFC_DLL@DV?$ChTraitsCRT@D@ATL@@@@@ATL@@QEAA@XZ 0000000067dc65d0     mfc100d:mfc100d.dll
 0002:000015d8       __imp_?AfxGetApp@@YAPEAVCWinApp@@XZ 0000000067dc65d8     mfc100d:mfc100d.dll
 0002:000015e0       __imp_??1CComboBox@@UEAA@XZ 0000000067dc65e0     mfc100d:mfc100d.dll
 0002:000015e8       __imp_??1CEdit@@UEAA@XZ    0000000067dc65e8     mfc100d:mfc100d.dll
 0002:000015f0       __imp_??1CListBox@@UEAA@XZ 0000000067dc65f0     mfc100d:mfc100d.dll
 0002:000015f8       __imp_??1?$CStringT@DV?$StrTraitMFC_DLL@DV?$ChTraitsCRT@D@ATL@@@@@ATL@@QEAA@XZ 0000000067dc65f8     mfc100d:mfc100d.dll
 0002:00001600       __imp_??_V@YAXPEAX@Z       0000000067dc6600     mfc100d:mfc100d.dll
 0002:00001608       __imp_??1CDialog@@UEAA@XZ  0000000067dc6608     mfc100d:mfc100d.dll
 0002:00001610       __imp_??3CObject@@SAXPEAX@Z 0000000067dc6610     mfc100d:mfc100d.dll
 0002:00001618       __imp_?OnTimer@CWnd@@IEAAX_K@Z 0000000067dc6618     mfc100d:mfc100d.dll
 0002:00001620       __imp_?KillTimer@CWnd@@QEAAH_K@Z 0000000067dc6620     mfc100d:mfc100d.dll
 0002:00001628       __imp_?OnInitDialog@CDialog@@UEAAHXZ 0000000067dc6628     mfc100d:mfc100d.dll
 0002:00001630       __imp_?GetWindowRect@CWnd@@QEBAXPEAUtagRECT@@@Z 0000000067dc6630     mfc100d:mfc100d.dll
 0002:00001638       __imp_?SetWindowPos@CWnd@@QEAAHPEBV1@HHHHI@Z 0000000067dc6638     mfc100d:mfc100d.dll
 0002:00001640       __imp_?SetTimer@CWnd@@QEAA_K_KIP6AXPEAUHWND__@@I0K@Z@Z 0000000067dc6640     mfc100d:mfc100d.dll
 0002:00001648       __imp_?GetThisMessageMap@CDialog@@KAPEBUAFX_MSGMAP@@XZ 0000000067dc6648     mfc100d:mfc100d.dll
 0002:00001650       __imp_?DoDataExchange@CWnd@@MEAAXPEAVCDataExchange@@@Z 0000000067dc6650     mfc100d:mfc100d.dll
 0002:00001658       __imp_?OnCancel@CDialog@@MEAAXXZ 0000000067dc6658     mfc100d:mfc100d.dll
 0002:00001660       __imp_?OnOK@CDialog@@MEAAXXZ 0000000067dc6660     mfc100d:mfc100d.dll
 0002:00001668       __imp_?OnSetFont@CDialog@@UEAAXPEAVCFont@@@Z 0000000067dc6668     mfc100d:mfc100d.dll
 0002:00001670       __imp_?CreateIndirect@CDialog@@UEAAHPEBUDLGTEMPLATE@@PEAVCWnd@@PEAX@Z 0000000067dc6670     mfc100d:mfc100d.dll
 0002:00001678       __imp_?CreateIndirect@CDialog@@UEAAHPEAXPEAVCWnd@@@Z 0000000067dc6678     mfc100d:mfc100d.dll
 0002:00001680       __imp_?Create@CDialog@@UEAAHPEBDPEAVCWnd@@@Z 0000000067dc6680     mfc100d:mfc100d.dll
 0002:00001688       __imp_?Create@CDialog@@UEAAHIPEAVCWnd@@@Z 0000000067dc6688     mfc100d:mfc100d.dll
 0002:00001690       __imp_?GetOccDialogInfo@CDialog@@MEAAPEAU_AFX_OCC_DIALOG_INFO@@XZ 0000000067dc6690     mfc100d:mfc100d.dll
 0002:00001698       __imp_?SetOccDialogInfo@CDialog@@MEAAHPEAU_AFX_OCC_DIALOG_INFO@@@Z 0000000067dc6698     mfc100d:mfc100d.dll
 0002:000016a0       __imp_?CreateControlSite@CWnd@@MEAAHPEAVCOleControlContainer@@PEAPEAVCOleControlSite@@IAEBU_GUID@@@Z 0000000067dc66a0     mfc100d:mfc100d.dll
 0002:000016a8       __imp_?CreateControlContainer@CWnd@@MEAAHPEAPEAVCOleControlContainer@@@Z 0000000067dc66a8     mfc100d:mfc100d.dll
 0002:000016b0       __imp_?IsFrameWnd@CWnd@@UEBAHXZ 0000000067dc66b0     mfc100d:mfc100d.dll
 0002:000016b8       __imp_?CheckAutoCenter@CDialog@@UEAAHXZ 0000000067dc66b8     mfc100d:mfc100d.dll
 0002:000016c0       __imp_?OnGesturePressAndTap@CWnd@@MEAAHVCPoint@@J@Z 0000000067dc66c0     mfc100d:mfc100d.dll
 0002:000016c8       __imp_?OnGestureTwoFingerTap@CWnd@@MEAAHVCPoint@@@Z 0000000067dc66c8     mfc100d:mfc100d.dll
 0002:000016d0       __imp_?OnGestureRotate@CWnd@@MEAAHVCPoint@@N@Z 0000000067dc66d0     mfc100d:mfc100d.dll
 0002:000016d8       __imp_?OnGesturePan@CWnd@@MEAAHVCPoint@@0@Z 0000000067dc66d8     mfc100d:mfc100d.dll
 0002:000016e0       __imp_?DDX_Text@@YAXPEAVCDataExchange@@HAEAM@Z 0000000067dc66e0     mfc100d:mfc100d.dll
 0002:000016e8       __imp_?DDX_Radio@@YAXPEAVCDataExchange@@HAEAH@Z 0000000067dc66e8     mfc100d:mfc100d.dll
 0002:000016f0       __imp_?GetDlgCtrlID@CWnd@@QEBAHXZ 0000000067dc66f0     mfc100d:mfc100d.dll
 0002:000016f8       __imp_?DDV_MinMaxInt@@YAXPEAVCDataExchange@@HHH@Z 0000000067dc66f8     mfc100d:mfc100d.dll
 0002:00001700       __imp_?DDX_Text@@YAXPEAVCDataExchange@@HAEAH@Z 0000000067dc6700     mfc100d:mfc100d.dll
 0002:00001708       __imp_??0CScrollBar@@QEAA@XZ 0000000067dc6708     mfc100d:mfc100d.dll
 0002:00001710       __imp_??1CScrollBar@@UEAA@XZ 0000000067dc6710     mfc100d:mfc100d.dll
 0002:00001718       __imp_?AfxMessageBox@@YAHPEBDII@Z 0000000067dc6718     mfc100d:mfc100d.dll
 0002:00001720       __imp_?SetCheck@CButton@@QEAAXH@Z 0000000067dc6720     mfc100d:mfc100d.dll
 0002:00001728       __imp_?GetCheck@CButton@@QEBAHXZ 0000000067dc6728     mfc100d:mfc100d.dll
 0002:00001730       __imp_?OnGestureZoom@CWnd@@MEAAHVCPoint@@J@Z 0000000067dc6730     mfc100d:mfc100d.dll
 0002:00001738       __imp_?GetGestureStatus@CWnd@@MEAAKVCPoint@@@Z 0000000067dc6738     mfc100d:mfc100d.dll
 0002:00001740       __imp_?OnTouchInput@CWnd@@MEAAHVCPoint@@HHPEAUtagTOUCHINPUT@@@Z 0000000067dc6740     mfc100d:mfc100d.dll
 0002:00001748       __imp_?OnTouchInputs@CWnd@@MEAAHIPEAUtagTOUCHINPUT@@@Z 0000000067dc6748     mfc100d:mfc100d.dll
 0002:00001750       __imp_?OnChildNotify@CWnd@@MEAAHI_K_JPEA_J@Z 0000000067dc6750     mfc100d:mfc100d.dll
 0002:00001758       __imp_?PostNcDestroy@CWnd@@MEAAXXZ 0000000067dc6758     mfc100d:mfc100d.dll
 0002:00001760       __imp_?DefWindowProcA@CWnd@@MEAA_JI_K_J@Z 0000000067dc6760     mfc100d:mfc100d.dll
 0002:00001768       __imp_?OnWndMsg@CWnd@@MEAAHI_K_JPEA_J@Z 0000000067dc6768     mfc100d:mfc100d.dll
 0002:00001770       __imp_?WindowProc@CWnd@@MEAA_JI_K_J@Z 0000000067dc6770     mfc100d:mfc100d.dll
 0002:00001778       __imp_?OnAmbientProperty@CWnd@@UEAAHPEAVCOleControlSite@@JPEAUtagVARIANT@@@Z 0000000067dc6778     mfc100d:mfc100d.dll
 0002:00001780       __imp_?PreTranslateMessage@CDialog@@UEAAHPEAUtagMSG@@@Z 0000000067dc6780     mfc100d:mfc100d.dll
 0002:00001788       __imp_?EndModalState@CWnd@@UEAAXXZ 0000000067dc6788     mfc100d:mfc100d.dll
 0002:00001790       __imp_?BeginModalState@CWnd@@UEAAXXZ 0000000067dc6790     mfc100d:mfc100d.dll
 0002:00001798       __imp_?GetSuperWndProcAddr@CWnd@@MEAAPEAP6A_JPEAUHWND__@@I_K_J@ZXZ 0000000067dc6798     mfc100d:mfc100d.dll
 0002:000017a0       __imp_?OnNotify@CWnd@@MEAAH_K_JPEA_J@Z 0000000067dc67a0     mfc100d:mfc100d.dll
 0002:000017a8       __imp_?OnCommand@CWnd@@MEAAH_K_J@Z 0000000067dc67a8     mfc100d:mfc100d.dll
 0002:000017b0       __imp_?CreateAccessibleProxy@CWnd@@UEAAJ_K_JPEA_J@Z 0000000067dc67b0     mfc100d:mfc100d.dll
 0002:000017b8       __imp_?SetProxy@CWnd@@UEAAJPEAUIAccessibleProxy@@@Z 0000000067dc67b8     mfc100d:mfc100d.dll
 0002:000017c0       __imp_?put_accValue@CWnd@@UEAAJUtagVARIANT@@PEA_W@Z 0000000067dc67c0     mfc100d:mfc100d.dll
 0002:000017c8       __imp_?put_accName@CWnd@@UEAAJUtagVARIANT@@PEA_W@Z 0000000067dc67c8     mfc100d:mfc100d.dll
 0002:000017d0       __imp_?accDoDefaultAction@CWnd@@UEAAJUtagVARIANT@@@Z 0000000067dc67d0     mfc100d:mfc100d.dll
 0002:000017d8       __imp_?accHitTest@CWnd@@UEAAJJJPEAUtagVARIANT@@@Z 0000000067dc67d8     mfc100d:mfc100d.dll
 0002:000017e0       __imp_?accNavigate@CWnd@@UEAAJJUtagVARIANT@@PEAU2@@Z 0000000067dc67e0     mfc100d:mfc100d.dll
 0002:000017e8       __imp_?accLocation@CWnd@@UEAAJPEAJ000UtagVARIANT@@@Z 0000000067dc67e8     mfc100d:mfc100d.dll
 0002:000017f0       __imp_?accSelect@CWnd@@UEAAJJUtagVARIANT@@@Z 0000000067dc67f0     mfc100d:mfc100d.dll
 0002:000017f8       __imp_?get_accDefaultAction@CWnd@@UEAAJUtagVARIANT@@PEAPEA_W@Z 0000000067dc67f8     mfc100d:mfc100d.dll
 0002:00001800       __imp_?get_accSelection@CWnd@@UEAAJPEAUtagVARIANT@@@Z 0000000067dc6800     mfc100d:mfc100d.dll
 0002:00001808       __imp_?get_accFocus@CWnd@@UEAAJPEAUtagVARIANT@@@Z 0000000067dc6808     mfc100d:mfc100d.dll
 0002:00001810       __imp_?get_accKeyboardShortcut@CWnd@@UEAAJUtagVARIANT@@PEAPEA_W@Z 0000000067dc6810     mfc100d:mfc100d.dll
 0002:00001818       __imp_?get_accHelpTopic@CWnd@@UEAAJPEAPEA_WUtagVARIANT@@PEAJ@Z 0000000067dc6818     mfc100d:mfc100d.dll
 0002:00001820       __imp_?get_accHelp@CWnd@@UEAAJUtagVARIANT@@PEAPEA_W@Z 0000000067dc6820     mfc100d:mfc100d.dll
 0002:00001828       __imp_?get_accState@CWnd@@UEAAJUtagVARIANT@@PEAU2@@Z 0000000067dc6828     mfc100d:mfc100d.dll
 0002:00001830       __imp_?get_accRole@CWnd@@UEAAJUtagVARIANT@@PEAU2@@Z 0000000067dc6830     mfc100d:mfc100d.dll
 0002:00001838       __imp_?get_accDescription@CWnd@@UEAAJUtagVARIANT@@PEAPEA_W@Z 0000000067dc6838     mfc100d:mfc100d.dll
 0002:00001840       __imp_?get_accValue@CWnd@@UEAAJUtagVARIANT@@PEAPEA_W@Z 0000000067dc6840     mfc100d:mfc100d.dll
 0002:00001848       __imp_?get_accName@CWnd@@UEAAJUtagVARIANT@@PEAPEA_W@Z 0000000067dc6848     mfc100d:mfc100d.dll
 0002:00001850       __imp_?get_accChild@CWnd@@UEAAJUtagVARIANT@@PEAPEAUIDispatch@@@Z 0000000067dc6850     mfc100d:mfc100d.dll
 0002:00001858       __imp_?get_accChildCount@CWnd@@UEAAJPEAJ@Z 0000000067dc6858     mfc100d:mfc100d.dll
 0002:00001860       __imp_?get_accParent@CWnd@@UEAAJPEAPEAUIDispatch@@@Z 0000000067dc6860     mfc100d:mfc100d.dll
 0002:00001868       __imp_?EnsureStdObj@CWnd@@UEAAJXZ 0000000067dc6868     mfc100d:mfc100d.dll
 0002:00001870       __imp_?OnDrawIconicThumbnailOrLivePreview@CWnd@@UEAAXAEAVCDC@@VCRect@@VCSize@@HAEAH@Z 0000000067dc6870     mfc100d:mfc100d.dll
 0002:00001878       __imp_?EndModalLoop@CWnd@@UEAAXH@Z 0000000067dc6878     mfc100d:mfc100d.dll
 0002:00001880       __imp_?ContinueModal@CWnd@@UEAAHXZ 0000000067dc6880     mfc100d:mfc100d.dll
 0002:00001888       __imp_?WinHelpInternal@CWnd@@UEAAX_KI@Z 0000000067dc6888     mfc100d:mfc100d.dll
 0002:00001890       __imp_?HtmlHelpA@CWnd@@UEAAX_KI@Z 0000000067dc6890     mfc100d:mfc100d.dll
 0002:00001898       __imp_?WinHelpA@CWnd@@UEAAX_KI@Z 0000000067dc6898     mfc100d:mfc100d.dll
 0002:000018a0       __imp_?GetScrollBarCtrl@CWnd@@UEBAPEAVCScrollBar@@H@Z 0000000067dc68a0     mfc100d:mfc100d.dll
 0002:000018a8       __imp_?OnToolHitTest@CWnd@@UEBA_JVCPoint@@PEAUtagTOOLINFOA@@@Z 0000000067dc68a8     mfc100d:mfc100d.dll
 0002:000018b0       __imp_?SetMenu@CWnd@@UEAAHPEAVCMenu@@@Z 0000000067dc68b0     mfc100d:mfc100d.dll
 0002:000018b8       __imp_?GetMenu@CWnd@@UEBAPEAVCMenu@@XZ 0000000067dc68b8     mfc100d:mfc100d.dll
 0002:000018c0       __imp_?CalcWindowRect@CWnd@@UEAAXPEAUtagRECT@@I@Z 0000000067dc68c0     mfc100d:mfc100d.dll
 0002:000018c8       __imp_?PreCreateWindow@CWnd@@UEAAHAEAUtagCREATESTRUCTA@@@Z 0000000067dc68c8     mfc100d:mfc100d.dll
 0002:000018d0       __imp_?DestroyWindow@CWnd@@UEAAHXZ 0000000067dc68d0     mfc100d:mfc100d.dll
 0002:000018d8       __imp_?CreateEx@CWnd@@UEAAHKPEBD0KHHHHPEAUHWND__@@PEAUHMENU__@@PEAX@Z 0000000067dc68d8     mfc100d:mfc100d.dll
 0002:000018e0       __imp_?CreateEx@CWnd@@UEAAHKPEBD0KAEBUtagRECT@@PEAV1@IPEAX@Z 0000000067dc68e0     mfc100d:mfc100d.dll
 0002:000018e8       __imp_?Create@CWnd@@UEAAHPEBD0KAEBUtagRECT@@PEAV1@IPEAUCCreateContext@@@Z 0000000067dc68e8     mfc100d:mfc100d.dll
 0002:000018f0       __imp_?PreSubclassWindow@CWnd@@UEAAXXZ 0000000067dc68f0     mfc100d:mfc100d.dll
 0002:000018f8       __imp_?GetConnectionHook@CCmdTarget@@MEAAPEAUIConnectionPoint@@AEBU_GUID@@@Z 0000000067dc68f8     mfc100d:mfc100d.dll
 0002:00001900       __imp_?GetExtraConnectionPoints@CCmdTarget@@MEAAHPEAVCPtrArray@@@Z 0000000067dc6900     mfc100d:mfc100d.dll
 0002:00001908       __imp_?GetInterfaceHook@CCmdTarget@@UEAAPEAUIUnknown@@PEBX@Z 0000000067dc6908     mfc100d:mfc100d.dll
 0002:00001910       __imp_?OnCreateAggregates@CCmdTarget@@UEAAHXZ 0000000067dc6910     mfc100d:mfc100d.dll
 0002:00001918       __imp_?GetEventSinkMap@CCmdTarget@@MEBAPEBUAFX_EVENTSINKMAP@@XZ 0000000067dc6918     mfc100d:mfc100d.dll
 0002:00001920       __imp_?GetInterfaceMap@CWnd@@MEBAPEBUAFX_INTERFACEMAP@@XZ 0000000067dc6920     mfc100d:mfc100d.dll
 0002:00001928       __imp_?GetConnectionMap@CCmdTarget@@MEBAPEBUAFX_CONNECTIONMAP@@XZ 0000000067dc6928     mfc100d:mfc100d.dll
 0002:00001930       __imp_?GetDispatchMap@CCmdTarget@@MEBAPEBUAFX_DISPMAP@@XZ 0000000067dc6930     mfc100d:mfc100d.dll
 0002:00001938       __imp_?GetCommandMap@CCmdTarget@@MEBAPEBUAFX_OLECMDMAP@@XZ 0000000067dc6938     mfc100d:mfc100d.dll
 0002:00001940       __imp_?GetTypeLib@CCmdTarget@@UEAAJKPEAPEAUITypeLib@@@Z 0000000067dc6940     mfc100d:mfc100d.dll
 0002:00001948       __imp_?GetTypeLibCache@CCmdTarget@@UEAAPEAVCTypeLibCache@@XZ 0000000067dc6948     mfc100d:mfc100d.dll
 0002:00001950       __imp_?GetTypeInfoCount@CCmdTarget@@UEAAIXZ 0000000067dc6950     mfc100d:mfc100d.dll
 0002:00001958       __imp_?GetDispatchIID@CCmdTarget@@UEAAHPEAU_GUID@@@Z 0000000067dc6958     mfc100d:mfc100d.dll
 0002:00001960       __imp_?IsInvokeAllowed@CCmdTarget@@UEAAHJ@Z 0000000067dc6960     mfc100d:mfc100d.dll
 0002:00001968       __imp_?OnFinalRelease@CWnd@@UEAAXXZ 0000000067dc6968     mfc100d:mfc100d.dll
 0002:00001970       __imp_?OnCmdMsg@CDialog@@UEAAHIHPEAXPEAUAFX_CMDHANDLERINFO@@@Z 0000000067dc6970     mfc100d:mfc100d.dll
 0002:00001978       __imp_?Dump@CDialog@@UEBAXAEAVCDumpContext@@@Z 0000000067dc6978     mfc100d:mfc100d.dll
 0002:00001980       __imp_?AssertValid@CDialog@@UEBAXXZ 0000000067dc6980     mfc100d:mfc100d.dll
 0002:00001988       __imp_?Serialize@CObject@@UEAAXAEAVCArchive@@@Z 0000000067dc6988     mfc100d:mfc100d.dll
 0002:00001990       __imp_?GetRuntimeClass@CDialog@@UEBAPEAUCRuntimeClass@@XZ 0000000067dc6990     mfc100d:mfc100d.dll
 0002:00001998       __imp_?OnVScroll@CWnd@@IEAAXIIPEAVCScrollBar@@@Z 0000000067dc6998     mfc100d:mfc100d.dll
 0002:000019a0       __imp_?GetManager@?$CStringT@DV?$StrTraitMFC_DLL@DV?$ChTraitsCRT@D@ATL@@@@@ATL@@QEBAPEAUIAtlStringMgr@2@XZ 0000000067dc69a0     mfc100d:mfc100d.dll
 0002:000019a8       __imp_??0?$CStringT@DV?$StrTraitMFC_DLL@DV?$ChTraitsCRT@D@ATL@@@@@ATL@@QEAA@PEAUIAtlStringMgr@1@@Z 0000000067dc69a8     mfc100d:mfc100d.dll
 0002:000019b0       __imp_?GetLength@?$CSimpleStringT@D$00@ATL@@QEBAHXZ 0000000067dc69b0     mfc100d:mfc100d.dll
 0002:000019b8       __imp_?Concatenate@?$CSimpleStringT@D$00@ATL@@KAXAEAV12@PEBDH1H@Z 0000000067dc69b8     mfc100d:mfc100d.dll
 0002:000019c0       __imp_?GetBuffer@?$CSimpleStringT@D$00@ATL@@QEAAPEADH@Z 0000000067dc69c0     mfc100d:mfc100d.dll
 0002:000019c8       __imp_?CompareNoCase@?$CStringT@DV?$StrTraitMFC_DLL@DV?$ChTraitsCRT@D@ATL@@@@@ATL@@QEBAHPEBD@Z 0000000067dc69c8     mfc100d:mfc100d.dll
 0002:000019d0       __imp_?MessageBoxA@CWnd@@QEAAHPEBD0I@Z 0000000067dc69d0     mfc100d:mfc100d.dll
 0002:000019d8       __imp_?GetCurSel@CComboBox@@QEBAHXZ 0000000067dc69d8     mfc100d:mfc100d.dll
 0002:000019e0       __imp_?OnCheckButtonToggled@CFileDialog@@MEAAXKH@Z 0000000067dc69e0     mfc100d:mfc100d.dll
 0002:000019e8       __imp_?GetItemData@CComboBox@@QEBA_KH@Z 0000000067dc69e8     mfc100d:mfc100d.dll
 0002:000019f0       __imp_??0CDialog@@QEAA@IPEAVCWnd@@@Z 0000000067dc69f0     mfc100d:mfc100d.dll
 0002:000019f8       __imp_??3@YAXPEAX@Z        0000000067dc69f8     mfc100d:mfc100d.dll
 0002:00001a00       __imp_?PreInitDialog@CDialog@@MEAAXXZ 0000000067dc6a00     mfc100d:mfc100d.dll
 0002:00001a08       __imp_?DoModal@CDialog@@UEAA_JXZ 0000000067dc6a08     mfc100d:mfc100d.dll
 0002:00001a10       \177mfc100d_NULL_THUNK_DATA 0000000067dc6a10     mfc100d:mfc100d.dll
 0002:00001a18       __xc_a                     0000000067dc6a18     msvcrtd:cinitexe.obj
 0002:00001b28       __xc_z                     0000000067dc6b28     msvcrtd:cinitexe.obj
 0002:00001b30       __xi_a                     0000000067dc6b30     msvcrtd:cinitexe.obj
 0002:00001b40       __xi_z                     0000000067dc6b40     msvcrtd:cinitexe.obj
 0002:00001b78       ??_7CAbortDlg@@6B@         0000000067dc6b78     AbortDlg.obj
 0002:00002b90       ??_7CAcqConfigDlg@@6BSapManager@@@ 0000000067dc7b90     AcqConfigDlg.obj
 0002:00002ba8       ??_7CAcqConfigDlg@@6BCDialog@@@ 0000000067dc7ba8     AcqConfigDlg.obj
 0002:00003360       ??_7CAcqDlg@@6BSapManager@@@ 0000000067dc8360     AcqDlg.obj
 0002:00003378       ??_7CAcqDlg@@6BCDialog@@@  0000000067dc8378     AcqDlg.obj
 0002:00003c40       ??_7CAScanDlg@@6BSapManager@@@ 0000000067dc8c40     AScanDlg.obj
 0002:00003c58       ??_7CAScanDlg@@6BCDialog@@@ 0000000067dc8c58     AScanDlg.obj
 0002:00004198       ??_7CAviFileDlg@@6B@       0000000067dc9198     AviFileDlg.obj
 0002:000047a8       __real@3f800000            0000000067dc97a8     BayerDlg.obj
 0002:000047b8       ??_7CBayerOptionsDlg@@6BSapManager@@@ 0000000067dc97b8     BayerDlg.obj
 0002:000047c8       ??_7CBayerOptionsDlg@@6BCDialog@@@ 0000000067dc97c8     BayerDlg.obj
 0002:000052d8       ??_7CBufDlg@@6B@           0000000067dca2d8     BufDlg.obj
 0002:000059a0       ??_7CColorConversionOptionsDlg@@6BSapManager@@@ 0000000067dca9a0     ColorConversionDlg.obj
 0002:000059b8       ??_7CColorConversionOptionsDlg@@6BCDialog@@@ 0000000067dca9b8     ColorConversionDlg.obj
 0002:00006098       ??_7CCompDlg@@6BSapManager@@@ 0000000067dcb098     CompDlg.obj
 0002:000060a8       ??_7CCompDlg@@6BCDialog@@@ 0000000067dcb0a8     CompDlg.obj
 0002:00008400       ??_7CFlatFieldDlg@@6BSapManager@@@ 0000000067dcd400     FlatFieldDlg.obj
 0002:00008418       ??_7CFlatFieldDlg@@6BCDialog@@@ 0000000067dcd418     FlatFieldDlg.obj
 0002:00008870       __real@4000000000000000    0000000067dcd870     FlatFieldDlg.obj
 0002:00008888       ??_SSapBuffer@@6B@         0000000067dcd888     FlatFieldDlg.obj
 0002:00008cf0       __real@3ff0000000000000    0000000067dcdcf0     FlatFieldDlg.obj
 0002:000095a8       ??_7CGioBidirectionalDlg@@6B@ 0000000067dce5a8     GioBidirectionalDlg.obj
 0002:0000a568       ??_7CGioInputDlg@@6B@      0000000067dcf568     GioInputDlg.obj
 0002:0000b3c8       ??_7CGioOutputDlg@@6B@     0000000067dd03c8     GioOutputDlg.obj
 0002:0000c0b0       ?classCImageExWnd@CImageExWnd@@2UCRuntimeClass@@B 0000000067dd10b0     ImageExWnd.obj
 0002:0000c0e8       ??_7CImageExWnd@@6BCImageViewportWndEventHandler@@@ 0000000067dd10e8     ImageExWnd.obj
 0002:0000c118       ??_7CImageExWnd@@6BCStatic@@@ 0000000067dd1118     ImageExWnd.obj
 0002:0000c590       __real@3fe0000000000000    0000000067dd1590     ImageExWnd.obj
 0002:0000c5a0       ??_7CImageViewportWndEventHandler@@6B@ 0000000067dd15a0     ImageExWnd.obj
 0002:0000d938       ?classCImageFilterEditorDlg@CImageFilterEditorDlg@@2UCRuntimeClass@@B 0000000067dd2938     ImageFilterEditorDlg.obj
 0002:0000d978       ??_7CImageFilterEditorDlg@@6B@ 0000000067dd2978     ImageFilterEditorDlg.obj
 0002:0000dda0       ??_7?$basic_istringstream@DU?$char_traits@D@std@@V?$allocator@D@2@@std@@6B@ 0000000067dd2da0     ImageFilterEditorDlg.obj
 0002:0000dda8       ??_8?$basic_istringstream@DU?$char_traits@D@std@@V?$allocator@D@2@@std@@7B@ 0000000067dd2da8     ImageFilterEditorDlg.obj
 0002:0000de18       ??_7?$basic_stringbuf@DU?$char_traits@D@std@@V?$allocator@D@2@@std@@6B@ 0000000067dd2e18     ImageFilterEditorDlg.obj
 0002:0000df20       ??_C@_1IO@KLJMFODF@?$AAC?$AA?3?$AA?2?$AAP?$AAr?$AAo?$AAg?$AAr?$AAa?$AAm?$AA?5?$AAF?$AAi?$AAl?$AAe?$AAs?$AA?5?$AA?$CI?$AAx?$AA8?$AA6?$AA?$CJ?$AA?2?$AAM?$AAi?$AAc?$AAr?$AAo?$AAs?$AAo?$AAf?$AAt@ 0000000067dd2f20     ImageFilterEditorDlg.obj
 0002:0000e0c8       ?_Stz@?$fpos@H@std@@0HB    0000000067dd30c8     ImageFilterEditorDlg.obj
 0002:0000e0d0       ?npos@?$basic_string@DU?$char_traits@D@std@@V?$allocator@D@2@@std@@2_KB 0000000067dd30d0     ImageFilterEditorDlg.obj
 0002:0000e0d8       ??_C@_0BI@CFPLBAOH@invalid?5string?5position?$AA@ 0000000067dd30d8     ImageFilterEditorDlg.obj
 0002:0000e0f0       ??_C@_0BA@JFNIOLAK@string?5too?5long?$AA@ 0000000067dd30f0     ImageFilterEditorDlg.obj
 0002:0000e128       ??_C@_1CK@EOPGIILJ@?$AAi?$AAn?$AAv?$AAa?$AAl?$AAi?$AAd?$AA?5?$AAn?$AAu?$AAl?$AAl?$AA?5?$AAp?$AAo?$AAi?$AAn?$AAt?$AAe?$AAr?$AA?$AA@ 0000000067dd3128     ImageFilterEditorDlg.obj
 0002:0000e160       ??_7bad_alloc@std@@6B@     0000000067dd3160     ImageFilterEditorDlg.obj
 0002:0000f430       ?classCImageViewportWnd@CImageViewportWnd@@2UCRuntimeClass@@B 0000000067dd4430     ImageViewportWnd.obj
 0002:0000f468       ??_7CImageViewportWnd@@6B@ 0000000067dd4468     ImageViewportWnd.obj
 0002:0000f990       __real@42c80000            0000000067dd4990     ImageViewportWnd.obj
 0002:0000f994       __real@3e000000            0000000067dd4994     ImageViewportWnd.obj
 0002:0000f998       __real@3f000000            0000000067dd4998     ImageViewportWnd.obj
 0002:00010b28       ??_7CImageWnd@@6B@         0000000067dd5b28     ImageWnd.obj
 0002:00010b38       ??_7CSapRectTracker@@6B@   0000000067dd5b38     ImageWnd.obj
 0002:00010b68       ?_interfaceEntries@CJpegFileDlg@@0QBUAFX_INTERFACEMAP_ENTRY@@B 0000000067dd5b68     JpegFileDlg.obj
 0002:00010b90       ?_dispatchEntries@CJpegFileDlg@@0QBUAFX_DISPMAP_ENTRY@@B 0000000067dd5b90     JpegFileDlg.obj
 0002:00010c38       ?dispatchMap@CJpegFileDlg@@1UAFX_DISPMAP@@B 0000000067dd5c38     JpegFileDlg.obj
 0002:00010c58       ?interfaceMap@CJpegFileDlg@@1UAFX_INTERFACEMAP@@B 0000000067dd5c58     JpegFileDlg.obj
 0002:00010c78       ??_7CJpegFileDlg@@6B@      0000000067dd5c78     JpegFileDlg.obj
 0002:00011918       ?classCLoadSaveDlg@CLoadSaveDlg@@2UCRuntimeClass@@B 0000000067dd6918     LoadSaveDlg.obj
 0002:00011958       ??_7CLoadSaveDlg@@6B@      0000000067dd6958     LoadSaveDlg.obj
 0002:00012350       ??_7CLScanDlg@@6BSapManager@@@ 0000000067dd7350     LScanDlg.obj
 0002:00012368       ??_7CLScanDlg@@6BCDialog@@@ 0000000067dd7368     LScanDlg.obj
 0002:00012af8       ??_7CRawFileDlg@@6B@       0000000067dd7af8     RawFileDlg.obj
 0002:000130e8       _pRawDllMain               0000000067dd80e8     SapClassGui.obj
 0002:000136b0       ?_Min@?$AtlLimits@H@ATL@@2HB 0000000067dd86b0     SapClassGui.obj
 0002:000136b4       ?_Max@?$AtlLimits@H@ATL@@2HB 0000000067dd86b4     SapClassGui.obj
 0002:000136b8       ?_Min@?$AtlLimits@I@ATL@@2IB 0000000067dd86b8     SapClassGui.obj
 0002:000136bc       ?_Max@?$AtlLimits@I@ATL@@2IB 0000000067dd86bc     SapClassGui.obj
 0002:000136c0       ?_Min@?$AtlLimits@J@ATL@@2JB 0000000067dd86c0     SapClassGui.obj
 0002:000136c4       ?_Max@?$AtlLimits@J@ATL@@2JB 0000000067dd86c4     SapClassGui.obj
 0002:000136c8       ?_Min@?$AtlLimits@K@ATL@@2KB 0000000067dd86c8     SapClassGui.obj
 0002:000136cc       ?_Max@?$AtlLimits@K@ATL@@2KB 0000000067dd86cc     SapClassGui.obj
 0002:000136d0       ?_Min@?$AtlLimits@_J@ATL@@2_JB 0000000067dd86d0     SapClassGui.obj
 0002:000136d8       ?_Max@?$AtlLimits@_J@ATL@@2_JB 0000000067dd86d8     SapClassGui.obj
 0002:000136e0       ?_Min@?$AtlLimits@_K@ATL@@2_KB 0000000067dd86e0     SapClassGui.obj
 0002:000136e8       ?_Max@?$AtlLimits@_K@ATL@@2_KB 0000000067dd86e8     SapClassGui.obj
 0002:000136f0       ?VT@?$CVarTypeInfo@D@ATL@@2GB 0000000067dd86f0     SapClassGui.obj
 0002:000136f8       ?pmField@?$CVarTypeInfo@D@ATL@@2QEQtagVARIANT@@DEQ3@ 0000000067dd86f8     SapClassGui.obj
 0002:000136fc       ?VT@?$CVarTypeInfo@E@ATL@@2GB 0000000067dd86fc     SapClassGui.obj
 0002:00013700       ?pmField@?$CVarTypeInfo@E@ATL@@2QEQtagVARIANT@@EEQ3@ 0000000067dd8700     SapClassGui.obj
 0002:00013704       ?VT@?$CVarTypeInfo@PEAD@ATL@@2GB 0000000067dd8704     SapClassGui.obj
 0002:00013708       ?pmField@?$CVarTypeInfo@PEAD@ATL@@2QEQtagVARIANT@@PEADEQ3@ 0000000067dd8708     SapClassGui.obj
 0002:0001370c       ?VT@?$CVarTypeInfo@PEAE@ATL@@2GB 0000000067dd870c     SapClassGui.obj
 0002:00013710       ?pmField@?$CVarTypeInfo@PEAE@ATL@@2QEQtagVARIANT@@PEAEEQ3@ 0000000067dd8710     SapClassGui.obj
 0002:00013714       ?VT@?$CVarTypeInfo@F@ATL@@2GB 0000000067dd8714     SapClassGui.obj
 0002:00013718       ?pmField@?$CVarTypeInfo@F@ATL@@2QEQtagVARIANT@@FEQ3@ 0000000067dd8718     SapClassGui.obj
 0002:0001371c       ?VT@?$CVarTypeInfo@PEAF@ATL@@2GB 0000000067dd871c     SapClassGui.obj
 0002:00013720       ?pmField@?$CVarTypeInfo@PEAF@ATL@@2QEQtagVARIANT@@PEAFEQ3@ 0000000067dd8720     SapClassGui.obj
 0002:00013724       ?VT@?$CVarTypeInfo@G@ATL@@2GB 0000000067dd8724     SapClassGui.obj
 0002:00013728       ?pmField@?$CVarTypeInfo@G@ATL@@2QEQtagVARIANT@@GEQ3@ 0000000067dd8728     SapClassGui.obj
 0002:0001372c       ?VT@?$CVarTypeInfo@PEAG@ATL@@2GB 0000000067dd872c     SapClassGui.obj
 0002:00013730       ?pmField@?$CVarTypeInfo@PEAG@ATL@@2QEQtagVARIANT@@PEAGEQ3@ 0000000067dd8730     SapClassGui.obj
 0002:00013734       ?VT@?$CVarTypeInfo@H@ATL@@2GB 0000000067dd8734     SapClassGui.obj
 0002:00013738       ?pmField@?$CVarTypeInfo@H@ATL@@2QEQtagVARIANT@@HEQ3@ 0000000067dd8738     SapClassGui.obj
 0002:0001373c       ?VT@?$CVarTypeInfo@PEAH@ATL@@2GB 0000000067dd873c     SapClassGui.obj
 0002:00013740       ?pmField@?$CVarTypeInfo@PEAH@ATL@@2QEQtagVARIANT@@PEAHEQ3@ 0000000067dd8740     SapClassGui.obj
 0002:00013744       ?VT@?$CVarTypeInfo@I@ATL@@2GB 0000000067dd8744     SapClassGui.obj
 0002:00013748       ?pmField@?$CVarTypeInfo@I@ATL@@2QEQtagVARIANT@@IEQ3@ 0000000067dd8748     SapClassGui.obj
 0002:0001374c       ?VT@?$CVarTypeInfo@PEAI@ATL@@2GB 0000000067dd874c     SapClassGui.obj
 0002:00013750       ?pmField@?$CVarTypeInfo@PEAI@ATL@@2QEQtagVARIANT@@PEAIEQ3@ 0000000067dd8750     SapClassGui.obj
 0002:00013754       ?VT@?$CVarTypeInfo@J@ATL@@2GB 0000000067dd8754     SapClassGui.obj
 0002:00013758       ?pmField@?$CVarTypeInfo@J@ATL@@2QEQtagVARIANT@@JEQ3@ 0000000067dd8758     SapClassGui.obj
 0002:0001375c       ?VT@?$CVarTypeInfo@PEAJ@ATL@@2GB 0000000067dd875c     SapClassGui.obj
 0002:00013760       ?pmField@?$CVarTypeInfo@PEAJ@ATL@@2QEQtagVARIANT@@PEAJEQ3@ 0000000067dd8760     SapClassGui.obj
 0002:00013764       ?VT@?$CVarTypeInfo@K@ATL@@2GB 0000000067dd8764     SapClassGui.obj
 0002:00013768       ?pmField@?$CVarTypeInfo@K@ATL@@2QEQtagVARIANT@@KEQ3@ 0000000067dd8768     SapClassGui.obj
 0002:0001376c       ?VT@?$CVarTypeInfo@PEAK@ATL@@2GB 0000000067dd876c     SapClassGui.obj
 0002:00013770       ?pmField@?$CVarTypeInfo@PEAK@ATL@@2QEQtagVARIANT@@PEAKEQ3@ 0000000067dd8770     SapClassGui.obj
 0002:00013774       ?VT@?$CVarTypeInfo@_J@ATL@@2GB 0000000067dd8774     SapClassGui.obj
 0002:00013778       ?pmField@?$CVarTypeInfo@_J@ATL@@2QEQtagVARIANT@@_JEQ3@ 0000000067dd8778     SapClassGui.obj
 0002:0001377c       ?VT@?$CVarTypeInfo@PEA_J@ATL@@2GB 0000000067dd877c     SapClassGui.obj
 0002:00013780       ?pmField@?$CVarTypeInfo@PEA_J@ATL@@2QEQtagVARIANT@@PEA_JEQ3@ 0000000067dd8780     SapClassGui.obj
 0002:00013784       ?VT@?$CVarTypeInfo@_K@ATL@@2GB 0000000067dd8784     SapClassGui.obj
 0002:00013788       ?pmField@?$CVarTypeInfo@_K@ATL@@2QEQtagVARIANT@@_KEQ3@ 0000000067dd8788     SapClassGui.obj
 0002:0001378c       ?VT@?$CVarTypeInfo@PEA_K@ATL@@2GB 0000000067dd878c     SapClassGui.obj
 0002:00013790       ?pmField@?$CVarTypeInfo@PEA_K@ATL@@2QEQtagVARIANT@@PEA_KEQ3@ 0000000067dd8790     SapClassGui.obj
 0002:00013794       ?VT@?$CVarTypeInfo@M@ATL@@2GB 0000000067dd8794     SapClassGui.obj
 0002:00013798       ?pmField@?$CVarTypeInfo@M@ATL@@2QEQtagVARIANT@@MEQ3@ 0000000067dd8798     SapClassGui.obj
 0002:0001379c       ?VT@?$CVarTypeInfo@PEAM@ATL@@2GB 0000000067dd879c     SapClassGui.obj
 0002:000137a0       ?pmField@?$CVarTypeInfo@PEAM@ATL@@2QEQtagVARIANT@@PEAMEQ3@ 0000000067dd87a0     SapClassGui.obj
 0002:000137a4       ?VT@?$CVarTypeInfo@N@ATL@@2GB 0000000067dd87a4     SapClassGui.obj
 0002:000137a8       ?pmField@?$CVarTypeInfo@N@ATL@@2QEQtagVARIANT@@NEQ3@ 0000000067dd87a8     SapClassGui.obj
 0002:000137ac       ?VT@?$CVarTypeInfo@PEAN@ATL@@2GB 0000000067dd87ac     SapClassGui.obj
 0002:000137b0       ?pmField@?$CVarTypeInfo@PEAN@ATL@@2QEQtagVARIANT@@PEANEQ3@ 0000000067dd87b0     SapClassGui.obj
 0002:000137b4       ?VT@?$CVarTypeInfo@PEAUtagVARIANT@@@ATL@@2GB 0000000067dd87b4     SapClassGui.obj
 0002:000137b8       ?VT@?$CVarTypeInfo@PEA_W@ATL@@2GB 0000000067dd87b8     SapClassGui.obj
 0002:000137c0       ?pmField@?$CVarTypeInfo@PEA_W@ATL@@2QEQtagVARIANT@@PEA_WEQ3@ 0000000067dd87c0     SapClassGui.obj
 0002:000137c4       ?VT@?$CVarTypeInfo@PEAPEA_W@ATL@@2GB 0000000067dd87c4     SapClassGui.obj
 0002:000137c8       ?pmField@?$CVarTypeInfo@PEAPEA_W@ATL@@2QEQtagVARIANT@@PEAPEA_WEQ3@ 0000000067dd87c8     SapClassGui.obj
 0002:000137cc       ?VT@?$CVarTypeInfo@PEAUIUnknown@@@ATL@@2GB 0000000067dd87cc     SapClassGui.obj
 0002:000137d0       ?pmField@?$CVarTypeInfo@PEAUIUnknown@@@ATL@@2QEQtagVARIANT@@PEAUIUnknown@@EQ3@ 0000000067dd87d0     SapClassGui.obj
 0002:000137d4       ?VT@?$CVarTypeInfo@PEAPEAUIUnknown@@@ATL@@2GB 0000000067dd87d4     SapClassGui.obj
 0002:000137d8       ?pmField@?$CVarTypeInfo@PEAPEAUIUnknown@@@ATL@@2QEQtagVARIANT@@PEAPEAUIUnknown@@EQ3@ 0000000067dd87d8     SapClassGui.obj
 0002:000137dc       ?VT@?$CVarTypeInfo@PEAUIDispatch@@@ATL@@2GB 0000000067dd87dc     SapClassGui.obj
 0002:000137e0       ?pmField@?$CVarTypeInfo@PEAUIDispatch@@@ATL@@2QEQtagVARIANT@@PEAUIDispatch@@EQ3@ 0000000067dd87e0     SapClassGui.obj
 0002:000137e4       ?VT@?$CVarTypeInfo@PEAPEAUIDispatch@@@ATL@@2GB 0000000067dd87e4     SapClassGui.obj
 0002:000137e8       ?pmField@?$CVarTypeInfo@PEAPEAUIDispatch@@@ATL@@2QEQtagVARIANT@@PEAPEAUIDispatch@@EQ3@ 0000000067dd87e8     SapClassGui.obj
 0002:000137ec       ?VT@?$CVarTypeInfo@TtagCY@@@ATL@@2GB 0000000067dd87ec     SapClassGui.obj
 0002:000137f0       ?pmField@?$CVarTypeInfo@TtagCY@@@ATL@@2QEQtagVARIANT@@TtagCY@@EQ3@ 0000000067dd87f0     SapClassGui.obj
 0002:000137f4       ?VT@?$CVarTypeInfo@PEATtagCY@@@ATL@@2GB 0000000067dd87f4     SapClassGui.obj
 0002:000137f8       ?pmField@?$CVarTypeInfo@PEATtagCY@@@ATL@@2QEQtagVARIANT@@PEATtagCY@@EQ3@ 0000000067dd87f8     SapClassGui.obj
 0002:000137fc       ?c_bIsMFCDLLTraits@?$_MFCDLLTraitsCheck@DV?$StrTraitMFC_DLL@DV?$ChTraitsCRT@D@ATL@@@@@_CSTRING_IMPL_@ATL@@2_NB 0000000067dd87fc     SapClassGui.obj
 0002:000137fd       ?c_bIsMFCDLLTraits@?$_MFCDLLTraitsCheck@_WV?$StrTraitMFC_DLL@_WV?$ChTraitsCRT@_W@ATL@@@@@_CSTRING_IMPL_@ATL@@2_NB 0000000067dd87fd     SapClassGui.obj
 0002:00013800       ?generic@CArchiveException@@2HB 0000000067dd8800     SapClassGui.obj
 0002:00013804       ?generic@CFileException@@2HB 0000000067dd8804     SapClassGui.obj
 0002:00013808       ?Millisecond@CFileTime@ATL@@2_KB 0000000067dd8808     SapClassGui.obj
 0002:00013810       ?Second@CFileTime@ATL@@2_KB 0000000067dd8810     SapClassGui.obj
 0002:00013818       ?Minute@CFileTime@ATL@@2_KB 0000000067dd8818     SapClassGui.obj
 0002:00013820       ?Hour@CFileTime@ATL@@2_KB  0000000067dd8820     SapClassGui.obj
 0002:00013828       ?Day@CFileTime@ATL@@2_KB   0000000067dd8828     SapClassGui.obj
 0002:00013830       ?Week@CFileTime@ATL@@2_KB  0000000067dd8830     SapClassGui.obj
 0002:00013838       ?szInvalidDateTime@ATL@@3QEBDEB 0000000067dd8838     SapClassGui.obj
 0002:00013840       ?szInvalidDateTimeSpan@ATL@@3QEBDEB 0000000067dd8840     SapClassGui.obj
 0002:00013848       LIBID_ATLLib               0000000067dd8848     SapClassGui.obj
 0002:00013858       CLSID_Registrar            0000000067dd8858     SapClassGui.obj
 0002:00013868       IID_IRegistrar             0000000067dd8868     SapClassGui.obj
 0002:00013878       IID_IAxWinHostWindow       0000000067dd8878     SapClassGui.obj
 0002:00013888       IID_IAxWinAmbientDispatch  0000000067dd8888     SapClassGui.obj
 0002:00013898       IID_IInternalConnection    0000000067dd8898     SapClassGui.obj
 0002:000138a8       IID_IDocHostUIHandlerDispatch 0000000067dd88a8     SapClassGui.obj
 0002:000138b8       IID_IAxWinHostWindowLic    0000000067dd88b8     SapClassGui.obj
 0002:000138c8       IID_IAxWinAmbientDispatchEx 0000000067dd88c8     SapClassGui.obj
 0002:000138d8       ?MAX_VALUE@CRegParser@ATL@@1HB 0000000067dd88d8     SapClassGui.obj
 0002:000138dc       ?MAX_TYPE@CRegParser@ATL@@1HB 0000000067dd88dc     SapClassGui.obj
 0002:000138e0       ?rgszNeverDelete@CRegParser@ATL@@1QBQEBDB 0000000067dd88e0     SapClassGui.obj
 0002:00013940       ?cbNeverDelete@CRegParser@ATL@@1HB 0000000067dd8940     SapClassGui.obj
 0002:00013944       ?c_bIsMFCDLLTraits@?$_MFCDLLTraitsCheck@DV?$StrTraitATL@DV?$ChTraitsCRT@D@ATL@@@ATL@@@_CSTRING_IMPL_@ATL@@2_NB 0000000067dd8944     SapClassGui.obj
 0002:00013945       ?c_bIsMFCDLLTraits@?$_MFCDLLTraitsCheck@_WV?$StrTraitATL@_WV?$ChTraitsCRT@_W@ATL@@@ATL@@@_CSTRING_IMPL_@ATL@@2_NB 0000000067dd8945     SapClassGui.obj
 0002:00013948       ?CLSID_WinFormsControl@@3U_GUID@@B 0000000067dd8948     SapClassGui.obj
 0002:00013958       ?value@?$integral_constant@_N$0A@@tr1@std@@2_NB 0000000067dd8958     SapClassGui.obj
 0002:00013959       ?value@?$integral_constant@_N$00@tr1@std@@2_NB 0000000067dd8959     SapClassGui.obj
 0002:00013960       ?value@?$integral_constant@_K$0A@@tr1@std@@2_KB 0000000067dd8960     SapClassGui.obj
 0002:00013968       ?_Rank@?$_Arithmetic_traits@_N@std@@2HB 0000000067dd8968     SapClassGui.obj
 0002:0001396c       ?_Rank@?$_Arithmetic_traits@D@std@@2HB 0000000067dd896c     SapClassGui.obj
 0002:00013970       ?_Rank@?$_Arithmetic_traits@C@std@@2HB 0000000067dd8970     SapClassGui.obj
 0002:00013974       ?_Rank@?$_Arithmetic_traits@E@std@@2HB 0000000067dd8974     SapClassGui.obj
 0002:00013978       ?_Rank@?$_Arithmetic_traits@F@std@@2HB 0000000067dd8978     SapClassGui.obj
 0002:0001397c       ?_Rank@?$_Arithmetic_traits@G@std@@2HB 0000000067dd897c     SapClassGui.obj
 0002:00013980       ?_Rank@?$_Arithmetic_traits@H@std@@2HB 0000000067dd8980     SapClassGui.obj
 0002:00013984       ?_Rank@?$_Arithmetic_traits@I@std@@2HB 0000000067dd8984     SapClassGui.obj
 0002:00013988       ?_Rank@?$_Arithmetic_traits@J@std@@2HB 0000000067dd8988     SapClassGui.obj
 0002:0001398c       ?_Rank@?$_Arithmetic_traits@K@std@@2HB 0000000067dd898c     SapClassGui.obj
 0002:00013990       ?_Rank@?$_Arithmetic_traits@_J@std@@2HB 0000000067dd8990     SapClassGui.obj
 0002:00013994       ?_Rank@?$_Arithmetic_traits@_K@std@@2HB 0000000067dd8994     SapClassGui.obj
 0002:00013998       ?_Rank@?$_Arithmetic_traits@M@std@@2HB 0000000067dd8998     SapClassGui.obj
 0002:0001399c       ?_Rank@?$_Arithmetic_traits@N@std@@2HB 0000000067dd899c     SapClassGui.obj
 0002:000139a0       ?_Rank@?$_Arithmetic_traits@O@std@@2HB 0000000067dd89a0     SapClassGui.obj
 0002:000139a4       ?collate@?$_Locbase@H@std@@2HB 0000000067dd89a4     SapClassGui.obj
 0002:000139a8       ?ctype@?$_Locbase@H@std@@2HB 0000000067dd89a8     SapClassGui.obj
 0002:000139ac       ?monetary@?$_Locbase@H@std@@2HB 0000000067dd89ac     SapClassGui.obj
 0002:000139b0       ?numeric@?$_Locbase@H@std@@2HB 0000000067dd89b0     SapClassGui.obj
 0002:000139b4       ?time@?$_Locbase@H@std@@2HB 0000000067dd89b4     SapClassGui.obj
 0002:000139b8       ?messages@?$_Locbase@H@std@@2HB 0000000067dd89b8     SapClassGui.obj
 0002:000139bc       ?all@?$_Locbase@H@std@@2HB 0000000067dd89bc     SapClassGui.obj
 0002:000139c0       ?none@?$_Locbase@H@std@@2HB 0000000067dd89c0     SapClassGui.obj
 0002:000139c4       ?skipws@?$_Iosb@H@std@@2W4_Fmtflags@12@B 0000000067dd89c4     SapClassGui.obj
 0002:000139c8       ?unitbuf@?$_Iosb@H@std@@2W4_Fmtflags@12@B 0000000067dd89c8     SapClassGui.obj
 0002:000139cc       ?uppercase@?$_Iosb@H@std@@2W4_Fmtflags@12@B 0000000067dd89cc     SapClassGui.obj
 0002:000139d0       ?showbase@?$_Iosb@H@std@@2W4_Fmtflags@12@B 0000000067dd89d0     SapClassGui.obj
 0002:000139d4       ?showpoint@?$_Iosb@H@std@@2W4_Fmtflags@12@B 0000000067dd89d4     SapClassGui.obj
 0002:000139d8       ?showpos@?$_Iosb@H@std@@2W4_Fmtflags@12@B 0000000067dd89d8     SapClassGui.obj
 0002:000139dc       ?left@?$_Iosb@H@std@@2W4_Fmtflags@12@B 0000000067dd89dc     SapClassGui.obj
 0002:000139e0       ?right@?$_Iosb@H@std@@2W4_Fmtflags@12@B 0000000067dd89e0     SapClassGui.obj
 0002:000139e4       ?internal@?$_Iosb@H@std@@2W4_Fmtflags@12@B 0000000067dd89e4     SapClassGui.obj
 0002:000139e8       ?dec@?$_Iosb@H@std@@2W4_Fmtflags@12@B 0000000067dd89e8     SapClassGui.obj
 0002:000139ec       ?oct@?$_Iosb@H@std@@2W4_Fmtflags@12@B 0000000067dd89ec     SapClassGui.obj
 0002:000139f0       ?hex@?$_Iosb@H@std@@2W4_Fmtflags@12@B 0000000067dd89f0     SapClassGui.obj
 0002:000139f4       ?scientific@?$_Iosb@H@std@@2W4_Fmtflags@12@B 0000000067dd89f4     SapClassGui.obj
 0002:000139f8       ?fixed@?$_Iosb@H@std@@2W4_Fmtflags@12@B 0000000067dd89f8     SapClassGui.obj
 0002:000139fc       ?hexfloat@?$_Iosb@H@std@@2W4_Fmtflags@12@B 0000000067dd89fc     SapClassGui.obj
 0002:00013a00       ?boolalpha@?$_Iosb@H@std@@2W4_Fmtflags@12@B 0000000067dd8a00     SapClassGui.obj
 0002:00013a04       ?_Stdio@?$_Iosb@H@std@@2W4_Fmtflags@12@B 0000000067dd8a04     SapClassGui.obj
 0002:00013a08       ?adjustfield@?$_Iosb@H@std@@2W4_Fmtflags@12@B 0000000067dd8a08     SapClassGui.obj
 0002:00013a0c       ?basefield@?$_Iosb@H@std@@2W4_Fmtflags@12@B 0000000067dd8a0c     SapClassGui.obj
 0002:00013a10       ?floatfield@?$_Iosb@H@std@@2W4_Fmtflags@12@B 0000000067dd8a10     SapClassGui.obj
 0002:00013a14       ?goodbit@?$_Iosb@H@std@@2W4_Iostate@12@B 0000000067dd8a14     SapClassGui.obj
 0002:00013a18       ?eofbit@?$_Iosb@H@std@@2W4_Iostate@12@B 0000000067dd8a18     SapClassGui.obj
 0002:00013a1c       ?failbit@?$_Iosb@H@std@@2W4_Iostate@12@B 0000000067dd8a1c     SapClassGui.obj
 0002:00013a20       ?badbit@?$_Iosb@H@std@@2W4_Iostate@12@B 0000000067dd8a20     SapClassGui.obj
 0002:00013a24       ?_Hardfail@?$_Iosb@H@std@@2W4_Iostate@12@B 0000000067dd8a24     SapClassGui.obj
 0002:00013a28       ?in@?$_Iosb@H@std@@2W4_Openmode@12@B 0000000067dd8a28     SapClassGui.obj
 0002:00013a2c       ?out@?$_Iosb@H@std@@2W4_Openmode@12@B 0000000067dd8a2c     SapClassGui.obj
 0002:00013a30       ?ate@?$_Iosb@H@std@@2W4_Openmode@12@B 0000000067dd8a30     SapClassGui.obj
 0002:00013a34       ?app@?$_Iosb@H@std@@2W4_Openmode@12@B 0000000067dd8a34     SapClassGui.obj
 0002:00013a38       ?trunc@?$_Iosb@H@std@@2W4_Openmode@12@B 0000000067dd8a38     SapClassGui.obj
 0002:00013a3c       ?_Nocreate@?$_Iosb@H@std@@2W4_Openmode@12@B 0000000067dd8a3c     SapClassGui.obj
 0002:00013a40       ?_Noreplace@?$_Iosb@H@std@@2W4_Openmode@12@B 0000000067dd8a40     SapClassGui.obj
 0002:00013a44       ?binary@?$_Iosb@H@std@@2W4_Openmode@12@B 0000000067dd8a44     SapClassGui.obj
 0002:00013a48       ?beg@?$_Iosb@H@std@@2W4_Seekdir@12@B 0000000067dd8a48     SapClassGui.obj
 0002:00013a4c       ?cur@?$_Iosb@H@std@@2W4_Seekdir@12@B 0000000067dd8a4c     SapClassGui.obj
 0002:00013a50       ?end@?$_Iosb@H@std@@2W4_Seekdir@12@B 0000000067dd8a50     SapClassGui.obj
 0002:00013ac8       ??_7CRectTracker@@6B@      0000000067dd8ac8     SapClassGui.obj
 0002:00013b00       ??_7CImageExWndEventHandler@@6B@ 0000000067dd8b00     SapClassGui.obj
 0002:00013b60       ??_7Thank_you@Define_the_symbol__ATL_MIXED@@6B@ 0000000067dd8b60     SapClassGui.obj
 0002:00013c18       ??_7CTiffFileDlg@@6B@      0000000067dd8c18     TiffFileDlg.obj
 0002:00014300       __real@3a83126f            0000000067dd9300     ViewDlg.obj
 0002:00014304       __real@4cbebc20            0000000067dd9304     ViewDlg.obj
 0002:00014508       ??_7CViewDlg@@6B@          0000000067dd9508     ViewDlg.obj
 0002:00014828       ??_C@_07KJLOKDKB@TypeLib?$AA@ 0000000067dd9828     mfcs100d:nolib.obj
 0002:00014830       ??_C@_08KEKAJNJI@Software?$AA@ 0000000067dd9830     mfcs100d:nolib.obj
 0002:0001483c       ??_C@_06FDHFNJBJ@SYSTEM?$AA@ 0000000067dd983c     mfcs100d:nolib.obj
 0002:00014848       ??_C@_08LOPHEHKG@SECURITY?$AA@ 0000000067dd9848     mfcs100d:nolib.obj
 0002:00014854       ??_C@_03DDIMFGBA@SAM?$AA@  0000000067dd9854     mfcs100d:nolib.obj
 0002:00014858       ??_C@_04IHBFOLAC@Mime?$AA@ 0000000067dd9858     mfcs100d:nolib.obj
 0002:00014860       ??_C@_08PPIOJEA@Hardware?$AA@ 0000000067dd9860     mfcs100d:nolib.obj
 0002:00014870       ??_C@_09JKPGEJCH@Interface?$AA@ 0000000067dd9870     mfcs100d:nolib.obj
 0002:00014880       ??_C@_08PICKODJL@FileType?$AA@ 0000000067dd9880     mfcs100d:nolib.obj
 0002:00014890       ??_C@_0BF@HDDNNDFH@Component?5Categories?$AA@ 0000000067dd9890     mfcs100d:nolib.obj
 0002:000148a8       ??_C@_05GIBEAPNE@CLSID?$AA@ 0000000067dd98a8     mfcs100d:nolib.obj
 0002:000148b0       ??_C@_05PDIKPLII@AppID?$AA@ 0000000067dd98b0     mfcs100d:nolib.obj
 0002:000148b8       ??_C@_06JBKGCNBB@Delete?$AA@ 0000000067dd98b8     mfcs100d:nolib.obj
 0002:000148c0       ??_C@_08KAAPDIAN@NoRemove?$AA@ 0000000067dd98c0     mfcs100d:nolib.obj
 0002:000148d0       ??_C@_0M@DBGDLGLL@ForceRemove?$AA@ 0000000067dd98d0     mfcs100d:nolib.obj
 0002:000148dc       ??_C@_03LAIAPFCB@Val?$AA@  0000000067dd98dc     mfcs100d:nolib.obj
 0002:000148e0       ??_C@_01HMGJMAIH@B?$AA@    0000000067dd98e0     mfcs100d:nolib.obj
 0002:000148e4       ??_C@_01CKDDGHAB@D?$AA@    0000000067dd98e4     mfcs100d:nolib.obj
 0002:000148e8       ??_C@_01PLPBNMEI@M?$AA@    0000000067dd98e8     mfcs100d:nolib.obj
 0002:000148ec       ??_C@_01CPLAODJH@S?$AA@    0000000067dd98ec     mfcs100d:nolib.obj
 0002:000148f0       ??_C@_0BF@GPPHKJFN@Invalid?5DateTimeSpan?$AA@ 0000000067dd98f0     mfcs100d:nolib.obj
 0002:00014908       ??_C@_0BB@KEKMKJPM@Invalid?5DateTime?$AA@ 0000000067dd9908     mfcs100d:nolib.obj
 0002:000149a8       ??_7type_info@@6B@         0000000067dd99a8     msvcrtd:ti_inst.obj
 0002:000149b0       _pDefaultRawDllMain        0000000067dd99b0     msvcrtd:crtdll.obj
 0002:000149b8       ??_C@_0DF@EBFKANAI@f?3?2dd?2vctools?2crt_bld?2self_64_am@ 0000000067dd99b8     msvcrtd:crtdll.obj
 0002:000149f0       ??_C@_0BP@OGBCLIBO@Stack?5around?5_alloca?5corrupted?$AA@ 0000000067dd99f0     msvcrtd:_userapi_.obj
 0002:00014a10       ??_C@_0CK@CNLNOEPB@Local?5variable?5used?5before?5initi@ 0000000067dd9a10     msvcrtd:_userapi_.obj
 0002:00014a40       ??_C@_0BI@CIGMDCBH@Stack?5memory?5corruption?$AA@ 0000000067dd9a40     msvcrtd:_userapi_.obj
 0002:00014a58       ??_C@_0CK@FEGOIOPB@Cast?5to?5smaller?5type?5causing?5los@ 0000000067dd9a58     msvcrtd:_userapi_.obj
 0002:00014a88       ??_C@_0BJ@HEGAHDFO@Stack?5pointer?5corruption?$AA@ 0000000067dd9a88     msvcrtd:_userapi_.obj
 0002:00014ae0       ??_C@_0BO@GNIAFIKK@Unknown?5Runtime?5Check?5Error?6?$AN?$AA@ 0000000067dd9ae0     msvcrtd:_error_.obj
 0002:00014b00       ??_C@_0CM@NGINOKPC@Stack?5memory?5around?5_alloca?5was?5@ 0000000067dd9b00     msvcrtd:_error_.obj
 0002:00014b30       ??_C@_0DG@HKJMLLLP@A?5local?5variable?5was?5used?5before@ 0000000067dd9b30     msvcrtd:_error_.obj
 0002:00014b68       ??_C@_0BN@FFOINMNJ@Stack?5memory?5was?5corrupted?6?$AN?$AA@ 0000000067dd9b68     msvcrtd:_error_.obj
 0002:00014b90       ??_C@_0BBN@GPMLNJCF@A?5cast?5to?5a?5smaller?5data?5type?5ha@ 0000000067dd9b90     msvcrtd:_error_.obj
 0002:00014cb0       ??_C@_0NN@NGPKDKPD@The?5value?5of?5ESP?5was?5not?5properl@ 0000000067dd9cb0     msvcrtd:_error_.obj
 0002:00014e50       ??_C@_0CA@IODNCDPG@Run?9Time?5Check?5Failure?5?$CD?$CFd?5?9?5?$CFs?$AA@ 0000000067dd9e50     msvcrtd:_error_.obj
 0002:00014e70       ??_C@_0BE@GNBOBNCK@Unknown?5Module?5Name?$AA@ 0000000067dd9e70     msvcrtd:_error_.obj
 0002:00014e88       ??_C@_0BB@PFFGGCJP@Unknown?5Filename?$AA@ 0000000067dd9e88     msvcrtd:_error_.obj
 0002:00014ea0       ??_C@_1EA@NFKNIFJP@?$AAR?$AAu?$AAn?$AA?9?$AAT?$AAi?$AAm?$AAe?$AA?5?$AAC?$AAh?$AAe?$AAc?$AAk?$AA?5?$AAF?$AAa?$AAi?$AAl?$AAu?$AAr?$AAe?$AA?5?$AA?$CD?$AA?$CF?$AAd?$AA?5?$AA?9?$AA?5?$AA?$CF?$AAs?$AA?$AA@ 0000000067dd9ea0     msvcrtd:_error_.obj
 0002:00014ee0       ??_C@_1GM@OLMCBDMB@?$AAR?$AAu?$AAn?$AAt?$AAi?$AAm?$AAe?$AA?5?$AAC?$AAh?$AAe?$AAc?$AAk?$AA?5?$AAE?$AAr?$AAr?$AAo?$AAr?$AA?4?$AA?6?$AA?$AN?$AA?5?$AAU?$AAn?$AAa?$AAb?$AAl?$AAe?$AA?5?$AAt?$AAo@ 0000000067dd9ee0     msvcrtd:_error_.obj
 0002:00014f50       ??_C@_0CG@IAFNJNEE@Stack?5corrupted?5near?5unknown?5var@ 0000000067dd9f50     msvcrtd:_error_.obj
 0002:00014f80       ??_C@_0EJ@LJKNEOLN@Stack?5area?5around?5_alloca?5memory@ 0000000067dd9f80     msvcrtd:_error_.obj
 0002:00014fcc       ??_C@_01EEMJAFIK@?6?$AA@   0000000067dd9fcc     msvcrtd:_error_.obj
 0002:00014fd0       ??_C@_08KJEDNCKC@?$CFs?$CFs?$CFs?$CFs?$AA@ 0000000067dd9fd0     msvcrtd:_error_.obj
 0002:00014fdc       ??_C@_02LLMPMKNF@?$DO?5?$AA@ 0000000067dd9fdc     msvcrtd:_error_.obj
 0002:00014fe0       ??_C@_0BE@EJFBLEMJ@?$CFs?$CFs?$CFp?$CFs?$CFI64d?$CFs?$CFd?$CFs?$AA@ 0000000067dd9fe0     msvcrtd:_error_.obj
 0002:00015000       ??_C@_0EI@CLEPFNGI@Stack?5area?5around?5_alloca?5memory@ 0000000067dda000     msvcrtd:_error_.obj
 0002:00015048       ??_C@_07DFDJCKFN@?6Size?3?5?$AA@ 0000000067dda048     msvcrtd:_error_.obj
 0002:00015050       ??_C@_0N@MHFFIMFG@?6Address?3?50x?$AA@ 0000000067dda050     msvcrtd:_error_.obj
 0002:00015060       ??_C@_0CK@DKGBICFE@?6Allocation?5number?5within?5this?5f@ 0000000067dda060     msvcrtd:_error_.obj
 0002:00015090       ??_C@_08OMAHNMHJ@?6Data?3?5?$DM?$AA@ 0000000067dda090     msvcrtd:_error_.obj
 0002:000150a0       ??_C@_09FOPFMPEJ@wsprintfA?$AA@ 0000000067dda0a0     msvcrtd:_error_.obj
 0002:000150b0       ??_C@_1BG@OILDLIOJ@?$AAu?$AAs?$AAe?$AAr?$AA3?$AA2?$AA?4?$AAd?$AAl?$AAl?$AA?$AA@ 0000000067dda0b0     msvcrtd:_error_.obj
 0002:000150c8       ??_C@_05MKKEDADM@?$CF?42X?5?$AA@ 0000000067dda0c8     msvcrtd:_error_.obj
 0002:000150d0       ??_C@_0DE@OHJBPMBP@A?5variable?5is?5being?5used?5without@ 0000000067dda0d0     msvcrtd:_error_.obj
 0002:00015104       ?ProcessDetach@NativeDll@<CrtImplementationDetails>@@0IB 0000000067dda104     msvcrtd:tncleanup.obj
 0002:00015108       ?ProcessAttach@NativeDll@<CrtImplementationDetails>@@0IB 0000000067dda108     msvcrtd:tncleanup.obj
 0002:0001510c       ?ThreadAttach@NativeDll@<CrtImplementationDetails>@@0IB 0000000067dda10c     msvcrtd:tncleanup.obj
 0002:00015110       ?ThreadDetach@NativeDll@<CrtImplementationDetails>@@0IB 0000000067dda110     msvcrtd:tncleanup.obj
 0002:00015114       ?ProcessVerifier@NativeDll@<CrtImplementationDetails>@@0IB 0000000067dda114     msvcrtd:tncleanup.obj
 0002:00015134       ??_C@_01KDCPPGHE@r?$AA@    0000000067dda134     msvcrtd:_pdblkup_.obj
 0002:00015138       ??_C@_0BB@KCIACLNC@PDBOpenValidate5?$AA@ 0000000067dda138     msvcrtd:_pdblkup_.obj
 0002:00015150       ??_C@_1CK@HHHCOJPD@?$AAE?$AAn?$AAv?$AAi?$AAr?$AAo?$AAn?$AAm?$AAe?$AAn?$AAt?$AAD?$AAi?$AAr?$AAe?$AAc?$AAt?$AAo?$AAr?$AAy?$AA?$AA@ 0000000067dda150     msvcrtd:_pdblkup_.obj
 0002:00015180       ??_C@_1FM@DNCABAP@?$AAS?$AAO?$AAF?$AAT?$AAW?$AAA?$AAR?$AAE?$AA?2?$AAM?$AAi?$AAc?$AAr?$AAo?$AAs?$AAo?$AAf?$AAt?$AA?2?$AAV?$AAi?$AAs?$AAu?$AAa?$AAl?$AAS?$AAt?$AAu?$AAd?$AAi?$AAo?$AA?2@ 0000000067dda180     msvcrtd:_pdblkup_.obj
 0002:000151e0       ??_C@_0M@HLOHPNFA@RegCloseKey?$AA@ 0000000067dda1e0     msvcrtd:_pdblkup_.obj
 0002:000151f0       ??_C@_0BB@GLNAEDBD@RegQueryValueExW?$AA@ 0000000067dda1f0     msvcrtd:_pdblkup_.obj
 0002:00015208       ??_C@_0O@COHOBMLB@RegOpenKeyExW?$AA@ 0000000067dda208     msvcrtd:_pdblkup_.obj
 0002:00015218       ??_C@_1BK@GAEMIDIL@?$AAA?$AAD?$AAV?$AAA?$AAP?$AAI?$AA3?$AA2?$AA?4?$AAD?$AAL?$AAL?$AA?$AA@ 0000000067dda218     msvcrtd:_pdblkup_.obj
 0002:00015234       ??_C@_06JMICFIKN@?$CFs_?$CF0x?$AA@ 0000000067dda234     atlsd:Externs.obj
 0002:00015240       ??_C@_0CM@OGPEFHLG@AtlDebugAllocator_FileMappingNam@ 0000000067dda240     atlsd:Externs.obj
 0002:00015270       ??_C@_0CN@PLNFEEEE@AtlTraceModuleManager_ProcessAdd@ 0000000067dda270     atlsd:Externs.obj
 0002:000152a0       ??_C@_1GM@OMLOBEGL@?$AAf?$AA?3?$AA?2?$AAd?$AAd?$AA?2?$AAv?$AAc?$AAt?$AAo?$AAo?$AAl?$AAs?$AA?2?$AAv?$AAc?$AA7?$AAl?$AAi?$AAb?$AAs?$AA?2?$AAs?$AAh?$AAi?$AAp?$AA?2?$AAa?$AAt?$AAl?$AAm?$AAf@ 0000000067dda2a0     atlsd:Externs.obj
 0002:00015310       ??_C@_1M@HLGKFCJM@?$AAf?$AAa?$AAl?$AAs?$AAe?$AA?$AA@ 0000000067dda310     atlsd:Externs.obj
 0002:00015320       ??_C@_0BF@IAAKIJDJ@AtlThrow?3?5hr?5?$DN?50x?$CFx?6?$AA@ 0000000067dda320     atlsd:Externs.obj
 0002:00015338       ??_C@_0DG@BLHODJEO@f?3?2dd?2vctools?2vc7libs?2ship?2atlmf@ 0000000067dda338     atlsd:Externs.obj
 0002:00015370       ??_C@_0BA@MKMIKKJB@atlTraceGeneral?$AA@ 0000000067dda370     atlsd:atltrace.obj
 0002:00015380       ??_C@_0M@DGPFJEBB@atlTraceCOM?$AA@ 0000000067dda380     atlsd:atltrace.obj
 0002:00015390       ??_C@_0L@LHELAKBP@atlTraceQI?$AA@ 0000000067dda390     atlsd:atltrace.obj
 0002:000153a0       ??_C@_0BC@MALHFBAO@atlTraceRegistrar?$AA@ 0000000067dda3a0     atlsd:atltrace.obj
 0002:000153b8       ??_C@_0BB@ILPPDKFL@atlTraceRefcount?$AA@ 0000000067dda3b8     atlsd:atltrace.obj
 0002:000153d0       ??_C@_0BC@DGHHNKDC@atlTraceWindowing?$AA@ 0000000067dda3d0     atlsd:atltrace.obj
 0002:000153e8       ??_C@_0BB@GHKJKKIE@atlTraceControls?$AA@ 0000000067dda3e8     atlsd:atltrace.obj
 0002:00015400       ??_C@_0BA@DKOAAGGM@atlTraceHosting?$AA@ 0000000067dda400     atlsd:atltrace.obj
 0002:00015410       ??_C@_0BB@BEBMGMDO@atlTraceDBClient?$AA@ 0000000067dda410     atlsd:atltrace.obj
 0002:00015428       ??_C@_0BD@KOADKDIA@atlTraceDBProvider?$AA@ 0000000067dda428     atlsd:atltrace.obj
 0002:00015440       ??_C@_0P@LNEGBOLO@atlTraceSnapin?$AA@ 0000000067dda440     atlsd:atltrace.obj
 0002:00015450       ??_C@_0BA@MCBFIDIC@atlTraceNotImpl?$AA@ 0000000067dda450     atlsd:atltrace.obj
 0002:00015460       ??_C@_0BD@PJPCCAKP@atlTraceAllocation?$AA@ 0000000067dda460     atlsd:atltrace.obj
 0002:00015478       ??_C@_0BC@PGMFNIFA@atlTraceException?$AA@ 0000000067dda478     atlsd:atltrace.obj
 0002:00015490       ??_C@_0N@BNNILHBE@atlTraceTime?$AA@ 0000000067dda490     atlsd:atltrace.obj
 0002:000154a0       ??_C@_0O@MEOJAOKK@atlTraceCache?$AA@ 0000000067dda4a0     atlsd:atltrace.obj
 0002:000154b0       ??_C@_0BA@IDBKCKK@atlTraceStencil?$AA@ 0000000067dda4b0     atlsd:atltrace.obj
 0002:000154c0       ??_C@_0P@MBNHGHMI@atlTraceString?$AA@ 0000000067dda4c0     atlsd:atltrace.obj
 0002:000154d0       ??_C@_0M@IOBBMAHG@atlTraceMap?$AA@ 0000000067dda4d0     atlsd:atltrace.obj
 0002:000154e0       ??_C@_0N@FEAAACHD@atlTraceUtil?$AA@ 0000000067dda4e0     atlsd:atltrace.obj
 0002:000154f0       ??_C@_0BB@DNJDADMG@atlTraceSecurity?$AA@ 0000000067dda4f0     atlsd:atltrace.obj
 0002:00015508       ??_C@_0N@KLPNCFEE@atlTraceSync?$AA@ 0000000067dda508     atlsd:atltrace.obj
 0002:00015518       ??_C@_0O@KHOBHOBJ@atlTraceISAPI?$AA@ 0000000067dda518     atlsd:atltrace.obj
 0002:00015528       ??_C@_0N@BEIMPMHB@atlTraceUser?$AA@ 0000000067dda528     atlsd:atltrace.obj
 0002:00015538       ??_C@_0O@MKGGJJCH@atlTraceUser2?$AA@ 0000000067dda538     atlsd:atltrace.obj
 0002:00015548       ??_C@_0O@NDHNKIGG@atlTraceUser3?$AA@ 0000000067dda548     atlsd:atltrace.obj
 0002:00015558       ??_C@_0O@JMDMDOKB@atlTraceUser4?$AA@ 0000000067dda558     atlsd:atltrace.obj
 0002:00015570       ??_C@_1HO@MNFHLCLF@?$AAf?$AA?3?$AA?2?$AAd?$AAd?$AA?2?$AAv?$AAc?$AAt?$AAo?$AAo?$AAl?$AAs?$AA?2?$AAv?$AAc?$AA7?$AAl?$AAi?$AAb?$AAs?$AA?2?$AAs?$AAh?$AAi?$AAp?$AA?2?$AAa?$AAt?$AAl?$AAm?$AAf@ 0000000067dda570     atlsd:AtlDebugAPI.obj
 0002:000155f0       ??_C@_1BK@LIHAAANN@?$AAp?$AAM?$AAo?$AAd?$AAu?$AAl?$AAe?$AA?5?$AA?$CB?$AA?$DN?$AA?5?$AA0?$AA?$AA@ 0000000067dda5f0     atlsd:AtlDebugAPI.obj
 0002:00015610       ??_C@_1BM@DFEBCPM@?$AAp?$AAP?$AAr?$AAo?$AAc?$AAe?$AAs?$AAs?$AA?5?$AA?$CB?$AA?$DN?$AA?5?$AA0?$AA?$AA@ 0000000067dda610     atlsd:AtlDebugAPI.obj
 0002:00015630       ??_C@_1BM@GBBOFEAE@?$AA_?$AA_?$AAa?$AAt?$AAl?$AA_?$AAc?$AAo?$AAn?$AAd?$AAV?$AAa?$AAl?$AA?$AA@ 0000000067dda630     atlsd:AtlDebugAPI.obj
 0002:0001564c       ??_C@_02DKCKIIND@?$CFs?$AA@ 0000000067dda64c     atlsd:AtlDebugAPI.obj
 0002:00015650       ??_C@_04FFDMEMDO@?$CFS?3?5?$AA@ 0000000067dda650     atlsd:AtlDebugAPI.obj
 0002:00015658       ??_C@_09IIMHCEDG@?$CFs?$CI?$CFd?$CJ?5?3?5?$AA@ 0000000067dda658     atlsd:AtlDebugAPI.obj
 0002:00015664       ??_C@_02KPKOKMHB@?$CFS?$AA@ 0000000067dda664     atlsd:AtlDebugAPI.obj
 0002:00015668       ??_C@_19JCANECJL@?$AA?$CF?$AAs?$AA?3?$AA?5?$AA?$AA@ 0000000067dda668     atlsd:AtlDebugAPI.obj
 0002:00015678       ??_C@_1BE@PGKGHBDF@?$AA?$CF?$AAS?$AA?$CI?$AA?$CF?$AAd?$AA?$CJ?$AA?5?$AA?3?$AA?5?$AA?$AA@ 0000000067dda678     atlsd:AtlDebugAPI.obj
 0002:00015690       ??_C@_1DA@NMHCLMEJ@?$AAp?$AAA?$AAl?$AAl?$AAo?$AAc?$AAa?$AAt?$AAo?$AAr?$AA?9?$AA?$DO?$AAm?$AA_?$AAb?$AAS?$AAn?$AAa?$AAp?$AAs?$AAh?$AAo?$AAt?$AA?$AA@ 0000000067dda690     atlsd:AtlDebugAPI.obj
 0002:000156c0       ??_C@_1CE@NDBHOLMF@?$AAp?$AAP?$AAr?$AAo?$AAc?$AAe?$AAs?$AAs?$AAI?$AAn?$AAf?$AAo?$AA?5?$AA?$CB?$AA?$DN?$AA?5?$AA0?$AA?$AA@ 0000000067dda6c0     atlsd:AtlDebugAPI.obj
 0002:000156e8       ??_C@_1CC@ONKAHKMP@?$AAp?$AAM?$AAo?$AAd?$AAu?$AAl?$AAe?$AAI?$AAn?$AAf?$AAo?$AA?5?$AA?$CB?$AA?$DN?$AA?5?$AA0?$AA?$AA@ 0000000067dda6e8     atlsd:AtlDebugAPI.obj
 0002:00015710       ??_C@_1CG@BANGGBIE@?$AAp?$AAC?$AAa?$AAt?$AAe?$AAg?$AAo?$AAr?$AAy?$AAI?$AAn?$AAf?$AAo?$AA?5?$AA?$CB?$AA?$DN?$AA?5?$AA0?$AA?$AA@ 0000000067dda710     atlsd:AtlDebugAPI.obj
 0002:00015738       ??_C@_1BC@JOPFIJLO@?$AAp?$AAP?$AAr?$AAo?$AAc?$AAe?$AAs?$AAs?$AA?$AA@ 0000000067dda738     atlsd:AtlDebugAPI.obj
 0002:00015750       ??_C@_1DM@CECLCIOA@?$AAp?$AAp?$AAC?$AAa?$AAt?$AAe?$AAg?$AAo?$AAr?$AAy?$AA?5?$AA?$CG?$AA?$CG?$AA?5?$AAp?$AAf?$AAn?$AAC?$AAr?$AAt?$AAD?$AAb?$AAg?$AAR?$AAe?$AAp?$AAo?$AAr?$AAt?$AA?$AA@ 0000000067dda750     atlsd:AtlDebugAPI.obj
 0002:00015790       ??_C@_1HA@EFGOBFOA@?$AAf?$AA?3?$AA?2?$AAd?$AAd?$AA?2?$AAv?$AAc?$AAt?$AAo?$AAo?$AAl?$AAs?$AA?2?$AAv?$AAc?$AA7?$AAl?$AAi?$AAb?$AAs?$AA?2?$AAs?$AAh?$AAi?$AAp?$AA?2?$AAa?$AAt?$AAl?$AAm?$AAf@ 0000000067dda790     atlsd:AtlDebugAPI.obj
 0002:00015800       ??_C@_1EA@JHMKKLFC@?$AAn?$AAI?$AAn?$AAd?$AAe?$AAx?$AA?5?$AA?$DO?$AA?$DN?$AA?5?$AA0?$AA?5?$AA?$CG?$AA?$CG?$AA?5?$AAn?$AAI?$AAn?$AAd?$AAe?$AAx?$AA?5?$AA?$DM?$AA?5?$AAm?$AA_?$AAn?$AAS?$AAi?$AAz?$AAe?$AA?$AA@ 0000000067dda800     atlsd:AtlDebugAPI.obj
 0002:00015840       ??_C@_1GI@CLJCGCPP@?$AAf?$AA?3?$AA?2?$AAd?$AAd?$AA?2?$AAv?$AAc?$AAt?$AAo?$AAo?$AAl?$AAs?$AA?2?$AAv?$AAc?$AA7?$AAl?$AAi?$AAb?$AAs?$AA?2?$AAs?$AAh?$AAi?$AAp?$AA?2?$AAa?$AAt?$AAl?$AAm?$AAf@ 0000000067dda840     atlsd:AtlDebugAPI.obj
 0002:000158a8       ??_C@_1BC@PMINONJG@?$AAb?$AAS?$AAu?$AAc?$AAc?$AAe?$AAs?$AAs?$AA?$AA@ 0000000067dda8a8     atlsd:Allocate.obj
 0002:000158c0       ??_C@_1HI@MDMANKNC@?$AAf?$AA?3?$AA?2?$AAd?$AAd?$AA?2?$AAv?$AAc?$AAt?$AAo?$AAo?$AAl?$AAs?$AA?2?$AAv?$AAc?$AA7?$AAl?$AAi?$AAb?$AAs?$AA?2?$AAs?$AAh?$AAi?$AAp?$AA?2?$AAa?$AAt?$AAl?$AAm?$AAf@ 0000000067dda8c0     atlsd:Allocate.obj
 0002:00015938       ??_C@_1DG@LHMNHOH@?$AA?$CB?$AAm?$AA_?$AAh?$AAM?$AAa?$AAp?$AA?5?$AA?$CG?$AA?$CG?$AA?5?$AA?$CB?$AAm?$AA_?$AAp?$AAB?$AAu?$AAf?$AAf?$AAe?$AAr?$AAS?$AAt?$AAa?$AAr?$AAt?$AA?$AA@ 0000000067dda938     atlsd:Allocate.obj
 0002:00015970       ??_C@_1CC@JCNIBNON@?$AAi?$AAM?$AAo?$AAd?$AAu?$AAl?$AAe?$AA?5?$AA?$DM?$AA?5?$AAm?$AAo?$AAd?$AAc?$AAn?$AAt?$AA?$AA@ 0000000067dda970     atlsd:Allocate.obj
 0002:000159a0       ??_C@_1HO@KONLCGL@?$AA?$CI?$AAi?$AAC?$AAa?$AAt?$AAe?$AAg?$AAo?$AAr?$AAy?$AA?5?$AA?$DM?$AA?5?$AAm?$AA_?$AAp?$AAP?$AAr?$AAo?$AAc?$AAe?$AAs?$AAs?$AA?9?$AA?$DO?$AAC?$AAa?$AAt?$AAe?$AAg?$AAo?$AAr@ 0000000067dda9a0     atlsd:Allocate.obj
 0002:00015a20       ??_C@_1BG@EIHNOMMF@?$AAm?$AA_?$AAp?$AAP?$AAr?$AAo?$AAc?$AAe?$AAs?$AAs?$AA?$AA@ 0000000067ddaa20     atlsd:Allocate.obj
 0002:00015a40       ??_C@_1IO@GJLKCBCE@?$AAf?$AA?3?$AA?2?$AAd?$AAd?$AA?2?$AAv?$AAc?$AAt?$AAo?$AAo?$AAl?$AAs?$AA?2?$AAv?$AAc?$AA7?$AAl?$AAi?$AAb?$AAs?$AA?2?$AAs?$AAh?$AAi?$AAp?$AA?2?$AAa?$AAt?$AAl?$AAm?$AAf@ 0000000067ddaa40     atlsd:Allocate.obj
 0002:00015ad0       ??_C@_1BK@GFEAMNLJ@?$AAn?$AAC?$AAo?$AAo?$AAk?$AAi?$AAe?$AA?5?$AA?$CB?$AA?$DN?$AA?5?$AA0?$AA?$AA@ 0000000067ddaad0     atlsd:Allocate.obj
 0002:00015af0       ??_C@_1BO@OAGIAJOK@?$AAp?$AAC?$AAa?$AAt?$AAe?$AAg?$AAo?$AAr?$AAy?$AA?5?$AA?$CB?$AA?$DN?$AA?5?$AA0?$AA?$AA@ 0000000067ddaaf0     atlsd:Allocate.obj
 0002:00015b10       ??_C@_11LOCGONAA@?$AA?$AA@ 0000000067ddab10     atlsd:AtlTraceModuleManager.obj
 0002:00015b88       ??_R4CAbortDlg@@6B@        0000000067ddab88     AbortDlg.obj
 0002:00015bb0       ??_R3CAbortDlg@@8          0000000067ddabb0     AbortDlg.obj
 0002:00015bc8       ??_R2CAbortDlg@@8          0000000067ddabc8     AbortDlg.obj
 0002:00015bf8       ??_R1A@?0A@EA@CAbortDlg@@8 0000000067ddabf8     AbortDlg.obj
 0002:00015c20       ??_R1A@?0A@EA@CDialog@@8   0000000067ddac20     AbortDlg.obj
 0002:00015c48       ??_R3CDialog@@8            0000000067ddac48     AbortDlg.obj
 0002:00015c60       ??_R2CDialog@@8            0000000067ddac60     AbortDlg.obj
 0002:00015c88       ??_R1A@?0A@EA@CWnd@@8      0000000067ddac88     AbortDlg.obj
 0002:00015cb0       ??_R3CWnd@@8               0000000067ddacb0     AbortDlg.obj
 0002:00015cc8       ??_R2CWnd@@8               0000000067ddacc8     AbortDlg.obj
 0002:00015ce8       ??_R1A@?0A@EA@CCmdTarget@@8 0000000067ddace8     AbortDlg.obj
 0002:00015d10       ??_R3CCmdTarget@@8         0000000067ddad10     AbortDlg.obj
 0002:00015d28       ??_R2CCmdTarget@@8         0000000067ddad28     AbortDlg.obj
 0002:00015d40       ??_R1A@?0A@EA@CObject@@8   0000000067ddad40     AbortDlg.obj
 0002:00015d68       ??_R3CObject@@8            0000000067ddad68     AbortDlg.obj
 0002:00015d80       ??_R2CObject@@8            0000000067ddad80     AbortDlg.obj
 0002:00015d90       ??_R4CAcqConfigDlg@@6BCDialog@@@ 0000000067ddad90     AcqConfigDlg.obj
 0002:00015db8       ??_R3CAcqConfigDlg@@8      0000000067ddadb8     AcqConfigDlg.obj
 0002:00015dd0       ??_R2CAcqConfigDlg@@8      0000000067ddadd0     AcqConfigDlg.obj
 0002:00015e08       ??_R1A@?0A@EA@CAcqConfigDlg@@8 0000000067ddae08     AcqConfigDlg.obj
 0002:00015e30       ??_R1BBI@?0A@EA@SapManager@@8 0000000067ddae30     AcqConfigDlg.obj
 0002:00015e58       ??_R3SapManager@@8         0000000067ddae58     AcqConfigDlg.obj
 0002:00015e70       ??_R2SapManager@@8         0000000067ddae70     AcqConfigDlg.obj
 0002:00015e80       ??_R1A@?0A@EA@SapManager@@8 0000000067ddae80     AcqConfigDlg.obj
 0002:00015ea8       ??_R4CAcqConfigDlg@@6BSapManager@@@ 0000000067ddaea8     AcqConfigDlg.obj
 0002:00015ed0       ??_R4CAcqDlg@@6BCDialog@@@ 0000000067ddaed0     AcqDlg.obj
 0002:00015ef8       ??_R3CAcqDlg@@8            0000000067ddaef8     AcqDlg.obj
 0002:00015f10       ??_R2CAcqDlg@@8            0000000067ddaf10     AcqDlg.obj
 0002:00015f48       ??_R1A@?0A@EA@CAcqDlg@@8   0000000067ddaf48     AcqDlg.obj
 0002:00015f70       ??_R4CAcqDlg@@6BSapManager@@@ 0000000067ddaf70     AcqDlg.obj
 0002:00015f98       ??_R4CAScanDlg@@6BCDialog@@@ 0000000067ddaf98     AScanDlg.obj
 0002:00015fc0       ??_R3CAScanDlg@@8          0000000067ddafc0     AScanDlg.obj
 0002:00015fd8       ??_R2CAScanDlg@@8          0000000067ddafd8     AScanDlg.obj
 0002:00016010       ??_R1A@?0A@EA@CAScanDlg@@8 0000000067ddb010     AScanDlg.obj
 0002:00016038       ??_R4CAScanDlg@@6BSapManager@@@ 0000000067ddb038     AScanDlg.obj
 0002:00016060       ??_R4CAviFileDlg@@6B@      0000000067ddb060     AviFileDlg.obj
 0002:00016088       ??_R3CAviFileDlg@@8        0000000067ddb088     AviFileDlg.obj
 0002:000160a0       ??_R2CAviFileDlg@@8        0000000067ddb0a0     AviFileDlg.obj
 0002:000160d0       ??_R1A@?0A@EA@CAviFileDlg@@8 0000000067ddb0d0     AviFileDlg.obj
 0002:000160f8       ??_R4CBayerOptionsDlg@@6BCDialog@@@ 0000000067ddb0f8     BayerDlg.obj
 0002:00016120       ??_R3CBayerOptionsDlg@@8   0000000067ddb120     BayerDlg.obj
 0002:00016138       ??_R2CBayerOptionsDlg@@8   0000000067ddb138     BayerDlg.obj
 0002:00016170       ??_R1A@?0A@EA@CBayerOptionsDlg@@8 0000000067ddb170     BayerDlg.obj
 0002:00016198       ??_R4CBayerOptionsDlg@@6BSapManager@@@ 0000000067ddb198     BayerDlg.obj
 0002:000161c0       ??_R4CBufDlg@@6B@          0000000067ddb1c0     BufDlg.obj
 0002:000161e8       ??_R3CBufDlg@@8            0000000067ddb1e8     BufDlg.obj
 0002:00016200       ??_R2CBufDlg@@8            0000000067ddb200     BufDlg.obj
 0002:00016230       ??_R1A@?0A@EA@CBufDlg@@8   0000000067ddb230     BufDlg.obj
 0002:00016258       ??_R4CColorConversionOptionsDlg@@6BCDialog@@@ 0000000067ddb258     ColorConversionDlg.obj
 0002:00016280       ??_R3CColorConversionOptionsDlg@@8 0000000067ddb280     ColorConversionDlg.obj
 0002:00016298       ??_R2CColorConversionOptionsDlg@@8 0000000067ddb298     ColorConversionDlg.obj
 0002:000162d0       ??_R1A@?0A@EA@CColorConversionOptionsDlg@@8 0000000067ddb2d0     ColorConversionDlg.obj
 0002:000162f8       ??_R4CColorConversionOptionsDlg@@6BSapManager@@@ 0000000067ddb2f8     ColorConversionDlg.obj
 0002:00016320       ??_R4CCompDlg@@6BCDialog@@@ 0000000067ddb320     CompDlg.obj
 0002:00016348       ??_R3CCompDlg@@8           0000000067ddb348     CompDlg.obj
 0002:00016360       ??_R2CCompDlg@@8           0000000067ddb360     CompDlg.obj
 0002:00016398       ??_R1A@?0A@EA@CCompDlg@@8  0000000067ddb398     CompDlg.obj
 0002:000163c0       ??_R4CCompDlg@@6BSapManager@@@ 0000000067ddb3c0     CompDlg.obj
 0002:000163e8       ??_R4CFlatFieldDlg@@6BCDialog@@@ 0000000067ddb3e8     FlatFieldDlg.obj
 0002:00016410       ??_R3CFlatFieldDlg@@8      0000000067ddb410     FlatFieldDlg.obj
 0002:00016428       ??_R2CFlatFieldDlg@@8      0000000067ddb428     FlatFieldDlg.obj
 0002:00016460       ??_R1A@?0A@EA@CFlatFieldDlg@@8 0000000067ddb460     FlatFieldDlg.obj
 0002:00016488       ??_R4CFlatFieldDlg@@6BSapManager@@@ 0000000067ddb488     FlatFieldDlg.obj
 0002:000164b0       ??_R4SapBuffer@@6B@        0000000067ddb4b0     FlatFieldDlg.obj
 0002:000164d8       ??_R3SapBuffer@@8          0000000067ddb4d8     FlatFieldDlg.obj
 0002:000164f0       ??_R2SapBuffer@@8          0000000067ddb4f0     FlatFieldDlg.obj
 0002:00016510       ??_R1A@?0A@EA@SapBuffer@@8 0000000067ddb510     FlatFieldDlg.obj
 0002:00016538       ??_R1A@?0A@EA@SapXferNode@@8 0000000067ddb538     FlatFieldDlg.obj
 0002:00016560       ??_R3SapXferNode@@8        0000000067ddb560     FlatFieldDlg.obj
 0002:00016578       ??_R2SapXferNode@@8        0000000067ddb578     FlatFieldDlg.obj
 0002:00016590       ??_R4CGioBidirectionalDlg@@6B@ 0000000067ddb590     GioBidirectionalDlg.obj
 0002:000165b8       ??_R3CGioBidirectionalDlg@@8 0000000067ddb5b8     GioBidirectionalDlg.obj
 0002:000165d0       ??_R2CGioBidirectionalDlg@@8 0000000067ddb5d0     GioBidirectionalDlg.obj
 0002:00016600       ??_R1A@?0A@EA@CGioBidirectionalDlg@@8 0000000067ddb600     GioBidirectionalDlg.obj
 0002:00016628       ??_R4CGioInputDlg@@6B@     0000000067ddb628     GioInputDlg.obj
 0002:00016650       ??_R3CGioInputDlg@@8       0000000067ddb650     GioInputDlg.obj
 0002:00016668       ??_R2CGioInputDlg@@8       0000000067ddb668     GioInputDlg.obj
 0002:00016698       ??_R1A@?0A@EA@CGioInputDlg@@8 0000000067ddb698     GioInputDlg.obj
 0002:000166c0       ??_R4CGioOutputDlg@@6B@    0000000067ddb6c0     GioOutputDlg.obj
 0002:000166e8       ??_R3CGioOutputDlg@@8      0000000067ddb6e8     GioOutputDlg.obj
 0002:00016700       ??_R2CGioOutputDlg@@8      0000000067ddb700     GioOutputDlg.obj
 0002:00016730       ??_R1A@?0A@EA@CGioOutputDlg@@8 0000000067ddb730     GioOutputDlg.obj
 0002:00016758       ??_R4CImageExWnd@@6BCStatic@@@ 0000000067ddb758     ImageExWnd.obj
 0002:00016780       ??_R3CImageExWnd@@8        0000000067ddb780     ImageExWnd.obj
 0002:00016798       ??_R2CImageExWnd@@8        0000000067ddb798     ImageExWnd.obj
 0002:000167d0       ??_R1A@?0A@EA@CImageExWnd@@8 0000000067ddb7d0     ImageExWnd.obj
 0002:000167f8       ??_R1A@?0A@EA@CStatic@@8   0000000067ddb7f8     ImageExWnd.obj
 0002:00016820       ??_R3CStatic@@8            0000000067ddb820     ImageExWnd.obj
 0002:00016838       ??_R2CStatic@@8            0000000067ddb838     ImageExWnd.obj
 0002:00016860       ??_R1NI@?0A@EA@CImageViewportWndEventHandler@@8 0000000067ddb860     ImageExWnd.obj
 0002:00016888       ??_R3CImageViewportWndEventHandler@@8 0000000067ddb888     ImageExWnd.obj
 0002:000168a0       ??_R2CImageViewportWndEventHandler@@8 0000000067ddb8a0     ImageExWnd.obj
 0002:000168b0       ??_R1A@?0A@EA@CImageViewportWndEventHandler@@8 0000000067ddb8b0     ImageExWnd.obj
 0002:000168d8       ??_R4CImageExWnd@@6BCImageViewportWndEventHandler@@@ 0000000067ddb8d8     ImageExWnd.obj
 0002:00016900       ??_R4CImageViewportWndEventHandler@@6B@ 0000000067ddb900     ImageExWnd.obj
 0002:00016928       ??_R4CImageFilterEditorDlg@@6B@ 0000000067ddb928     ImageFilterEditorDlg.obj
 0002:00016950       ??_R3CImageFilterEditorDlg@@8 0000000067ddb950     ImageFilterEditorDlg.obj
 0002:00016968       ??_R2CImageFilterEditorDlg@@8 0000000067ddb968     ImageFilterEditorDlg.obj
 0002:00016998       ??_R1A@?0A@EA@CImageFilterEditorDlg@@8 0000000067ddb998     ImageFilterEditorDlg.obj
 0002:000169c0       ??_R4?$basic_istringstream@DU?$char_traits@D@std@@V?$allocator@D@2@@std@@6B@ 0000000067ddb9c0     ImageFilterEditorDlg.obj
 0002:000169e8       ??_R3?$basic_istringstream@DU?$char_traits@D@std@@V?$allocator@D@2@@std@@8 0000000067ddb9e8     ImageFilterEditorDlg.obj
 0002:00016a00       ??_R2?$basic_istringstream@DU?$char_traits@D@std@@V?$allocator@D@2@@std@@8 0000000067ddba00     ImageFilterEditorDlg.obj
 0002:00016a30       ??_R1A@?0A@EA@?$basic_istringstream@DU?$char_traits@D@std@@V?$allocator@D@2@@std@@8 0000000067ddba30     ImageFilterEditorDlg.obj
 0002:00016a58       ??_R1A@?0A@EA@?$basic_istream@DU?$char_traits@D@std@@@std@@8 0000000067ddba58     ImageFilterEditorDlg.obj
 0002:00016a80       ??_R3?$basic_istream@DU?$char_traits@D@std@@@std@@8 0000000067ddba80     ImageFilterEditorDlg.obj
 0002:00016a98       ??_R2?$basic_istream@DU?$char_traits@D@std@@@std@@8 0000000067ddba98     ImageFilterEditorDlg.obj
 0002:00016ac0       ??_R1A@A@3FA@?$basic_ios@DU?$char_traits@D@std@@@std@@8 0000000067ddbac0     ImageFilterEditorDlg.obj
 0002:00016ae8       ??_R3?$basic_ios@DU?$char_traits@D@std@@@std@@8 0000000067ddbae8     ImageFilterEditorDlg.obj
 0002:00016b00       ??_R2?$basic_ios@DU?$char_traits@D@std@@@std@@8 0000000067ddbb00     ImageFilterEditorDlg.obj
 0002:00016b20       ??_R1A@?0A@EA@?$basic_ios@DU?$char_traits@D@std@@@std@@8 0000000067ddbb20     ImageFilterEditorDlg.obj
 0002:00016b48       ??_R1A@?0A@EA@ios_base@std@@8 0000000067ddbb48     ImageFilterEditorDlg.obj
 0002:00016b70       ??_R3ios_base@std@@8       0000000067ddbb70     ImageFilterEditorDlg.obj
 0002:00016b88       ??_R2ios_base@std@@8       0000000067ddbb88     ImageFilterEditorDlg.obj
 0002:00016ba0       ??_R17?0A@EA@?$_Iosb@H@std@@8 0000000067ddbba0     ImageFilterEditorDlg.obj
 0002:00016bc8       ??_R3?$_Iosb@H@std@@8      0000000067ddbbc8     ImageFilterEditorDlg.obj
 0002:00016be0       ??_R2?$_Iosb@H@std@@8      0000000067ddbbe0     ImageFilterEditorDlg.obj
 0002:00016bf0       ??_R1A@?0A@EA@?$_Iosb@H@std@@8 0000000067ddbbf0     ImageFilterEditorDlg.obj
 0002:00016c18       ??_R1A@A@3EA@ios_base@std@@8 0000000067ddbc18     ImageFilterEditorDlg.obj
 0002:00016c40       ??_R17A@3EA@?$_Iosb@H@std@@8 0000000067ddbc40     ImageFilterEditorDlg.obj
 0002:00016c68       ??_R4?$basic_stringbuf@DU?$char_traits@D@std@@V?$allocator@D@2@@std@@6B@ 0000000067ddbc68     ImageFilterEditorDlg.obj
 0002:00016c90       ??_R3?$basic_stringbuf@DU?$char_traits@D@std@@V?$allocator@D@2@@std@@8 0000000067ddbc90     ImageFilterEditorDlg.obj
 0002:00016ca8       ??_R2?$basic_stringbuf@DU?$char_traits@D@std@@V?$allocator@D@2@@std@@8 0000000067ddbca8     ImageFilterEditorDlg.obj
 0002:00016cc0       ??_R1A@?0A@EA@?$basic_stringbuf@DU?$char_traits@D@std@@V?$allocator@D@2@@std@@8 0000000067ddbcc0     ImageFilterEditorDlg.obj
 0002:00016ce8       ??_R1A@?0A@EA@?$basic_streambuf@DU?$char_traits@D@std@@@std@@8 0000000067ddbce8     ImageFilterEditorDlg.obj
 0002:00016d10       ??_R3?$basic_streambuf@DU?$char_traits@D@std@@@std@@8 0000000067ddbd10     ImageFilterEditorDlg.obj
 0002:00016d28       ??_R2?$basic_streambuf@DU?$char_traits@D@std@@@std@@8 0000000067ddbd28     ImageFilterEditorDlg.obj
 0002:00016d38       ??_R4bad_alloc@std@@6B@    0000000067ddbd38     ImageFilterEditorDlg.obj
 0002:00016d60       ??_R3bad_alloc@std@@8      0000000067ddbd60     ImageFilterEditorDlg.obj
 0002:00016d78       ??_R2bad_alloc@std@@8      0000000067ddbd78     ImageFilterEditorDlg.obj
 0002:00016d90       ??_R1A@?0A@EA@bad_alloc@std@@8 0000000067ddbd90     ImageFilterEditorDlg.obj
 0002:00016db8       ??_R1A@?0A@EA@exception@std@@8 0000000067ddbdb8     ImageFilterEditorDlg.obj
 0002:00016de0       ??_R3exception@std@@8      0000000067ddbde0     ImageFilterEditorDlg.obj
 0002:00016df8       ??_R2exception@std@@8      0000000067ddbdf8     ImageFilterEditorDlg.obj
 0002:00016e08       ??_R4CImageViewportWnd@@6B@ 0000000067ddbe08     ImageViewportWnd.obj
 0002:00016e30       ??_R3CImageViewportWnd@@8  0000000067ddbe30     ImageViewportWnd.obj
 0002:00016e48       ??_R2CImageViewportWnd@@8  0000000067ddbe48     ImageViewportWnd.obj
 0002:00016e78       ??_R1A@?0A@EA@CImageViewportWnd@@8 0000000067ddbe78     ImageViewportWnd.obj
 0002:00016ea0       ??_R4CImageWnd@@6B@        0000000067ddbea0     ImageWnd.obj
 0002:00016ec8       ??_R3CImageWnd@@8          0000000067ddbec8     ImageWnd.obj
 0002:00016ee0       ??_R2CImageWnd@@8          0000000067ddbee0     ImageWnd.obj
 0002:00016ef0       ??_R1A@?0A@EA@CImageWnd@@8 0000000067ddbef0     ImageWnd.obj
 0002:00016f18       ??_R4CSapRectTracker@@6B@  0000000067ddbf18     ImageWnd.obj
 0002:00016f40       ??_R3CSapRectTracker@@8    0000000067ddbf40     ImageWnd.obj
 0002:00016f58       ??_R2CSapRectTracker@@8    0000000067ddbf58     ImageWnd.obj
 0002:00016f70       ??_R1A@?0A@EA@CSapRectTracker@@8 0000000067ddbf70     ImageWnd.obj
 0002:00016f98       ??_R1A@?0A@EA@CRectTracker@@8 0000000067ddbf98     ImageWnd.obj
 0002:00016fc0       ??_R3CRectTracker@@8       0000000067ddbfc0     ImageWnd.obj
 0002:00016fd8       ??_R2CRectTracker@@8       0000000067ddbfd8     ImageWnd.obj
 0002:00016fe8       ??_R4CJpegFileDlg@@6B@     0000000067ddbfe8     JpegFileDlg.obj
 0002:00017010       ??_R3CJpegFileDlg@@8       0000000067ddc010     JpegFileDlg.obj
 0002:00017028       ??_R2CJpegFileDlg@@8       0000000067ddc028     JpegFileDlg.obj
 0002:00017058       ??_R1A@?0A@EA@CJpegFileDlg@@8 0000000067ddc058     JpegFileDlg.obj
 0002:00017080       ??_R4CLoadSaveDlg@@6B@     0000000067ddc080     LoadSaveDlg.obj
 0002:000170a8       ??_R3CLoadSaveDlg@@8       0000000067ddc0a8     LoadSaveDlg.obj
 0002:000170c0       ??_R2CLoadSaveDlg@@8       0000000067ddc0c0     LoadSaveDlg.obj
 0002:00017100       ??_R1A@?0A@EA@CLoadSaveDlg@@8 0000000067ddc100     LoadSaveDlg.obj
 0002:00017128       ??_R1A@?0A@EA@CFileDialog@@8 0000000067ddc128     LoadSaveDlg.obj
 0002:00017150       ??_R3CFileDialog@@8        0000000067ddc150     LoadSaveDlg.obj
 0002:00017168       ??_R2CFileDialog@@8        0000000067ddc168     LoadSaveDlg.obj
 0002:000171a0       ??_R1A@?0A@EA@CCommonDialog@@8 0000000067ddc1a0     LoadSaveDlg.obj
 0002:000171c8       ??_R3CCommonDialog@@8      0000000067ddc1c8     LoadSaveDlg.obj
 0002:000171e0       ??_R2CCommonDialog@@8      0000000067ddc1e0     LoadSaveDlg.obj
 0002:00017210       ??_R4CLScanDlg@@6BCDialog@@@ 0000000067ddc210     LScanDlg.obj
 0002:00017238       ??_R3CLScanDlg@@8          0000000067ddc238     LScanDlg.obj
 0002:00017250       ??_R2CLScanDlg@@8          0000000067ddc250     LScanDlg.obj
 0002:00017288       ??_R1A@?0A@EA@CLScanDlg@@8 0000000067ddc288     LScanDlg.obj
 0002:000172b0       ??_R4CLScanDlg@@6BSapManager@@@ 0000000067ddc2b0     LScanDlg.obj
 0002:000172d8       ??_R4CRawFileDlg@@6B@      0000000067ddc2d8     RawFileDlg.obj
 0002:00017300       ??_R3CRawFileDlg@@8        0000000067ddc300     RawFileDlg.obj
 0002:00017318       ??_R2CRawFileDlg@@8        0000000067ddc318     RawFileDlg.obj
 0002:00017348       ??_R1A@?0A@EA@CRawFileDlg@@8 0000000067ddc348     RawFileDlg.obj
 0002:00017370       ??_R4CRectTracker@@6B@     0000000067ddc370     SapClassGui.obj
 0002:00017398       ??_R4CImageExWndEventHandler@@6B@ 0000000067ddc398     SapClassGui.obj
 0002:000173c0       ??_R3CImageExWndEventHandler@@8 0000000067ddc3c0     SapClassGui.obj
 0002:000173d8       ??_R2CImageExWndEventHandler@@8 0000000067ddc3d8     SapClassGui.obj
 0002:000173f0       ??_R1A@?0A@EA@CImageExWndEventHandler@@8 0000000067ddc3f0     SapClassGui.obj
 0002:00017418       ??_R4Thank_you@Define_the_symbol__ATL_MIXED@@6B@ 0000000067ddc418     SapClassGui.obj
 0002:00017440       ??_R3Thank_you@Define_the_symbol__ATL_MIXED@@8 0000000067ddc440     SapClassGui.obj
 0002:00017458       ??_R2Thank_you@Define_the_symbol__ATL_MIXED@@8 0000000067ddc458     SapClassGui.obj
 0002:00017468       ??_R1A@?0A@EA@Thank_you@Define_the_symbol__ATL_MIXED@@8 0000000067ddc468     SapClassGui.obj
 0002:00017490       ??_R4CTiffFileDlg@@6B@     0000000067ddc490     TiffFileDlg.obj
 0002:000174b8       ??_R3CTiffFileDlg@@8       0000000067ddc4b8     TiffFileDlg.obj
 0002:000174d0       ??_R2CTiffFileDlg@@8       0000000067ddc4d0     TiffFileDlg.obj
 0002:00017500       ??_R1A@?0A@EA@CTiffFileDlg@@8 0000000067ddc500     TiffFileDlg.obj
 0002:00017528       ??_R4CViewDlg@@6B@         0000000067ddc528     ViewDlg.obj
 0002:00017550       ??_R3CViewDlg@@8           0000000067ddc550     ViewDlg.obj
 0002:00017568       ??_R2CViewDlg@@8           0000000067ddc568     ViewDlg.obj
 0002:00017598       ??_R1A@?0A@EA@CViewDlg@@8  0000000067ddc598     ViewDlg.obj
 0002:000175c0       ??_R4type_info@@6B@        0000000067ddc5c0     msvcrtd:ti_inst.obj
 0002:000175e8       ??_R3type_info@@8          0000000067ddc5e8     msvcrtd:ti_inst.obj
 0002:00017600       ??_R2type_info@@8          0000000067ddc600     msvcrtd:ti_inst.obj
 0002:00017610       ??_R1A@?0A@EA@type_info@@8 0000000067ddc610     msvcrtd:ti_inst.obj
 0002:00017638       __rtc_iaa                  0000000067ddc638     msvcrtd:_initsect_.obj
 0002:00017708       __rtc_izz                  0000000067ddc708     msvcrtd:_initsect_.obj
 0002:00017710       __rtc_taa                  0000000067ddc710     msvcrtd:_initsect_.obj
 0002:000177e0       __rtc_tzz                  0000000067ddc7e0     msvcrtd:_initsect_.obj
 0002:0001e080       _TI2?AVbad_alloc@std@@     0000000067de3080     ImageFilterEditorDlg.obj
 0002:0001e0a0       _CTA2?AVbad_alloc@std@@    0000000067de30a0     ImageFilterEditorDlg.obj
 0002:0001e0b8       _CT??_R0?AVbad_alloc@std@@@8??0bad_alloc@std@@QEAA@AEBV01@@Z24 0000000067de30b8     ImageFilterEditorDlg.obj
 0002:0001e0e0       _CT??_R0?AVexception@std@@@8??0exception@std@@QEAA@AEBV01@@Z24 0000000067de30e0     ImageFilterEditorDlg.obj
 0002:0001e108       _TI1?AVCAtlException@ATL@@ 0000000067de3108     atlsd:Externs.obj
 0002:0001e128       _CTA1?AVCAtlException@ATL@@ 0000000067de3128     atlsd:Externs.obj
 0002:0001e138       _CT??_R0?AVCAtlException@ATL@@@84 0000000067de3138     atlsd:Externs.obj
 0002:0001e160       __pobjMapEntryFirst        0000000067de3160     SapClassGui.obj
 0002:0001e168       __pobjMapEntryLast         0000000067de3168     SapClassGui.obj
 0002:0001e170       __IMPORT_DESCRIPTOR_CorApi 0000000067de3170     Corapi:CorApi.dll
 0002:0001e184       __IMPORT_DESCRIPTOR_SapClassBasic82 0000000067de3184     SapClassBasic:SapClassBasic82.dll
 0002:0001e198       __IMPORT_DESCRIPTOR_mfc100d 0000000067de3198     mfc100d:mfc100d.dll
 0002:0001e1ac       __IMPORT_DESCRIPTOR_MSVCR100D 0000000067de31ac     msvcrtd:MSVCR100D.dll
 0002:0001e1c0       __IMPORT_DESCRIPTOR_KERNEL32 0000000067de31c0     kernel32:KERNEL32.dll
 0002:0001e1d4       __IMPORT_DESCRIPTOR_USER32 0000000067de31d4     user32:USER32.dll
 0002:0001e1e8       __IMPORT_DESCRIPTOR_COMDLG32 0000000067de31e8     comdlg32:COMDLG32.dll
 0002:0001e1fc       __IMPORT_DESCRIPTOR_OLEAUT32 0000000067de31fc     oleaut32:OLEAUT32.dll
 0002:0001e210       __IMPORT_DESCRIPTOR_MSVCP100D 0000000067de3210     msvcprtd:MSVCP100D.dll
 0002:0001e224       __IMPORT_DESCRIPTOR_ADVAPI32 0000000067de3224     advapi32:ADVAPI32.dll
 0002:0001e238       __NULL_IMPORT_DESCRIPTOR   0000000067de3238     Corapi:CorApi.dll
 0003:00000010       ??_R0?AVCAbortDlg@@@8      0000000067df1010     AbortDlg.obj
 0003:00000030       ??_R0?AVCDialog@@@8        0000000067df1030     AbortDlg.obj
 0003:00000050       ??_R0?AVCWnd@@@8           0000000067df1050     AbortDlg.obj
 0003:00000070       ??_R0?AVCCmdTarget@@@8     0000000067df1070     AbortDlg.obj
 0003:00000098       ??_R0?AVCObject@@@8        0000000067df1098     AbortDlg.obj
 0003:000000f8       ??_R0?AVCAcqConfigDlg@@@8  0000000067df10f8     AcqConfigDlg.obj
 0003:00000120       ??_R0?AVSapManager@@@8     0000000067df1120     AcqConfigDlg.obj
 0003:00000158       ??_R0?AVCAcqDlg@@@8        0000000067df1158     AcqDlg.obj
 0003:00000188       ??_R0?AVCAScanDlg@@@8      0000000067df1188     AScanDlg.obj
 0003:000001b8       ??_R0?AVCAviFileDlg@@@8    0000000067df11b8     AviFileDlg.obj
 0003:000001f0       ?m_AlignValues@CBayerOptionsDlg@@0PAHA 0000000067df11f0     BayerDlg.obj
 0003:00000200       ?m_MethodValues@CBayerOptionsDlg@@0PAHA 0000000067df1200     BayerDlg.obj
 0003:00000218       ??_R0?AVCBayerOptionsDlg@@@8 0000000067df1218     BayerDlg.obj
 0003:00000250       ?m_FormatInfo@CBufDlg@@1PAVSapFormatInfo@@A 0000000067df1250     BufDlg.obj
 0003:00000440       ??_R0?AVCBufDlg@@@8        0000000067df1440     BufDlg.obj
 0003:00000478       ?m_Aligns@CColorConversionOptionsDlg@@0PAHA 0000000067df1478     ColorConversionDlg.obj
 0003:00000490       ??_R0?AVCColorConversionOptionsDlg@@@8 0000000067df1490     ColorConversionDlg.obj
 0003:000004d8       ??_R0?AVCCompDlg@@@8       0000000067df14d8     CompDlg.obj
 0003:00000510       ??_R0?AVCFlatFieldDlg@@@8  0000000067df1510     FlatFieldDlg.obj
 0003:00000538       ??_R0?AVSapBuffer@@@8      0000000067df1538     FlatFieldDlg.obj
 0003:00000558       ??_R0?AVSapXferNode@@@8    0000000067df1558     FlatFieldDlg.obj
 0003:00000598       ??_R0?AVCGioBidirectionalDlg@@@8 0000000067df1598     GioBidirectionalDlg.obj
 0003:000005d8       ??_R0?AVCGioInputDlg@@@8   0000000067df15d8     GioInputDlg.obj
 0003:00000618       ??_R0?AVCGioOutputDlg@@@8  0000000067df1618     GioOutputDlg.obj
 0003:00000640       ??_R0?AVCImageExWnd@@@8    0000000067df1640     ImageExWnd.obj
 0003:00000668       ??_R0?AVCStatic@@@8        0000000067df1668     ImageExWnd.obj
 0003:00000688       ??_R0?AVCImageViewportWndEventHandler@@@8 0000000067df1688     ImageExWnd.obj
 0003:000006c0       ??_R0?AVCImageFilterEditorDlg@@@8 0000000067df16c0     ImageFilterEditorDlg.obj
 0003:000006f0       ??_R0?AV?$basic_istringstream@DU?$char_traits@D@std@@V?$allocator@D@2@@std@@@8 0000000067df16f0     ImageFilterEditorDlg.obj
 0003:00000750       ??_R0?AV?$basic_istream@DU?$char_traits@D@std@@@std@@@8 0000000067df1750     ImageFilterEditorDlg.obj
 0003:00000798       ??_R0?AV?$basic_ios@DU?$char_traits@D@std@@@std@@@8 0000000067df1798     ImageFilterEditorDlg.obj
 0003:000007d8       ??_R0?AVios_base@std@@@8   0000000067df17d8     ImageFilterEditorDlg.obj
 0003:00000800       ??_R0?AV?$_Iosb@H@std@@@8  0000000067df1800     ImageFilterEditorDlg.obj
 0003:00000830       ??_R0?AV?$basic_stringbuf@DU?$char_traits@D@std@@V?$allocator@D@2@@std@@@8 0000000067df1830     ImageFilterEditorDlg.obj
 0003:00000890       ??_R0?AV?$basic_streambuf@DU?$char_traits@D@std@@@std@@@8 0000000067df1890     ImageFilterEditorDlg.obj
 0003:000008d8       ??_R0?AVbad_alloc@std@@@8  0000000067df18d8     ImageFilterEditorDlg.obj
 0003:00000900       ??_R0?AVexception@std@@@8  0000000067df1900     ImageFilterEditorDlg.obj
 0003:00000928       ??_R0?AVCImageViewportWnd@@@8 0000000067df1928     ImageViewportWnd.obj
 0003:00000950       ??_R0?AVCImageWnd@@@8      0000000067df1950     ImageWnd.obj
 0003:00000970       ??_R0?AVCSapRectTracker@@@8 0000000067df1970     ImageWnd.obj
 0003:00000998       ??_R0?AVCRectTracker@@@8   0000000067df1998     ImageWnd.obj
 0003:000009bc       ?_dwStockPropMask@CJpegFileDlg@@0KA 0000000067df19bc     JpegFileDlg.obj
 0003:000009c0       ?_dispatchEntryCount@CJpegFileDlg@@0IA 0000000067df19c0     JpegFileDlg.obj
 0003:000009d8       ??_R0?AVCJpegFileDlg@@@8   0000000067df19d8     JpegFileDlg.obj
 0003:00000a10       ?m_TiffCompressionTypes@CLoadSaveDlg@@1PAPEADA 0000000067df1a10     LoadSaveDlg.obj
 0003:00000a30       ?m_StandardTypes@CLoadSaveDlg@@1PAHA 0000000067df1a30     LoadSaveDlg.obj
 0003:00000a44       ?m_SequenceTypes@CLoadSaveDlg@@1PAHA 0000000067df1a44     LoadSaveDlg.obj
 0003:00000a48       ?m_StandardExtensions@CLoadSaveDlg@@1PAY04DA 0000000067df1a48     LoadSaveDlg.obj
 0003:00000a70       ?m_ConversionTable@CLoadSaveDlg@@1PAUCONVERSION_TABLE@@A 0000000067df1a70     LoadSaveDlg.obj
 0003:00000f40       ??_R0?AVCLoadSaveDlg@@@8   0000000067df1f40     LoadSaveDlg.obj
 0003:00000f68       ??_R0?AVCFileDialog@@@8    0000000067df1f68     LoadSaveDlg.obj
 0003:00000f90       ??_R0?AVCCommonDialog@@@8  0000000067df1f90     LoadSaveDlg.obj
 0003:00000fc8       ??_R0?AVCLScanDlg@@@8      0000000067df1fc8     LScanDlg.obj
 0003:00001000       ?m_FormatInfo@CRawFileDlg@@1PAVSapFormatInfo@@A 0000000067df2000     RawFileDlg.obj
 0003:000011f0       ??_R0?AVCRawFileDlg@@@8    0000000067df21f0     RawFileDlg.obj
 0003:00001218       _pIncludeInitManaged       0000000067df2218     SapClassGui.obj
 0003:00001230       ??_R0?AVCImageExWndEventHandler@@@8 0000000067df2230     SapClassGui.obj
 0003:00001260       ??_R0?AUThank_you@Define_the_symbol__ATL_MIXED@@@8 0000000067df2260     SapClassGui.obj
 0003:000012b0       ??_R0?AVCTiffFileDlg@@@8   0000000067df22b0     TiffFileDlg.obj
 0003:000012e8       ??_R0?AVCViewDlg@@@8       0000000067df22e8     ViewDlg.obj
 0003:00001308       ??_R0?AVtype_info@@@8      0000000067df2308     msvcrtd:ti_inst.obj
 0003:00001328       __security_cookie          0000000067df2328     msvcrtd:gs_cookie.obj
 0003:00001330       __security_cookie_complement 0000000067df2330     msvcrtd:gs_cookie.obj
 0003:00001340       _fltused                   0000000067df2340     msvcrtd:dllsupp.obj
 0003:00001348       ?_RTC_ErrorLevels@@3PAHA   0000000067df2348     msvcrtd:_error_.obj
 0003:0000135c       __native_dllmain_reason    0000000067df235c     msvcrtd:natstart.obj
 0003:00001360       __native_vcclrit_reason    0000000067df2360     msvcrtd:natstart.obj
 0003:00001368       ?g_pszUpdateEventName@@3PEBDEB 0000000067df2368     atlsd:Externs.obj
 0003:00001370       ?g_pszAllocFileMapName@@3PEBDEB 0000000067df2370     atlsd:Externs.obj
 0003:00001378       ?g_pszKernelObjFmt@@3PEBDEB 0000000067df2378     atlsd:Externs.obj
 0003:00001380       ??_R0?AVCAtlException@ATL@@@8 0000000067df2380     atlsd:Externs.obj
 0003:000013b0       ?m_Methods@CColorConversionOptionsDlg@@0PAUSapColorConversionMethodDictionary@@A 0000000067df23b0     ColorConversionDlg.obj
 0003:00001438       ?_pAtlAutoThreadModule@ATL@@3PEAUIAtlAutoThreadModule@1@EA 0000000067df2438     SapClassGui.obj
 0003:00001440       __@@_PchSym_@00@UkiltiznLurovhUgvovwbmvLwzohzUhzkvizUxozhhvhUtfrUwvyftGEOmvgPCABAUhzkxozhhtfrOlyq@ 0000000067df2440     SapClassGui.obj
 0003:00001444       __afxForceEXTDLL           0000000067df2444     SapClassGui.obj
 0003:00001470       ?s_pfnPrevHook@CNoUIAssertHook@ATL@@0P6AHHPEADPEAH@ZEA 0000000067df2470     SapClassGui.obj
 0003:00001478       ?m_bInitFailed@CAtlBaseModule@ATL@@2_NA 0000000067df2478     SapClassGui.obj
 0003:00001480       ?s_pLog@CFixedStringMgr@ATL@@2PEAVIFixedStringLog@2@EA 0000000067df2480     SapClassGui.obj
 0003:00001488       ?_pPerfRegFunc@ATL@@3P6AJPEAUHINSTANCE__@@@ZEA 0000000067df2488     SapClassGui.obj
 0003:00001490       ?_pPerfUnRegFunc@ATL@@3P6AJXZEA 0000000067df2490     SapClassGui.obj
 0003:00001498       ?_AtlRegisterPerUser@ATL@@3_NA 0000000067df2498     SapClassGui.obj
 0003:000014a0       ?_pAtlModule@ATL@@3PEAVCAtlModule@1@EA 0000000067df24a0     SapClassGui.obj
 0003:000014a8       ?m_libid@CAtlModule@ATL@@2U_GUID@@A 0000000067df24a8     SapClassGui.obj
 0003:000014b8       ?_pModule@ATL@@3PEAVCComModule@1@EA 0000000067df24b8     SapClassGui.obj
 0003:000014c0       ?ATL_CREATE_OBJECT@CComApartment@ATL@@2IA 0000000067df24c0     SapClassGui.obj
 0003:000014c8       ?clash@Define_the_symbol__ATL_MIXED@@3UThank_you@1@A 0000000067df24c8     SapClassGui.obj
 0003:000014d0       ?clash@Inconsistent_definition_of_symbol__ATL_MIXED@@3U_Please_define_it_the_same_throughout_your_project@1@A 0000000067df24d0     SapClassGui.obj
 0003:000014d4       __afxForceEXCLUDE          0000000067df24d4     mfcs100d:nolib.obj
 0003:000014d8       ?WM_DESTROYMODELESS@CDHtmlDialog@@1IA 0000000067df24d8     mfcs100d:nolib.obj
 0003:000014dc       __afxForceSTDAFX           0000000067df24dc     mfcs100d:stdafx.obj
 0003:00001a70       ?wsprintffp@@3P6AHPEADPEBDZZEA 0000000067df2a70     msvcrtd:_error_.obj
 0003:00001a78       ?__type_info_root_node@@3U__type_info_node@@A 0000000067df2a78     msvcrtd:tncleanup.obj
 0003:00001aa0       ?g_Allocator@@3VCAtlAllocator@@A 0000000067df2aa0     atlsd:Externs.obj
 0003:00001af8       ?s_trace@CTrace@ATL@@2V12@A 0000000067df2af8     atlsd:Externs.obj
 0003:00001b08       ?atlTraceGeneral@ATL@@3VCTraceCategory@1@A 0000000067df2b08     atlsd:atltrace.obj
 0003:00001b10       ?atlTraceCOM@ATL@@3VCTraceCategory@1@A 0000000067df2b10     atlsd:atltrace.obj
 0003:00001b18       ?atlTraceQI@ATL@@3VCTraceCategory@1@A 0000000067df2b18     atlsd:atltrace.obj
 0003:00001b20       ?atlTraceRegistrar@ATL@@3VCTraceCategory@1@A 0000000067df2b20     atlsd:atltrace.obj
 0003:00001b28       ?atlTraceRefcount@ATL@@3VCTraceCategory@1@A 0000000067df2b28     atlsd:atltrace.obj
 0003:00001b30       ?atlTraceWindowing@ATL@@3VCTraceCategory@1@A 0000000067df2b30     atlsd:atltrace.obj
 0003:00001b38       ?atlTraceControls@ATL@@3VCTraceCategory@1@A 0000000067df2b38     atlsd:atltrace.obj
 0003:00001b40       ?atlTraceHosting@ATL@@3VCTraceCategory@1@A 0000000067df2b40     atlsd:atltrace.obj
 0003:00001b48       ?atlTraceDBClient@ATL@@3VCTraceCategory@1@A 0000000067df2b48     atlsd:atltrace.obj
 0003:00001b50       ?atlTraceDBProvider@ATL@@3VCTraceCategory@1@A 0000000067df2b50     atlsd:atltrace.obj
 0003:00001b58       ?atlTraceSnapin@ATL@@3VCTraceCategory@1@A 0000000067df2b58     atlsd:atltrace.obj
 0003:00001b60       ?atlTraceNotImpl@ATL@@3VCTraceCategory@1@A 0000000067df2b60     atlsd:atltrace.obj
 0003:00001b68       ?atlTraceAllocation@ATL@@3VCTraceCategory@1@A 0000000067df2b68     atlsd:atltrace.obj
 0003:00001b70       ?atlTraceException@ATL@@3VCTraceCategory@1@A 0000000067df2b70     atlsd:atltrace.obj
 0003:00001b78       ?atlTraceTime@ATL@@3VCTraceCategory@1@A 0000000067df2b78     atlsd:atltrace.obj
 0003:00001b80       ?atlTraceCache@ATL@@3VCTraceCategory@1@A 0000000067df2b80     atlsd:atltrace.obj
 0003:00001b88       ?atlTraceStencil@ATL@@3VCTraceCategory@1@A 0000000067df2b88     atlsd:atltrace.obj
 0003:00001b90       ?atlTraceString@ATL@@3VCTraceCategory@1@A 0000000067df2b90     atlsd:atltrace.obj
 0003:00001b98       ?atlTraceMap@ATL@@3VCTraceCategory@1@A 0000000067df2b98     atlsd:atltrace.obj
 0003:00001ba0       ?atlTraceUtil@ATL@@3VCTraceCategory@1@A 0000000067df2ba0     atlsd:atltrace.obj
 0003:00001ba8       ?atlTraceSecurity@ATL@@3VCTraceCategory@1@A 0000000067df2ba8     atlsd:atltrace.obj
 0003:00001bb0       ?atlTraceSync@ATL@@3VCTraceCategory@1@A 0000000067df2bb0     atlsd:atltrace.obj
 0003:00001bb8       ?atlTraceISAPI@ATL@@3VCTraceCategory@1@A 0000000067df2bb8     atlsd:atltrace.obj
 0003:00001bc0       ?atlTraceUser@ATL@@3VCTraceCategory@1@A 0000000067df2bc0     atlsd:atltrace.obj
 0003:00001bc8       ?atlTraceUser2@ATL@@3VCTraceCategory@1@A 0000000067df2bc8     atlsd:atltrace.obj
 0003:00001bd0       ?atlTraceUser3@ATL@@3VCTraceCategory@1@A 0000000067df2bd0     atlsd:atltrace.obj
 0003:00001bd8       ?atlTraceUser4@ATL@@3VCTraceCategory@1@A 0000000067df2bd8     atlsd:atltrace.obj
 0003:00001be0       __native_startup_state     0000000067df2be0     <common>
 0003:00001be8       __native_startup_lock      0000000067df2be8     <common>
 0003:00001bf0       __dyn_tls_init_callback    0000000067df2bf0     <common>
 0003:00001bf8       __onexitend                0000000067df2bf8     <common>
 0003:00001c00       __onexitbegin              0000000067df2c00     <common>

 entry point at        0001:00035b90

 Static symbols

 0001:fffff000       ?dtor$0@?0???1CGioOutputDlg@@UEAA@XZ@4HA 0000000067d80000 f   SapClassGui.obj
 0001:fffff000       ?dtor$0@?0???1CLScanDlg@@UEAA@XZ@4HA 0000000067d80000 f   SapClassGui.obj
 0001:fffff000       ?dtor$0@?0???1CRawFileDlg@@UEAA@XZ@4HA 0000000067d80000 f   RawFileDlg.obj
 0001:fffff000       ?dtor$0@?0???1CAScanDlg@@UEAA@XZ@4HA 0000000067d80000 f   SapClassGui.obj
 0001:fffff000       ?dtor$0@?0???1CCompDlg@@UEAA@XZ@4HA 0000000067d80000 f   SapClassGui.obj
 0001:fffff000       ?dtor$0@?0???1CAcqDlg@@UEAA@XZ@4HA 0000000067d80000 f   SapClassGui.obj
 0001:fffff000       ?dtor$0@?0???1CAcqConfigDlg@@UEAA@XZ@4HA 0000000067d80000 f   SapClassGui.obj
 0001:fffff000       ?dtor$0@?0???HATL@@YA?AV?$CStringT@DV?$StrTraitMFC_DLL@DV?$ChTraitsCRT@D@ATL@@@@@0@AEBV10@0@Z@4HA 0000000067d80000 f   BrowseDirDlg.obj
 0001:fffff000       ?dtor$0@?0???1CGioInputDlg@@UEAA@XZ@4HA 0000000067d80000 f   SapClassGui.obj
 0001:fffff000       ?dtor$0@?0???1CGioBidirectionalDlg@@UEAA@XZ@4HA 0000000067d80000 f   SapClassGui.obj
 0001:fffff000       ?dtor$0@?0???HATL@@YA?AV?$CStringT@DV?$StrTraitMFC_DLL@DV?$ChTraitsCRT@D@ATL@@@@@0@AEBV10@0@Z@4HA 0000000067d80000 f   ViewDlg.obj
 0001:fffff000       ?dtor$0@?0???1CViewDlg@@UEAA@XZ@4HA 0000000067d80000 f   ViewDlg.obj
 0001:fffff000       ?dtor$0@?0???1CBufDlg@@UEAA@XZ@4HA 0000000067d80000 f   SapClassGui.obj
 0001:fffff030       ?dtor$1@?0???1CGioOutputDlg@@UEAA@XZ@4HA 0000000067d80030 f   SapClassGui.obj
 0001:fffff030       ?dtor$1@?0???1CLScanDlg@@UEAA@XZ@4HA 0000000067d80030 f   SapClassGui.obj
 0001:fffff030       ?dtor$1@?0???1CGioInputDlg@@UEAA@XZ@4HA 0000000067d80030 f   SapClassGui.obj
 0001:fffff030       ?dtor$1@?0???1CGioBidirectionalDlg@@UEAA@XZ@4HA 0000000067d80030 f   SapClassGui.obj
 0001:fffff030       ?dtor$1@?0???1CBufDlg@@UEAA@XZ@4HA 0000000067d80030 f   SapClassGui.obj
 0001:fffff030       ?dtor$1@?0???1CAcqConfigDlg@@UEAA@XZ@4HA 0000000067d80030 f   SapClassGui.obj
 0001:fffff030       ?dtor$1@?0???1CCompDlg@@UEAA@XZ@4HA 0000000067d80030 f   SapClassGui.obj
 0001:fffff030       ?dtor$1@?0???1CAScanDlg@@UEAA@XZ@4HA 0000000067d80030 f   SapClassGui.obj
 0001:fffff030       ?dtor$1@?0???1CViewDlg@@UEAA@XZ@4HA 0000000067d80030 f   ViewDlg.obj
 0001:fffff060       ?dtor$2@?0???1CAScanDlg@@UEAA@XZ@4HA 0000000067d80060 f   SapClassGui.obj
 0001:fffff060       ?dtor$2@?0???1CLScanDlg@@UEAA@XZ@4HA 0000000067d80060 f   SapClassGui.obj
 0001:fffff060       ?dtor$2@?0???1CBufDlg@@UEAA@XZ@4HA 0000000067d80060 f   SapClassGui.obj
 0001:fffff060       ?dtor$2@?0???1CGioBidirectionalDlg@@UEAA@XZ@4HA 0000000067d80060 f   SapClassGui.obj
 0001:fffff060       ?dtor$2@?0???1CCompDlg@@UEAA@XZ@4HA 0000000067d80060 f   SapClassGui.obj
 0001:fffff060       ?dtor$2@?0???1CGioInputDlg@@UEAA@XZ@4HA 0000000067d80060 f   SapClassGui.obj
 0001:fffff060       ?dtor$2@?0???1CGioOutputDlg@@UEAA@XZ@4HA 0000000067d80060 f   SapClassGui.obj
 0001:fffff060       ?dtor$2@?0???1CViewDlg@@UEAA@XZ@4HA 0000000067d80060 f   ViewDlg.obj
 0001:fffff060       ?dtor$2@?0???1CAcqConfigDlg@@UEAA@XZ@4HA 0000000067d80060 f   SapClassGui.obj
 0001:fffff090       ?dtor$3@?0???1CGioInputDlg@@UEAA@XZ@4HA 0000000067d80090 f   SapClassGui.obj
 0001:fffff090       ?dtor$3@?0???1CGioOutputDlg@@UEAA@XZ@4HA 0000000067d80090 f   SapClassGui.obj
 0001:fffff090       ?dtor$3@?0???1CGioBidirectionalDlg@@UEAA@XZ@4HA 0000000067d80090 f   SapClassGui.obj
 0001:fffff090       ?dtor$3@?0???1CAcqConfigDlg@@UEAA@XZ@4HA 0000000067d80090 f   SapClassGui.obj
 0001:fffff090       ?dtor$3@?0???1CCompDlg@@UEAA@XZ@4HA 0000000067d80090 f   SapClassGui.obj
 0001:fffff090       ?dtor$3@?0???1CViewDlg@@UEAA@XZ@4HA 0000000067d80090 f   ViewDlg.obj
 0001:fffff0c0       ?dtor$4@?0???1CGioOutputDlg@@UEAA@XZ@4HA 0000000067d800c0 f   SapClassGui.obj
 0001:fffff0c0       ?dtor$4@?0???1CCompDlg@@UEAA@XZ@4HA 0000000067d800c0 f   SapClassGui.obj
 0001:fffff0c0       ?dtor$4@?0???1CViewDlg@@UEAA@XZ@4HA 0000000067d800c0 f   ViewDlg.obj
 0001:fffff0c0       ?dtor$4@?0???1CAcqConfigDlg@@UEAA@XZ@4HA 0000000067d800c0 f   SapClassGui.obj
 0001:fffff0f0       ?dtor$5@?0???1CGioOutputDlg@@UEAA@XZ@4HA 0000000067d800f0 f   SapClassGui.obj
 0001:fffff0f0       ?dtor$5@?0???1CAcqConfigDlg@@UEAA@XZ@4HA 0000000067d800f0 f   SapClassGui.obj
 0001:fffff0f0       ?dtor$5@?0???1CCompDlg@@UEAA@XZ@4HA 0000000067d800f0 f   SapClassGui.obj
 0001:fffff120       ?dtor$6@?0???1CAcqConfigDlg@@UEAA@XZ@4HA 0000000067d80120 f   SapClassGui.obj
 0001:00003080       ?StringValidateDestA@@YAJPEBD_K_K@Z 0000000067d84080 f   AcqConfigDlg.obj
 0001:000030e0       ?StringCopyWorkerA@@YAJPEAD_KPEA_KPEBD1@Z 0000000067d840e0 f   AcqConfigDlg.obj
 0001:000031e0       ?StringVPrintfWorkerA@@YAJPEAD_KPEA_KPEBD0@Z 0000000067d841e0 f   AcqConfigDlg.obj
 0001:000048c0       ?StringValidateDestA@@YAJPEBD_K_K@Z 0000000067d858c0 f   AcqDlg.obj
 0001:00004920       ?StringVPrintfWorkerA@@YAJPEAD_KPEA_KPEBD0@Z 0000000067d85920 f   AcqDlg.obj
 0001:00006770       ?StringValidateDestA@@YAJPEBD_K_K@Z 0000000067d87770 f   AScanDlg.obj
 0001:000067d0       ?StringVPrintfWorkerA@@YAJPEAD_KPEA_KPEBD0@Z 0000000067d877d0 f   AScanDlg.obj
 0001:00008800       ?StringValidateDestA@@YAJPEBD_K_K@Z 0000000067d89800 f   BrowseDirDlg.obj
 0001:00008860       ?StringCopyWorkerA@@YAJPEAD_KPEA_KPEBD1@Z 0000000067d89860 f   BrowseDirDlg.obj
 0001:000165d0       ?StringValidateDestAndLengthA@@YAJPEBD_KPEA_K_K@Z 0000000067d975d0 f   GioBidirectionalDlg.obj
 0001:00016660       ?StringLengthWorkerA@@YAJPEBD_KPEA_K@Z 0000000067d97660 f   GioBidirectionalDlg.obj
 0001:00016720       ?StringValidateDestA@@YAJPEBD_K_K@Z 0000000067d97720 f   GioBidirectionalDlg.obj
 0001:00016780       ?StringCopyWorkerA@@YAJPEAD_KPEA_KPEBD1@Z 0000000067d97780 f   GioBidirectionalDlg.obj
 0001:000183f0       ?StringValidateDestAndLengthA@@YAJPEBD_KPEA_K_K@Z 0000000067d993f0 f   GioInputDlg.obj
 0001:00018480       ?StringLengthWorkerA@@YAJPEBD_KPEA_K@Z 0000000067d99480 f   GioInputDlg.obj
 0001:00018540       ?StringValidateDestA@@YAJPEBD_K_K@Z 0000000067d99540 f   GioInputDlg.obj
 0001:000185a0       ?StringCopyWorkerA@@YAJPEAD_KPEA_KPEBD1@Z 0000000067d995a0 f   GioInputDlg.obj
 0001:0001a830       ?StringValidateDestAndLengthA@@YAJPEBD_KPEA_K_K@Z 0000000067d9b830 f   GioOutputDlg.obj
 0001:0001a8c0       ?StringLengthWorkerA@@YAJPEBD_KPEA_K@Z 0000000067d9b8c0 f   GioOutputDlg.obj
 0001:0001a980       ?StringValidateDestA@@YAJPEBD_K_K@Z 0000000067d9b980 f   GioOutputDlg.obj
 0001:0001a9e0       ?StringCopyWorkerA@@YAJPEAD_KPEA_KPEBD1@Z 0000000067d9b9e0 f   GioOutputDlg.obj
 0001:0001eb90       ?ConvertKernelSizeToInt@@YAHW4ImageFilterKernelSize@SapAcquisition@@@Z 0000000067d9fb90 f   ImageFilterEditorDlg.obj
 0001:0002d2c0       ?StringValidateDestA@@YAJPEBD_K_K@Z 0000000067dae2c0 f   LoadSaveDlg.obj
 0001:0002d320       ?StringCopyWorkerA@@YAJPEAD_KPEA_KPEBD1@Z 0000000067dae320 f   LoadSaveDlg.obj
 0001:00030220       ?StringValidateDestA@@YAJPEBD_K_K@Z 0000000067db1220 f   LScanDlg.obj
 0001:00030280       ?StringVPrintfWorkerA@@YAJPEAD_KPEA_KPEBD0@Z 0000000067db1280 f   LScanDlg.obj
 0001:00035110       ?ArrayUnwindFilter@@YAHPEAU_EXCEPTION_POINTERS@@@Z 0000000067db6110 f   msvcrtd:ehvecdtr.obj
 0001:00035730       pre_c_init                 0000000067db6730 f   msvcrtd:crtdll.obj
 0001:00035bd0       __DllMainCRTStartup        0000000067db6bd0 f   msvcrtd:crtdll.obj
 0001:00035fc0       ?failwithmessage@@YAXPEAXHHPEBD@Z 0000000067db6fc0 f   msvcrtd:_error_.obj
 0001:00036220       ?DebuggerProbe@@YAHK@Z     0000000067db7220 f   msvcrtd:_error_.obj
 0001:00036270       ?DebuggerRuntime@@YAHKHPEAXPEB_W@Z 0000000067db7270 f   msvcrtd:_error_.obj
 0001:00036570       ?_getMemBlockDataString@@YAXPEAD00_K@Z 0000000067db7570 f   msvcrtd:_error_.obj
 0001:00036e70       ?GetPdbDll@@YAPEAUHINSTANCE__@@XZ 0000000067db7e70 f   msvcrtd:_pdblkup_.obj
 0001:00038e10       ?Init@@YA_NXZ              0000000067db9e10 f   atlsd:Externs.obj
 0001:0003b1c0       ?ShouldTraceOutput@ATL@@YA_N_K0IPEAPEBVCAtlTraceCategory@@PEAP6AHHPEBDH22ZZ@Z 0000000067dbc1c0 f   atlsd:AtlDebugAPI.obj
 0001:0003de10       ?dtor$0@?0???0CAcqConfigDlg@@QEAA@PEAVCWnd@@W4ServerCategory@0@@Z@4HA 0000000067dbee10 f   AcqConfigDlg.obj
 0001:0003de40       ?dtor$1@?0???0CAcqConfigDlg@@QEAA@PEAVCWnd@@W4ServerCategory@0@@Z@4HA 0000000067dbee40 f   AcqConfigDlg.obj
 0001:0003de70       ?dtor$2@?0???0CAcqConfigDlg@@QEAA@PEAVCWnd@@W4ServerCategory@0@@Z@4HA 0000000067dbee70 f   AcqConfigDlg.obj
 0001:0003dea0       ?dtor$3@?0???0CAcqConfigDlg@@QEAA@PEAVCWnd@@W4ServerCategory@0@@Z@4HA 0000000067dbeea0 f   AcqConfigDlg.obj
 0001:0003ded0       ?dtor$4@?0???0CAcqConfigDlg@@QEAA@PEAVCWnd@@W4ServerCategory@0@@Z@4HA 0000000067dbeed0 f   AcqConfigDlg.obj
 0001:0003df00       ?dtor$5@?0???0CAcqConfigDlg@@QEAA@PEAVCWnd@@W4ServerCategory@0@@Z@4HA 0000000067dbef00 f   AcqConfigDlg.obj
 0001:0003df30       ?dtor$6@?0???0CAcqConfigDlg@@QEAA@PEAVCWnd@@W4ServerCategory@0@@Z@4HA 0000000067dbef30 f   AcqConfigDlg.obj
 0001:0003df60       ?dtor$8@?0???0CAcqConfigDlg@@QEAA@PEAVCWnd@@W4ServerCategory@0@@Z@4HA 0000000067dbef60 f   AcqConfigDlg.obj
 0001:0003df90       ?dtor$9@?0???0CAcqConfigDlg@@QEAA@PEAVCWnd@@W4ServerCategory@0@@Z@4HA 0000000067dbef90 f   AcqConfigDlg.obj
 0001:0003dfc0       ?dtor$10@?0???0CAcqConfigDlg@@QEAA@PEAVCWnd@@W4ServerCategory@0@@Z@4HA 0000000067dbefc0 f   AcqConfigDlg.obj
 0001:0003e000       ?dtor$0@?0???0CAcqConfigDlg@@QEAA@PEAVCWnd@@VSapLocation@@PEBDW4ServerCategory@0@@Z@4HA 0000000067dbf000 f   AcqConfigDlg.obj
 0001:0003e030       ?dtor$1@?0???0CAcqConfigDlg@@QEAA@PEAVCWnd@@VSapLocation@@PEBDW4ServerCategory@0@@Z@4HA 0000000067dbf030 f   AcqConfigDlg.obj
 0001:0003e060       ?dtor$2@?0???0CAcqConfigDlg@@QEAA@PEAVCWnd@@VSapLocation@@PEBDW4ServerCategory@0@@Z@4HA 0000000067dbf060 f   AcqConfigDlg.obj
 0001:0003e090       ?dtor$3@?0???0CAcqConfigDlg@@QEAA@PEAVCWnd@@VSapLocation@@PEBDW4ServerCategory@0@@Z@4HA 0000000067dbf090 f   AcqConfigDlg.obj
 0001:0003e0c0       ?dtor$4@?0???0CAcqConfigDlg@@QEAA@PEAVCWnd@@VSapLocation@@PEBDW4ServerCategory@0@@Z@4HA 0000000067dbf0c0 f   AcqConfigDlg.obj
 0001:0003e0f0       ?dtor$5@?0???0CAcqConfigDlg@@QEAA@PEAVCWnd@@VSapLocation@@PEBDW4ServerCategory@0@@Z@4HA 0000000067dbf0f0 f   AcqConfigDlg.obj
 0001:0003e120       ?dtor$6@?0???0CAcqConfigDlg@@QEAA@PEAVCWnd@@VSapLocation@@PEBDW4ServerCategory@0@@Z@4HA 0000000067dbf120 f   AcqConfigDlg.obj
 0001:0003e150       ?dtor$7@?0???0CAcqConfigDlg@@QEAA@PEAVCWnd@@VSapLocation@@PEBDW4ServerCategory@0@@Z@4HA 0000000067dbf150 f   AcqConfigDlg.obj
 0001:0003e180       ?dtor$9@?0???0CAcqConfigDlg@@QEAA@PEAVCWnd@@VSapLocation@@PEBDW4ServerCategory@0@@Z@4HA 0000000067dbf180 f   AcqConfigDlg.obj
 0001:0003e1b0       ?dtor$10@?0???0CAcqConfigDlg@@QEAA@PEAVCWnd@@VSapLocation@@PEBDW4ServerCategory@0@@Z@4HA 0000000067dbf1b0 f   AcqConfigDlg.obj
 0001:0003e1e0       ?dtor$11@?0???0CAcqConfigDlg@@QEAA@PEAVCWnd@@VSapLocation@@PEBDW4ServerCategory@0@@Z@4HA 0000000067dbf1e0 f   AcqConfigDlg.obj
 0001:0003e210       ?dtor$13@?0???0CAcqConfigDlg@@QEAA@PEAVCWnd@@VSapLocation@@PEBDW4ServerCategory@0@@Z@4HA 0000000067dbf210 f   AcqConfigDlg.obj
 0001:0003e240       ?dtor$0@?0???0CAcqConfigDlg@@QEAA@PEAVCWnd@@PEAVSapAcquisition@@PEBD@Z@4HA 0000000067dbf240 f   AcqConfigDlg.obj
 0001:0003e270       ?dtor$1@?0???0CAcqConfigDlg@@QEAA@PEAVCWnd@@PEAVSapAcquisition@@PEBD@Z@4HA 0000000067dbf270 f   AcqConfigDlg.obj
 0001:0003e2a0       ?dtor$2@?0???0CAcqConfigDlg@@QEAA@PEAVCWnd@@PEAVSapAcquisition@@PEBD@Z@4HA 0000000067dbf2a0 f   AcqConfigDlg.obj
 0001:0003e2d0       ?dtor$3@?0???0CAcqConfigDlg@@QEAA@PEAVCWnd@@PEAVSapAcquisition@@PEBD@Z@4HA 0000000067dbf2d0 f   AcqConfigDlg.obj
 0001:0003e300       ?dtor$4@?0???0CAcqConfigDlg@@QEAA@PEAVCWnd@@PEAVSapAcquisition@@PEBD@Z@4HA 0000000067dbf300 f   AcqConfigDlg.obj
 0001:0003e330       ?dtor$5@?0???0CAcqConfigDlg@@QEAA@PEAVCWnd@@PEAVSapAcquisition@@PEBD@Z@4HA 0000000067dbf330 f   AcqConfigDlg.obj
 0001:0003e360       ?dtor$6@?0???0CAcqConfigDlg@@QEAA@PEAVCWnd@@PEAVSapAcquisition@@PEBD@Z@4HA 0000000067dbf360 f   AcqConfigDlg.obj
 0001:0003e390       ?dtor$8@?0???0CAcqConfigDlg@@QEAA@PEAVCWnd@@PEAVSapAcquisition@@PEBD@Z@4HA 0000000067dbf390 f   AcqConfigDlg.obj
 0001:0003e3c0       ?dtor$9@?0???0CAcqConfigDlg@@QEAA@PEAVCWnd@@PEAVSapAcquisition@@PEBD@Z@4HA 0000000067dbf3c0 f   AcqConfigDlg.obj
 0001:0003e3f0       ?dtor$10@?0???0CAcqConfigDlg@@QEAA@PEAVCWnd@@PEAVSapAcquisition@@PEBD@Z@4HA 0000000067dbf3f0 f   AcqConfigDlg.obj
 0001:0003e420       ?dtor$12@?0???0CAcqConfigDlg@@QEAA@PEAVCWnd@@PEAVSapAcquisition@@PEBD@Z@4HA 0000000067dbf420 f   AcqConfigDlg.obj
 0001:0003e450       ?dtor$13@?0???0CAcqConfigDlg@@QEAA@PEAVCWnd@@PEAVSapAcquisition@@PEBD@Z@4HA 0000000067dbf450 f   AcqConfigDlg.obj
 0001:0003e480       ?dtor$0@?0??GetLocation@CAcqConfigDlg@@QEAA?AVSapLocation@@XZ@4HA 0000000067dbf480 f   AcqConfigDlg.obj
 0001:0003e4b0       ?dtor$0@?0??UpdateAcquisition@CAcqConfigDlg@@IEAAHXZ@4HA 0000000067dbf4b0 f   AcqConfigDlg.obj
 0001:0003e4e0       ?dtor$1@?0??UpdateAcquisition@CAcqConfigDlg@@IEAAHXZ@4HA 0000000067dbf4e0 f   AcqConfigDlg.obj
 0001:0003e510       ?dtor$3@?0??UpdateAcquisition@CAcqConfigDlg@@IEAAHXZ@4HA 0000000067dbf510 f   AcqConfigDlg.obj
 0001:0003e540       ?dtor$0@?0??LoadSettings@CAcqConfigDlg@@IEAAXXZ@4HA 0000000067dbf540 f   AcqConfigDlg.obj
 0001:0003e570       ?dtor$1@?0??LoadSettings@CAcqConfigDlg@@IEAAXXZ@4HA 0000000067dbf570 f   AcqConfigDlg.obj
 0001:0003e5a0       ?dtor$2@?0??LoadSettings@CAcqConfigDlg@@IEAAXXZ@4HA 0000000067dbf5a0 f   AcqConfigDlg.obj
 0001:0003e5d0       ?dtor$3@?0??LoadSettings@CAcqConfigDlg@@IEAAXXZ@4HA 0000000067dbf5d0 f   AcqConfigDlg.obj
 0001:0003e600       ?dtor$4@?0??LoadSettings@CAcqConfigDlg@@IEAAXXZ@4HA 0000000067dbf600 f   AcqConfigDlg.obj
 0001:0003e630       ?dtor$5@?0??LoadSettings@CAcqConfigDlg@@IEAAXXZ@4HA 0000000067dbf630 f   AcqConfigDlg.obj
 0001:0003e660       ?dtor$6@?0??LoadSettings@CAcqConfigDlg@@IEAAXXZ@4HA 0000000067dbf660 f   AcqConfigDlg.obj
 0001:0003e690       ?dtor$7@?0??LoadSettings@CAcqConfigDlg@@IEAAXXZ@4HA 0000000067dbf690 f   AcqConfigDlg.obj
 0001:0003e6c0       ?dtor$8@?0??LoadSettings@CAcqConfigDlg@@IEAAXXZ@4HA 0000000067dbf6c0 f   AcqConfigDlg.obj
 0001:0003e6f0       ?dtor$0@?0??SaveSettings@CAcqConfigDlg@@IEAAXXZ@4HA 0000000067dbf6f0 f   AcqConfigDlg.obj
 0001:0003e720       ?dtor$1@?0??SaveSettings@CAcqConfigDlg@@IEAAXXZ@4HA 0000000067dbf720 f   AcqConfigDlg.obj
 0001:0003e750       ?dtor$0@?0??OnInitDialog@CAcqConfigDlg@@MEAAHXZ@4HA 0000000067dbf750 f   AcqConfigDlg.obj
 0001:0003e780       ?dtor$0@?0??InitServerCombo@CAcqConfigDlg@@IEAAXXZ@4HA 0000000067dbf780 f   AcqConfigDlg.obj
 0001:0003e7b0       ?dtor$1@?0??InitServerCombo@CAcqConfigDlg@@IEAAXXZ@4HA 0000000067dbf7b0 f   AcqConfigDlg.obj
 0001:0003e7e0       ?dtor$0@?0??InitResourceCombo@CAcqConfigDlg@@IEAAXXZ@4HA 0000000067dbf7e0 f   AcqConfigDlg.obj
 0001:0003e810       ?dtor$1@?0??InitResourceCombo@CAcqConfigDlg@@IEAAXXZ@4HA 0000000067dbf810 f   AcqConfigDlg.obj
 0001:0003e840       ?dtor$2@?0??InitResourceCombo@CAcqConfigDlg@@IEAAXXZ@4HA 0000000067dbf840 f   AcqConfigDlg.obj
 0001:0003e870       ?dtor$3@?0??InitResourceCombo@CAcqConfigDlg@@IEAAXXZ@4HA 0000000067dbf870 f   AcqConfigDlg.obj
 0001:0003e8a0       ?dtor$4@?0??InitResourceCombo@CAcqConfigDlg@@IEAAXXZ@4HA 0000000067dbf8a0 f   AcqConfigDlg.obj
 0001:0003e8d0       ?dtor$5@?0??InitResourceCombo@CAcqConfigDlg@@IEAAXXZ@4HA 0000000067dbf8d0 f   AcqConfigDlg.obj
 0001:0003e900       ?dtor$6@?0??InitResourceCombo@CAcqConfigDlg@@IEAAXXZ@4HA 0000000067dbf900 f   AcqConfigDlg.obj
 0001:0003e930       ?dtor$7@?0??InitResourceCombo@CAcqConfigDlg@@IEAAXXZ@4HA 0000000067dbf930 f   AcqConfigDlg.obj
 0001:0003e960       ?dtor$8@?0??InitResourceCombo@CAcqConfigDlg@@IEAAXXZ@4HA 0000000067dbf960 f   AcqConfigDlg.obj
 0001:0003e990       ?dtor$0@?0??OnConfigBrowse@CAcqConfigDlg@@IEAAXXZ@4HA 0000000067dbf990 f   AcqConfigDlg.obj
 0001:0003e9c0       ?dtor$1@?0??OnConfigBrowse@CAcqConfigDlg@@IEAAXXZ@4HA 0000000067dbf9c0 f   AcqConfigDlg.obj
 0001:0003e9f0       ?dtor$2@?0??OnConfigBrowse@CAcqConfigDlg@@IEAAXXZ@4HA 0000000067dbf9f0 f   AcqConfigDlg.obj
 0001:0003ea20       ?dtor$3@?0??OnConfigBrowse@CAcqConfigDlg@@IEAAXXZ@4HA 0000000067dbfa20 f   AcqConfigDlg.obj
 0001:0003ea50       ?dtor$0@?0??UpdateDescription@CAcqConfigDlg@@IEAAXXZ@4HA 0000000067dbfa50 f   AcqConfigDlg.obj
 0001:0003ea80       ?dtor$5@?0??UpdateDescription@CAcqConfigDlg@@IEAAXXZ@4HA 0000000067dbfa80 f   AcqConfigDlg.obj
 0001:0003eab0       ?dtor$0@?0??ValidateCCFAgainstServerName@CAcqConfigDlg@@IEAA_N_N@Z@4HA 0000000067dbfab0 f   AcqConfigDlg.obj
 0001:0003eae0       ?dtor$1@?0??ValidateCCFAgainstServerName@CAcqConfigDlg@@IEAA_N_N@Z@4HA 0000000067dbfae0 f   AcqConfigDlg.obj
 0001:0003eb10       ?dtor$2@?0??ValidateCCFAgainstServerName@CAcqConfigDlg@@IEAA_N_N@Z@4HA 0000000067dbfb10 f   AcqConfigDlg.obj
 0001:0003eb40       ?dtor$0@?0???HATL@@YA?AV?$CStringT@DV?$StrTraitMFC_DLL@DV?$ChTraitsCRT@D@ATL@@@@@0@AEBV10@0@Z@4HA 0000000067dbfb40 f   AcqConfigDlg.obj
 0001:0003eb70       ?dtor$0@?0???1CAcqConfigDlg@@UEAA@XZ@4HA 0000000067dbfb70 f   AcqConfigDlg.obj
 0001:0003eba0       ?dtor$1@?0???1CAcqConfigDlg@@UEAA@XZ@4HA 0000000067dbfba0 f   AcqConfigDlg.obj
 0001:0003ebd0       ?dtor$2@?0???1CAcqConfigDlg@@UEAA@XZ@4HA 0000000067dbfbd0 f   AcqConfigDlg.obj
 0001:0003ec00       ?dtor$3@?0???1CAcqConfigDlg@@UEAA@XZ@4HA 0000000067dbfc00 f   AcqConfigDlg.obj
 0001:0003ec30       ?dtor$4@?0???1CAcqConfigDlg@@UEAA@XZ@4HA 0000000067dbfc30 f   AcqConfigDlg.obj
 0001:0003ec60       ?dtor$5@?0???1CAcqConfigDlg@@UEAA@XZ@4HA 0000000067dbfc60 f   AcqConfigDlg.obj
 0001:0003ec90       ?dtor$6@?0???1CAcqConfigDlg@@UEAA@XZ@4HA 0000000067dbfc90 f   AcqConfigDlg.obj
 0001:0003ecc0       ?dtor$0@?0???0CAcqDlg@@QEAA@PEAVCWnd@@PEAVSapAcquisition@@@Z@4HA 0000000067dbfcc0 f   AcqDlg.obj
 0001:0003ecf0       ?dtor$0@?0??OnInitDialog@CAcqDlg@@MEAAHXZ@4HA 0000000067dbfcf0 f   AcqDlg.obj
 0001:0003ed20       ?dtor$0@?0???1CAcqDlg@@UEAA@XZ@4HA 0000000067dbfd20 f   AcqDlg.obj
 0001:0003ed50       ?dtor$0@?0???0CAScanDlg@@QEAA@PEAVCWnd@@PEAVSapAcquisition@@@Z@4HA 0000000067dbfd50 f   AScanDlg.obj
 0001:0003ed80       ?dtor$1@?0???0CAScanDlg@@QEAA@PEAVCWnd@@PEAVSapAcquisition@@@Z@4HA 0000000067dbfd80 f   AScanDlg.obj
 0001:0003edb0       ?dtor$2@?0???0CAScanDlg@@QEAA@PEAVCWnd@@PEAVSapAcquisition@@@Z@4HA 0000000067dbfdb0 f   AScanDlg.obj
 0001:0003ede0       ?dtor$0@?0??VerifyTimeIntegrateDuration@CAScanDlg@@IEAAXH@Z@4HA 0000000067dbfde0 f   AScanDlg.obj
 0001:0003ee10       ?dtor$0@?0??VerifyFrameIntegrateCount@CAScanDlg@@IEAAXXZ@4HA 0000000067dbfe10 f   AScanDlg.obj
 0001:0003ee40       ?dtor$0@?0???1CAScanDlg@@UEAA@XZ@4HA 0000000067dbfe40 f   AScanDlg.obj
 0001:0003ee70       ?dtor$1@?0???1CAScanDlg@@UEAA@XZ@4HA 0000000067dbfe70 f   AScanDlg.obj
 0001:0003eea0       ?dtor$2@?0???1CAScanDlg@@UEAA@XZ@4HA 0000000067dbfea0 f   AScanDlg.obj
 0001:0003eed0       ?dtor$0@?0???0CAviFileDlg@@QEAA@PEAVCWnd@@HHHH@Z@4HA 0000000067dbfed0 f   AviFileDlg.obj
 0001:0003ef00       ?dtor$0@?0???0CBayerOptionsDlg@@QEAA@PEAVCWnd@@PEAVSapBayer@@PEAVSapTransfer@@PEAVCImageWnd@@PEAVSapProcessing@@@Z@4HA 0000000067dbff00 f   BayerDlg.obj
 0001:0003ef30       ?dtor$0@?0???1CBayerOptionsDlg@@UEAA@XZ@4HA 0000000067dbff30 f   BayerDlg.obj
 0001:0003ef60       ?dtor$0@?0??UpdateInterface@CBayerOptionsDlg@@QEAAXXZ@4HA 0000000067dbff60 f   BayerDlg.obj
 0001:0003ef90       ?dtor$1@?0??OnApply@CBayerOptionsDlg@@IEAAXXZ@4HA 0000000067dbff90 f   BayerDlg.obj
 0001:0003efc0       ?dtor$0@?0???0CBrowseDirDlg@@QEAA@PEBD@Z@4HA 0000000067dbffc0 f   BrowseDirDlg.obj
 0001:0003eff0       ?dtor$0@?0??DoModal@CBrowseDirDlg@@QEAAHXZ@4HA 0000000067dbfff0 f   BrowseDirDlg.obj
 0001:0003f020       ?dtor$1@?0??DoModal@CBrowseDirDlg@@QEAAHXZ@4HA 0000000067dc0020 f   BrowseDirDlg.obj
 0001:0003f050       ?dtor$2@?0??DoModal@CBrowseDirDlg@@QEAAHXZ@4HA 0000000067dc0050 f   BrowseDirDlg.obj
 0001:0003f080       ?dtor$3@?0??DoModal@CBrowseDirDlg@@QEAAHXZ@4HA 0000000067dc0080 f   BrowseDirDlg.obj
 0001:0003f0b0       ?dtor$4@?0??DoModal@CBrowseDirDlg@@QEAAHXZ@4HA 0000000067dc00b0 f   BrowseDirDlg.obj
 0001:0003f0e0       ?dtor$0@?0???HATL@@YA?AV?$CStringT@DV?$StrTraitMFC_DLL@DV?$ChTraitsCRT@D@ATL@@@@@0@AEBV10@D@Z@4HA 0000000067dc00e0 f   BrowseDirDlg.obj
 0001:0003f110       ?dtor$0@?0???0CBufDlg@@QEAA@PEAVCWnd@@PEAVSapBuffer@@PEAVSapDisplay@@@Z@4HA 0000000067dc0110 f   BufDlg.obj
 0001:0003f140       ?dtor$1@?0???0CBufDlg@@QEAA@PEAVCWnd@@PEAVSapBuffer@@PEAVSapDisplay@@@Z@4HA 0000000067dc0140 f   BufDlg.obj
 0001:0003f170       ?dtor$3@?0???0CBufDlg@@QEAA@PEAVCWnd@@PEAVSapBuffer@@PEAVSapDisplay@@@Z@4HA 0000000067dc0170 f   BufDlg.obj
 0001:0003f1a0       ?dtor$4@?0???0CBufDlg@@QEAA@PEAVCWnd@@PEAVSapBuffer@@PEAVSapDisplay@@@Z@4HA 0000000067dc01a0 f   BufDlg.obj
 0001:0003f1d0       ?dtor$6@?0???0CBufDlg@@QEAA@PEAVCWnd@@PEAVSapBuffer@@PEAVSapDisplay@@@Z@4HA 0000000067dc01d0 f   BufDlg.obj
 0001:0003f200       ?dtor$0@?0??OnInitDialog@CBufDlg@@MEAAHXZ@4HA 0000000067dc0200 f   BufDlg.obj
 0001:0003f230       ?dtor$0@?0???1CBufDlg@@UEAA@XZ@4HA 0000000067dc0230 f   BufDlg.obj
 0001:0003f260       ?dtor$1@?0???1CBufDlg@@UEAA@XZ@4HA 0000000067dc0260 f   BufDlg.obj
 0001:0003f290       ?dtor$2@?0???1CBufDlg@@UEAA@XZ@4HA 0000000067dc0290 f   BufDlg.obj
 0001:0003f2c0       ?dtor$0@?0???0CColorConversionOptionsDlg@@QEAA@PEAVCWnd@@PEAVSapColorConversion@@PEAVSapTransfer@@PEAVCImageWnd@@PEAVSapProcessing@@@Z@4HA 0000000067dc02c0 f   ColorConversionDlg.obj
 0001:0003f2f0       ?dtor$0@?0???1CColorConversionOptionsDlg@@UEAA@XZ@4HA 0000000067dc02f0 f   ColorConversionDlg.obj
 0001:0003f320       ?dtor$0@?0??UpdateInterface@CColorConversionOptionsDlg@@QEAAXXZ@4HA 0000000067dc0320 f   ColorConversionDlg.obj
 0001:0003f350       ?dtor$0@?0??SetSelectedMethodDescription@CColorConversionOptionsDlg@@IEAAXXZ@4HA 0000000067dc0350 f   ColorConversionDlg.obj
 0001:0003f380       ?dtor$1@?0??OnApply@CColorConversionOptionsDlg@@IEAAXXZ@4HA 0000000067dc0380 f   ColorConversionDlg.obj
 0001:0003f3b0       ?dtor$0@?0???HATL@@YA?AV?$CStringT@DV?$StrTraitMFC_DLL@DV?$ChTraitsCRT@D@ATL@@@@@0@AEBV10@PEBD@Z@4HA 0000000067dc03b0 f   ColorConversionDlg.obj
 0001:0003f3e0       ?dtor$1@?0???__E?m_Methods@CColorConversionOptionsDlg@@0PAUSapColorConversionMethodDictionary@@A@@YAXXZ@4HA 0000000067dc03e0 f   ColorConversionDlg.obj
 0001:0003f410       ?dtor$3@?0???__E?m_Methods@CColorConversionOptionsDlg@@0PAUSapColorConversionMethodDictionary@@A@@YAXXZ@4HA 0000000067dc0410 f   ColorConversionDlg.obj
 0001:0003f440       ?dtor$5@?0???__E?m_Methods@CColorConversionOptionsDlg@@0PAUSapColorConversionMethodDictionary@@A@@YAXXZ@4HA 0000000067dc0440 f   ColorConversionDlg.obj
 0001:0003f470       ?dtor$7@?0???__E?m_Methods@CColorConversionOptionsDlg@@0PAUSapColorConversionMethodDictionary@@A@@YAXXZ@4HA 0000000067dc0470 f   ColorConversionDlg.obj
 0001:0003f4a0       ?dtor$9@?0???__E?m_Methods@CColorConversionOptionsDlg@@0PAUSapColorConversionMethodDictionary@@A@@YAXXZ@4HA 0000000067dc04a0 f   ColorConversionDlg.obj
 0001:0003f4d0       ?dtor$11@?0???__E?m_Methods@CColorConversionOptionsDlg@@0PAUSapColorConversionMethodDictionary@@A@@YAXXZ@4HA 0000000067dc04d0 f   ColorConversionDlg.obj
 0001:0003f500       ?dtor$13@?0???__E?m_Methods@CColorConversionOptionsDlg@@0PAUSapColorConversionMethodDictionary@@A@@YAXXZ@4HA 0000000067dc0500 f   ColorConversionDlg.obj
 0001:0003f530       ?dtor$0@?0???0CCompDlg@@QEAA@PEAVCWnd@@PEAVSapAcquisition@@PEAVSapTransfer@@@Z@4HA 0000000067dc0530 f   CompDlg.obj
 0001:0003f560       ?dtor$1@?0???0CCompDlg@@QEAA@PEAVCWnd@@PEAVSapAcquisition@@PEAVSapTransfer@@@Z@4HA 0000000067dc0560 f   CompDlg.obj
 0001:0003f590       ?dtor$2@?0???0CCompDlg@@QEAA@PEAVCWnd@@PEAVSapAcquisition@@PEAVSapTransfer@@@Z@4HA 0000000067dc0590 f   CompDlg.obj
 0001:0003f5c0       ?dtor$3@?0???0CCompDlg@@QEAA@PEAVCWnd@@PEAVSapAcquisition@@PEAVSapTransfer@@@Z@4HA 0000000067dc05c0 f   CompDlg.obj
 0001:0003f5f0       ?dtor$4@?0???0CCompDlg@@QEAA@PEAVCWnd@@PEAVSapAcquisition@@PEAVSapTransfer@@@Z@4HA 0000000067dc05f0 f   CompDlg.obj
 0001:0003f620       ?dtor$5@?0???0CCompDlg@@QEAA@PEAVCWnd@@PEAVSapAcquisition@@PEAVSapTransfer@@@Z@4HA 0000000067dc0620 f   CompDlg.obj
 0001:0003f650       ?dtor$0@?0??Snap@CCompDlg@@IEAAXXZ@4HA 0000000067dc0650 f   CompDlg.obj
 0001:0003f680       ?dtor$0@?0???1CCompDlg@@UEAA@XZ@4HA 0000000067dc0680 f   CompDlg.obj
 0001:0003f6b0       ?dtor$1@?0???1CCompDlg@@UEAA@XZ@4HA 0000000067dc06b0 f   CompDlg.obj
 0001:0003f6e0       ?dtor$2@?0???1CCompDlg@@UEAA@XZ@4HA 0000000067dc06e0 f   CompDlg.obj
 0001:0003f710       ?dtor$3@?0???1CCompDlg@@UEAA@XZ@4HA 0000000067dc0710 f   CompDlg.obj
 0001:0003f740       ?dtor$4@?0???1CCompDlg@@UEAA@XZ@4HA 0000000067dc0740 f   CompDlg.obj
 0001:0003f770       ?dtor$5@?0???1CCompDlg@@UEAA@XZ@4HA 0000000067dc0770 f   CompDlg.obj
 0001:0003f7a0       ?dtor$0@?0???0CFlatFieldDlg@@QEAA@PEAVCWnd@@PEAVSapFlatField@@PEAVSapTransfer@@PEAVSapBuffer@@@Z@4HA 0000000067dc07a0 f   FlatFieldDlg.obj
 0001:0003f7d0       ?dtor$1@?0???0CFlatFieldDlg@@QEAA@PEAVCWnd@@PEAVSapFlatField@@PEAVSapTransfer@@PEAVSapBuffer@@@Z@4HA 0000000067dc07d0 f   FlatFieldDlg.obj
 0001:0003f800       ?dtor$2@?0???0CFlatFieldDlg@@QEAA@PEAVCWnd@@PEAVSapFlatField@@PEAVSapTransfer@@PEAVSapBuffer@@@Z@4HA 0000000067dc0800 f   FlatFieldDlg.obj
 0001:0003f830       ?dtor$3@?0???0CFlatFieldDlg@@QEAA@PEAVCWnd@@PEAVSapFlatField@@PEAVSapTransfer@@PEAVSapBuffer@@@Z@4HA 0000000067dc0830 f   FlatFieldDlg.obj
 0001:0003f860       ?dtor$4@?0???0CFlatFieldDlg@@QEAA@PEAVCWnd@@PEAVSapFlatField@@PEAVSapTransfer@@PEAVSapBuffer@@@Z@4HA 0000000067dc0860 f   FlatFieldDlg.obj
 0001:0003f890       ?dtor$5@?0???0CFlatFieldDlg@@QEAA@PEAVCWnd@@PEAVSapFlatField@@PEAVSapTransfer@@PEAVSapBuffer@@@Z@4HA 0000000067dc0890 f   FlatFieldDlg.obj
 0001:0003f8c0       ?dtor$6@?0???0CFlatFieldDlg@@QEAA@PEAVCWnd@@PEAVSapFlatField@@PEAVSapTransfer@@PEAVSapBuffer@@@Z@4HA 0000000067dc08c0 f   FlatFieldDlg.obj
 0001:0003f8f0       ?dtor$7@?0???0CFlatFieldDlg@@QEAA@PEAVCWnd@@PEAVSapFlatField@@PEAVSapTransfer@@PEAVSapBuffer@@@Z@4HA 0000000067dc08f0 f   FlatFieldDlg.obj
 0001:0003f920       ?dtor$8@?0???0CFlatFieldDlg@@QEAA@PEAVCWnd@@PEAVSapFlatField@@PEAVSapTransfer@@PEAVSapBuffer@@@Z@4HA 0000000067dc0920 f   FlatFieldDlg.obj
 0001:0003f960       ?dtor$0@?0???1CFlatFieldDlg@@UEAA@XZ@4HA 0000000067dc0960 f   FlatFieldDlg.obj
 0001:0003f990       ?dtor$1@?0???1CFlatFieldDlg@@UEAA@XZ@4HA 0000000067dc0990 f   FlatFieldDlg.obj
 0001:0003f9c0       ?dtor$2@?0???1CFlatFieldDlg@@UEAA@XZ@4HA 0000000067dc09c0 f   FlatFieldDlg.obj
 0001:0003f9f0       ?dtor$3@?0???1CFlatFieldDlg@@UEAA@XZ@4HA 0000000067dc09f0 f   FlatFieldDlg.obj
 0001:0003fa20       ?dtor$4@?0???1CFlatFieldDlg@@UEAA@XZ@4HA 0000000067dc0a20 f   FlatFieldDlg.obj
 0001:0003fa50       ?dtor$5@?0???1CFlatFieldDlg@@UEAA@XZ@4HA 0000000067dc0a50 f   FlatFieldDlg.obj
 0001:0003fa80       ?dtor$6@?0???1CFlatFieldDlg@@UEAA@XZ@4HA 0000000067dc0a80 f   FlatFieldDlg.obj
 0001:0003fab0       ?dtor$7@?0???1CFlatFieldDlg@@UEAA@XZ@4HA 0000000067dc0ab0 f   FlatFieldDlg.obj
 0001:0003fae0       ?dtor$8@?0???1CFlatFieldDlg@@UEAA@XZ@4HA 0000000067dc0ae0 f   FlatFieldDlg.obj
 0001:0003fb20       ?dtor$0@?0??OnInitDialog@CFlatFieldDlg@@MEAAHXZ@4HA 0000000067dc0b20 f   FlatFieldDlg.obj
 0001:0003fb50       ?dtor$1@?0??OnInitDialog@CFlatFieldDlg@@MEAAHXZ@4HA 0000000067dc0b50 f   FlatFieldDlg.obj
 0001:0003fb80       ?dtor$3@?0??OnInitDialog@CFlatFieldDlg@@MEAAHXZ@4HA 0000000067dc0b80 f   FlatFieldDlg.obj
 0001:0003fbb0       ?dtor$4@?0??OnInitDialog@CFlatFieldDlg@@MEAAHXZ@4HA 0000000067dc0bb0 f   FlatFieldDlg.obj
 0001:0003fbe0       ?dtor$5@?0??OnInitDialog@CFlatFieldDlg@@MEAAHXZ@4HA 0000000067dc0be0 f   FlatFieldDlg.obj
 0001:0003fc10       ?dtor$6@?0??OnInitDialog@CFlatFieldDlg@@MEAAHXZ@4HA 0000000067dc0c10 f   FlatFieldDlg.obj
 0001:0003fc40       ?dtor$7@?0??OnInitDialog@CFlatFieldDlg@@MEAAHXZ@4HA 0000000067dc0c40 f   FlatFieldDlg.obj
 0001:0003fc70       ?dtor$0@?0??OnDarkImage@CFlatFieldDlg@@IEAAXXZ@4HA 0000000067dc0c70 f   FlatFieldDlg.obj
 0001:0003fcb0       ?dtor$2@?0??OnDarkImage@CFlatFieldDlg@@IEAAXXZ@4HA 0000000067dc0cb0 f   FlatFieldDlg.obj
 0001:0003fcf0       ?dtor$4@?0??OnDarkImage@CFlatFieldDlg@@IEAAXXZ@4HA 0000000067dc0cf0 f   FlatFieldDlg.obj
 0001:0003fd20       ?dtor$5@?0??OnDarkImage@CFlatFieldDlg@@IEAAXXZ@4HA 0000000067dc0d20 f   FlatFieldDlg.obj
 0001:0003fd50       ?dtor$7@?0??OnDarkImage@CFlatFieldDlg@@IEAAXXZ@4HA 0000000067dc0d50 f   FlatFieldDlg.obj
 0001:0003fd80       ?dtor$8@?0??OnDarkImage@CFlatFieldDlg@@IEAAXXZ@4HA 0000000067dc0d80 f   FlatFieldDlg.obj
 0001:0003fdb0       ?dtor$9@?0??OnDarkImage@CFlatFieldDlg@@IEAAXXZ@4HA 0000000067dc0db0 f   FlatFieldDlg.obj
 0001:0003fde0       ?dtor$0@?0??DarkImage@CFlatFieldDlg@@AEAAXXZ@4HA 0000000067dc0de0 f   FlatFieldDlg.obj
 0001:0003fe10       ?dtor$1@?0??DarkImage@CFlatFieldDlg@@AEAAXXZ@4HA 0000000067dc0e10 f   FlatFieldDlg.obj
 0001:0003fe40       ?dtor$7@?0??DarkImage@CFlatFieldDlg@@AEAAXXZ@4HA 0000000067dc0e40 f   FlatFieldDlg.obj
 0001:0003fe70       ?dtor$8@?0??DarkImage@CFlatFieldDlg@@AEAAXXZ@4HA 0000000067dc0e70 f   FlatFieldDlg.obj
 0001:0003fea0       ?dtor$9@?0??DarkImage@CFlatFieldDlg@@AEAAXXZ@4HA 0000000067dc0ea0 f   FlatFieldDlg.obj
 0001:0003fed0       ?dtor$10@?0??DarkImage@CFlatFieldDlg@@AEAAXXZ@4HA 0000000067dc0ed0 f   FlatFieldDlg.obj
 0001:0003ff00       ?dtor$11@?0??DarkImage@CFlatFieldDlg@@AEAAXXZ@4HA 0000000067dc0f00 f   FlatFieldDlg.obj
 0001:0003ff30       ?dtor$0@?0??OnBrightImage@CFlatFieldDlg@@IEAAXXZ@4HA 0000000067dc0f30 f   FlatFieldDlg.obj
 0001:0003ff70       ?dtor$2@?0??OnBrightImage@CFlatFieldDlg@@IEAAXXZ@4HA 0000000067dc0f70 f   FlatFieldDlg.obj
 0001:0003ffb0       ?dtor$4@?0??OnBrightImage@CFlatFieldDlg@@IEAAXXZ@4HA 0000000067dc0fb0 f   FlatFieldDlg.obj
 0001:0003ffe0       ?dtor$5@?0??OnBrightImage@CFlatFieldDlg@@IEAAXXZ@4HA 0000000067dc0fe0 f   FlatFieldDlg.obj
 0001:00040010       ?dtor$7@?0??OnBrightImage@CFlatFieldDlg@@IEAAXXZ@4HA 0000000067dc1010 f   FlatFieldDlg.obj
 0001:00040040       ?dtor$8@?0??OnBrightImage@CFlatFieldDlg@@IEAAXXZ@4HA 0000000067dc1040 f   FlatFieldDlg.obj
 0001:00040070       ?dtor$9@?0??OnBrightImage@CFlatFieldDlg@@IEAAXXZ@4HA 0000000067dc1070 f   FlatFieldDlg.obj
 0001:000400a0       ?dtor$0@?0??BrightImage@CFlatFieldDlg@@AEAAXXZ@4HA 0000000067dc10a0 f   FlatFieldDlg.obj
 0001:000400d0       ?dtor$1@?0??BrightImage@CFlatFieldDlg@@AEAAXXZ@4HA 0000000067dc10d0 f   FlatFieldDlg.obj
 0001:00040100       ?dtor$5@?0??BrightImage@CFlatFieldDlg@@AEAAXXZ@4HA 0000000067dc1100 f   FlatFieldDlg.obj
 0001:00040130       ?dtor$6@?0??BrightImage@CFlatFieldDlg@@AEAAXXZ@4HA 0000000067dc1130 f   FlatFieldDlg.obj
 0001:00040160       ?dtor$7@?0??BrightImage@CFlatFieldDlg@@AEAAXXZ@4HA 0000000067dc1160 f   FlatFieldDlg.obj
 0001:00040190       ?dtor$8@?0??BrightImage@CFlatFieldDlg@@AEAAXXZ@4HA 0000000067dc1190 f   FlatFieldDlg.obj
 0001:000401c0       ?dtor$9@?0??BrightImage@CFlatFieldDlg@@AEAAXXZ@4HA 0000000067dc11c0 f   FlatFieldDlg.obj
 0001:000401f0       ?dtor$10@?0??BrightImage@CFlatFieldDlg@@AEAAXXZ@4HA 0000000067dc11f0 f   FlatFieldDlg.obj
 0001:00040220       ?dtor$11@?0??BrightImage@CFlatFieldDlg@@AEAAXXZ@4HA 0000000067dc1220 f   FlatFieldDlg.obj
 0001:00040250       ?dtor$12@?0??BrightImage@CFlatFieldDlg@@AEAAXXZ@4HA 0000000067dc1250 f   FlatFieldDlg.obj
 0001:00040280       ?dtor$15@?0??BrightImage@CFlatFieldDlg@@AEAAXXZ@4HA 0000000067dc1280 f   FlatFieldDlg.obj
 0001:000402b0       ?dtor$17@?0??BrightImage@CFlatFieldDlg@@AEAAXXZ@4HA 0000000067dc12b0 f   FlatFieldDlg.obj
 0001:000402e0       ?dtor$19@?0??BrightImage@CFlatFieldDlg@@AEAAXXZ@4HA 0000000067dc12e0 f   FlatFieldDlg.obj
 0001:00040310       ?dtor$21@?0??BrightImage@CFlatFieldDlg@@AEAAXXZ@4HA 0000000067dc1310 f   FlatFieldDlg.obj
 0001:00040340       ?dtor$22@?0??BrightImage@CFlatFieldDlg@@AEAAXXZ@4HA 0000000067dc1340 f   FlatFieldDlg.obj
 0001:00040370       ?dtor$24@?0??BrightImage@CFlatFieldDlg@@AEAAXXZ@4HA 0000000067dc1370 f   FlatFieldDlg.obj
 0001:000403a0       ?dtor$25@?0??BrightImage@CFlatFieldDlg@@AEAAXXZ@4HA 0000000067dc13a0 f   FlatFieldDlg.obj
 0001:000403d0       ?dtor$0@?0??OnBnClickedScgFfLoadClusterMap@CFlatFieldDlg@@IEAAXXZ@4HA 0000000067dc13d0 f   FlatFieldDlg.obj
 0001:00040400       ?dtor$1@?0??OnBnClickedScgFfLoadClusterMap@CFlatFieldDlg@@IEAAXXZ@4HA 0000000067dc1400 f   FlatFieldDlg.obj
 0001:00040430       ?dtor$2@?0??OnBnClickedScgFfLoadClusterMap@CFlatFieldDlg@@IEAAXXZ@4HA 0000000067dc1430 f   FlatFieldDlg.obj
 0001:00040460       ?dtor$3@?0??OnBnClickedScgFfLoadClusterMap@CFlatFieldDlg@@IEAAXXZ@4HA 0000000067dc1460 f   FlatFieldDlg.obj
 0001:00040490       ?dtor$0@?0??Snap@CFlatFieldDlg@@QEAAHXZ@4HA 0000000067dc1490 f   FlatFieldDlg.obj
 0001:000404c0       ?dtor$0@?0??LogMessage@CFlatFieldDlg@@AEAAXHV?$CStringT@DV?$StrTraitMFC_DLL@DV?$ChTraitsCRT@D@ATL@@@@@ATL@@@Z@4HA 0000000067dc14c0 f   FlatFieldDlg.obj
 0001:000404f0       ?dtor$1@?0??LogMessage@CFlatFieldDlg@@AEAAXHV?$CStringT@DV?$StrTraitMFC_DLL@DV?$ChTraitsCRT@D@ATL@@@@@ATL@@@Z@4HA 0000000067dc14f0 f   FlatFieldDlg.obj
 0001:00040520       ?dtor$0@?0??GetAverageStr@CFlatFieldDlg@@AEBA?AV?$CStringT@DV?$StrTraitMFC_DLL@DV?$ChTraitsCRT@D@ATL@@@@@ATL@@AEAVSapFlatFieldStats@@@Z@4HA 0000000067dc1520 f   FlatFieldDlg.obj
 0001:00040550       ?dtor$1@?0??GetAverageStr@CFlatFieldDlg@@AEBA?AV?$CStringT@DV?$StrTraitMFC_DLL@DV?$ChTraitsCRT@D@ATL@@@@@ATL@@AEAVSapFlatFieldStats@@@Z@4HA 0000000067dc1550 f   FlatFieldDlg.obj
 0001:00040580       ?dtor$0@?0??GetStdDeviationStr@CFlatFieldDlg@@AEBA?AV?$CStringT@DV?$StrTraitMFC_DLL@DV?$ChTraitsCRT@D@ATL@@@@@ATL@@AEAVSapFlatFieldStats@@@Z@4HA 0000000067dc1580 f   FlatFieldDlg.obj
 0001:000405b0       ?dtor$1@?0??GetStdDeviationStr@CFlatFieldDlg@@AEBA?AV?$CStringT@DV?$StrTraitMFC_DLL@DV?$ChTraitsCRT@D@ATL@@@@@ATL@@AEAVSapFlatFieldStats@@@Z@4HA 0000000067dc15b0 f   FlatFieldDlg.obj
 0001:000405e0       ?dtor$0@?0??GetLowStr@CFlatFieldDlg@@AEBA?AV?$CStringT@DV?$StrTraitMFC_DLL@DV?$ChTraitsCRT@D@ATL@@@@@ATL@@AEAVSapFlatFieldStats@@@Z@4HA 0000000067dc15e0 f   FlatFieldDlg.obj
 0001:00040610       ?dtor$1@?0??GetLowStr@CFlatFieldDlg@@AEBA?AV?$CStringT@DV?$StrTraitMFC_DLL@DV?$ChTraitsCRT@D@ATL@@@@@ATL@@AEAVSapFlatFieldStats@@@Z@4HA 0000000067dc1610 f   FlatFieldDlg.obj
 0001:00040640       ?dtor$0@?0??GetHighStr@CFlatFieldDlg@@AEBA?AV?$CStringT@DV?$StrTraitMFC_DLL@DV?$ChTraitsCRT@D@ATL@@@@@ATL@@AEAVSapFlatFieldStats@@@Z@4HA 0000000067dc1640 f   FlatFieldDlg.obj
 0001:00040670       ?dtor$1@?0??GetHighStr@CFlatFieldDlg@@AEBA?AV?$CStringT@DV?$StrTraitMFC_DLL@DV?$ChTraitsCRT@D@ATL@@@@@ATL@@AEAVSapFlatFieldStats@@@Z@4HA 0000000067dc1670 f   FlatFieldDlg.obj
 0001:000406a0       ?dtor$0@?0??GetPeakPositionStr@CFlatFieldDlg@@AEBA?AV?$CStringT@DV?$StrTraitMFC_DLL@DV?$ChTraitsCRT@D@ATL@@@@@ATL@@AEAVSapFlatFieldStats@@@Z@4HA 0000000067dc16a0 f   FlatFieldDlg.obj
 0001:000406d0       ?dtor$1@?0??GetPeakPositionStr@CFlatFieldDlg@@AEBA?AV?$CStringT@DV?$StrTraitMFC_DLL@DV?$ChTraitsCRT@D@ATL@@@@@ATL@@AEAVSapFlatFieldStats@@@Z@4HA 0000000067dc16d0 f   FlatFieldDlg.obj
 0001:00040700       ?dtor$0@?0??GetPixelRatioStr@CFlatFieldDlg@@AEBA?AV?$CStringT@DV?$StrTraitMFC_DLL@DV?$ChTraitsCRT@D@ATL@@@@@ATL@@AEAVSapFlatFieldStats@@@Z@4HA 0000000067dc1700 f   FlatFieldDlg.obj
 0001:00040730       ?dtor$1@?0??GetPixelRatioStr@CFlatFieldDlg@@AEBA?AV?$CStringT@DV?$StrTraitMFC_DLL@DV?$ChTraitsCRT@D@ATL@@@@@ATL@@AEAVSapFlatFieldStats@@@Z@4HA 0000000067dc1730 f   FlatFieldDlg.obj
 0001:00040760       ?dtor$0@?0??GetNumPixelsStr@CFlatFieldDlg@@AEBA?AV?$CStringT@DV?$StrTraitMFC_DLL@DV?$ChTraitsCRT@D@ATL@@@@@ATL@@AEAVSapFlatFieldStats@@@Z@4HA 0000000067dc1760 f   FlatFieldDlg.obj
 0001:00040790       ?dtor$1@?0??GetNumPixelsStr@CFlatFieldDlg@@AEBA?AV?$CStringT@DV?$StrTraitMFC_DLL@DV?$ChTraitsCRT@D@ATL@@@@@ATL@@AEAVSapFlatFieldStats@@@Z@4HA 0000000067dc1790 f   FlatFieldDlg.obj
 0001:000407c0       ?dtor$0@?0??OnSaveAndUpload@CFlatFieldDlg@@IEAAXXZ@4HA 0000000067dc17c0 f   FlatFieldDlg.obj
 0001:000407f0       ?dtor$1@?0??OnSaveAndUpload@CFlatFieldDlg@@IEAAXXZ@4HA 0000000067dc17f0 f   FlatFieldDlg.obj
 0001:00040820       ?dtor$2@?0??OnSaveAndUpload@CFlatFieldDlg@@IEAAXXZ@4HA 0000000067dc1820 f   FlatFieldDlg.obj
 0001:00040850       ?dtor$3@?0??OnSaveAndUpload@CFlatFieldDlg@@IEAAXXZ@4HA 0000000067dc1850 f   FlatFieldDlg.obj
 0001:00040880       ?dtor$0@?0???0CGioBidirectionalDlg@@QEAA@PEAVCWnd@@IPEAVSapGio@@@Z@4HA 0000000067dc1880 f   GioBidirectionalDlg.obj
 0001:000408b0       ?dtor$1@?0???0CGioBidirectionalDlg@@QEAA@PEAVCWnd@@IPEAVSapGio@@@Z@4HA 0000000067dc18b0 f   GioBidirectionalDlg.obj
 0001:000408e0       ?dtor$2@?0???0CGioBidirectionalDlg@@QEAA@PEAVCWnd@@IPEAVSapGio@@@Z@4HA 0000000067dc18e0 f   GioBidirectionalDlg.obj
 0001:00040910       ?dtor$3@?0???0CGioBidirectionalDlg@@QEAA@PEAVCWnd@@IPEAVSapGio@@@Z@4HA 0000000067dc1910 f   GioBidirectionalDlg.obj
 0001:00040940       ?dtor$0@?0??OnInitDialog@CGioBidirectionalDlg@@MEAAHXZ@4HA 0000000067dc1940 f   GioBidirectionalDlg.obj
 0001:00040970       ?dtor$0@?0??OnEnableCallback@CGioBidirectionalDlg@@IEAAXXZ@4HA 0000000067dc1970 f   GioBidirectionalDlg.obj
 0001:000409a0       ?dtor$0@?0??Update@CGioBidirectionalDlg@@QEAAHXZ@4HA 0000000067dc19a0 f   GioBidirectionalDlg.obj
 0001:000409d0       ?dtor$0@?0??ResetInterruptCount@CGioBidirectionalDlg@@IEAAHXZ@4HA 0000000067dc19d0 f   GioBidirectionalDlg.obj
 0001:00040a00       ?dtor$0@?0??ChangePinState@CGioBidirectionalDlg@@IEAAXH@Z@4HA 0000000067dc1a00 f   GioBidirectionalDlg.obj
 0001:00040a30       ?dtor$0@?0???1CGioBidirectionalDlg@@UEAA@XZ@4HA 0000000067dc1a30 f   GioBidirectionalDlg.obj
 0001:00040a60       ?dtor$1@?0???1CGioBidirectionalDlg@@UEAA@XZ@4HA 0000000067dc1a60 f   GioBidirectionalDlg.obj
 0001:00040a90       ?dtor$2@?0???1CGioBidirectionalDlg@@UEAA@XZ@4HA 0000000067dc1a90 f   GioBidirectionalDlg.obj
 0001:00040ac0       ?dtor$3@?0???1CGioBidirectionalDlg@@UEAA@XZ@4HA 0000000067dc1ac0 f   GioBidirectionalDlg.obj
 0001:00040af0       ?dtor$0@?0???0CGioInputDlg@@QEAA@PEAVCWnd@@IPEAVSapGio@@@Z@4HA 0000000067dc1af0 f   GioInputDlg.obj
 0001:00040b20       ?dtor$1@?0???0CGioInputDlg@@QEAA@PEAVCWnd@@IPEAVSapGio@@@Z@4HA 0000000067dc1b20 f   GioInputDlg.obj
 0001:00040b50       ?dtor$2@?0???0CGioInputDlg@@QEAA@PEAVCWnd@@IPEAVSapGio@@@Z@4HA 0000000067dc1b50 f   GioInputDlg.obj
 0001:00040b80       ?dtor$3@?0???0CGioInputDlg@@QEAA@PEAVCWnd@@IPEAVSapGio@@@Z@4HA 0000000067dc1b80 f   GioInputDlg.obj
 0001:00040bb0       ?dtor$0@?0??OnInitDialog@CGioInputDlg@@MEAAHXZ@4HA 0000000067dc1bb0 f   GioInputDlg.obj
 0001:00040be0       ?dtor$0@?0??Update@CGioInputDlg@@QEAAHXZ@4HA 0000000067dc1be0 f   GioInputDlg.obj
 0001:00040c10       ?dtor$0@?0??ResetInterruptCount@CGioInputDlg@@IEAAHXZ@4HA 0000000067dc1c10 f   GioInputDlg.obj
 0001:00040c40       ?dtor$0@?0???1CGioInputDlg@@UEAA@XZ@4HA 0000000067dc1c40 f   GioInputDlg.obj
 0001:00040c70       ?dtor$1@?0???1CGioInputDlg@@UEAA@XZ@4HA 0000000067dc1c70 f   GioInputDlg.obj
 0001:00040ca0       ?dtor$2@?0???1CGioInputDlg@@UEAA@XZ@4HA 0000000067dc1ca0 f   GioInputDlg.obj
 0001:00040cd0       ?dtor$3@?0???1CGioInputDlg@@UEAA@XZ@4HA 0000000067dc1cd0 f   GioInputDlg.obj
 0001:00040d00       ?dtor$0@?0???0CGioOutputDlg@@QEAA@PEAVCWnd@@IPEAVSapGio@@@Z@4HA 0000000067dc1d00 f   GioOutputDlg.obj
 0001:00040d30       ?dtor$1@?0???0CGioOutputDlg@@QEAA@PEAVCWnd@@IPEAVSapGio@@@Z@4HA 0000000067dc1d30 f   GioOutputDlg.obj
 0001:00040d60       ?dtor$2@?0???0CGioOutputDlg@@QEAA@PEAVCWnd@@IPEAVSapGio@@@Z@4HA 0000000067dc1d60 f   GioOutputDlg.obj
 0001:00040d90       ?dtor$3@?0???0CGioOutputDlg@@QEAA@PEAVCWnd@@IPEAVSapGio@@@Z@4HA 0000000067dc1d90 f   GioOutputDlg.obj
 0001:00040dc0       ?dtor$4@?0???0CGioOutputDlg@@QEAA@PEAVCWnd@@IPEAVSapGio@@@Z@4HA 0000000067dc1dc0 f   GioOutputDlg.obj
 0001:00040df0       ?dtor$5@?0???0CGioOutputDlg@@QEAA@PEAVCWnd@@IPEAVSapGio@@@Z@4HA 0000000067dc1df0 f   GioOutputDlg.obj
 0001:00040e20       ?dtor$0@?0??OnInitDialog@CGioOutputDlg@@MEAAHXZ@4HA 0000000067dc1e20 f   GioOutputDlg.obj
 0001:00040e50       ?dtor$0@?0??UpdateIO@CGioOutputDlg@@IEAAXXZ@4HA 0000000067dc1e50 f   GioOutputDlg.obj
 0001:00040e80       ?dtor$0@?0??ChangePinState@CGioOutputDlg@@QEAAXPEAVCButton@@@Z@4HA 0000000067dc1e80 f   GioOutputDlg.obj
 0001:00040eb0       ?dtor$0@?0???1CGioOutputDlg@@UEAA@XZ@4HA 0000000067dc1eb0 f   GioOutputDlg.obj
 0001:00040ee0       ?dtor$1@?0???1CGioOutputDlg@@UEAA@XZ@4HA 0000000067dc1ee0 f   GioOutputDlg.obj
 0001:00040f10       ?dtor$2@?0???1CGioOutputDlg@@UEAA@XZ@4HA 0000000067dc1f10 f   GioOutputDlg.obj
 0001:00040f40       ?dtor$3@?0???1CGioOutputDlg@@UEAA@XZ@4HA 0000000067dc1f40 f   GioOutputDlg.obj
 0001:00040f70       ?dtor$4@?0???1CGioOutputDlg@@UEAA@XZ@4HA 0000000067dc1f70 f   GioOutputDlg.obj
 0001:00040fa0       ?dtor$5@?0???1CGioOutputDlg@@UEAA@XZ@4HA 0000000067dc1fa0 f   GioOutputDlg.obj
 0001:00040fd0       ?dtor$0@?0???0CImageExWnd@@QEAA@XZ@4HA 0000000067dc1fd0 f   ImageExWnd.obj
 0001:00041000       ?dtor$1@?0???0CImageExWnd@@QEAA@XZ@4HA 0000000067dc2000 f   ImageExWnd.obj
 0001:00041030       ?dtor$2@?0???0CImageExWnd@@QEAA@XZ@4HA 0000000067dc2030 f   ImageExWnd.obj
 0001:00041070       ?dtor$3@?0???0CImageExWnd@@QEAA@XZ@4HA 0000000067dc2070 f   ImageExWnd.obj
 0001:000410a0       ?dtor$4@?0???0CImageExWnd@@QEAA@XZ@4HA 0000000067dc20a0 f   ImageExWnd.obj
 0001:000410d0       ?dtor$5@?0???0CImageExWnd@@QEAA@XZ@4HA 0000000067dc20d0 f   ImageExWnd.obj
 0001:00041100       ?dtor$6@?0???0CImageExWnd@@QEAA@XZ@4HA 0000000067dc2100 f   ImageExWnd.obj
 0001:00041130       ?dtor$7@?0???0CImageExWnd@@QEAA@XZ@4HA 0000000067dc2130 f   ImageExWnd.obj
 0001:00041160       ?dtor$8@?0???0CImageExWnd@@QEAA@XZ@4HA 0000000067dc2160 f   ImageExWnd.obj
 0001:00041190       ?dtor$0@?0???1CImageExWnd@@UEAA@XZ@4HA 0000000067dc2190 f   ImageExWnd.obj
 0001:000411c0       ?dtor$1@?0???1CImageExWnd@@UEAA@XZ@4HA 0000000067dc21c0 f   ImageExWnd.obj
 0001:000411f0       ?dtor$2@?0???1CImageExWnd@@UEAA@XZ@4HA 0000000067dc21f0 f   ImageExWnd.obj
 0001:00041230       ?dtor$3@?0???1CImageExWnd@@UEAA@XZ@4HA 0000000067dc2230 f   ImageExWnd.obj
 0001:00041260       ?dtor$4@?0???1CImageExWnd@@UEAA@XZ@4HA 0000000067dc2260 f   ImageExWnd.obj
 0001:00041290       ?dtor$5@?0???1CImageExWnd@@UEAA@XZ@4HA 0000000067dc2290 f   ImageExWnd.obj
 0001:000412c0       ?dtor$6@?0???1CImageExWnd@@UEAA@XZ@4HA 0000000067dc22c0 f   ImageExWnd.obj
 0001:000412f0       ?dtor$7@?0???1CImageExWnd@@UEAA@XZ@4HA 0000000067dc22f0 f   ImageExWnd.obj
 0001:00041320       ?dtor$8@?0???1CImageExWnd@@UEAA@XZ@4HA 0000000067dc2320 f   ImageExWnd.obj
 0001:00041350       ?dtor$0@?0??OnPaint@CImageExWnd@@IEAAXXZ@4HA 0000000067dc2350 f   ImageExWnd.obj
 0001:00041380       ?dtor$1@?0??OnPaint@CImageExWnd@@IEAAXXZ@4HA 0000000067dc2380 f   ImageExWnd.obj
 0001:000413b0       ?dtor$2@?0??OnPaint@CImageExWnd@@IEAAXXZ@4HA 0000000067dc23b0 f   ImageExWnd.obj
 0001:000413e0       ?dtor$0@?0??UpdateLayout@CImageExWnd@@IEAAXXZ@4HA 0000000067dc23e0 f   ImageExWnd.obj
 0001:00041410       ?dtor$0@?0???0CImageFilterEditorDlg@@QEAA@PEAVSapAcquisition@@PEAVCWnd@@@Z@4HA 0000000067dc2410 f   ImageFilterEditorDlg.obj
 0001:00041440       ?dtor$1@?0???0CImageFilterEditorDlg@@QEAA@PEAVSapAcquisition@@PEAVCWnd@@@Z@4HA 0000000067dc2440 f   ImageFilterEditorDlg.obj
 0001:00041470       ?dtor$2@?0???0CImageFilterEditorDlg@@QEAA@PEAVSapAcquisition@@PEAVCWnd@@@Z@4HA 0000000067dc2470 f   ImageFilterEditorDlg.obj
 0001:000414a0       ?dtor$3@?0???0CImageFilterEditorDlg@@QEAA@PEAVSapAcquisition@@PEAVCWnd@@@Z@4HA 0000000067dc24a0 f   ImageFilterEditorDlg.obj
 0001:000414d0       ?dtor$4@?0???0CImageFilterEditorDlg@@QEAA@PEAVSapAcquisition@@PEAVCWnd@@@Z@4HA 0000000067dc24d0 f   ImageFilterEditorDlg.obj
 0001:00041500       ?dtor$5@?0???0CImageFilterEditorDlg@@QEAA@PEAVSapAcquisition@@PEAVCWnd@@@Z@4HA 0000000067dc2500 f   ImageFilterEditorDlg.obj
 0001:00041530       ?dtor$6@?0???0CImageFilterEditorDlg@@QEAA@PEAVSapAcquisition@@PEAVCWnd@@@Z@4HA 0000000067dc2530 f   ImageFilterEditorDlg.obj
 0001:00041560       ?dtor$0@?0???1CImageFilterEditorDlg@@UEAA@XZ@4HA 0000000067dc2560 f   ImageFilterEditorDlg.obj
 0001:00041590       ?dtor$1@?0???1CImageFilterEditorDlg@@UEAA@XZ@4HA 0000000067dc2590 f   ImageFilterEditorDlg.obj
 0001:000415c0       ?dtor$2@?0???1CImageFilterEditorDlg@@UEAA@XZ@4HA 0000000067dc25c0 f   ImageFilterEditorDlg.obj
 0001:000415f0       ?dtor$3@?0???1CImageFilterEditorDlg@@UEAA@XZ@4HA 0000000067dc25f0 f   ImageFilterEditorDlg.obj
 0001:00041620       ?dtor$4@?0???1CImageFilterEditorDlg@@UEAA@XZ@4HA 0000000067dc2620 f   ImageFilterEditorDlg.obj
 0001:00041650       ?dtor$5@?0???1CImageFilterEditorDlg@@UEAA@XZ@4HA 0000000067dc2650 f   ImageFilterEditorDlg.obj
 0001:00041680       ?dtor$6@?0???1CImageFilterEditorDlg@@UEAA@XZ@4HA 0000000067dc2680 f   ImageFilterEditorDlg.obj
 0001:000416b0       ?dtor$0@?0??CreateCoeffEditControls@CImageFilterEditorDlg@@IEAA_NH@Z@4HA 0000000067dc26b0 f   ImageFilterEditorDlg.obj
 0001:000416e0       ?dtor$0@?0??InitControls@CImageFilterEditorDlg@@IEAAXXZ@4HA 0000000067dc26e0 f   ImageFilterEditorDlg.obj
 0001:00041710       ?dtor$0@?0??ConvertToDecimal@CImageFilterEditorDlg@@KA_NV?$CStringT@DV?$StrTraitMFC_DLL@DV?$ChTraitsCRT@D@ATL@@@@@ATL@@AEAN@Z@4HA 0000000067dc2710 f   ImageFilterEditorDlg.obj
 0001:00041740       ?dtor$1@?0??ConvertToDecimal@CImageFilterEditorDlg@@KA_NV?$CStringT@DV?$StrTraitMFC_DLL@DV?$ChTraitsCRT@D@ATL@@@@@ATL@@AEAN@Z@4HA 0000000067dc2740 f   ImageFilterEditorDlg.obj
 0001:00041770       ?dtor$2@?0??ConvertToDecimal@CImageFilterEditorDlg@@KA_NV?$CStringT@DV?$StrTraitMFC_DLL@DV?$ChTraitsCRT@D@ATL@@@@@ATL@@AEAN@Z@4HA 0000000067dc2770 f   ImageFilterEditorDlg.obj
 0001:000417a0       ?dtor$1@?0??ReadCoefficients@CImageFilterEditorDlg@@IEAA_NXZ@4HA 0000000067dc27a0 f   ImageFilterEditorDlg.obj
 0001:000417d0       ?dtor$0@?0??ReadCoefficientsFromBuffer@CImageFilterEditorDlg@@IEAA_NAEAVSapBuffer@@@Z@4HA 0000000067dc27d0 f   ImageFilterEditorDlg.obj
 0001:00041800       ?dtor$1@?0??ReadCoefficientsFromBuffer@CImageFilterEditorDlg@@IEAA_NAEAVSapBuffer@@@Z@4HA 0000000067dc2800 f   ImageFilterEditorDlg.obj
 0001:00041830       ?dtor$2@?0??ReadCoefficientsFromBuffer@CImageFilterEditorDlg@@IEAA_NAEAVSapBuffer@@@Z@4HA 0000000067dc2830 f   ImageFilterEditorDlg.obj
 0001:00041860       ?dtor$1@?0??WriteCoefficients@CImageFilterEditorDlg@@IEAA_NXZ@4HA 0000000067dc2860 f   ImageFilterEditorDlg.obj
 0001:00041890       ?dtor$0@?0??WriteCoefficientsToBuffer@CImageFilterEditorDlg@@IEAA_NAEAVSapBuffer@@@Z@4HA 0000000067dc2890 f   ImageFilterEditorDlg.obj
 0001:000418c0       ?dtor$1@?0??WriteCoefficientsToBuffer@CImageFilterEditorDlg@@IEAA_NAEAVSapBuffer@@@Z@4HA 0000000067dc28c0 f   ImageFilterEditorDlg.obj
 0001:000418f0       ?dtor$3@?0??WriteCoefficientsToBuffer@CImageFilterEditorDlg@@IEAA_NAEAVSapBuffer@@@Z@4HA 0000000067dc28f0 f   ImageFilterEditorDlg.obj
 0001:00041920       ?dtor$4@?0??WriteCoefficientsToBuffer@CImageFilterEditorDlg@@IEAA_NAEAVSapBuffer@@@Z@4HA 0000000067dc2920 f   ImageFilterEditorDlg.obj
 0001:00041950       ?dtor$5@?0??WriteCoefficientsToBuffer@CImageFilterEditorDlg@@IEAA_NAEAVSapBuffer@@@Z@4HA 0000000067dc2950 f   ImageFilterEditorDlg.obj
 0001:00041980       ?dtor$0@?0??OnBnClickedBtnImport@CImageFilterEditorDlg@@IEAAXXZ@4HA 0000000067dc2980 f   ImageFilterEditorDlg.obj
 0001:000419b0       ?dtor$1@?0??OnBnClickedBtnImport@CImageFilterEditorDlg@@IEAAXXZ@4HA 0000000067dc29b0 f   ImageFilterEditorDlg.obj
 0001:000419e0       ?dtor$2@?0??OnBnClickedBtnImport@CImageFilterEditorDlg@@IEAAXXZ@4HA 0000000067dc29e0 f   ImageFilterEditorDlg.obj
 0001:00041a10       ?dtor$3@?0??OnBnClickedBtnImport@CImageFilterEditorDlg@@IEAAXXZ@4HA 0000000067dc2a10 f   ImageFilterEditorDlg.obj
 0001:00041a40       ?dtor$4@?0??OnBnClickedBtnImport@CImageFilterEditorDlg@@IEAAXXZ@4HA 0000000067dc2a40 f   ImageFilterEditorDlg.obj
 0001:00041a70       ?dtor$5@?0??OnBnClickedBtnImport@CImageFilterEditorDlg@@IEAAXXZ@4HA 0000000067dc2a70 f   ImageFilterEditorDlg.obj
 0001:00041ac0       ?dtor$0@?0??OnBnClickedBtnExport@CImageFilterEditorDlg@@IEAAXXZ@4HA 0000000067dc2ac0 f   ImageFilterEditorDlg.obj
 0001:00041af0       ?dtor$1@?0??OnBnClickedBtnExport@CImageFilterEditorDlg@@IEAAXXZ@4HA 0000000067dc2af0 f   ImageFilterEditorDlg.obj
 0001:00041b20       ?dtor$3@?0??OnBnClickedBtnExport@CImageFilterEditorDlg@@IEAAXXZ@4HA 0000000067dc2b20 f   ImageFilterEditorDlg.obj
 0001:00041b50       ?dtor$4@?0??OnBnClickedBtnExport@CImageFilterEditorDlg@@IEAAXXZ@4HA 0000000067dc2b50 f   ImageFilterEditorDlg.obj
 0001:00041b90       ?dtor$0@?0???0?$basic_istringstream@DU?$char_traits@D@std@@V?$allocator@D@2@@std@@QEAA@AEBV?$basic_string@DU?$char_traits@D@std@@V?$allocator@D@2@@1@H@Z@4HA 0000000067dc2b90 f   ImageFilterEditorDlg.obj
 0001:00041bd0       ?dtor$1@?0???0?$basic_istringstream@DU?$char_traits@D@std@@V?$allocator@D@2@@std@@QEAA@AEBV?$basic_string@DU?$char_traits@D@std@@V?$allocator@D@2@@1@H@Z@4HA 0000000067dc2bd0 f   ImageFilterEditorDlg.obj
 0001:00041c00       ?dtor$0@?0???1?$basic_istringstream@DU?$char_traits@D@std@@V?$allocator@D@2@@std@@UEAA@XZ@4HA 0000000067dc2c00 f   ImageFilterEditorDlg.obj
 0001:00041c30       ?dtor$0@?0???1?$basic_stringbuf@DU?$char_traits@D@std@@V?$allocator@D@2@@std@@UEAA@XZ@4HA 0000000067dc2c30 f   ImageFilterEditorDlg.obj
 0001:00041c60       ?dtor$0@?0???0?$basic_stringbuf@DU?$char_traits@D@std@@V?$allocator@D@2@@std@@QEAA@AEBV?$basic_string@DU?$char_traits@D@std@@V?$allocator@D@2@@1@H@Z@4HA 0000000067dc2c60 f   ImageFilterEditorDlg.obj
 0001:00041c90       ?dtor$0@?0???0?$basic_string@DU?$char_traits@D@std@@V?$allocator@D@2@@std@@QEAA@PEBD@Z@4HA 0000000067dc2c90 f   ImageFilterEditorDlg.obj
 0001:00041cc0       ?dtor$0@?0???1?$basic_string@DU?$char_traits@D@std@@V?$allocator@D@2@@std@@QEAA@XZ@4HA 0000000067dc2cc0 f   ImageFilterEditorDlg.obj
 0001:00041cf0       ?dtor$0@?0???0?$_String_val@DV?$allocator@D@std@@@std@@QEAA@V?$allocator@D@1@@Z@4HA 0000000067dc2cf0 f   ImageFilterEditorDlg.obj
 0001:00041d20       ?dtor$0@?0???1?$_String_val@DV?$allocator@D@std@@@std@@QEAA@XZ@4HA 0000000067dc2d20 f   ImageFilterEditorDlg.obj
 0001:00041d50       ?catch$1@?0??_Copy@?$basic_string@DU?$char_traits@D@std@@V?$allocator@D@2@@std@@QEAAX_K0@Z@4HA 0000000067dc2d50 f   ImageFilterEditorDlg.obj
 0001:00041d63       __catch$?_Copy@?$basic_string@DU?$char_traits@D@std@@V?$allocator@D@2@@std@@QEAAX_K0@Z$0 0000000067dc2d63 f   ImageFilterEditorDlg.obj
 0001:00041da0       ?catch$0@?0??_Copy@?$basic_string@DU?$char_traits@D@std@@V?$allocator@D@2@@std@@QEAAX_K0@Z@4HA 0000000067dc2da0 f   ImageFilterEditorDlg.obj
 0001:00041db3       __catch$?_Copy@?$basic_string@DU?$char_traits@D@std@@V?$allocator@D@2@@std@@QEAAX_K0@Z$1 0000000067dc2db3 f   ImageFilterEditorDlg.obj
 0001:00041de0       ?dtor$0@?0??construct@?$allocator@U_Container_proxy@std@@@std@@QEAAXPEAU_Container_proxy@2@$$QEAU32@@Z@4HA 0000000067dc2de0 f   ImageFilterEditorDlg.obj
 0001:00041e10       ?dtor$0@?0???0CImageViewportWnd@@QEAA@XZ@4HA 0000000067dc2e10 f   ImageViewportWnd.obj
 0001:00041e40       ?dtor$1@?0???0CImageViewportWnd@@QEAA@XZ@4HA 0000000067dc2e40 f   ImageViewportWnd.obj
 0001:00041e70       ?dtor$2@?0???0CImageViewportWnd@@QEAA@XZ@4HA 0000000067dc2e70 f   ImageViewportWnd.obj
 0001:00041ea0       ?dtor$0@?0???1CImageViewportWnd@@UEAA@XZ@4HA 0000000067dc2ea0 f   ImageViewportWnd.obj
 0001:00041ed0       ?dtor$1@?0???1CImageViewportWnd@@UEAA@XZ@4HA 0000000067dc2ed0 f   ImageViewportWnd.obj
 0001:00041f00       ?dtor$2@?0???1CImageViewportWnd@@UEAA@XZ@4HA 0000000067dc2f00 f   ImageViewportWnd.obj
 0001:00041f30       ?dtor$0@?0??OnPaint@CImageViewportWnd@@IEAAXXZ@4HA 0000000067dc2f30 f   ImageViewportWnd.obj
 0001:00041f60       ?dtor$0@?0??PaintROI@CImageViewportWnd@@AEAAXXZ@4HA 0000000067dc2f60 f   ImageViewportWnd.obj
 0001:00041f90       ?dtor$0@?0??UpdateScales@CImageViewportWnd@@AEAAXMM@Z@4HA 0000000067dc2f90 f   ImageViewportWnd.obj
 0001:00041fc0       ?dtor$1@?0??UpdateScales@CImageViewportWnd@@AEAAXMM@Z@4HA 0000000067dc2fc0 f   ImageViewportWnd.obj
 0001:00041ff0       ?dtor$0@?0??MoveInView@CImageViewportWnd@@AEAAXVCPoint@@@Z@4HA 0000000067dc2ff0 f   ImageViewportWnd.obj
 0001:00042020       ?dtor$0@?0??TranslatePointToNativeView@CImageViewportWnd@@AEBA?AVCPoint@@V2@@Z@4HA 0000000067dc3020 f   ImageViewportWnd.obj
 0001:00042050       ?dtor$0@?0??TranslatePointToDestinationView@CImageViewportWnd@@AEBA?AVCPoint@@V2@@Z@4HA 0000000067dc3050 f   ImageViewportWnd.obj
 0001:00042080       ?dtor$0@?0??GetDstRectFromCurrentScalingOptions@CImageViewportWnd@@AEBA?AVCRect@@XZ@4HA 0000000067dc3080 f   ImageViewportWnd.obj
 0001:000420b0       ?dtor$0@?0???0SImageViewportROI@@QEAA@XZ@4HA 0000000067dc30b0 f   ImageViewportWnd.obj
 0001:000420e0       ?dtor$1@?0???0SImageViewportROI@@QEAA@XZ@4HA 0000000067dc30e0 f   ImageViewportWnd.obj
 0001:00042110       ?dtor$2@?0???0SImageViewportROI@@QEAA@XZ@4HA 0000000067dc3110 f   ImageViewportWnd.obj
 0001:00042140       ?dtor$0@?0???1SImageViewportROI@@QEAA@XZ@4HA 0000000067dc3140 f   ImageViewportWnd.obj
 0001:00042170       ?dtor$1@?0???1SImageViewportROI@@QEAA@XZ@4HA 0000000067dc3170 f   ImageViewportWnd.obj
 0001:000421a0       ?dtor$2@?0???1SImageViewportROI@@QEAA@XZ@4HA 0000000067dc31a0 f   ImageViewportWnd.obj
 0001:000421d0       ?dtor$0@?0???0CImageWnd@@QEAA@PEAVSapView@@PEAVCWnd@@PEAVCScrollBar@@21@Z@4HA 0000000067dc31d0 f   ImageWnd.obj
 0001:00042200       ?dtor$0@?0???0CImageWnd@@QEAA@PEAVSapView@@PEAVCWnd@@@Z@4HA 0000000067dc3200 f   ImageWnd.obj
 0001:00042230       ?dtor$0@?0??DisplayRoiTracker@CImageWnd@@QEAAXXZ@4HA 0000000067dc3230 f   ImageWnd.obj
 0001:00042260       ?dtor$1@?0??DisplayRoiTracker@CImageWnd@@QEAAXXZ@4HA 0000000067dc3260 f   ImageWnd.obj
 0001:00042290       ?dtor$0@?0??GetPixelString@CImageWnd@@SA?AV?$CStringT@DV?$StrTraitMFC_DLL@DV?$ChTraitsCRT@D@ATL@@@@@ATL@@PEAVSapBuffer@@VCPoint@@HH@Z@4HA 0000000067dc3290 f   ImageWnd.obj
 0001:000422c0       ?dtor$1@?0??GetPixelString@CImageWnd@@SA?AV?$CStringT@DV?$StrTraitMFC_DLL@DV?$ChTraitsCRT@D@ATL@@@@@ATL@@PEAVSapBuffer@@VCPoint@@HH@Z@4HA 0000000067dc32c0 f   ImageWnd.obj
 0001:000422f0       ?dtor$2@?0??GetPixelString@CImageWnd@@SA?AV?$CStringT@DV?$StrTraitMFC_DLL@DV?$ChTraitsCRT@D@ATL@@@@@ATL@@PEAVSapBuffer@@VCPoint@@HH@Z@4HA 0000000067dc32f0 f   ImageWnd.obj
 0001:00042320       ?dtor$3@?0??GetPixelString@CImageWnd@@SA?AV?$CStringT@DV?$StrTraitMFC_DLL@DV?$ChTraitsCRT@D@ATL@@@@@ATL@@PEAVSapBuffer@@VCPoint@@HH@Z@4HA 0000000067dc3320 f   ImageWnd.obj
 0001:00042350       ?dtor$4@?0??GetPixelString@CImageWnd@@SA?AV?$CStringT@DV?$StrTraitMFC_DLL@DV?$ChTraitsCRT@D@ATL@@@@@ATL@@PEAVSapBuffer@@VCPoint@@HH@Z@4HA 0000000067dc3350 f   ImageWnd.obj
 0001:00042380       ?dtor$5@?0??GetPixelString@CImageWnd@@SA?AV?$CStringT@DV?$StrTraitMFC_DLL@DV?$ChTraitsCRT@D@ATL@@@@@ATL@@PEAVSapBuffer@@VCPoint@@HH@Z@4HA 0000000067dc3380 f   ImageWnd.obj
 0001:000423b0       ?dtor$6@?0??GetPixelString@CImageWnd@@SA?AV?$CStringT@DV?$StrTraitMFC_DLL@DV?$ChTraitsCRT@D@ATL@@@@@ATL@@PEAVSapBuffer@@VCPoint@@HH@Z@4HA 0000000067dc33b0 f   ImageWnd.obj
 0001:000423e0       ?dtor$7@?0??GetPixelString@CImageWnd@@SA?AV?$CStringT@DV?$StrTraitMFC_DLL@DV?$ChTraitsCRT@D@ATL@@@@@ATL@@PEAVSapBuffer@@VCPoint@@HH@Z@4HA 0000000067dc33e0 f   ImageWnd.obj
 0001:00042410       ?dtor$8@?0??GetPixelString@CImageWnd@@SA?AV?$CStringT@DV?$StrTraitMFC_DLL@DV?$ChTraitsCRT@D@ATL@@@@@ATL@@PEAVSapBuffer@@VCPoint@@HH@Z@4HA 0000000067dc3410 f   ImageWnd.obj
 0001:00042440       ?dtor$9@?0??GetPixelString@CImageWnd@@SA?AV?$CStringT@DV?$StrTraitMFC_DLL@DV?$ChTraitsCRT@D@ATL@@@@@ATL@@PEAVSapBuffer@@VCPoint@@HH@Z@4HA 0000000067dc3440 f   ImageWnd.obj
 0001:00042470       ?dtor$10@?0??GetPixelString@CImageWnd@@SA?AV?$CStringT@DV?$StrTraitMFC_DLL@DV?$ChTraitsCRT@D@ATL@@@@@ATL@@PEAVSapBuffer@@VCPoint@@HH@Z@4HA 0000000067dc3470 f   ImageWnd.obj
 0001:000424a0       ?dtor$11@?0??GetPixelString@CImageWnd@@SA?AV?$CStringT@DV?$StrTraitMFC_DLL@DV?$ChTraitsCRT@D@ATL@@@@@ATL@@PEAVSapBuffer@@VCPoint@@HH@Z@4HA 0000000067dc34a0 f   ImageWnd.obj
 0001:000424d0       ?dtor$12@?0??GetPixelString@CImageWnd@@SA?AV?$CStringT@DV?$StrTraitMFC_DLL@DV?$ChTraitsCRT@D@ATL@@@@@ATL@@PEAVSapBuffer@@VCPoint@@HH@Z@4HA 0000000067dc34d0 f   ImageWnd.obj
 0001:00042500       ?dtor$13@?0??GetPixelString@CImageWnd@@SA?AV?$CStringT@DV?$StrTraitMFC_DLL@DV?$ChTraitsCRT@D@ATL@@@@@ATL@@PEAVSapBuffer@@VCPoint@@HH@Z@4HA 0000000067dc3500 f   ImageWnd.obj
 0001:00042530       ?dtor$14@?0??GetPixelString@CImageWnd@@SA?AV?$CStringT@DV?$StrTraitMFC_DLL@DV?$ChTraitsCRT@D@ATL@@@@@ATL@@PEAVSapBuffer@@VCPoint@@HH@Z@4HA 0000000067dc3530 f   ImageWnd.obj
 0001:00042560       ?dtor$15@?0??GetPixelString@CImageWnd@@SA?AV?$CStringT@DV?$StrTraitMFC_DLL@DV?$ChTraitsCRT@D@ATL@@@@@ATL@@PEAVSapBuffer@@VCPoint@@HH@Z@4HA 0000000067dc3560 f   ImageWnd.obj
 0001:00042590       ?dtor$0@?0???0CJpegFileDlg@@QEAA@PEAVCWnd@@H@Z@4HA 0000000067dc3590 f   JpegFileDlg.obj
 0001:000425c0       ?dtor$0@?0???0CLoadSaveDlg@@QEAA@PEAVCWnd@@PEAVSapBuffer@@HH@Z@4HA 0000000067dc35c0 f   LoadSaveDlg.obj
 0001:000425f0       ?dtor$1@?0???0CLoadSaveDlg@@QEAA@PEAVCWnd@@PEAVSapBuffer@@HH@Z@4HA 0000000067dc35f0 f   LoadSaveDlg.obj
 0001:00042630       ?dtor$0@?0??UpdateBuffer@CLoadSaveDlg@@IEAAHXZ@4HA 0000000067dc3630 f   LoadSaveDlg.obj
 0001:00042660       ?dtor$1@?0??UpdateBuffer@CLoadSaveDlg@@IEAAHXZ@4HA 0000000067dc3660 f   LoadSaveDlg.obj
 0001:00042690       ?dtor$2@?0??UpdateBuffer@CLoadSaveDlg@@IEAAHXZ@4HA 0000000067dc3690 f   LoadSaveDlg.obj
 0001:000426c0       ?dtor$3@?0??UpdateBuffer@CLoadSaveDlg@@IEAAHXZ@4HA 0000000067dc36c0 f   LoadSaveDlg.obj
 0001:000426f0       ?dtor$4@?0??UpdateBuffer@CLoadSaveDlg@@IEAAHXZ@4HA 0000000067dc36f0 f   LoadSaveDlg.obj
 0001:00042720       ?dtor$5@?0??UpdateBuffer@CLoadSaveDlg@@IEAAHXZ@4HA 0000000067dc3720 f   LoadSaveDlg.obj
 0001:00042750       ?dtor$0@?0??LoadSettings@CLoadSaveDlg@@IEAAXXZ@4HA 0000000067dc3750 f   LoadSaveDlg.obj
 0001:00042780       ?dtor$0@?0??SaveSettings@CLoadSaveDlg@@IEAAXXZ@4HA 0000000067dc3780 f   LoadSaveDlg.obj
 0001:000427b0       ?dtor$0@?0??AddTiffOptions@CLoadSaveDlg@@IEAAHXZ@4HA 0000000067dc37b0 f   LoadSaveDlg.obj
 0001:000427e0       ?dtor$1@?0??AddTiffOptions@CLoadSaveDlg@@IEAAHXZ@4HA 0000000067dc37e0 f   LoadSaveDlg.obj
 0001:00042810       ?dtor$2@?0??AddTiffOptions@CLoadSaveDlg@@IEAAHXZ@4HA 0000000067dc3810 f   LoadSaveDlg.obj
 0001:00042840       ?dtor$0@?0??AddRawOptions@CLoadSaveDlg@@IEAAHXZ@4HA 0000000067dc3840 f   LoadSaveDlg.obj
 0001:00042870       ?dtor$1@?0??AddRawOptions@CLoadSaveDlg@@IEAAHXZ@4HA 0000000067dc3870 f   LoadSaveDlg.obj
 0001:000428a0       ?dtor$0@?0??AddJpegOptions@CLoadSaveDlg@@IEAAHXZ@4HA 0000000067dc38a0 f   LoadSaveDlg.obj
 0001:000428d0       ?dtor$1@?0??AddJpegOptions@CLoadSaveDlg@@IEAAHXZ@4HA 0000000067dc38d0 f   LoadSaveDlg.obj
 0001:00042900       ?dtor$0@?0??AddAviOptions@CLoadSaveDlg@@IEAAHXZ@4HA 0000000067dc3900 f   LoadSaveDlg.obj
 0001:00042930       ?dtor$0@?0??OnTypeChange@CLoadSaveDlg@@MEAAXXZ@4HA 0000000067dc3930 f   LoadSaveDlg.obj
 0001:00042960       ?dtor$0@?0???1CRawFileDlg@@UEAA@XZ@4HA 0000000067dc3960 f   LoadSaveDlg.obj
 0001:00042990       ?dtor$0@?0???0CLScanDlg@@QEAA@PEAVCWnd@@PEAVSapAcquisition@@@Z@4HA 0000000067dc3990 f   LScanDlg.obj
 0001:000429c0       ?dtor$1@?0???0CLScanDlg@@QEAA@PEAVCWnd@@PEAVSapAcquisition@@@Z@4HA 0000000067dc39c0 f   LScanDlg.obj
 0001:000429f0       ?dtor$2@?0???0CLScanDlg@@QEAA@PEAVCWnd@@PEAVSapAcquisition@@@Z@4HA 0000000067dc39f0 f   LScanDlg.obj
 0001:00042a20       ?dtor$0@?0??VerifyLineIntegrateDuration@CLScanDlg@@IEAAXXZ@4HA 0000000067dc3a20 f   LScanDlg.obj
 0001:00042a50       ?dtor$0@?0???1CLScanDlg@@UEAA@XZ@4HA 0000000067dc3a50 f   LScanDlg.obj
 0001:00042a80       ?dtor$1@?0???1CLScanDlg@@UEAA@XZ@4HA 0000000067dc3a80 f   LScanDlg.obj
 0001:00042ab0       ?dtor$2@?0???1CLScanDlg@@UEAA@XZ@4HA 0000000067dc3ab0 f   LScanDlg.obj
 0001:00042ae0       ?dtor$0@?0???0CRawFileDlg@@QEAA@PEAVCWnd@@HHHH@Z@4HA 0000000067dc3ae0 f   RawFileDlg.obj
 0001:00042b10       ?dtor$1@?0???0CRawFileDlg@@QEAA@PEAVCWnd@@HHHH@Z@4HA 0000000067dc3b10 f   RawFileDlg.obj
 0001:00042b40       ?dtor$0@?0??OnInitDialog@CRawFileDlg@@MEAAHXZ@4HA 0000000067dc3b40 f   RawFileDlg.obj
 0001:00042b70       ?dtor$0@?0??SapClassGuiInitModule@@YAXXZ@4HA 0000000067dc3b70 f   SapClassGui.obj
 0001:00042ba0       ?dtor$0@?0???1CViewDlg@@UEAA@XZ@4HA 0000000067dc3ba0 f   SapClassGui.obj
 0001:00042bd0       ?dtor$1@?0???1CViewDlg@@UEAA@XZ@4HA 0000000067dc3bd0 f   SapClassGui.obj
 0001:00042c00       ?dtor$2@?0???1CViewDlg@@UEAA@XZ@4HA 0000000067dc3c00 f   SapClassGui.obj
 0001:00042c30       ?dtor$3@?0???1CViewDlg@@UEAA@XZ@4HA 0000000067dc3c30 f   SapClassGui.obj
 0001:00042c60       ?dtor$4@?0???1CViewDlg@@UEAA@XZ@4HA 0000000067dc3c60 f   SapClassGui.obj
 0001:00042c90       ?dtor$0@?0???0CTiffFileDlg@@QEAA@PEAVCWnd@@HH@Z@4HA 0000000067dc3c90 f   TiffFileDlg.obj
 0001:00042cc0       ?dtor$0@?0???0CViewDlg@@QEAA@PEAVCWnd@@PEAVSapView@@@Z@4HA 0000000067dc3cc0 f   ViewDlg.obj
 0001:00042cf0       ?dtor$1@?0???0CViewDlg@@QEAA@PEAVCWnd@@PEAVSapView@@@Z@4HA 0000000067dc3cf0 f   ViewDlg.obj
 0001:00042d20       ?dtor$2@?0???0CViewDlg@@QEAA@PEAVCWnd@@PEAVSapView@@@Z@4HA 0000000067dc3d20 f   ViewDlg.obj
 0001:00042d50       ?dtor$3@?0???0CViewDlg@@QEAA@PEAVCWnd@@PEAVSapView@@@Z@4HA 0000000067dc3d50 f   ViewDlg.obj
 0001:00042d80       ?dtor$4@?0???0CViewDlg@@QEAA@PEAVCWnd@@PEAVSapView@@@Z@4HA 0000000067dc3d80 f   ViewDlg.obj
 0001:00042db0       ?dtor$5@?0???0CViewDlg@@QEAA@PEAVCWnd@@PEAVSapView@@@Z@4HA 0000000067dc3db0 f   ViewDlg.obj
 0001:00042de0       ?dtor$6@?0???0CViewDlg@@QEAA@PEAVCWnd@@PEAVSapView@@@Z@4HA 0000000067dc3de0 f   ViewDlg.obj
 0001:00042e10       ?dtor$0@?0??OnInitDialog@CViewDlg@@MEAAHXZ@4HA 0000000067dc3e10 f   ViewDlg.obj
 0001:00042e40       ?dtor$1@?0??OnInitDialog@CViewDlg@@MEAAHXZ@4HA 0000000067dc3e40 f   ViewDlg.obj
 0001:00042e70       ?dtor$2@?0??OnInitDialog@CViewDlg@@MEAAHXZ@4HA 0000000067dc3e70 f   ViewDlg.obj
 0001:00042ea0       ?fin$0@?0???_M@YAXPEAX_KHP6AX0@Z@Z@4HA 0000000067dc3ea0 f   msvcrtd:ehvecdtr.obj
 0001:00042ed0       ?filt$0@?0??__ArrayUnwind@@YAXPEAX_KHP6AX0@Z@Z@4HA 0000000067dc3ed0 f   msvcrtd:ehvecdtr.obj
 0001:00042f00       _onexit$fin$0              0000000067dc3f00 f   msvcrtd:atonexit.obj
 0001:00042f20       ?fin$0@?0???_L@YAXPEAX_KHP6AX0@Z2@Z@4HA 0000000067dc3f20 f   msvcrtd:ehvecctr.obj
 0001:00042f50       __DllMainCRTStartup$filt$0 0000000067dc3f50 f   msvcrtd:crtdll.obj
 0001:00042f80       __DllMainCRTStartup$fin$1  0000000067dc3f80 f   msvcrtd:crtdll.obj
 0001:00042fa0       _IsNonwritableInCurrentImage$filt$0 0000000067dc3fa0 f   msvcrtd:pesect.obj
 0001:00042fe0       ?fin$0@?0??Init@CAtlAllocator@@QEAA_NPEBDK@Z@4HA 0000000067dc3fe0 f   atlsd:Allocate.obj
 0001:000430c0       ?fin$0@?0??Open@CAtlAllocator@@QEAA_NPEBD@Z@4HA 0000000067dc40c0 f   atlsd:Allocate.obj
 0001:00043140       ??__E?m_Methods@CColorConversionOptionsDlg@@0PAUSapColorConversionMethodDictionary@@A@@YAXXZ 0000000067dc4140 f   ColorConversionDlg.obj
 0001:00043270       ??__Eclash@Inconsistent_definition_of_symbol__ATL_MIXED@@YAXXZ 0000000067dc4270 f   SapClassGui.obj
 0001:000432a0       ??__Eclash@Define_the_symbol__ATL_MIXED@@YAXXZ 0000000067dc42a0 f   SapClassGui.obj
 0001:000432d0       ??__Eclash@Inconsistent_definition_of_symbol__ATL_MIXED@@YAXXZ 0000000067dc42d0 f   mfcs100d:nolib.obj
 0001:000432f0       ??__Eclash@Define_the_symbol__ATL_MIXED@@YAXXZ 0000000067dc42f0 f   mfcs100d:nolib.obj
 0001:00043310       ??__Eclash@Inconsistent_definition_of_symbol__ATL_MIXED@@YAXXZ 0000000067dc4310 f   mfcs100d:stdafx.obj
 0001:00043330       ??__Eclash@Define_the_symbol__ATL_MIXED@@YAXXZ 0000000067dc4330 f   mfcs100d:stdafx.obj
 0001:00043350       ??__Eg_Allocator@@YAXXZ    0000000067dc4350 f   atlsd:Externs.obj
 0001:00043380       ??__Eg_bInitialized@@YAXXZ 0000000067dc4380 f   atlsd:Externs.obj
 0001:000433a0       ??__E?s_trace@CTrace@ATL@@2V12@A@@YAXXZ 0000000067dc43a0 f   atlsd:Externs.obj
 0001:000433d0       ??__EatlTraceGeneral@ATL@@YAXXZ 0000000067dc43d0 f   atlsd:atltrace.obj
 0001:000433f0       ??__EatlTraceCOM@ATL@@YAXXZ 0000000067dc43f0 f   atlsd:atltrace.obj
 0001:00043410       ??__EatlTraceQI@ATL@@YAXXZ 0000000067dc4410 f   atlsd:atltrace.obj
 0001:00043430       ??__EatlTraceRegistrar@ATL@@YAXXZ 0000000067dc4430 f   atlsd:atltrace.obj
 0001:00043450       ??__EatlTraceRefcount@ATL@@YAXXZ 0000000067dc4450 f   atlsd:atltrace.obj
 0001:00043470       ??__EatlTraceWindowing@ATL@@YAXXZ 0000000067dc4470 f   atlsd:atltrace.obj
 0001:00043490       ??__EatlTraceControls@ATL@@YAXXZ 0000000067dc4490 f   atlsd:atltrace.obj
 0001:000434b0       ??__EatlTraceHosting@ATL@@YAXXZ 0000000067dc44b0 f   atlsd:atltrace.obj
 0001:000434d0       ??__EatlTraceDBClient@ATL@@YAXXZ 0000000067dc44d0 f   atlsd:atltrace.obj
 0001:000434f0       ??__EatlTraceDBProvider@ATL@@YAXXZ 0000000067dc44f0 f   atlsd:atltrace.obj
 0001:00043510       ??__EatlTraceSnapin@ATL@@YAXXZ 0000000067dc4510 f   atlsd:atltrace.obj
 0001:00043530       ??__EatlTraceNotImpl@ATL@@YAXXZ 0000000067dc4530 f   atlsd:atltrace.obj
 0001:00043550       ??__EatlTraceAllocation@ATL@@YAXXZ 0000000067dc4550 f   atlsd:atltrace.obj
 0001:00043570       ??__EatlTraceException@ATL@@YAXXZ 0000000067dc4570 f   atlsd:atltrace.obj
 0001:00043590       ??__EatlTraceTime@ATL@@YAXXZ 0000000067dc4590 f   atlsd:atltrace.obj
 0001:000435b0       ??__EatlTraceCache@ATL@@YAXXZ 0000000067dc45b0 f   atlsd:atltrace.obj
 0001:000435d0       ??__EatlTraceStencil@ATL@@YAXXZ 0000000067dc45d0 f   atlsd:atltrace.obj
 0001:000435f0       ??__EatlTraceString@ATL@@YAXXZ 0000000067dc45f0 f   atlsd:atltrace.obj
 0001:00043610       ??__EatlTraceMap@ATL@@YAXXZ 0000000067dc4610 f   atlsd:atltrace.obj
 0001:00043630       ??__EatlTraceUtil@ATL@@YAXXZ 0000000067dc4630 f   atlsd:atltrace.obj
 0001:00043650       ??__EatlTraceSecurity@ATL@@YAXXZ 0000000067dc4650 f   atlsd:atltrace.obj
 0001:00043670       ??__EatlTraceSync@ATL@@YAXXZ 0000000067dc4670 f   atlsd:atltrace.obj
 0001:00043690       ??__EatlTraceISAPI@ATL@@YAXXZ 0000000067dc4690 f   atlsd:atltrace.obj
 0001:000436b0       ??__EatlTraceUser@ATL@@YAXXZ 0000000067dc46b0 f   atlsd:atltrace.obj
 0001:000436d0       ??__EatlTraceUser2@ATL@@YAXXZ 0000000067dc46d0 f   atlsd:atltrace.obj
 0001:000436f0       ??__EatlTraceUser3@ATL@@YAXXZ 0000000067dc46f0 f   atlsd:atltrace.obj
 0001:00043710       ??__EatlTraceUser4@ATL@@YAXXZ 0000000067dc4710 f   atlsd:atltrace.obj
 0001:00043730       ??__F?m_Methods@CColorConversionOptionsDlg@@0PAUSapColorConversionMethodDictionary@@A@@YAXXZ 0000000067dc4730 f   ColorConversionDlg.obj
 0001:00043770       ??__Fg_Allocator@@YAXXZ    0000000067dc4770 f   atlsd:Externs.obj
 0001:00043790       ??__F?s_trace@CTrace@ATL@@2V12@A@@YAXXZ 0000000067dc4790 f   atlsd:Externs.obj
