 SapClassGui82.NET_2010

 Timestamp is 5ac495ff (Wed Apr 04 17:08:15 2018)

 Preferred load address is 0000000067d80000

 Start         Length     Name                   Class
 0001:00000000 00021d74H .text                   CODE
 0001:00021d80 00002b32H .text$x                 CODE
 0001:000248c0 0000010bH .text$yc                CODE
 0001:000249d0 0000001cH .text$yd                CODE
 0002:00000000 000016e8H .idata$5                DATA
 0002:000016e8 00000008H .CRT$XCA                DATA
 0002:000016f0 00000008H .CRT$XCU                DATA
 0002:000016f8 00000008H .CRT$XCZ                DATA
 0002:00001700 00000008H .CRT$XIA                DATA
 0002:00001708 00000008H .CRT$XIAA               DATA
 0002:00001710 00000008H .CRT$XIZ                DATA
 0002:00001720 0000c07cH .rdata                  DATA
 0002:0000d7a0 00002164H .rdata$r                DATA
 0002:0000f908 00000008H .rtc$IAA                DATA
 0002:0000f910 00000008H .rtc$IZZ                DATA
 0002:0000f918 00000008H .rtc$TAA                DATA
 0002:0000f920 00000008H .rtc$TZZ                DATA
 0002:0000f928 000058fcH .xdata                  DATA
 0002:00015228 00000084H .xdata$x                DATA
 0002:000152b0 00000008H ATL$__a                 DATA
 0002:000152b8 00000008H ATL$__z                 DATA
 0002:000152c0 000000c8H .idata$2                DATA
 0002:00015388 00000014H .idata$3                DATA
 0002:000153a0 000016e8H .idata$4                DATA
 0002:00016a88 00004000H .idata$6                DATA
 0002:0001aa90 00007713H .edata                  DATA
 0003:00000000 000013bcH .data                   DATA
 0003:000013c0 000006c8H .bss                    DATA
 0004:00000000 0000210cH .pdata                  DATA
 0005:00000000 000008e0H .rsrc$01                DATA
 0005:000008e0 00019a80H .rsrc$02                DATA

  Address         Publics by Value              Rva+Base               Lib:Object

 0000:00000000       ___safe_se_handler_table   0000000000000000     <absolute>
 0000:00000000       ___safe_se_handler_count   0000000000000000     <absolute>
 0000:00000000       __ImageBase                0000000067d80000     <linker-defined>
 0001:00000000       ??0CRect@@QEAA@XZ          0000000067d81000 f i AbortDlg.obj
 0001:00000010       ??3CObject@@SAXPEAX@Z      0000000067d81010 f i AbortDlg.obj
 0001:00000020       ?GetWindowRect@CWnd@@QEBAXPEAUtagRECT@@@Z 0000000067d81020 f i AbortDlg.obj
 0001:00000030       ?SetTimer@CWnd@@QEAA_K_KIP6AXPEAUHWND__@@I0K@Z@Z 0000000067d81030 f i AbortDlg.obj
 0001:00000040       ?KillTimer@CWnd@@QEAAH_K@Z 0000000067d81040 f i AbortDlg.obj
 0001:00000050       ?OnTimer@CWnd@@IEAAX_K@Z   0000000067d81050 f i AbortDlg.obj
 0001:00000060       ?DoDataExchange@CWnd@@MEAAXPEAVCDataExchange@@@Z 0000000067d81060 f i AbortDlg.obj
 0001:00000070       ??1CAbortDlg@@UEAA@XZ      0000000067d81070 f i AbortDlg.obj
 0001:00000080       ??_GCAbortDlg@@UEAAPEAXI@Z 0000000067d81080 f i AbortDlg.obj
 0001:000000b0       ??_ECAbortDlg@@UEAAPEAXI@Z 0000000067d810b0 f i AbortDlg.obj
 0001:00000130       ??0CAbortDlg@@QEAA@PEAVCWnd@@PEAVSapTransfer@@H@Z 0000000067d81130 f   AbortDlg.obj
 0001:00000190       ?Serialize@CObject@@UEAAXAEAVCArchive@@@Z 0000000067d81190 f i AbortDlg.obj
 0001:000001a0       ?AssertValid@CObject@@UEBAXXZ 0000000067d811a0 f i AbortDlg.obj
 0001:000001b0       ?Dump@CObject@@UEBAXAEAVCDumpContext@@@Z 0000000067d811b0 f i AbortDlg.obj
 0001:000001c0       ?BeginModalState@CWnd@@UEAAXXZ 0000000067d811c0 f i AbortDlg.obj
 0001:000001d0       ?EndModalState@CWnd@@UEAAXXZ 0000000067d811d0 f i AbortDlg.obj
 0001:000001e0       ?Create@CDialog@@UEAAHIPEAVCWnd@@@Z 0000000067d811e0 f i AbortDlg.obj
 0001:000001f0       ?DoDataExchange@CAbortDlg@@MEAAXPEAVCDataExchange@@@Z 0000000067d811f0 f   AbortDlg.obj
 0001:00000200       ?OnInitDialog@CAbortDlg@@MEAAHXZ 0000000067d81200 f   AbortDlg.obj
 0001:000002b0       ?OnAbort@CAbortDlg@@IEAAXXZ 0000000067d812b0 f   AbortDlg.obj
 0001:000002e0       ?OnTimer@CAbortDlg@@IEAAX_K@Z 0000000067d812e0 f   AbortDlg.obj
 0001:00000380       ?GetThisMessageMap@CAbortDlg@@KAPEBUAFX_MSGMAP@@XZ 0000000067d81380 f   AbortDlg.obj
 0001:00000390       ?GetMessageMap@CAbortDlg@@MEBAPEBUAFX_MSGMAP@@XZ 0000000067d81390 f   AbortDlg.obj
 0001:000003a0       ?strrchr@@YAPEADPEADH@Z    0000000067d813a0 f i AcqConfigDlg.obj
 0001:000003b0       ?strstr@@YAPEADPEADPEBD@Z  0000000067d813b0 f i AcqConfigDlg.obj
 0001:000003c0       ?GetLocation@CAcqConfigDlg@@QEAA?AVSapLocation@@XZ 0000000067d813c0 f   AcqConfigDlg.obj
 0001:00000430       ?UpdateAcquisition@CAcqConfigDlg@@IEAAHXZ 0000000067d81430 f   AcqConfigDlg.obj
 0001:00000530       ?SaveSettings@CAcqConfigDlg@@IEAAXXZ 0000000067d81530 f   AcqConfigDlg.obj
 0001:00000650       ?UpdateDescription@CAcqConfigDlg@@IEAAXXZ 0000000067d81650 f   AcqConfigDlg.obj
 0001:000009b0       ?ValidateCCFAgainstServerName@CAcqConfigDlg@@IEAA_N_N@Z 0000000067d819b0 f   AcqConfigDlg.obj
 0001:00000b50       ?GetConfigFile@CAcqConfigDlg@@QEAAPEBDXZ 0000000067d81b50 f   AcqConfigDlg.obj
 0001:00000b70       ??HATL@@YA?AV?$CStringT@DV?$StrTraitMFC_DLL@DV?$ChTraitsCRT@D@ATL@@@@@0@AEBV10@0@Z 0000000067d81b70 f i AcqConfigDlg.obj
 0001:00000c20       ?AfxGetApp@@YAPEAVCWinApp@@XZ 0000000067d81c20 f i AcqConfigDlg.obj
 0001:00000c40       ?BringWindowToTop@CWnd@@QEAAXXZ 0000000067d81c40 f i AcqConfigDlg.obj
 0001:00000c50       ??0CListBox@@QEAA@XZ       0000000067d81c50 f i AcqConfigDlg.obj
 0001:00000c80       ??_GCListBox@@UEAAPEAXI@Z  0000000067d81c80 f i AcqConfigDlg.obj
 0001:00000c80       ??_ECListBox@@UEAAPEAXI@Z  0000000067d81c80 f i AcqConfigDlg.obj
 0001:00000cb0       ??0CComboBox@@QEAA@XZ      0000000067d81cb0 f i AcqConfigDlg.obj
 0001:00000ce0       ??_GCComboBox@@UEAAPEAXI@Z 0000000067d81ce0 f i AcqConfigDlg.obj
 0001:00000ce0       ??_ECComboBox@@UEAAPEAXI@Z 0000000067d81ce0 f i AcqConfigDlg.obj
 0001:00000d10       ?GetCount@CComboBox@@QEBAHXZ 0000000067d81d10 f i AcqConfigDlg.obj
 0001:00000d30       ?GetCurSel@CComboBox@@QEBAHXZ 0000000067d81d30 f i AcqConfigDlg.obj
 0001:00000d50       ?SetCurSel@CComboBox@@QEAAHH@Z 0000000067d81d50 f i AcqConfigDlg.obj
 0001:00000d70       ?GetItemData@CComboBox@@QEBA_KH@Z 0000000067d81d70 f i AcqConfigDlg.obj
 0001:00000d90       ?SetItemData@CComboBox@@QEAAHH_K@Z 0000000067d81d90 f i AcqConfigDlg.obj
 0001:00000db0       ?AddString@CComboBox@@QEAAHPEBD@Z 0000000067d81db0 f i AcqConfigDlg.obj
 0001:00000dd0       ?ResetContent@CComboBox@@QEAAXXZ 0000000067d81dd0 f i AcqConfigDlg.obj
 0001:00000df0       ?SelectString@CComboBox@@QEAAHHPEBD@Z 0000000067d81df0 f i AcqConfigDlg.obj
 0001:00000e10       ??0CEdit@@QEAA@XZ          0000000067d81e10 f i AcqConfigDlg.obj
 0001:00000e40       ??_GCEdit@@UEAAPEAXI@Z     0000000067d81e40 f i AcqConfigDlg.obj
 0001:00000f80       ??1CAcqConfigDlg@@UEAA@XZ  0000000067d81f80 f i AcqConfigDlg.obj
 0001:00001020       ??_GCAcqConfigDlg@@UEAAPEAXI@Z 0000000067d82020 f i AcqConfigDlg.obj
 0001:00001050       ??_ECAcqConfigDlg@@UEAAPEAXI@Z 0000000067d82050 f i AcqConfigDlg.obj
 0001:000010d0       ?DoDataExchange@CAcqConfigDlg@@MEAAXPEAVCDataExchange@@@Z 0000000067d820d0 f   AcqConfigDlg.obj
 0001:00001170       ?InitServerCombo@CAcqConfigDlg@@IEAAXXZ 0000000067d82170 f   AcqConfigDlg.obj
 0001:000013d0       ?UpdateMenu@CAcqConfigDlg@@IEAAXXZ 0000000067d823d0 f   AcqConfigDlg.obj
 0001:000014e0       ?OnOK@CAcqConfigDlg@@MEAAXXZ 0000000067d824e0 f   AcqConfigDlg.obj
 0001:000015d0       ?OnSelchangeComboResource@CAcqConfigDlg@@IEAAXXZ 0000000067d825d0 f   AcqConfigDlg.obj
 0001:000015f0       ?OnBnClickedConfigFileCheck@CAcqConfigDlg@@IEAAXXZ 0000000067d825f0 f   AcqConfigDlg.obj
 0001:00001610       ?StringCbCopyA@@YAJPEAD_KPEBD@Z 0000000067d82610 f i AcqConfigDlg.obj
 0001:00001690       ?StringCbPrintfA@@YAJPEAD_KPEBDZZ 0000000067d82690 f i AcqConfigDlg.obj
 0001:00001710       ?LoadSettings@CAcqConfigDlg@@IEAAXXZ 0000000067d82710 f   AcqConfigDlg.obj
 0001:00001980       ?InitResourceCombo@CAcqConfigDlg@@IEAAXXZ 0000000067d82980 f   AcqConfigDlg.obj
 0001:00001d30       ?SplitConfigFilePath@CAcqConfigDlg@@IEAAXXZ 0000000067d82d30 f   AcqConfigDlg.obj
 0001:00001e30       ?OnSelchangeComboServer@CAcqConfigDlg@@IEAAXXZ 0000000067d82e30 f   AcqConfigDlg.obj
 0001:00001e60       ??0CAcqConfigDlg@@QEAA@PEAVCWnd@@W4ServerCategory@0@@Z 0000000067d82e60 f   AcqConfigDlg.obj
 0001:00001fb0       ??_ECAcqConfigDlg@@WBBI@EAAPEAXI@Z 0000000067d82fb0 f i AcqConfigDlg.obj
 0001:00001fc0       ??0CAcqConfigDlg@@QEAA@PEAVCWnd@@VSapLocation@@PEBDW4ServerCategory@0@@Z 0000000067d82fc0 f   AcqConfigDlg.obj
 0001:000021b0       ??0CAcqConfigDlg@@QEAA@PEAVCWnd@@PEAVSapAcquisition@@PEBD@Z 0000000067d831b0 f   AcqConfigDlg.obj
 0001:000023e0       ?OnInitDialog@CAcqConfigDlg@@MEAAHXZ 0000000067d833e0 f   AcqConfigDlg.obj
 0001:000024b0       ?OnConfigBrowse@CAcqConfigDlg@@IEAAXXZ 0000000067d834b0 f   AcqConfigDlg.obj
 0001:00002640       ?GetThisMessageMap@CAcqConfigDlg@@KAPEBUAFX_MSGMAP@@XZ 0000000067d83640 f   AcqConfigDlg.obj
 0001:00002650       ?GetMessageMap@CAcqConfigDlg@@MEBAPEBUAFX_MSGMAP@@XZ 0000000067d83650 f   AcqConfigDlg.obj
 0001:00002660       ??0CAcqDlg@@QEAA@PEAVCWnd@@PEAVSapAcquisition@@@Z 0000000067d83660 f   AcqDlg.obj
 0001:000026e0       ?UpdateWindow@CAcqDlg@@IEAAXXZ 0000000067d836e0 f   AcqDlg.obj
 0001:000027f0       ?OnExternalTriggerEnable@CAcqDlg@@IEAAXXZ 0000000067d837f0 f   AcqDlg.obj
 0001:00002810       ?GetCheck@CButton@@QEBAHXZ 0000000067d83810 f i AcqDlg.obj
 0001:00002830       ?SetCheck@CButton@@QEAAXH@Z 0000000067d83830 f i AcqDlg.obj
 0001:000028f0       ??1CAcqDlg@@UEAA@XZ        0000000067d838f0 f i AcqDlg.obj
 0001:00002930       ??_GCAcqDlg@@UEAAPEAXI@Z   0000000067d83930 f i AcqDlg.obj
 0001:00002980       ??_ECAcqDlg@@UEAAPEAXI@Z   0000000067d83980 f i AcqDlg.obj
 0001:00002a10       ?DoDataExchange@CAcqDlg@@MEAAXPEAVCDataExchange@@@Z 0000000067d83a10 f   AcqDlg.obj
 0001:00002a60       ?GetThisMessageMap@CAcqDlg@@KAPEBUAFX_MSGMAP@@XZ 0000000067d83a60 f   AcqDlg.obj
 0001:00002a70       ?OnOK@CAcqDlg@@MEAAXXZ     0000000067d83a70 f   AcqDlg.obj
 0001:00002ca0       ??_ECAcqDlg@@WBBI@EAAPEAXI@Z 0000000067d83ca0 f i AcqDlg.obj
 0001:00002cb0       ?GetMessageMap@CAcqDlg@@MEBAPEBUAFX_MSGMAP@@XZ 0000000067d83cb0 f   AcqDlg.obj
 0001:00002cc0       ?OnInitDialog@CAcqDlg@@MEAAHXZ 0000000067d83cc0 f   AcqDlg.obj
 0001:000032d0       ??0CScrollBar@@QEAA@XZ     0000000067d842d0 f i AScanDlg.obj
 0001:00003300       ??_GCScrollBar@@UEAAPEAXI@Z 0000000067d84300 f i AScanDlg.obj
 0001:00003300       ??_ECScrollBar@@UEAAPEAXI@Z 0000000067d84300 f i AScanDlg.obj
 0001:000033d0       ??1CAScanDlg@@UEAA@XZ      0000000067d843d0 f i AScanDlg.obj
 0001:00003420       ??_GCAScanDlg@@UEAAPEAXI@Z 0000000067d84420 f i AScanDlg.obj
 0001:00003490       ??_ECAScanDlg@@UEAAPEAXI@Z 0000000067d84490 f i AScanDlg.obj
 0001:00003540       ??0CAScanDlg@@QEAA@PEAVCWnd@@PEAVSapAcquisition@@@Z 0000000067d84540 f   AScanDlg.obj
 0001:00003600       ?DoDataExchange@CAScanDlg@@MEAAXPEAVCDataExchange@@@Z 0000000067d84600 f   AScanDlg.obj
 0001:00003670       ?UpdateWindow@CAScanDlg@@IEAAXXZ 0000000067d84670 f   AScanDlg.obj
 0001:000037b0       ?OnCamTriggerEnable@CAScanDlg@@IEAAXXZ 0000000067d847b0 f   AScanDlg.obj
 0001:000037c0       ?OnCamResetEnable@CAScanDlg@@IEAAXXZ 0000000067d847c0 f   AScanDlg.obj
 0001:000037d0       ?OnTimeIntegrate@CAScanDlg@@IEAAXXZ 0000000067d847d0 f   AScanDlg.obj
 0001:000037e0       ?OnFrameIntegrate@CAScanDlg@@IEAAXXZ 0000000067d847e0 f   AScanDlg.obj
 0001:000037f0       ??_ECAScanDlg@@WBBI@EAAPEAXI@Z 0000000067d847f0 f i AScanDlg.obj
 0001:00003800       ?VerifyTimeIntegrateDuration@CAScanDlg@@IEAAXH@Z 0000000067d84800 f   AScanDlg.obj
 0001:00003930       ?VerifyFrameIntegrateCount@CAScanDlg@@IEAAXXZ 0000000067d84930 f   AScanDlg.obj
 0001:00003a20       ?OnOK@CAScanDlg@@MEAAXXZ   0000000067d84a20 f   AScanDlg.obj
 0001:00003dc0       ?OnInitDialog@CAScanDlg@@MEAAHXZ 0000000067d84dc0 f   AScanDlg.obj
 0001:000043b0       ?OnKillfocusEditTime@CAScanDlg@@IEAAXXZ 0000000067d853b0 f   AScanDlg.obj
 0001:000043e0       ?OnKillfocusEditFrame@CAScanDlg@@IEAAXXZ 0000000067d853e0 f   AScanDlg.obj
 0001:00004410       ?OnVScroll@CAScanDlg@@IEAAXIIPEAVCScrollBar@@@Z 0000000067d85410 f   AScanDlg.obj
 0001:00004510       ?GetThisMessageMap@CAScanDlg@@KAPEBUAFX_MSGMAP@@XZ 0000000067d85510 f   AScanDlg.obj
 0001:00004520       ?GetMessageMap@CAScanDlg@@MEBAPEBUAFX_MSGMAP@@XZ 0000000067d85520 f   AScanDlg.obj
 0001:00004530       ?OnVScroll@CAviFileDlg@@IEAAXIIPEAVCScrollBar@@@Z 0000000067d85530 f   AviFileDlg.obj
 0001:000045e0       ?OnUpdateAviEditFirstFrame@CAviFileDlg@@IEAAXXZ 0000000067d855e0 f   AviFileDlg.obj
 0001:000045f0       ?OnUpdateAviEditCompressionLevel@CAviFileDlg@@IEAAXXZ 0000000067d855f0 f   AviFileDlg.obj
 0001:00004600       ?OnInitDialog@CAviFileDlg@@MEAAHXZ 0000000067d85600 f   AviFileDlg.obj
 0001:000046d0       ?OnOK@CAviFileDlg@@MEAAXXZ 0000000067d856d0 f   AviFileDlg.obj
 0001:00004760       ??0CAviFileDlg@@QEAA@PEAVCWnd@@HHHH@Z 0000000067d85760 f   AviFileDlg.obj
 0001:00004840       ??1CAviFileDlg@@UEAA@XZ    0000000067d85840 f i AviFileDlg.obj
 0001:00004850       ??_GCAviFileDlg@@UEAAPEAXI@Z 0000000067d85850 f i AviFileDlg.obj
 0001:00004850       ??_ECAviFileDlg@@UEAAPEAXI@Z 0000000067d85850 f i AviFileDlg.obj
 0001:00004880       ?DoDataExchange@CAviFileDlg@@MEAAXPEAVCDataExchange@@@Z 0000000067d85880 f   AviFileDlg.obj
 0001:00004900       ?GetThisMessageMap@CAviFileDlg@@KAPEBUAFX_MSGMAP@@XZ 0000000067d85900 f   AviFileDlg.obj
 0001:00004910       ?GetMessageMap@CAviFileDlg@@MEBAPEBUAFX_MSGMAP@@XZ 0000000067d85910 f   AviFileDlg.obj
 0001:00004920       ??0CBayerOptionsDlg@@QEAA@PEAVCWnd@@PEAVSapBayer@@PEAVSapTransfer@@PEAVCImageWnd@@PEAVSapProcessing@@@Z 0000000067d85920 f   BayerDlg.obj
 0001:000049f0       ??1CBayerOptionsDlg@@UEAA@XZ 0000000067d859f0 f   BayerDlg.obj
 0001:00004a40       ?UpdateInterface@CBayerOptionsDlg@@QEAAXXZ 0000000067d85a40 f   BayerDlg.obj
 0001:00004d80       ?OnChange@CBayerOptionsDlg@@IEAAXXZ 0000000067d85d80 f   BayerDlg.obj
 0001:00004dc0       ?OnGammaEnable@CBayerOptionsDlg@@IEAAXXZ 0000000067d85dc0 f   BayerDlg.obj
 0001:00004e40       ?OnChangeRange@CBayerOptionsDlg@@IEAAXI@Z 0000000067d85e40 f   BayerDlg.obj
 0001:00004e50       ?UpdateView@CBayerOptionsDlg@@IEAAXXZ 0000000067d85e50 f   BayerDlg.obj
 0001:00004f20       ?OnClose@CBayerOptionsDlg@@IEAAXXZ 0000000067d85f20 f   BayerDlg.obj
 0001:00004f60       ?Width@CRect@@QEBAHXZ      0000000067d85f60 f i BayerDlg.obj
 0001:00004f70       ?Height@CRect@@QEBAHXZ     0000000067d85f70 f i BayerDlg.obj
 0001:00004f80       ?OnShowWindow@CWnd@@IEAAXHI@Z 0000000067d85f80 f i BayerDlg.obj
 0001:00004f90       ?IsRoiTrackerActive@CImageWnd@@QEAAHXZ 0000000067d85f90 f i BayerDlg.obj
 0001:00004fa0       ??_GCBayerOptionsDlg@@UEAAPEAXI@Z 0000000067d85fa0 f i BayerDlg.obj
 0001:00004fd0       ??_ECBayerOptionsDlg@@UEAAPEAXI@Z 0000000067d85fd0 f i BayerDlg.obj
 0001:00005050       ?DoDataExchange@CBayerOptionsDlg@@MEAAXPEAVCDataExchange@@@Z 0000000067d86050 f   BayerDlg.obj
 0001:00005100       ?OnInitDialog@CBayerOptionsDlg@@MEAAHXZ 0000000067d86100 f   BayerDlg.obj
 0001:00005150       ?OnAutoWhiteBalance@CBayerOptionsDlg@@IEAAXXZ 0000000067d86150 f   BayerDlg.obj
 0001:00005260       ?OnApply@CBayerOptionsDlg@@IEAAXXZ 0000000067d86260 f   BayerDlg.obj
 0001:000053d0       ?OnShowWindow@CBayerOptionsDlg@@IEAAXHI@Z 0000000067d863d0 f   BayerDlg.obj
 0001:00005420       ??_ECBayerOptionsDlg@@WBBI@EAAPEAXI@Z 0000000067d86420 f i BayerDlg.obj
 0001:00005430       ?GetThisMessageMap@CBayerOptionsDlg@@KAPEBUAFX_MSGMAP@@XZ 0000000067d86430 f   BayerDlg.obj
 0001:00005440       ?GetMessageMap@CBayerOptionsDlg@@MEBAPEBUAFX_MSGMAP@@XZ 0000000067d86440 f   BayerDlg.obj
 0001:00005450       ??0CBrowseDirDlg@@QEAA@PEBD@Z 0000000067d86450 f   BrowseDirDlg.obj
 0001:00005490       ?BrowseHookProc@CBrowseDirDlg@@KA_KPEAUHWND__@@I_K_J@Z 0000000067d86490 f   BrowseDirDlg.obj
 0001:000054d0       ??HATL@@YA?AV?$CStringT@DV?$StrTraitMFC_DLL@DV?$ChTraitsCRT@D@ATL@@@@@0@AEBV10@D@Z 0000000067d864d0 f i BrowseDirDlg.obj
 0001:000055f0       ?DoModal@CBrowseDirDlg@@QEAAHXZ 0000000067d865f0 f   BrowseDirDlg.obj
 0001:00005880       ?UpdateBuffer@CBufDlg@@IEAAHXZ 0000000067d86880 f   BufDlg.obj
 0001:00005980       ?OnOK@CBufDlg@@MEAAXXZ     0000000067d86980 f   BufDlg.obj
 0001:000059b0       ?EnableControls@CBufDlg@@IEAAXXZ 0000000067d869b0 f   BufDlg.obj
 0001:00005a80       ??1CBufDlg@@UEAA@XZ        0000000067d86a80 f i BufDlg.obj
 0001:00005ad0       ??_GCBufDlg@@UEAAPEAXI@Z   0000000067d86ad0 f i BufDlg.obj
 0001:00005b40       ??_ECBufDlg@@UEAAPEAXI@Z   0000000067d86b40 f i BufDlg.obj
 0001:00005bf0       ??0CBufDlg@@QEAA@PEAVCWnd@@PEAVSapBuffer@@PEAVSapDisplay@@@Z 0000000067d86bf0 f   BufDlg.obj
 0001:00005e40       ?DoDataExchange@CBufDlg@@MEAAXPEAVCDataExchange@@@Z 0000000067d86e40 f   BufDlg.obj
 0001:00005ee0       ?OnInitDialog@CBufDlg@@MEAAHXZ 0000000067d86ee0 f   BufDlg.obj
 0001:00005fc0       ?OnSelchangeComboFormat@CBufDlg@@IEAAXXZ 0000000067d86fc0 f   BufDlg.obj
 0001:00006040       ?GetThisMessageMap@CBufDlg@@KAPEBUAFX_MSGMAP@@XZ 0000000067d87040 f   BufDlg.obj
 0001:00006050       ?GetMessageMap@CBufDlg@@MEBAPEBUAFX_MSGMAP@@XZ 0000000067d87050 f   BufDlg.obj
 0001:00006060       ??1SapColorConversionMethodDictionary@@QEAA@XZ 0000000067d87060 f i ColorConversionDlg.obj
 0001:00006070       ??0CColorConversionOptionsDlg@@QEAA@PEAVCWnd@@PEAVSapColorConversion@@PEAVSapTransfer@@PEAVCImageWnd@@PEAVSapProcessing@@@Z 0000000067d87070 f   ColorConversionDlg.obj
 0001:00006150       ??1CColorConversionOptionsDlg@@UEAA@XZ 0000000067d87150 f   ColorConversionDlg.obj
 0001:000061b0       ?OnChangeNumber@CColorConversionOptionsDlg@@IEAAXXZ 0000000067d871b0 f   ColorConversionDlg.obj
 0001:000061d0       ?OnGammaEnable@CColorConversionOptionsDlg@@IEAAXXZ 0000000067d871d0 f   ColorConversionDlg.obj
 0001:00006250       ?UpdateView@CColorConversionOptionsDlg@@IEAAXXZ 0000000067d87250 f   ColorConversionDlg.obj
 0001:00006320       ?OnClose@CColorConversionOptionsDlg@@IEAAXXZ 0000000067d87320 f   ColorConversionDlg.obj
 0001:00006360       ??HATL@@YA?AV?$CStringT@DV?$StrTraitMFC_DLL@DV?$ChTraitsCRT@D@ATL@@@@@0@AEBV10@PEBD@Z 0000000067d87360 f i ColorConversionDlg.obj
 0001:00006400       ??_GCColorConversionOptionsDlg@@UEAAPEAXI@Z 0000000067d87400 f i ColorConversionDlg.obj
 0001:00006430       ??_ECColorConversionOptionsDlg@@UEAAPEAXI@Z 0000000067d87430 f i ColorConversionDlg.obj
 0001:000064b0       ?DoDataExchange@CColorConversionOptionsDlg@@MEAAXPEAVCDataExchange@@@Z 0000000067d874b0 f   ColorConversionDlg.obj
 0001:00006570       ?SetSelectedMethodDescription@CColorConversionOptionsDlg@@IEAAXXZ 0000000067d87570 f   ColorConversionDlg.obj
 0001:000065e0       ?OnApply@CColorConversionOptionsDlg@@IEAAXXZ 0000000067d875e0 f   ColorConversionDlg.obj
 0001:00006790       ??_ECColorConversionOptionsDlg@@WBBI@EAAPEAXI@Z 0000000067d87790 f i ColorConversionDlg.obj
 0001:000067a0       ?UpdateInterface@CColorConversionOptionsDlg@@QEAAXXZ 0000000067d877a0 f   ColorConversionDlg.obj
 0001:00006b60       ?OnChange@CColorConversionOptionsDlg@@IEAAXXZ 0000000067d87b60 f   ColorConversionDlg.obj
 0001:00006ba0       ?OnChangeRange@CColorConversionOptionsDlg@@IEAAXI@Z 0000000067d87ba0 f   ColorConversionDlg.obj
 0001:00006bb0       ?OnAutoWhiteBalance@CColorConversionOptionsDlg@@IEAAXXZ 0000000067d87bb0 f   ColorConversionDlg.obj
 0001:00006c70       ?OnShowWindow@CColorConversionOptionsDlg@@IEAAXHI@Z 0000000067d87c70 f   ColorConversionDlg.obj
 0001:00006cc0       ?GetThisMessageMap@CColorConversionOptionsDlg@@KAPEBUAFX_MSGMAP@@XZ 0000000067d87cc0 f   ColorConversionDlg.obj
 0001:00006cd0       ?OnInitDialog@CColorConversionOptionsDlg@@MEAAHXZ 0000000067d87cd0 f   ColorConversionDlg.obj
 0001:00006d20       ?GetMessageMap@CColorConversionOptionsDlg@@MEBAPEBUAFX_MSGMAP@@XZ 0000000067d87d20 f   ColorConversionDlg.obj
 0001:00006d30       ?OnOK@CCompDlg@@MEAAXXZ    0000000067d87d30 f   CompDlg.obj
 0001:00006d40       ?SetBrightness@CCompDlg@@IEAAXXZ 0000000067d87d40 f   CompDlg.obj
 0001:00006dc0       ?SetContrast@CCompDlg@@IEAAXXZ 0000000067d87dc0 f   CompDlg.obj
 0001:00006e40       ?SetHue@CCompDlg@@IEAAXXZ  0000000067d87e40 f   CompDlg.obj
 0001:00006eb0       ?SetSaturation@CCompDlg@@IEAAXXZ 0000000067d87eb0 f   CompDlg.obj
 0001:00006f20       ?SetSharpness@CCompDlg@@IEAAXXZ 0000000067d87f20 f   CompDlg.obj
 0001:00006f80       ??0CSliderCtrl@@QEAA@XZ    0000000067d87f80 f i CompDlg.obj
 0001:00006fb0       ??_GCSliderCtrl@@UEAAPEAXI@Z 0000000067d87fb0 f i CompDlg.obj
 0001:00006fb0       ??_ECSliderCtrl@@UEAAPEAXI@Z 0000000067d87fb0 f i CompDlg.obj
 0001:00006fe0       ?SetPageSize@CSliderCtrl@@QEAAHH@Z 0000000067d87fe0 f i CompDlg.obj
 0001:00007000       ?SetPos@CSliderCtrl@@QEAAXH@Z 0000000067d88000 f i CompDlg.obj
 0001:00007020       ?SetTicFreq@CSliderCtrl@@QEAAXH@Z 0000000067d88020 f i CompDlg.obj
 0001:00007040       ??1CCompDlg@@UEAA@XZ       0000000067d88040 f i CompDlg.obj
 0001:000070c0       ??_GCCompDlg@@UEAAPEAXI@Z  0000000067d880c0 f i CompDlg.obj
 0001:000070f0       ??_ECCompDlg@@UEAAPEAXI@Z  0000000067d880f0 f i CompDlg.obj
 0001:00007170       ??0CCompDlg@@QEAA@PEAVCWnd@@PEAVSapAcquisition@@PEAVSapTransfer@@@Z 0000000067d88170 f   CompDlg.obj
 0001:00007270       ?DoDataExchange@CCompDlg@@MEAAXPEAVCDataExchange@@@Z 0000000067d88270 f   CompDlg.obj
 0001:00007360       ?Snap@CCompDlg@@IEAAXXZ    0000000067d88360 f   CompDlg.obj
 0001:00007440       ?OnCancel@CCompDlg@@MEAAXXZ 0000000067d88440 f   CompDlg.obj
 0001:00007560       ?UpdateWindow@CCompDlg@@IEAAXXZ 0000000067d88560 f   CompDlg.obj
 0001:000076f0       ?OnHScroll@CCompDlg@@IEAAXIIPEAVCScrollBar@@@Z 0000000067d886f0 f   CompDlg.obj
 0001:00007910       ?OnRed@CCompDlg@@IEAAXXZ   0000000067d88910 f   CompDlg.obj
 0001:00007950       ?OnGreen@CCompDlg@@IEAAXXZ 0000000067d88950 f   CompDlg.obj
 0001:00007990       ?OnBlue@CCompDlg@@IEAAXXZ  0000000067d88990 f   CompDlg.obj
 0001:000079d0       ?OnKillfocusEditContrast@CCompDlg@@IEAAXXZ 0000000067d889d0 f   CompDlg.obj
 0001:00007a20       ?OnKillfocusEditBrightness@CCompDlg@@IEAAXXZ 0000000067d88a20 f   CompDlg.obj
 0001:00007a70       ?OnKillfocusEditHue@CCompDlg@@IEAAXXZ 0000000067d88a70 f   CompDlg.obj
 0001:00007ac0       ?OnKillfocusEditSaturation@CCompDlg@@IEAAXXZ 0000000067d88ac0 f   CompDlg.obj
 0001:00007b10       ?OnKillfocusEditSharpness@CCompDlg@@IEAAXXZ 0000000067d88b10 f   CompDlg.obj
 0001:00007b60       ?OnDefault@CCompDlg@@IEAAXXZ 0000000067d88b60 f   CompDlg.obj
 0001:00007c80       ??_ECCompDlg@@WBBI@EAAPEAXI@Z 0000000067d88c80 f i CompDlg.obj
 0001:00007c90       ?GetThisMessageMap@CCompDlg@@KAPEBUAFX_MSGMAP@@XZ 0000000067d88c90 f   CompDlg.obj
 0001:00007ca0       ?OnInitDialog@CCompDlg@@MEAAHXZ 0000000067d88ca0 f   CompDlg.obj
 0001:00008a20       ?GetMessageMap@CCompDlg@@MEBAPEBUAFX_MSGMAP@@XZ 0000000067d89a20 f   CompDlg.obj
 0001:00008a30       ??1CFlatFieldDlg@@UEAA@XZ  0000000067d89a30 f   FlatFieldDlg.obj
 0001:00008af0       ?OnDestroy@CFlatFieldDlg@@IEAAXXZ 0000000067d89af0 f   FlatFieldDlg.obj
 0001:00008b00       ?OnOK@CFlatFieldDlg@@MEAAXXZ 0000000067d89b00 f   FlatFieldDlg.obj
 0001:00008b60       ?OnCancel@CFlatFieldDlg@@MEAAXXZ 0000000067d89b60 f   FlatFieldDlg.obj
 0001:00008be0       ?OnBnClickedScgFfLoadClusterMap@CFlatFieldDlg@@IEAAXXZ 0000000067d89be0 f   FlatFieldDlg.obj
 0001:00008d70       ?GetAverageStr@CFlatFieldDlg@@AEBA?AV?$CStringT@DV?$StrTraitMFC_DLL@DV?$ChTraitsCRT@D@ATL@@@@@ATL@@AEAVSapFlatFieldStats@@@Z 0000000067d89d70 f   FlatFieldDlg.obj
 0001:00008ea0       ?GetStdDeviationStr@CFlatFieldDlg@@AEBA?AV?$CStringT@DV?$StrTraitMFC_DLL@DV?$ChTraitsCRT@D@ATL@@@@@ATL@@AEAVSapFlatFieldStats@@@Z 0000000067d89ea0 f   FlatFieldDlg.obj
 0001:00008fd0       ?GetLowStr@CFlatFieldDlg@@AEBA?AV?$CStringT@DV?$StrTraitMFC_DLL@DV?$ChTraitsCRT@D@ATL@@@@@ATL@@AEAVSapFlatFieldStats@@@Z 0000000067d89fd0 f   FlatFieldDlg.obj
 0001:00009100       ?GetHighStr@CFlatFieldDlg@@AEBA?AV?$CStringT@DV?$StrTraitMFC_DLL@DV?$ChTraitsCRT@D@ATL@@@@@ATL@@AEAVSapFlatFieldStats@@@Z 0000000067d8a100 f   FlatFieldDlg.obj
 0001:00009230       ?GetPeakPositionStr@CFlatFieldDlg@@AEBA?AV?$CStringT@DV?$StrTraitMFC_DLL@DV?$ChTraitsCRT@D@ATL@@@@@ATL@@AEAVSapFlatFieldStats@@@Z 0000000067d8a230 f   FlatFieldDlg.obj
 0001:00009360       ?GetPixelRatioStr@CFlatFieldDlg@@AEBA?AV?$CStringT@DV?$StrTraitMFC_DLL@DV?$ChTraitsCRT@D@ATL@@@@@ATL@@AEAVSapFlatFieldStats@@@Z 0000000067d8a360 f   FlatFieldDlg.obj
 0001:000094a0       ?GetNumPixelsStr@CFlatFieldDlg@@AEBA?AV?$CStringT@DV?$StrTraitMFC_DLL@DV?$ChTraitsCRT@D@ATL@@@@@ATL@@AEAVSapFlatFieldStats@@@Z 0000000067d8a4a0 f   FlatFieldDlg.obj
 0001:000095d0       ??0CSize@@QEAA@UtagSIZE@@@Z 0000000067d8a5d0 f i FlatFieldDlg.obj
 0001:000095e0       ?GetTextExtent@CDC@@QEBA?AVCSize@@AEBV?$CStringT@DV?$StrTraitMFC_DLL@DV?$ChTraitsCRT@D@ATL@@@@@ATL@@@Z 0000000067d8a5e0 f i FlatFieldDlg.obj
 0001:00009650       ?GetDC@CWnd@@QEAAPEAVCDC@@XZ 0000000067d8a650 f i FlatFieldDlg.obj
 0001:00009670       ?ReleaseDC@CWnd@@QEAAHPEAVCDC@@@Z 0000000067d8a670 f i FlatFieldDlg.obj
 0001:00009680       ?GetParent@CWnd@@QEBAPEAV1@XZ 0000000067d8a680 f i FlatFieldDlg.obj
 0001:000096a0       ??0CStatic@@QEAA@XZ        0000000067d8a6a0 f i FlatFieldDlg.obj
 0001:000096d0       ??_GCStatic@@UEAAPEAXI@Z   0000000067d8a6d0 f i FlatFieldDlg.obj
 0001:000096d0       ??_ECStatic@@UEAAPEAXI@Z   0000000067d8a6d0 f i FlatFieldDlg.obj
 0001:00009700       ??0CButton@@QEAA@XZ        0000000067d8a700 f i FlatFieldDlg.obj
 0001:00009730       ??_ECButton@@UEAAPEAXI@Z   0000000067d8a730 f i FlatFieldDlg.obj
 0001:00009730       ??_GCButton@@UEAAPEAXI@Z   0000000067d8a730 f i FlatFieldDlg.obj
 0001:00009760       ?GetCount@CListBox@@QEBAHXZ 0000000067d8a760 f i FlatFieldDlg.obj
 0001:00009780       ?SetCurSel@CListBox@@QEAAHH@Z 0000000067d8a780 f i FlatFieldDlg.obj
 0001:000097a0       ?GetHorizontalExtent@CListBox@@QEBAHXZ 0000000067d8a7a0 f i FlatFieldDlg.obj
 0001:000097c0       ?SetHorizontalExtent@CListBox@@QEAAXH@Z 0000000067d8a7c0 f i FlatFieldDlg.obj
 0001:000097e0       ?AddString@CListBox@@QEAAHPEBD@Z 0000000067d8a7e0 f i FlatFieldDlg.obj
 0001:00009800       ?ResetContent@CListBox@@QEAAXXZ 0000000067d8a800 f i FlatFieldDlg.obj
 0001:00009820       ??0CWaitCursor@@QEAA@XZ    0000000067d8a820 f i FlatFieldDlg.obj
 0001:00009840       ??1CWaitCursor@@QEAA@XZ    0000000067d8a840 f i FlatFieldDlg.obj
 0001:00009890       ?GetPathName@CLoadSaveDlg@@QEAA?AV?$CStringT@DV?$StrTraitMFC_DLL@DV?$ChTraitsCRT@D@ATL@@@@@ATL@@XZ 0000000067d8a890 f i FlatFieldDlg.obj
 0001:000098c0       ??1CLoadSaveDlg@@UEAA@XZ   0000000067d8a8c0 f i FlatFieldDlg.obj
 0001:000098f0       ??_GCFlatFieldDlg@@UEAAPEAXI@Z 0000000067d8a8f0 f i FlatFieldDlg.obj
 0001:00009920       ??_ECFlatFieldDlg@@UEAAPEAXI@Z 0000000067d8a920 f i FlatFieldDlg.obj
 0001:000099a0       ??$_Pow_int@N@@YANNH@Z     0000000067d8a9a0 f i FlatFieldDlg.obj
 0001:000099e0       ??0CFlatFieldDlg@@QEAA@PEAVCWnd@@PEAVSapFlatField@@PEAVSapTransfer@@PEAVSapBuffer@@@Z 0000000067d8a9e0 f   FlatFieldDlg.obj
 0001:00009b70       ?DoDataExchange@CFlatFieldDlg@@MEAAXPEAVCDataExchange@@@Z 0000000067d8ab70 f   FlatFieldDlg.obj
 0001:00009d50       ?OnSelchangeCorrectionType@CFlatFieldDlg@@IEAAXXZ 0000000067d8ad50 f   FlatFieldDlg.obj
 0001:00009e00       ?OnSelchangeVideoType@CFlatFieldDlg@@IEAAXXZ 0000000067d8ae00 f   FlatFieldDlg.obj
 0001:00009e70       ?OnSelchangeCalibrationIndex@CFlatFieldDlg@@IEAAXXZ 0000000067d8ae70 f   FlatFieldDlg.obj
 0001:00009eb0       ?Snap@CFlatFieldDlg@@QEAAHXZ 0000000067d8aeb0 f   FlatFieldDlg.obj
 0001:0000a010       ?LogMessage@CFlatFieldDlg@@AEAAXHV?$CStringT@DV?$StrTraitMFC_DLL@DV?$ChTraitsCRT@D@ATL@@@@@ATL@@@Z 0000000067d8b010 f   FlatFieldDlg.obj
 0001:0000a190       ??_ECFlatFieldDlg@@WBBI@EAAPEAXI@Z 0000000067d8b190 f i FlatFieldDlg.obj
 0001:0000a1a0       ?pow@@YANNH@Z              0000000067d8b1a0 f i FlatFieldDlg.obj
 0001:0000a1e0       ?OnInitDialog@CFlatFieldDlg@@MEAAHXZ 0000000067d8b1e0 f   FlatFieldDlg.obj
 0001:0000ad10       ?LogMessage@CFlatFieldDlg@@AEAAXHPEBD@Z 0000000067d8bd10 f   FlatFieldDlg.obj
 0001:0000ad50       ?OnSaveAndUpload@CFlatFieldDlg@@IEAAXXZ 0000000067d8bd50 f   FlatFieldDlg.obj
 0001:0000af60       ?DarkImage@CFlatFieldDlg@@AEAAXXZ 0000000067d8bf60 f   FlatFieldDlg.obj
 0001:0000b440       ?BrightImage@CFlatFieldDlg@@AEAAXXZ 0000000067d8c440 f   FlatFieldDlg.obj
 0001:0000bce0       ?OnDarkImage@CFlatFieldDlg@@IEAAXXZ 0000000067d8cce0 f   FlatFieldDlg.obj
 0001:0000c1f0       ??_ESapBuffer@@UEAAPEAXI@Z 0000000067d8d1f0 f i FlatFieldDlg.obj
 0001:0000c1f0       ??_GSapBuffer@@UEAAPEAXI@Z 0000000067d8d1f0 f i FlatFieldDlg.obj
 0001:0000c220       ?OnBrightImage@CFlatFieldDlg@@IEAAXXZ 0000000067d8d220 f   FlatFieldDlg.obj
 0001:0000c6c0       ?GetThisMessageMap@CFlatFieldDlg@@KAPEBUAFX_MSGMAP@@XZ 0000000067d8d6c0 f   FlatFieldDlg.obj
 0001:0000c6d0       ?GetMessageMap@CFlatFieldDlg@@MEBAPEBUAFX_MSGMAP@@XZ 0000000067d8d6d0 f   FlatFieldDlg.obj
 0001:0000c6e0       ?PreTranslateMessage@CGioBidirectionalDlg@@UEAAHPEAUtagMSG@@@Z 0000000067d8d6e0 f   GioBidirectionalDlg.obj
 0001:0000c700       ?GioCallbackInfo@CGioBidirectionalDlg@@SAXPEAVSapGioCallbackInfo@@@Z 0000000067d8d700 f   GioBidirectionalDlg.obj
 0001:0000c740       ?Update@CGioBidirectionalDlg@@QEAAHXZ 0000000067d8d740 f   GioBidirectionalDlg.obj
 0001:0000c8f0       ?ResetInterruptCount@CGioBidirectionalDlg@@IEAAHXZ 0000000067d8d8f0 f   GioBidirectionalDlg.obj
 0001:0000c9d0       ?OnBtReset@CGioBidirectionalDlg@@IEAAXXZ 0000000067d8d9d0 f   GioBidirectionalDlg.obj
 0001:0000c9e0       ??0CObject@@IEAA@XZ        0000000067d8d9e0 f i GioBidirectionalDlg.obj
 0001:0000c9f0       ??1CObject@@UEAA@XZ        0000000067d8d9f0 f i GioBidirectionalDlg.obj
 0001:0000ca00       ?GetSafeHandle@CGdiObject@@QEBAPEAXXZ 0000000067d8da00 f i GioBidirectionalDlg.obj
 0001:0000ca10       ??0CGdiObject@@QEAA@XZ     0000000067d8da10 f i GioBidirectionalDlg.obj
 0001:0000ca30       ??1CGdiObject@@UEAA@XZ     0000000067d8da30 f i GioBidirectionalDlg.obj
 0001:0000ca80       ??0CBrush@@QEAA@XZ         0000000067d8da80 f i GioBidirectionalDlg.obj
 0001:0000caa0       ??1CBrush@@UEAA@XZ         0000000067d8daa0 f i GioBidirectionalDlg.obj
 0001:0000cab0       ?MoveWindow@CWnd@@QEAAXPEBUtagRECT@@H@Z 0000000067d8dab0 f i GioBidirectionalDlg.obj
 0001:0000caf0       ?GetClientRect@CWnd@@QEBAXPEAUtagRECT@@@Z 0000000067d8daf0 f i GioBidirectionalDlg.obj
 0001:0000cb00       ?SetButtonStyle@CButton@@QEAAXIH@Z 0000000067d8db00 f i GioBidirectionalDlg.obj
 0001:0000cc60       ??1CGioBidirectionalDlg@@UEAA@XZ 0000000067d8dc60 f i GioBidirectionalDlg.obj
 0001:0000ccd0       ??_GCGioBidirectionalDlg@@UEAAPEAXI@Z 0000000067d8dcd0 f i GioBidirectionalDlg.obj
 0001:0000cd50       ??_ECGioBidirectionalDlg@@UEAAPEAXI@Z 0000000067d8dd50 f i GioBidirectionalDlg.obj
 0001:0000cdd0       ??0CGioBidirectionalDlg@@QEAA@PEAVCWnd@@IPEAVSapGio@@@Z 0000000067d8ddd0 f   GioBidirectionalDlg.obj
 0001:0000cef0       ?DoDataExchange@CGioBidirectionalDlg@@MEAAXPEAVCDataExchange@@@Z 0000000067d8def0 f   GioBidirectionalDlg.obj
 0001:0000cf50       ?MoveWindow@CGioBidirectionalDlg@@QEAAII@Z 0000000067d8df50 f   GioBidirectionalDlg.obj
 0001:0000cfe0       ?Create@CGioBidirectionalDlg@@QEAAHXZ 0000000067d8dfe0 f   GioBidirectionalDlg.obj
 0001:0000d010       ?ChangePinDirection@CGioBidirectionalDlg@@IEAAXIH@Z 0000000067d8e010 f   GioBidirectionalDlg.obj
 0001:0000d100       ?OnSelchangeComboDir1@CGioBidirectionalDlg@@IEAAXXZ 0000000067d8e100 f   GioBidirectionalDlg.obj
 0001:0000d140       ?OnSelchangeComboDir2@CGioBidirectionalDlg@@IEAAXXZ 0000000067d8e140 f   GioBidirectionalDlg.obj
 0001:0000d180       ?OnSelchangeComboDir3@CGioBidirectionalDlg@@IEAAXXZ 0000000067d8e180 f   GioBidirectionalDlg.obj
 0001:0000d1c0       ?OnSelchangeComboDir4@CGioBidirectionalDlg@@IEAAXXZ 0000000067d8e1c0 f   GioBidirectionalDlg.obj
 0001:0000d200       ?OnSelchangeComboDir5@CGioBidirectionalDlg@@IEAAXXZ 0000000067d8e200 f   GioBidirectionalDlg.obj
 0001:0000d240       ?OnSelchangeComboDir6@CGioBidirectionalDlg@@IEAAXXZ 0000000067d8e240 f   GioBidirectionalDlg.obj
 0001:0000d280       ?OnSelchangeComboDir7@CGioBidirectionalDlg@@IEAAXXZ 0000000067d8e280 f   GioBidirectionalDlg.obj
 0001:0000d2c0       ?OnSelchangeComboDir8@CGioBidirectionalDlg@@IEAAXXZ 0000000067d8e2c0 f   GioBidirectionalDlg.obj
 0001:0000d300       ?OnSelchangeComboDir9@CGioBidirectionalDlg@@IEAAXXZ 0000000067d8e300 f   GioBidirectionalDlg.obj
 0001:0000d340       ?OnSelchangeComboDir10@CGioBidirectionalDlg@@IEAAXXZ 0000000067d8e340 f   GioBidirectionalDlg.obj
 0001:0000d380       ?OnSelchangeComboDir11@CGioBidirectionalDlg@@IEAAXXZ 0000000067d8e380 f   GioBidirectionalDlg.obj
 0001:0000d3c0       ?OnSelchangeComboDir12@CGioBidirectionalDlg@@IEAAXXZ 0000000067d8e3c0 f   GioBidirectionalDlg.obj
 0001:0000d400       ?OnEnableCallback@CGioBidirectionalDlg@@IEAAXXZ 0000000067d8e400 f   GioBidirectionalDlg.obj
 0001:0000d5b0       ?OnSelchangeComboInputLevel@CGioBidirectionalDlg@@IEAAXXZ 0000000067d8e5b0 f   GioBidirectionalDlg.obj
 0001:0000d650       ?OnCtlColor@CGioBidirectionalDlg@@IEAAPEAUHBRUSH__@@PEAVCDC@@PEAVCWnd@@I@Z 0000000067d8e650 f   GioBidirectionalDlg.obj
 0001:0000d690       ?ChangePinState@CGioBidirectionalDlg@@IEAAXH@Z 0000000067d8e690 f   GioBidirectionalDlg.obj
 0001:0000d7a0       ?OnPin1@CGioBidirectionalDlg@@IEAAXXZ 0000000067d8e7a0 f   GioBidirectionalDlg.obj
 0001:0000d7b0       ?OnPin2@CGioBidirectionalDlg@@IEAAXXZ 0000000067d8e7b0 f   GioBidirectionalDlg.obj
 0001:0000d7c0       ?OnPin3@CGioBidirectionalDlg@@IEAAXXZ 0000000067d8e7c0 f   GioBidirectionalDlg.obj
 0001:0000d7d0       ?OnPin4@CGioBidirectionalDlg@@IEAAXXZ 0000000067d8e7d0 f   GioBidirectionalDlg.obj
 0001:0000d7e0       ?OnPin5@CGioBidirectionalDlg@@IEAAXXZ 0000000067d8e7e0 f   GioBidirectionalDlg.obj
 0001:0000d7f0       ?OnPin6@CGioBidirectionalDlg@@IEAAXXZ 0000000067d8e7f0 f   GioBidirectionalDlg.obj
 0001:0000d800       ?OnPin7@CGioBidirectionalDlg@@IEAAXXZ 0000000067d8e800 f   GioBidirectionalDlg.obj
 0001:0000d810       ?OnPin8@CGioBidirectionalDlg@@IEAAXXZ 0000000067d8e810 f   GioBidirectionalDlg.obj
 0001:0000d820       ?OnPin9@CGioBidirectionalDlg@@IEAAXXZ 0000000067d8e820 f   GioBidirectionalDlg.obj
 0001:0000d830       ?OnPin10@CGioBidirectionalDlg@@IEAAXXZ 0000000067d8e830 f   GioBidirectionalDlg.obj
 0001:0000d840       ?OnPin11@CGioBidirectionalDlg@@IEAAXXZ 0000000067d8e840 f   GioBidirectionalDlg.obj
 0001:0000d850       ?OnPin12@CGioBidirectionalDlg@@IEAAXXZ 0000000067d8e850 f   GioBidirectionalDlg.obj
 0001:0000d860       ??_GCGdiObject@@UEAAPEAXI@Z 0000000067d8e860 f i GioBidirectionalDlg.obj
 0001:0000d860       ??_ECGdiObject@@UEAAPEAXI@Z 0000000067d8e860 f i GioBidirectionalDlg.obj
 0001:0000d890       ??_GCBrush@@UEAAPEAXI@Z    0000000067d8e890 f i GioBidirectionalDlg.obj
 0001:0000d890       ??_ECBrush@@UEAAPEAXI@Z    0000000067d8e890 f i GioBidirectionalDlg.obj
 0001:0000d8d0       ?StringCbCatA@@YAJPEAD_KPEBD@Z 0000000067d8e8d0 f i GioBidirectionalDlg.obj
 0001:0000d9c0       ?OnInitDialog@CGioBidirectionalDlg@@MEAAHXZ 0000000067d8e9c0 f   GioBidirectionalDlg.obj
 0001:0000e330       ?OnSelchangeComboSignalEvent@CGioBidirectionalDlg@@IEAAXXZ 0000000067d8f330 f   GioBidirectionalDlg.obj
 0001:0000e370       ?GetThisMessageMap@CGioBidirectionalDlg@@KAPEBUAFX_MSGMAP@@XZ 0000000067d8f370 f   GioBidirectionalDlg.obj
 0001:0000e380       ?GetMessageMap@CGioBidirectionalDlg@@MEBAPEBUAFX_MSGMAP@@XZ 0000000067d8f380 f   GioBidirectionalDlg.obj
 0001:0000e390       ?PreTranslateMessage@CGioInputDlg@@UEAAHPEAUtagMSG@@@Z 0000000067d8f390 f   GioInputDlg.obj
 0001:0000e3b0       ?GioCallbackInfo@CGioInputDlg@@SAXPEAVSapGioCallbackInfo@@@Z 0000000067d8f3b0 f   GioInputDlg.obj
 0001:0000e3f0       ?Update@CGioInputDlg@@QEAAHXZ 0000000067d8f3f0 f   GioInputDlg.obj
 0001:0000e5a0       ?ResetInterruptCount@CGioInputDlg@@IEAAHXZ 0000000067d8f5a0 f   GioInputDlg.obj
 0001:0000e680       ?OnBtReset@CGioInputDlg@@IEAAXXZ 0000000067d8f680 f   GioInputDlg.obj
 0001:0000e7d0       ??1CGioInputDlg@@UEAA@XZ   0000000067d8f7d0 f i GioInputDlg.obj
 0001:0000e840       ??_GCGioInputDlg@@UEAAPEAXI@Z 0000000067d8f840 f i GioInputDlg.obj
 0001:0000e8c0       ??_ECGioInputDlg@@UEAAPEAXI@Z 0000000067d8f8c0 f i GioInputDlg.obj
 0001:0000e940       ??0CGioInputDlg@@QEAA@PEAVCWnd@@IPEAVSapGio@@@Z 0000000067d8f940 f   GioInputDlg.obj
 0001:0000ea60       ?DoDataExchange@CGioInputDlg@@MEAAXPEAVCDataExchange@@@Z 0000000067d8fa60 f   GioInputDlg.obj
 0001:0000eac0       ?MoveWindow@CGioInputDlg@@QEAAII@Z 0000000067d8fac0 f   GioInputDlg.obj
 0001:0000eb50       ?Create@CGioInputDlg@@QEAAHXZ 0000000067d8fb50 f   GioInputDlg.obj
 0001:0000eb80       ?OnEnableCallback@CGioInputDlg@@IEAAXXZ 0000000067d8fb80 f   GioInputDlg.obj
 0001:0000eca0       ?OnSelchangeComboInputLevel@CGioInputDlg@@IEAAXXZ 0000000067d8fca0 f   GioInputDlg.obj
 0001:0000ed40       ?OnCtlColor@CGioInputDlg@@IEAAPEAUHBRUSH__@@PEAVCDC@@PEAVCWnd@@I@Z 0000000067d8fd40 f   GioInputDlg.obj
 0001:0000ed80       ?OnInitDialog@CGioInputDlg@@MEAAHXZ 0000000067d8fd80 f   GioInputDlg.obj
 0001:0000f660       ?OnSelchangeComboSignalEvent@CGioInputDlg@@IEAAXXZ 0000000067d90660 f   GioInputDlg.obj
 0001:0000f6a0       ?GetThisMessageMap@CGioInputDlg@@KAPEBUAFX_MSGMAP@@XZ 0000000067d906a0 f   GioInputDlg.obj
 0001:0000f6b0       ?GetMessageMap@CGioInputDlg@@MEBAPEBUAFX_MSGMAP@@XZ 0000000067d906b0 f   GioInputDlg.obj
 0001:0000f6c0       ?PreTranslateMessage@CGioOutputDlg@@UEAAHPEAUtagMSG@@@Z 0000000067d906c0 f   GioOutputDlg.obj
 0001:0000f6e0       ?UpdateIO@CGioOutputDlg@@IEAAXXZ 0000000067d906e0 f   GioOutputDlg.obj
 0001:0000f810       ?RedrawWindow@CWnd@@QEAAHPEBUtagRECT@@PEAVCRgn@@I@Z 0000000067d90810 f i GioOutputDlg.obj
 0001:0000f970       ??1CGioOutputDlg@@UEAA@XZ  0000000067d90970 f i GioOutputDlg.obj
 0001:0000f9f0       ??_GCGioOutputDlg@@UEAAPEAXI@Z 0000000067d909f0 f i GioOutputDlg.obj
 0001:0000fa20       ??_ECGioOutputDlg@@UEAAPEAXI@Z 0000000067d90a20 f i GioOutputDlg.obj
 0001:0000faa0       ??0CGioOutputDlg@@QEAA@PEAVCWnd@@IPEAVSapGio@@@Z 0000000067d90aa0 f   GioOutputDlg.obj
 0001:0000fbf0       ?DoDataExchange@CGioOutputDlg@@MEAAXPEAVCDataExchange@@@Z 0000000067d90bf0 f   GioOutputDlg.obj
 0001:0000fc60       ?MoveWindow@CGioOutputDlg@@QEAAII@Z 0000000067d90c60 f   GioOutputDlg.obj
 0001:0000fcf0       ?Update@CGioOutputDlg@@QEAAHXZ 0000000067d90cf0 f   GioOutputDlg.obj
 0001:0000fe80       ?Create@CGioOutputDlg@@QEAAHXZ 0000000067d90e80 f   GioOutputDlg.obj
 0001:0000feb0       ?InitComboOutputState@CGioOutputDlg@@QEAAXXZ 0000000067d90eb0 f   GioOutputDlg.obj
 0001:00010010       ?OnSelchangeComboOutputState@CGioOutputDlg@@IEAAXXZ 0000000067d91010 f   GioOutputDlg.obj
 0001:00010020       ?OnCtlColor@CGioOutputDlg@@IEAAPEAUHBRUSH__@@PEAVCDC@@PEAVCWnd@@I@Z 0000000067d91020 f   GioOutputDlg.obj
 0001:00010060       ?ChangePinState@CGioOutputDlg@@QEAAXPEAVCButton@@@Z 0000000067d91060 f   GioOutputDlg.obj
 0001:00010120       ?OnPin1@CGioOutputDlg@@IEAAXXZ 0000000067d91120 f   GioOutputDlg.obj
 0001:00010150       ?OnPin2@CGioOutputDlg@@IEAAXXZ 0000000067d91150 f   GioOutputDlg.obj
 0001:00010180       ?OnPin3@CGioOutputDlg@@IEAAXXZ 0000000067d91180 f   GioOutputDlg.obj
 0001:000101b0       ?OnPin4@CGioOutputDlg@@IEAAXXZ 0000000067d911b0 f   GioOutputDlg.obj
 0001:000101e0       ?OnPin5@CGioOutputDlg@@IEAAXXZ 0000000067d911e0 f   GioOutputDlg.obj
 0001:00010210       ?OnPin6@CGioOutputDlg@@IEAAXXZ 0000000067d91210 f   GioOutputDlg.obj
 0001:00010240       ?OnPin7@CGioOutputDlg@@IEAAXXZ 0000000067d91240 f   GioOutputDlg.obj
 0001:00010270       ?OnPin8@CGioOutputDlg@@IEAAXXZ 0000000067d91270 f   GioOutputDlg.obj
 0001:000102a0       ?OnPin9@CGioOutputDlg@@IEAAXXZ 0000000067d912a0 f   GioOutputDlg.obj
 0001:000102d0       ?OnPin10@CGioOutputDlg@@IEAAXXZ 0000000067d912d0 f   GioOutputDlg.obj
 0001:00010300       ?OnPin11@CGioOutputDlg@@IEAAXXZ 0000000067d91300 f   GioOutputDlg.obj
 0001:00010330       ?OnPin12@CGioOutputDlg@@IEAAXXZ 0000000067d91330 f   GioOutputDlg.obj
 0001:00010360       ?GetThisMessageMap@CGioOutputDlg@@KAPEBUAFX_MSGMAP@@XZ 0000000067d91360 f   GioOutputDlg.obj
 0001:00010370       ?InitOutputDlg@CGioOutputDlg@@QEAAHXZ 0000000067d91370 f   GioOutputDlg.obj
 0001:000104b0       ?GetMessageMap@CGioOutputDlg@@MEBAPEBUAFX_MSGMAP@@XZ 0000000067d914b0 f   GioOutputDlg.obj
 0001:000104c0       ?OnInitDialog@CGioOutputDlg@@MEAAHXZ 0000000067d914c0 f   GioOutputDlg.obj
 0001:00010cb0       ?_GetBaseClass@CImageExWnd@@KAPEAUCRuntimeClass@@XZ 0000000067d91cb0 f   ImageExWnd.obj
 0001:00010cc0       ?GetThisClass@CImageExWnd@@SAPEAUCRuntimeClass@@XZ 0000000067d91cc0 f   ImageExWnd.obj
 0001:00010cd0       ?GetRuntimeClass@CImageExWnd@@UEBAPEAUCRuntimeClass@@XZ 0000000067d91cd0 f   ImageExWnd.obj
 0001:00010ce0       ?AttachSapView@CImageExWnd@@QEAA_NPEAVSapView@@@Z 0000000067d91ce0 f   ImageExWnd.obj
 0001:00010d00       ?AttachEventHandler@CImageExWnd@@QEAAXPEAVCImageExWndEventHandler@@@Z 0000000067d91d00 f   ImageExWnd.obj
 0001:00010d10       ?CenterImage@CImageExWnd@@QEAAX_N@Z 0000000067d91d10 f   ImageExWnd.obj
 0001:00010d20       ?IsImageCentered@CImageExWnd@@QEBA_NXZ 0000000067d91d20 f   ImageExWnd.obj
 0001:00010d30       ?SupportROI@CImageExWnd@@QEAAX_N@Z 0000000067d91d30 f   ImageExWnd.obj
 0001:00010d40       ?ActivateROI@CImageExWnd@@QEAAX_N@Z 0000000067d91d40 f   ImageExWnd.obj
 0001:00010d50       ?SetROI@CImageExWnd@@QEAAXHHII@Z 0000000067d91d50 f   ImageExWnd.obj
 0001:00010d70       ?SetROI@CImageExWnd@@QEAAXVCPoint@@0@Z 0000000067d91d70 f   ImageExWnd.obj
 0001:00010d90       ?SetROI@CImageExWnd@@QEAAXVCRect@@@Z 0000000067d91d90 f   ImageExWnd.obj
 0001:00010dc0       ?IsRoiSupported@CImageExWnd@@QEBA_NXZ 0000000067d91dc0 f   ImageExWnd.obj
 0001:00010dd0       ?IsRoiActive@CImageExWnd@@QEBA_NXZ 0000000067d91dd0 f   ImageExWnd.obj
 0001:00010de0       ?GetROI@CImageExWnd@@QEBAXAEAI000@Z 0000000067d91de0 f   ImageExWnd.obj
 0001:00010e00       ?GetROI@CImageExWnd@@QEBAXAEAVCPoint@@0@Z 0000000067d91e00 f   ImageExWnd.obj
 0001:00010e10       ?GetROI@CImageExWnd@@QEBAXAEAVCRect@@@Z 0000000067d91e10 f   ImageExWnd.obj
 0001:00010e20       ?SetPixelStringFormatDecimal@CImageExWnd@@QEAAX_N@Z 0000000067d91e20 f   ImageExWnd.obj
 0001:00010e30       ?IsPixelStringFormatDecimal@CImageExWnd@@QEBA_NXZ 0000000067d91e30 f   ImageExWnd.obj
 0001:00010e40       ?GetPixelString@CImageExWnd@@QEBA?AV?$CStringT@DV?$StrTraitMFC_DLL@DV?$ChTraitsCRT@D@ATL@@@@@ATL@@VCPoint@@@Z 0000000067d91e40 f   ImageExWnd.obj
 0001:00010e70       ?NotifyMarkerChanged@CImageExWnd@@IEAAXXZ 0000000067d91e70 f   ImageExWnd.obj
 0001:00010e90       ?NotifyInteractiveMarkerChanged@CImageExWnd@@IEAAXH@Z 0000000067d91e90 f   ImageExWnd.obj
 0001:00010eb0       ?PixelChanged@CImageExWnd@@MEAAXHH@Z 0000000067d91eb0 f   ImageExWnd.obj
 0001:00010ed0       ?RoiChanged@CImageExWnd@@MEAAXXZ 0000000067d91ed0 f   ImageExWnd.obj
 0001:00010ef0       ?IsMarkerEnabled@CImageExWnd@@QEBA_NXZ 0000000067d91ef0 f   ImageExWnd.obj
 0001:00010f00       ?GetMarkerLine@CImageExWnd@@QEBAIXZ 0000000067d91f00 f   ImageExWnd.obj
 0001:00010f10       ?ValidateMarkerLineIndex@CImageExWnd@@IEAAHH@Z 0000000067d91f10 f   ImageExWnd.obj
 0001:00010f20       ?PreCreateWindow@CImageExWnd@@MEAAHAEAUtagCREATESTRUCTA@@@Z 0000000067d91f20 f   ImageExWnd.obj
 0001:00010f30       ?OnDestroy@CImageExWnd@@IEAAXXZ 0000000067d91f30 f   ImageExWnd.obj
 0001:00010f80       ?OnEraseBkgnd@CImageExWnd@@IEAAHPEAVCDC@@@Z 0000000067d91f80 f   ImageExWnd.obj
 0001:00010f90       ?OnSetFocus@CImageExWnd@@IEAAXPEAVCWnd@@@Z 0000000067d91f90 f   ImageExWnd.obj
 0001:00010fa0       ??0CPoint@@QEAA@XZ         0000000067d91fa0 f i ImageExWnd.obj
 0001:00010fb0       ?SetPoint@CPoint@@QEAAXHH@Z 0000000067d91fb0 f i ImageExWnd.obj
 0001:00010fc0       ??0CRect@@QEAA@HHHH@Z      0000000067d91fc0 f i ImageExWnd.obj
 0001:00010fe0       ??BCRect@@QEAAPEAUtagRECT@@XZ 0000000067d91fe0 f i ImageExWnd.obj
 0001:00010ff0       ?OffsetRect@CRect@@QEAAXHH@Z 0000000067d91ff0 f i ImageExWnd.obj
 0001:00011000       ??0CPen@@QEAA@XZ           0000000067d92000 f i ImageExWnd.obj
 0001:00011020       ??1CPen@@UEAA@XZ           0000000067d92020 f i ImageExWnd.obj
 0001:00011030       ?CreatePen@CPen@@QEAAHHHK@Z 0000000067d92030 f i ImageExWnd.obj
 0001:00011060       ?CreateSolidBrush@CBrush@@QEAAHK@Z 0000000067d92060 f i ImageExWnd.obj
 0001:00011090       ??0CBitmap@@QEAA@XZ        0000000067d92090 f i ImageExWnd.obj
 0001:000110b0       ??1CBitmap@@UEAA@XZ        0000000067d920b0 f i ImageExWnd.obj
 0001:000110c0       ?CreateCompatibleBitmap@CBitmap@@QEAAHPEAVCDC@@HH@Z 0000000067d920c0 f i ImageExWnd.obj
 0001:000110f0       ??0CRgn@@QEAA@XZ           0000000067d920f0 f i ImageExWnd.obj
 0001:00011110       ??1CRgn@@UEAA@XZ           0000000067d92110 f i ImageExWnd.obj
 0001:00011120       ?CreateRectRgnIndirect@CRgn@@QEAAHPEBUtagRECT@@@Z 0000000067d92120 f i ImageExWnd.obj
 0001:00011150       ?SetRectRgn@CRgn@@QEAAXPEBUtagRECT@@@Z 0000000067d92150 f i ImageExWnd.obj
 0001:00011180       ?CombineRgn@CRgn@@QEAAHPEBV1@0H@Z 0000000067d92180 f i ImageExWnd.obj
 0001:000111b0       ?GetRgnBox@CRgn@@QEBAHPEAUtagRECT@@@Z 0000000067d921b0 f i ImageExWnd.obj
 0001:000111c0       ?GetSafeHdc@CDC@@QEBAPEAUHDC__@@XZ 0000000067d921c0 f i ImageExWnd.obj
 0001:000111d0       ?CreateCompatibleDC@CDC@@QEAAHPEAV1@@Z 0000000067d921d0 f i ImageExWnd.obj
 0001:00011200       ?SelectObject@CDC@@QEAAPEAVCBitmap@@PEAV2@@Z 0000000067d92200 f i ImageExWnd.obj
 0001:00011220       ?FillRgn@CDC@@QEAAHPEAVCRgn@@PEAVCBrush@@@Z 0000000067d92220 f i ImageExWnd.obj
 0001:00011250       ?FillRect@CDC@@QEAAXPEBUtagRECT@@PEAVCBrush@@@Z 0000000067d92250 f i ImageExWnd.obj
 0001:00011270       ?Rectangle@CDC@@QEAAHPEBUtagRECT@@@Z 0000000067d92270 f i ImageExWnd.obj
 0001:000112a0       ?BitBlt@CDC@@QEAAHHHHHPEAV1@HHK@Z 0000000067d922a0 f i ImageExWnd.obj
 0001:00011300       ?GetSafeHwnd@CWnd@@QEBAPEAUHWND__@@XZ 0000000067d92300 f i ImageExWnd.obj
 0001:00011310       ?Invalidate@CWnd@@QEAAXH@Z 0000000067d92310 f i ImageExWnd.obj
 0001:00011320       ?OnCreate@CWnd@@IEAAHPEAUtagCREATESTRUCTA@@@Z 0000000067d92320 f i ImageExWnd.obj
 0001:00011330       ?OnSize@CWnd@@IEAAXIHH@Z   0000000067d92330 f i ImageExWnd.obj
 0001:00011340       ?OnLButtonDown@CWnd@@IEAAXIVCPoint@@@Z 0000000067d92340 f i ImageExWnd.obj
 0001:00011350       ?OnMouseMove@CWnd@@IEAAXIVCPoint@@@Z 0000000067d92350 f i ImageExWnd.obj
 0001:00011360       ?SetScrollInfo@CScrollBar@@QEAAHPEAUtagSCROLLINFO@@H@Z 0000000067d92360 f i ImageExWnd.obj
 0001:00011370       ?GetScrollInfo@CScrollBar@@QEAAHPEAUtagSCROLLINFO@@I@Z 0000000067d92370 f i ImageExWnd.obj
 0001:00011380       ??0CImageViewportWndEventHandler@@QEAA@XZ 0000000067d92380 f i ImageExWnd.obj
 0001:00011390       ?PixelChanged@CImageViewportWndEventHandler@@UEAAXHH@Z 0000000067d92390 f i ImageExWnd.obj
 0001:000113a0       ?ScaleChanged@CImageViewportWndEventHandler@@UEAAXXZ 0000000067d923a0 f i ImageExWnd.obj
 0001:000113b0       ?RoiChanged@CImageViewportWndEventHandler@@UEAAXXZ 0000000067d923b0 f i ImageExWnd.obj
 0001:000113c0       ?ViewChanged@CImageViewportWndEventHandler@@UEAAXXZ 0000000067d923c0 f i ImageExWnd.obj
 0001:000113d0       ??1CImageExWnd@@UEAA@XZ    0000000067d923d0 f   ImageExWnd.obj
 0001:00011540       ?SetMarkerLine@CImageExWnd@@QEAAXI@Z 0000000067d92540 f   ImageExWnd.obj
 0001:000115a0       ?CreateChildControls@CImageExWnd@@IEAAHXZ 0000000067d925a0 f   ImageExWnd.obj
 0001:000116a0       ?OnCreate@CImageExWnd@@IEAAHPEAUtagCREATESTRUCTA@@@Z 0000000067d926a0 f   ImageExWnd.obj
 0001:000116e0       ?PreSubclassWindow@CImageExWnd@@MEAAXXZ 0000000067d926e0 f   ImageExWnd.obj
 0001:00011720       ?PreTranslateMessage@CImageExWnd@@MEAAHPEAUtagMSG@@@Z 0000000067d92720 f   ImageExWnd.obj
 0001:000117a0       ?PaintMarker@CImageExWnd@@IEAAXAEAVCDC@@H@Z 0000000067d927a0 f   ImageExWnd.obj
 0001:000118f0       ?OnMouseMove@CImageExWnd@@IEAAXIVCPoint@@@Z 0000000067d928f0 f   ImageExWnd.obj
 0001:00011a40       ?OnMouseLeave@CImageExWnd@@IEAA_J_K_J@Z 0000000067d92a40 f   ImageExWnd.obj
 0001:00011a90       ?OnLButtonDown@CImageExWnd@@IEAAXIVCPoint@@@Z 0000000067d92a90 f   ImageExWnd.obj
 0001:00011ae0       ?UpdateScrollBars@CImageExWnd@@IEAAXXZ 0000000067d92ae0 f   ImageExWnd.obj
 0001:00011d10       ?OnHScroll@CImageExWnd@@IEAAXIIPEAVCScrollBar@@@Z 0000000067d92d10 f   ImageExWnd.obj
 0001:00011e90       ?OnVScroll@CImageExWnd@@IEAAXIIPEAVCScrollBar@@@Z 0000000067d92e90 f   ImageExWnd.obj
 0001:00012010       ??_ECPen@@UEAAPEAXI@Z      0000000067d93010 f i ImageExWnd.obj
 0001:00012010       ??_GCPen@@UEAAPEAXI@Z      0000000067d93010 f i ImageExWnd.obj
 0001:00012050       ??_ECBitmap@@UEAAPEAXI@Z   0000000067d93050 f i ImageExWnd.obj
 0001:00012050       ??_GCBitmap@@UEAAPEAXI@Z   0000000067d93050 f i ImageExWnd.obj
 0001:00012090       ??_ECRgn@@UEAAPEAXI@Z      0000000067d93090 f i ImageExWnd.obj
 0001:00012090       ??_GCRgn@@UEAAPEAXI@Z      0000000067d93090 f i ImageExWnd.obj
 0001:000120d0       ??_GCImageExWnd@@UEAAPEAXI@Z 0000000067d930d0 f i ImageExWnd.obj
 0001:00012100       ??_ECImageExWnd@@UEAAPEAXI@Z 0000000067d93100 f i ImageExWnd.obj
 0001:00012180       ?ScaleChanged@CImageExWnd@@MEAAXXZ 0000000067d93180 f   ImageExWnd.obj
 0001:000121e0       ?ViewChanged@CImageExWnd@@MEAAXXZ 0000000067d931e0 f   ImageExWnd.obj
 0001:00012240       ?OnPaint@CImageExWnd@@IEAAXXZ 0000000067d93240 f   ImageExWnd.obj
 0001:000124e0       ?UpdateLayout@CImageExWnd@@IEAAXXZ 0000000067d934e0 f   ImageExWnd.obj
 0001:00012820       ?OnSize@CImageExWnd@@IEAAXIHH@Z 0000000067d93820 f   ImageExWnd.obj
 0001:00012840       ?Refresh@CImageExWnd@@QEAAXXZ 0000000067d93840 f   ImageExWnd.obj
 0001:00012870       ?Reset@CImageExWnd@@QEAAXXZ 0000000067d93870 f   ImageExWnd.obj
 0001:000128a0       ?EnableMarker@CImageExWnd@@QEAAX_N@Z 0000000067d938a0 f   ImageExWnd.obj
 0001:00012930       ?GetThisMessageMap@CImageExWnd@@KAPEBUAFX_MSGMAP@@XZ 0000000067d93930 f   ImageExWnd.obj
 0001:00012940       ??0CImageExWnd@@QEAA@XZ    0000000067d93940 f   ImageExWnd.obj
 0001:00012b80       ?GetMessageMap@CImageExWnd@@MEBAPEBUAFX_MSGMAP@@XZ 0000000067d93b80 f   ImageExWnd.obj
 0001:00012bc0       ?_GetBaseClass@CImageFilterEditorDlg@@KAPEAUCRuntimeClass@@XZ 0000000067d93bc0 f   ImageFilterEditorDlg.obj
 0001:00012bd0       ?GetThisClass@CImageFilterEditorDlg@@SAPEAUCRuntimeClass@@XZ 0000000067d93bd0 f   ImageFilterEditorDlg.obj
 0001:00012be0       ?GetRuntimeClass@CImageFilterEditorDlg@@UEBAPEAUCRuntimeClass@@XZ 0000000067d93be0 f   ImageFilterEditorDlg.obj
 0001:00012bf0       ?DestroyCoeffEditControls@CImageFilterEditorDlg@@IEAAXXZ 0000000067d93bf0 f   ImageFilterEditorDlg.obj
 0001:00012ca0       ?ReadCoefficientsFromBuffer@CImageFilterEditorDlg@@IEAA_NAEAVSapBuffer@@@Z 0000000067d93ca0 f   ImageFilterEditorDlg.obj
 0001:00012ef0       ?OnBnClickedBtnImport@CImageFilterEditorDlg@@IEAAXXZ 0000000067d93ef0 f   ImageFilterEditorDlg.obj
 0001:00013100       ?PreTranslateMessage@CImageFilterEditorDlg@@MEAAHPEAUtagMSG@@@Z 0000000067d94100 f   ImageFilterEditorDlg.obj
 0001:00013130       ?_Getstate@?$basic_stringbuf@DU?$char_traits@D@std@@V?$allocator@D@2@@std@@AEAAHH@Z 0000000067d94130 f i ImageFilterEditorDlg.obj
 0001:00013160       ?FromHandle@CFont@@SAPEAV1@PEAUHFONT__@@@Z 0000000067d94160 f i ImageFilterEditorDlg.obj
 0001:00013170       ?SetFont@CWnd@@QEAAXPEAVCFont@@H@Z 0000000067d94170 f i ImageFilterEditorDlg.obj
 0001:000131a0       ?GetFont@CWnd@@QEBAPEAVCFont@@XZ 0000000067d941a0 f i ImageFilterEditorDlg.obj
 0001:000131d0       ?InsertString@CComboBox@@QEAAHHPEBD@Z 0000000067d941d0 f i ImageFilterEditorDlg.obj
 0001:000131f0       ??0bad_alloc@std@@QEAA@PEBD@Z 0000000067d941f0 f i ImageFilterEditorDlg.obj
 0001:00013220       ??1bad_alloc@std@@UEAA@XZ  0000000067d94220 f i ImageFilterEditorDlg.obj
 0001:00013240       ??_Gbad_alloc@std@@UEAAPEAXI@Z 0000000067d94240 f i ImageFilterEditorDlg.obj
 0001:00013240       ??_Ebad_alloc@std@@UEAAPEAXI@Z 0000000067d94240 f i ImageFilterEditorDlg.obj
 0001:00013280       ?length@?$char_traits@D@std@@SA_KPEBD@Z 0000000067d94280 f i ImageFilterEditorDlg.obj
 0001:000132a0       ?copy@?$char_traits@D@std@@SAPEADPEADPEBD_K@Z 0000000067d942a0 f i ImageFilterEditorDlg.obj
 0001:000132c0       ?move@?$char_traits@D@std@@SAPEADPEADPEBD_K@Z 0000000067d942c0 f i ImageFilterEditorDlg.obj
 0001:000132d0       ?assign@?$char_traits@D@std@@SAXAEADAEBD@Z 0000000067d942d0 f i ImageFilterEditorDlg.obj
 0001:000132e0       ?size@?$basic_string@DU?$char_traits@D@std@@V?$allocator@D@2@@std@@QEBA_KXZ 0000000067d942e0 f i ImageFilterEditorDlg.obj
 0001:000132f0       ?_Myptr@?$basic_string@DU?$char_traits@D@std@@V?$allocator@D@2@@std@@QEBAPEBDXZ 0000000067d942f0 f i ImageFilterEditorDlg.obj
 0001:00013300       ??1?$_String_val@DV?$allocator@D@std@@@std@@QEAA@XZ 0000000067d94300 f i ImageFilterEditorDlg.obj
 0001:00013310       ??0?$allocator@D@std@@QEAA@XZ 0000000067d94310 f i ImageFilterEditorDlg.obj
 0001:00013320       ??0?$allocator@D@std@@QEAA@AEBV01@@Z 0000000067d94320 f i ImageFilterEditorDlg.obj
 0001:00013330       ?_Myptr@?$basic_string@DU?$char_traits@D@std@@V?$allocator@D@2@@std@@QEAAPEADXZ 0000000067d94330 f i ImageFilterEditorDlg.obj
 0001:00013340       ?_Xran@?$basic_string@DU?$char_traits@D@std@@V?$allocator@D@2@@std@@QEBAXXZ 0000000067d94340 f i ImageFilterEditorDlg.obj
 0001:00013360       ?deallocate@?$allocator@D@std@@QEAAXPEAD_K@Z 0000000067d94360 f i ImageFilterEditorDlg.obj
 0001:00013370       ?_Inside@?$basic_string@DU?$char_traits@D@std@@V?$allocator@D@2@@std@@QEAA_NPEBD@Z 0000000067d94370 f i ImageFilterEditorDlg.obj
 0001:000133b0       ?_Xlen@?$basic_string@DU?$char_traits@D@std@@V?$allocator@D@2@@std@@QEBAXXZ 0000000067d943b0 f i ImageFilterEditorDlg.obj
 0001:000133d0       ?max_size@?$allocator@D@std@@QEBA_KXZ 0000000067d943d0 f i ImageFilterEditorDlg.obj
 0001:000133e0       ??$_Allocate@D@std@@YAPEAD_KPEAD@Z 0000000067d943e0 f i ImageFilterEditorDlg.obj
 0001:00013440       ??0bad_alloc@std@@QEAA@AEBV01@@Z 0000000067d94440 f i ImageFilterEditorDlg.obj
 0001:00013470       ??0CImageFilterEditorDlg@@QEAA@PEAVSapAcquisition@@PEAVCWnd@@@Z 0000000067d94470 f   ImageFilterEditorDlg.obj
 0001:000135b0       ??1CImageFilterEditorDlg@@UEAA@XZ 0000000067d945b0 f   ImageFilterEditorDlg.obj
 0001:00013640       ?CreateCoeffEditControls@CImageFilterEditorDlg@@IEAA_NH@Z 0000000067d94640 f   ImageFilterEditorDlg.obj
 0001:000137b0       ??_ECEdit@@UEAAPEAXI@Z     0000000067d947b0 f i ImageFilterEditorDlg.obj
 0001:00013830       ?InitControls@CImageFilterEditorDlg@@IEAAXXZ 0000000067d94830 f   ImageFilterEditorDlg.obj
 0001:00013a40       ?UpdateKernelSizeCombo@CImageFilterEditorDlg@@IEAAXXZ 0000000067d94a40 f   ImageFilterEditorDlg.obj
 0001:00013b30       ?ArrangeCoeffEditControls@CImageFilterEditorDlg@@IEAAXXZ 0000000067d94b30 f   ImageFilterEditorDlg.obj
 0001:00013e00       ?ReadCoefficients@CImageFilterEditorDlg@@IEAA_NXZ 0000000067d94e00 f   ImageFilterEditorDlg.obj
 0001:00014020       ?DoDataExchange@CImageFilterEditorDlg@@MEAAXPEAVCDataExchange@@@Z 0000000067d95020 f   ImageFilterEditorDlg.obj
 0001:000140c0       ?OnCheckImageFilterEnable@CImageFilterEditorDlg@@IEAAXXZ 0000000067d950c0 f   ImageFilterEditorDlg.obj
 0001:00014120       ?_Tidy@?$basic_stringbuf@DU?$char_traits@D@std@@V?$allocator@D@2@@std@@IEAAXXZ 0000000067d95120 f i ImageFilterEditorDlg.obj
 0001:00014180       ??_GCImageFilterEditorDlg@@UEAAPEAXI@Z 0000000067d95180 f i ImageFilterEditorDlg.obj
 0001:000141b0       ??_ECImageFilterEditorDlg@@UEAAPEAXI@Z 0000000067d951b0 f i ImageFilterEditorDlg.obj
 0001:00014230       ?c_str@?$basic_string@DU?$char_traits@D@std@@V?$allocator@D@2@@std@@QEBAPEBDXZ 0000000067d95230 f i ImageFilterEditorDlg.obj
 0001:00014240       ??0?$_String_val@DV?$allocator@D@std@@@std@@QEAA@V?$allocator@D@1@@Z 0000000067d95240 f i ImageFilterEditorDlg.obj
 0001:00014250       ?_Eos@?$basic_string@DU?$char_traits@D@std@@V?$allocator@D@2@@std@@QEAAX_K@Z 0000000067d95250 f i ImageFilterEditorDlg.obj
 0001:00014270       ?erase@?$basic_string@DU?$char_traits@D@std@@V?$allocator@D@2@@std@@QEAAAEAV12@_K0@Z 0000000067d95270 f i ImageFilterEditorDlg.obj
 0001:00014310       ?max_size@?$basic_string@DU?$char_traits@D@std@@V?$allocator@D@2@@std@@QEBA_KXZ 0000000067d95310 f i ImageFilterEditorDlg.obj
 0001:00014320       ?allocate@?$allocator@D@std@@QEAAPEAD_K@Z 0000000067d95320 f i ImageFilterEditorDlg.obj
 0001:00014380       ?UpdateState@CImageFilterEditorDlg@@IEAA_NXZ 0000000067d95380 f   ImageFilterEditorDlg.obj
 0001:00014400       ?OnChangeImageFilterIndex@CImageFilterEditorDlg@@IEAAXXZ 0000000067d95400 f   ImageFilterEditorDlg.obj
 0001:00014420       ?OnChangeImageFilterSize@CImageFilterEditorDlg@@IEAAXXZ 0000000067d95420 f   ImageFilterEditorDlg.obj
 0001:00014430       ??1?$basic_stringbuf@DU?$char_traits@D@std@@V?$allocator@D@2@@std@@UEAA@XZ 0000000067d95430 f i ImageFilterEditorDlg.obj
 0001:000144b0       ??B?$fpos@H@std@@QEBA_JXZ  0000000067d954b0 f i ImageFilterEditorDlg.obj
 0001:000144c0       ?eq@?$char_traits@D@std@@SA_NAEBD0@Z 0000000067d954c0 f i ImageFilterEditorDlg.obj
 0001:000144d0       ?to_char_type@?$char_traits@D@std@@SADAEBH@Z 0000000067d954d0 f i ImageFilterEditorDlg.obj
 0001:000144e0       ?to_int_type@?$char_traits@D@std@@SAHAEBD@Z 0000000067d954e0 f i ImageFilterEditorDlg.obj
 0001:000144f0       ?eq_int_type@?$char_traits@D@std@@SA_NAEBH0@Z 0000000067d954f0 f i ImageFilterEditorDlg.obj
 0001:00014500       ?eof@?$char_traits@D@std@@SAHXZ 0000000067d95500 f i ImageFilterEditorDlg.obj
 0001:00014510       ??0?$fpos@H@std@@QEAA@_J@Z 0000000067d95510 f i ImageFilterEditorDlg.obj
 0001:00014520       ?underflow@?$basic_stringbuf@DU?$char_traits@D@std@@V?$allocator@D@2@@std@@MEAAHXZ 0000000067d95520 f i ImageFilterEditorDlg.obj
 0001:00014630       ?seekoff@?$basic_stringbuf@DU?$char_traits@D@std@@V?$allocator@D@2@@std@@MEAA?AV?$fpos@H@2@_JHH@Z 0000000067d95630 f i ImageFilterEditorDlg.obj
 0001:00014840       ?seekpos@?$basic_stringbuf@DU?$char_traits@D@std@@V?$allocator@D@2@@std@@MEAA?AV?$fpos@H@2@V32@H@Z 0000000067d95840 f i ImageFilterEditorDlg.obj
 0001:000149c0       ?not_eof@?$char_traits@D@std@@SAHAEBH@Z 0000000067d959c0 f i ImageFilterEditorDlg.obj
 0001:000149d0       ?overflow@?$basic_stringbuf@DU?$char_traits@D@std@@V?$allocator@D@2@@std@@MEAAHH@Z 0000000067d959d0 f i ImageFilterEditorDlg.obj
 0001:00014c40       ?pbackfail@?$basic_stringbuf@DU?$char_traits@D@std@@V?$allocator@D@2@@std@@MEAAHH@Z 0000000067d95c40 f i ImageFilterEditorDlg.obj
 0001:00014ce0       ??_E?$basic_stringbuf@DU?$char_traits@D@std@@V?$allocator@D@2@@std@@UEAAPEAXI@Z 0000000067d95ce0 f i ImageFilterEditorDlg.obj
 0001:00014ce0       ??_G?$basic_stringbuf@DU?$char_traits@D@std@@V?$allocator@D@2@@std@@UEAAPEAXI@Z 0000000067d95ce0 f i ImageFilterEditorDlg.obj
 0001:00014d10       ?_Init@?$basic_stringbuf@DU?$char_traits@D@std@@V?$allocator@D@2@@std@@IEAAXPEBD_KH@Z 0000000067d95d10 f i ImageFilterEditorDlg.obj
 0001:00014e00       ?_Tidy@?$basic_string@DU?$char_traits@D@std@@V?$allocator@D@2@@std@@QEAAX_N_K@Z 0000000067d95e00 f i ImageFilterEditorDlg.obj
 0001:00014e60       ?_Copy@?$basic_string@DU?$char_traits@D@std@@V?$allocator@D@2@@std@@QEAAX_K0@Z 0000000067d95e60 f i ImageFilterEditorDlg.obj
 0001:00014fa0       ?OnInitDialog@CImageFilterEditorDlg@@MEAAHXZ 0000000067d95fa0 f   ImageFilterEditorDlg.obj
 0001:00015130       ??1?$basic_istringstream@DU?$char_traits@D@std@@V?$allocator@D@2@@std@@UEAA@XZ 0000000067d96130 f i ImageFilterEditorDlg.obj
 0001:00015180       ??0?$basic_stringbuf@DU?$char_traits@D@std@@V?$allocator@D@2@@std@@QEAA@AEBV?$basic_string@DU?$char_traits@D@std@@V?$allocator@D@2@@1@H@Z 0000000067d96180 f i ImageFilterEditorDlg.obj
 0001:00015220       ??1?$basic_string@DU?$char_traits@D@std@@V?$allocator@D@2@@std@@QEAA@XZ 0000000067d96220 f i ImageFilterEditorDlg.obj
 0001:00015260       ?_Grow@?$basic_string@DU?$char_traits@D@std@@V?$allocator@D@2@@std@@QEAA_N_K_N@Z 0000000067d96260 f i ImageFilterEditorDlg.obj
 0001:00015330       ??_D?$basic_istringstream@DU?$char_traits@D@std@@V?$allocator@D@2@@std@@QEAAXXZ 0000000067d96330 f i ImageFilterEditorDlg.obj
 0001:000153a0       ??0?$basic_istringstream@DU?$char_traits@D@std@@V?$allocator@D@2@@std@@QEAA@AEBV?$basic_string@DU?$char_traits@D@std@@V?$allocator@D@2@@1@H@Z 0000000067d963a0 f i ImageFilterEditorDlg.obj
 0001:00015440       ??_E?$basic_istringstream@DU?$char_traits@D@std@@V?$allocator@D@2@@std@@UEAAPEAXI@Z 0000000067d96440 f i ImageFilterEditorDlg.obj
 0001:00015440       ??_G?$basic_istringstream@DU?$char_traits@D@std@@V?$allocator@D@2@@std@@UEAAPEAXI@Z 0000000067d96440 f i ImageFilterEditorDlg.obj
 0001:000154d0       ?assign@?$basic_string@DU?$char_traits@D@std@@V?$allocator@D@2@@std@@QEAAAEAV12@AEBV12@_K1@Z 0000000067d964d0 f i ImageFilterEditorDlg.obj
 0001:000155e0       ?assign@?$basic_string@DU?$char_traits@D@std@@V?$allocator@D@2@@std@@QEAAAEAV12@PEBD_K@Z 0000000067d965e0 f i ImageFilterEditorDlg.obj
 0001:00015710       ?assign@?$basic_string@DU?$char_traits@D@std@@V?$allocator@D@2@@std@@QEAAAEAV12@PEBD@Z 0000000067d96710 f i ImageFilterEditorDlg.obj
 0001:00015740       ??0?$basic_string@DU?$char_traits@D@std@@V?$allocator@D@2@@std@@QEAA@PEBD@Z 0000000067d96740 f i ImageFilterEditorDlg.obj
 0001:00015790       ?ConvertToDecimal@CImageFilterEditorDlg@@KA_NV?$CStringT@DV?$StrTraitMFC_DLL@DV?$ChTraitsCRT@D@ATL@@@@@ATL@@AEAN@Z 0000000067d96790 f   ImageFilterEditorDlg.obj
 0001:00015990       ?WriteCoefficientsToBuffer@CImageFilterEditorDlg@@IEAA_NAEAVSapBuffer@@@Z 0000000067d96990 f   ImageFilterEditorDlg.obj
 0001:00015ce0       ?OnBnClickedBtnExport@CImageFilterEditorDlg@@IEAAXXZ 0000000067d96ce0 f   ImageFilterEditorDlg.obj
 0001:00015f70       ?WriteCoefficients@CImageFilterEditorDlg@@IEAA_NXZ 0000000067d96f70 f   ImageFilterEditorDlg.obj
 0001:00016170       ?GetThisMessageMap@CImageFilterEditorDlg@@KAPEBUAFX_MSGMAP@@XZ 0000000067d97170 f   ImageFilterEditorDlg.obj
 0001:00016180       ?OnOK@CImageFilterEditorDlg@@MEAAXXZ 0000000067d97180 f   ImageFilterEditorDlg.obj
 0001:000161e0       ?GetMessageMap@CImageFilterEditorDlg@@MEBAPEBUAFX_MSGMAP@@XZ 0000000067d971e0 f   ImageFilterEditorDlg.obj
 0001:000161f0       ?_GetBaseClass@CImageViewportWnd@@KAPEAUCRuntimeClass@@XZ 0000000067d971f0 f   ImageViewportWnd.obj
 0001:00016200       ?GetThisClass@CImageViewportWnd@@SAPEAUCRuntimeClass@@XZ 0000000067d97200 f   ImageViewportWnd.obj
 0001:00016210       ?GetRuntimeClass@CImageViewportWnd@@UEBAPEAUCRuntimeClass@@XZ 0000000067d97210 f   ImageViewportWnd.obj
 0001:00016220       ??_H@YAXPEAX_KHP6APEAX0@Z@Z 0000000067d97220 f i ImageViewportWnd.obj
 0001:00016270       ?AttachEventHandler@CImageViewportWnd@@QEAAXPEAVCImageViewportWndEventHandler@@@Z 0000000067d97270 f   ImageViewportWnd.obj
 0001:00016280       ?IsImageCentered@CImageViewportWnd@@QEBA_NXZ 0000000067d97280 f   ImageViewportWnd.obj
 0001:00016290       ?OnEraseBkgnd@CImageViewportWnd@@IEAAHPEAVCDC@@@Z 0000000067d97290 f   ImageViewportWnd.obj
 0001:000162a0       ?NotifyPixelChanged@CImageViewportWnd@@AEAAXHH@Z 0000000067d972a0 f   ImageViewportWnd.obj
 0001:000162c0       ?NotifyScaleChanged@CImageViewportWnd@@AEAAXXZ 0000000067d972c0 f   ImageViewportWnd.obj
 0001:000162e0       ?NotifyRoiChanged@CImageViewportWnd@@AEAAXXZ 0000000067d972e0 f   ImageViewportWnd.obj
 0001:00016300       ?NotifyViewChanged@CImageViewportWnd@@AEAAXXZ 0000000067d97300 f   ImageViewportWnd.obj
 0001:00016320       ?SupportROI@CImageViewportWnd@@QEAAX_N@Z 0000000067d97320 f   ImageViewportWnd.obj
 0001:00016330       ?IsRoiSupported@CImageViewportWnd@@QEBA_NXZ 0000000067d97330 f   ImageViewportWnd.obj
 0001:00016340       ?IsRoiActive@CImageViewportWnd@@QEBA_NXZ 0000000067d97340 f   ImageViewportWnd.obj
 0001:00016360       ?GetROI@CImageViewportWnd@@QEBAXAEAVCRect@@@Z 0000000067d97360 f   ImageViewportWnd.obj
 0001:00016390       ?SetPixelStringFormatDecimal@CImageViewportWnd@@QEAAX_N@Z 0000000067d97390 f   ImageViewportWnd.obj
 0001:000163a0       ?IsPixelStringFormatDecimal@CImageViewportWnd@@QEBA_NXZ 0000000067d973a0 f   ImageViewportWnd.obj
 0001:000163b0       ??0CSize@@QEAA@HH@Z        0000000067d973b0 f i ImageViewportWnd.obj
 0001:000163c0       ??0CPoint@@QEAA@HH@Z       0000000067d973c0 f i ImageViewportWnd.obj
 0001:000163d0       ??0CPoint@@QEAA@UtagSIZE@@@Z 0000000067d973d0 f i ImageViewportWnd.obj
 0001:000163e0       ?Offset@CPoint@@QEAAXHH@Z  0000000067d973e0 f i ImageViewportWnd.obj
 0001:000163f0       ??HCPoint@@QEBA?AV0@UtagPOINT@@@Z 0000000067d973f0 f i ImageViewportWnd.obj
 0001:00016410       ??GCPoint@@QEBA?AVCSize@@UtagPOINT@@@Z 0000000067d97410 f i ImageViewportWnd.obj
 0001:00016430       ?TopLeft@CRect@@QEAAAEAVCPoint@@XZ 0000000067d97430 f i ImageViewportWnd.obj
 0001:00016440       ?BottomRight@CRect@@QEAAAEAVCPoint@@XZ 0000000067d97440 f i ImageViewportWnd.obj
 0001:00016450       ?TopLeft@CRect@@QEBAAEBVCPoint@@XZ 0000000067d97450 f i ImageViewportWnd.obj
 0001:00016460       ?BottomRight@CRect@@QEBAAEBVCPoint@@XZ 0000000067d97460 f i ImageViewportWnd.obj
 0001:00016470       ?PtInRect@CRect@@QEBAHUtagPOINT@@@Z 0000000067d97470 f i ImageViewportWnd.obj
 0001:00016480       ?SetRect@CRect@@QEAAXHHHH@Z 0000000067d97480 f i ImageViewportWnd.obj
 0001:000164a0       ?SetRect@CRect@@QEAAXUtagPOINT@@0@Z 0000000067d974a0 f i ImageViewportWnd.obj
 0001:000164d0       ?OffsetRect@CRect@@QEAAXUtagPOINT@@@Z 0000000067d974d0 f i ImageViewportWnd.obj
 0001:000164f0       ?MoveToY@CRect@@QEAAXH@Z   0000000067d974f0 f i ImageViewportWnd.obj
 0001:00016500       ?MoveToX@CRect@@QEAAXH@Z   0000000067d97500 f i ImageViewportWnd.obj
 0001:00016510       ?MoveToXY@CRect@@QEAAXHH@Z 0000000067d97510 f i ImageViewportWnd.obj
 0001:00016530       ??YCRect@@QEAAXUtagPOINT@@@Z 0000000067d97530 f i ImageViewportWnd.obj
 0001:00016550       ?NormalizeRect@CRect@@QEAAXXZ 0000000067d97550 f i ImageViewportWnd.obj
 0001:00016570       ?CreateStockObject@CGdiObject@@QEAAHH@Z 0000000067d97570 f i ImageViewportWnd.obj
 0001:000165a0       ?ScreenToClient@CWnd@@QEBAXPEAUtagPOINT@@@Z 0000000067d975a0 f i ImageViewportWnd.obj
 0001:000165b0       ?OnSetCursor@CWnd@@IEAAHPEAV1@II@Z 0000000067d975b0 f i ImageViewportWnd.obj
 0001:000165c0       ?OnSysKeyDown@CWnd@@IEAAXIII@Z 0000000067d975c0 f i ImageViewportWnd.obj
 0001:000165d0       ?OnKeyDown@CWnd@@IEAAXIII@Z 0000000067d975d0 f i ImageViewportWnd.obj
 0001:000165e0       ?OnKeyUp@CWnd@@IEAAXIII@Z  0000000067d975e0 f i ImageViewportWnd.obj
 0001:000165f0       ?OnLButtonDblClk@CWnd@@IEAAXIVCPoint@@@Z 0000000067d975f0 f i ImageViewportWnd.obj
 0001:00016600       ?OnLButtonUp@CWnd@@IEAAXIVCPoint@@@Z 0000000067d97600 f i ImageViewportWnd.obj
 0001:00016610       ?OnMouseWheel@CWnd@@IEAAHIFVCPoint@@@Z 0000000067d97610 f i ImageViewportWnd.obj
 0001:00016620       ?LoadStandardCursor@CWinApp@@QEBAPEAUHICON__@@PEBD@Z 0000000067d97620 f i ImageViewportWnd.obj
 0001:00016630       ??0SImageViewportROI@@QEAA@XZ 0000000067d97630 f i ImageViewportWnd.obj
 0001:000166d0       ??1SImageViewportROI@@QEAA@XZ 0000000067d976d0 f i ImageViewportWnd.obj
 0001:00016750       ??1CImageViewportWnd@@UEAA@XZ 0000000067d97750 f   ImageViewportWnd.obj
 0001:000167f0       ?PreSubclassWindow@CImageViewportWnd@@MEAAXXZ 0000000067d977f0 f   ImageViewportWnd.obj
 0001:000168b0       ?OnKeyUp@CImageViewportWnd@@IEAAXIII@Z 0000000067d978b0 f   ImageViewportWnd.obj
 0001:000168d0       ?OnMouseLeave@CImageViewportWnd@@IEAA_J_K_J@Z 0000000067d978d0 f   ImageViewportWnd.obj
 0001:00016910       ?TranslatePointToNativeView@CImageViewportWnd@@AEBA?AVCPoint@@V2@@Z 0000000067d97910 f   ImageViewportWnd.obj
 0001:00016a80       ?TranslatePointToDestinationView@CImageViewportWnd@@AEBA?AVCPoint@@V2@@Z 0000000067d97a80 f   ImageViewportWnd.obj
 0001:00016b80       ?GetDstRectFromCurrentScalingOptions@CImageViewportWnd@@AEBA?AVCRect@@XZ 0000000067d97b80 f   ImageViewportWnd.obj
 0001:00016c50       ?GetROI@CImageViewportWnd@@QEBAXAEAI000@Z 0000000067d97c50 f   ImageViewportWnd.obj
 0001:00016c90       ?GetROI@CImageViewportWnd@@QEBAXAEAVCPoint@@0@Z 0000000067d97c90 f   ImageViewportWnd.obj
 0001:00016cb0       ?ValidateRoi@CImageViewportWnd@@AEAAXXZ 0000000067d97cb0 f   ImageViewportWnd.obj
 0001:00016de0       ?MoveMouseCursor@CImageViewportWnd@@AEBAXHH@Z 0000000067d97de0 f   ImageViewportWnd.obj
 0001:00016e90       ?GetPixelString@CImageViewportWnd@@QEBA?AV?$CStringT@DV?$StrTraitMFC_DLL@DV?$ChTraitsCRT@D@ATL@@@@@ATL@@VCPoint@@@Z 0000000067d97e90 f   ImageViewportWnd.obj
 0001:00016f60       ??_GCImageViewportWnd@@UEAAPEAXI@Z 0000000067d97f60 f i ImageViewportWnd.obj
 0001:00016f90       ??_ECImageViewportWnd@@UEAAPEAXI@Z 0000000067d97f90 f i ImageViewportWnd.obj
 0001:00017010       ?PaintROI@CImageViewportWnd@@AEAAXXZ 0000000067d98010 f   ImageViewportWnd.obj
 0001:000173f0       ?OnLButtonDown@CImageViewportWnd@@IEAAXIVCPoint@@@Z 0000000067d983f0 f   ImageViewportWnd.obj
 0001:00017540       ?OnLButtonUp@CImageViewportWnd@@IEAAXIVCPoint@@@Z 0000000067d98540 f   ImageViewportWnd.obj
 0001:000175c0       ?OnSysKeyDown@CImageViewportWnd@@IEAAXIII@Z 0000000067d985c0 f   ImageViewportWnd.obj
 0001:00017640       ?OnSetCursor@CImageViewportWnd@@IEAAHPEAVCWnd@@II@Z 0000000067d98640 f   ImageViewportWnd.obj
 0001:000177e0       ?UpdateScales@CImageViewportWnd@@AEAAXMM@Z 0000000067d987e0 f   ImageViewportWnd.obj
 0001:00017c40       ?MoveInView@CImageViewportWnd@@AEAAXVCPoint@@@Z 0000000067d98c40 f   ImageViewportWnd.obj
 0001:00017eb0       ?MoveRoi@CImageViewportWnd@@AEAAXVCPoint@@@Z 0000000067d98eb0 f   ImageViewportWnd.obj
 0001:00017fb0       ?MoveRoiAnchor@CImageViewportWnd@@AEAAXVCPoint@@@Z 0000000067d98fb0 f   ImageViewportWnd.obj
 0001:000180b0       ?ChangeZoom@CImageViewportWnd@@AEAAX_N0VCPoint@@00@Z 0000000067d990b0 f   ImageViewportWnd.obj
 0001:00018170       ?ActivateROI@CImageViewportWnd@@QEAAX_N@Z 0000000067d99170 f   ImageViewportWnd.obj
 0001:000181b0       ?SetROI@CImageViewportWnd@@QEAAXHHII@Z 0000000067d991b0 f   ImageViewportWnd.obj
 0001:00018220       ?SetROI@CImageViewportWnd@@QEAAXVCPoint@@0@Z 0000000067d99220 f   ImageViewportWnd.obj
 0001:00018250       ?SetROI@CImageViewportWnd@@QEAAXVCRect@@@Z 0000000067d99250 f   ImageViewportWnd.obj
 0001:00018260       ?Refresh@CImageViewportWnd@@QEAAXXZ 0000000067d99260 f   ImageViewportWnd.obj
 0001:000182f0       ?Reset@CImageViewportWnd@@QEAAXXZ 0000000067d992f0 f   ImageViewportWnd.obj
 0001:000183b0       ??0CImageViewportWnd@@QEAA@XZ 0000000067d993b0 f   ImageViewportWnd.obj
 0001:00018590       ?ViewCallback@CImageViewportWnd@@CAXPEAVSapViewCallbackInfo@@@Z 0000000067d99590 f   ImageViewportWnd.obj
 0001:000185c0       ?CenterImage@CImageViewportWnd@@QEAAX_N@Z 0000000067d995c0 f   ImageViewportWnd.obj
 0001:000185e0       ?OnPaint@CImageViewportWnd@@IEAAXXZ 0000000067d995e0 f   ImageViewportWnd.obj
 0001:000187a0       ?PreTranslateMessage@CImageViewportWnd@@MEAAHPEAUtagMSG@@@Z 0000000067d997a0 f   ImageViewportWnd.obj
 0001:000187d0       ?OnSize@CImageViewportWnd@@IEAAXIHH@Z 0000000067d997d0 f   ImageViewportWnd.obj
 0001:00018820       ?OnLButtonDblClk@CImageViewportWnd@@IEAAXIVCPoint@@@Z 0000000067d99820 f   ImageViewportWnd.obj
 0001:00018a00       ?OnKeyDown@CImageViewportWnd@@IEAAXIII@Z 0000000067d99a00 f   ImageViewportWnd.obj
 0001:00018b70       ?OnMouseMove@CImageViewportWnd@@IEAAXIVCPoint@@@Z 0000000067d99b70 f   ImageViewportWnd.obj
 0001:00018cc0       ?OnMouseWheel@CImageViewportWnd@@IEAAHIFVCPoint@@@Z 0000000067d99cc0 f   ImageViewportWnd.obj
 0001:00018db0       ?AttachSapView@CImageViewportWnd@@QEAA_NPEAVSapView@@@Z 0000000067d99db0 f   ImageViewportWnd.obj
 0001:00018e00       ?GetThisMessageMap@CImageViewportWnd@@KAPEBUAFX_MSGMAP@@XZ 0000000067d99e00 f   ImageViewportWnd.obj
 0001:00018e10       ?GetMessageMap@CImageViewportWnd@@MEBAPEBUAFX_MSGMAP@@XZ 0000000067d99e10 f   ImageViewportWnd.obj
 0001:00018e20       ?OnMove@CImageWnd@@QEAAXXZ 0000000067d99e20 f   ImageWnd.obj
 0001:00018e60       ?OnPaint@CImageWnd@@QEAAXXZ 0000000067d99e60 f   ImageWnd.obj
 0001:00018ea0       ?GetSelectedRoi@CImageWnd@@QEAA?AVCRect@@XZ 0000000067d99ea0 f   ImageWnd.obj
 0001:00018ed0       ?SetPixelStringFormatDecimal@CImageWnd@@QEAAXH@Z 0000000067d99ed0 f   ImageWnd.obj
 0001:00018ee0       ?GetPixelString@CImageWnd@@SA?AV?$CStringT@DV?$StrTraitMFC_DLL@DV?$ChTraitsCRT@D@ATL@@@@@ATL@@PEAVSapBuffer@@VCPoint@@HH@Z 0000000067d99ee0 f   ImageWnd.obj
 0001:000197d0       ?AdjustRect@CSapRectTracker@@UEAAXHPEAUtagRECT@@@Z 0000000067d9a7d0 f   ImageWnd.obj
 0001:00019850       ?SetLimitRect@CSapRectTracker@@QEAAXPEAVCRect@@@Z 0000000067d9a850 f   ImageWnd.obj
 0001:00019870       ??0CSize@@QEAA@XZ          0000000067d9a870 f i ImageWnd.obj
 0001:00019880       ?GetBkColor@CDC@@QEBAKXZ   0000000067d9a880 f i ImageWnd.obj
 0001:00019890       ?InvalidateRect@CWnd@@QEAAXPEBUtagRECT@@H@Z 0000000067d9a890 f i ImageWnd.obj
 0001:000198a0       ?ShowScrollBar@CScrollBar@@QEAAXH@Z 0000000067d9a8a0 f i ImageWnd.obj
 0001:000198c0       ??0CRectTracker@@QEAA@XZ   0000000067d9a8c0 f i ImageWnd.obj
 0001:00019900       ??_GCRectTracker@@UEAAPEAXI@Z 0000000067d9a900 f i ImageWnd.obj
 0001:00019900       ??_ECRectTracker@@UEAAPEAXI@Z 0000000067d9a900 f i ImageWnd.obj
 0001:00019930       ??1CSapRectTracker@@UEAA@XZ 0000000067d9a930 f i ImageWnd.obj
 0001:00019940       ??0CSapRectTracker@@QEAA@XZ 0000000067d9a940 f i ImageWnd.obj
 0001:000199a0       ??_ECSapRectTracker@@UEAAPEAXI@Z 0000000067d9a9a0 f i ImageWnd.obj
 0001:000199a0       ??_GCSapRectTracker@@UEAAPEAXI@Z 0000000067d9a9a0 f i ImageWnd.obj
 0001:000199d0       ??1CImageWnd@@UEAA@XZ      0000000067d9a9d0 f   ImageWnd.obj
 0001:000199f0       ?GetScrollInfo@CImageWnd@@IEAAHHPEAUtagSCROLLINFO@@@Z 0000000067d9a9f0 f   ImageWnd.obj
 0001:00019a50       ?SetScrollInfo@CImageWnd@@IEAAHHPEAUtagSCROLLINFO@@H@Z 0000000067d9aa50 f   ImageWnd.obj
 0001:00019aa0       ?IsPointInside@CImageWnd@@QEAAHVCPoint@@@Z 0000000067d9aaa0 f   ImageWnd.obj
 0001:00019ac0       ?UpdateClientArea@CImageWnd@@QEAAXK@Z 0000000067d9aac0 f   ImageWnd.obj
 0001:00019bf0       ?UpdateClientArea@CImageWnd@@QEAAXXZ 0000000067d9abf0 f   ImageWnd.obj
 0001:00019c60       ?Invalidate@CImageWnd@@QEAAXH@Z 0000000067d9ac60 f   ImageWnd.obj
 0001:00019c90       ?HideRoiTracker@CImageWnd@@QEAAXXZ 0000000067d9ac90 f   ImageWnd.obj
 0001:00019cb0       ?ValidateRoi@CImageWnd@@IEAA?AVCRect@@V2@@Z 0000000067d9acb0 f   ImageWnd.obj
 0001:00019d80       ?OnSetCursor@CImageWnd@@QEAAHI@Z 0000000067d9ad80 f   ImageWnd.obj
 0001:00019e50       ??_ECImageWnd@@UEAAPEAXI@Z 0000000067d9ae50 f i ImageWnd.obj
 0001:00019ed0       ?GetScrollPos@CImageWnd@@IEAAHH@Z 0000000067d9aed0 f   ImageWnd.obj
 0001:00019f30       ?GetScrollRange@CImageWnd@@IEAAXHPEAH0@Z 0000000067d9af30 f   ImageWnd.obj
 0001:00019fa0       ?SetScrollPos@CImageWnd@@IEAAHHHH@Z 0000000067d9afa0 f   ImageWnd.obj
 0001:0001a030       ?TranslatePos@CImageWnd@@QEAA?AVCPoint@@V2@@Z 0000000067d9b030 f   ImageWnd.obj
 0001:0001a1a0       ?UntranslatePos@CImageWnd@@QEAA?AVCPoint@@V2@@Z 0000000067d9b1a0 f   ImageWnd.obj
 0001:0001a2e0       ?DisplayRoiTracker@CImageWnd@@QEAAXXZ 0000000067d9b2e0 f   ImageWnd.obj
 0001:0001a410       ?UpdateRectTracker@CImageWnd@@IEAAXXZ 0000000067d9b410 f   ImageWnd.obj
 0001:0001a460       ?SelectRoi@CImageWnd@@QEAAXVCRect@@@Z 0000000067d9b460 f   ImageWnd.obj
 0001:0001a4c0       ?OnLButtonDown@CImageWnd@@QEAAHVCPoint@@@Z 0000000067d9b4c0 f   ImageWnd.obj
 0001:0001a5d0       ?TranslateMousePos@CImageWnd@@QEAA?AVCPoint@@V2@@Z 0000000067d9b5d0 f   ImageWnd.obj
 0001:0001a640       ?UpdateScrollBars@CImageWnd@@IEAAXXZ 0000000067d9b640 f   ImageWnd.obj
 0001:0001a900       ?OnHScroll@CImageWnd@@QEAAXII@Z 0000000067d9b900 f   ImageWnd.obj
 0001:0001aa10       ?OnVScroll@CImageWnd@@QEAAXII@Z 0000000067d9ba10 f   ImageWnd.obj
 0001:0001ab30       ?GetPixelString@CImageWnd@@QEAA?AV?$CStringT@DV?$StrTraitMFC_DLL@DV?$ChTraitsCRT@D@ATL@@@@@ATL@@VCPoint@@@Z 0000000067d9bb30 f   ImageWnd.obj
 0001:0001ac10       ?OnSize@CImageWnd@@QEAAXH@Z 0000000067d9bc10 f   ImageWnd.obj
 0001:0001af40       ??0CImageWnd@@QEAA@PEAVSapView@@PEAVCWnd@@PEAVCScrollBar@@21@Z 0000000067d9bf40 f   ImageWnd.obj
 0001:0001b060       ??0CImageWnd@@QEAA@PEAVSapView@@PEAVCWnd@@@Z 0000000067d9c060 f   ImageWnd.obj
 0001:0001b150       ?OnFinalRelease@CJpegFileDlg@@UEAAXXZ 0000000067d9c150 f   JpegFileDlg.obj
 0001:0001b160       ?GetThisDispatchMap@CJpegFileDlg@@KAPEBUAFX_DISPMAP@@XZ 0000000067d9c160 f   JpegFileDlg.obj
 0001:0001b170       ?GetDispatchMap@CJpegFileDlg@@MEBAPEBUAFX_DISPMAP@@XZ 0000000067d9c170 f   JpegFileDlg.obj
 0001:0001b180       ?GetThisInterfaceMap@CJpegFileDlg@@KAPEBUAFX_INTERFACEMAP@@XZ 0000000067d9c180 f   JpegFileDlg.obj
 0001:0001b190       ?GetInterfaceMap@CJpegFileDlg@@MEBAPEBUAFX_INTERFACEMAP@@XZ 0000000067d9c190 f   JpegFileDlg.obj
 0001:0001b1a0       ?OnVScroll@CJpegFileDlg@@IEAAXIIPEAVCScrollBar@@@Z 0000000067d9c1a0 f   JpegFileDlg.obj
 0001:0001b230       ?OnOK@CJpegFileDlg@@MEAAXXZ 0000000067d9c230 f   JpegFileDlg.obj
 0001:0001b270       ?OnUpdateJpgEditQuality@CJpegFileDlg@@IEAAXXZ 0000000067d9c270 f   JpegFileDlg.obj
 0001:0001b280       ??0CJpegFileDlg@@QEAA@PEAVCWnd@@H@Z 0000000067d9c280 f   JpegFileDlg.obj
 0001:0001b300       ??1CJpegFileDlg@@UEAA@XZ   0000000067d9c300 f i JpegFileDlg.obj
 0001:0001b310       ??_GCJpegFileDlg@@UEAAPEAXI@Z 0000000067d9c310 f i JpegFileDlg.obj
 0001:0001b310       ??_ECJpegFileDlg@@UEAAPEAXI@Z 0000000067d9c310 f i JpegFileDlg.obj
 0001:0001b340       ?DoDataExchange@CJpegFileDlg@@MEAAXPEAVCDataExchange@@@Z 0000000067d9c340 f   JpegFileDlg.obj
 0001:0001b390       ?GetThisMessageMap@CJpegFileDlg@@KAPEBUAFX_MSGMAP@@XZ 0000000067d9c390 f   JpegFileDlg.obj
 0001:0001b3a0       ?GetMessageMap@CJpegFileDlg@@MEBAPEBUAFX_MSGMAP@@XZ 0000000067d9c3a0 f   JpegFileDlg.obj
 0001:0001b3b0       ?GetRawFileWidth@CRawFileDlg@@QEAAHXZ 0000000067d9c3b0 f i LoadSaveDlg.obj
 0001:0001b3c0       ?GetRawFileHeight@CRawFileDlg@@QEAAHXZ 0000000067d9c3c0 f i LoadSaveDlg.obj
 0001:0001b3d0       ?GetRawFileOffset@CRawFileDlg@@QEAAHXZ 0000000067d9c3d0 f i LoadSaveDlg.obj
 0001:0001b3e0       ?GetRawFileFormat@CRawFileDlg@@QEAAHXZ 0000000067d9c3e0 f i LoadSaveDlg.obj
 0001:0001b3f0       ?GetJpegFileQuality@CJpegFileDlg@@QEAAHXZ 0000000067d9c3f0 f i LoadSaveDlg.obj
 0001:0001b400       ?GetFirstFrame@CAviFileDlg@@QEAAHXZ 0000000067d9c400 f i LoadSaveDlg.obj
 0001:0001b410       ?GetCompressionLevel@CTiffFileDlg@@QEAAHXZ 0000000067d9c410 f i LoadSaveDlg.obj
 0001:0001b420       ?GetCompressionType@CTiffFileDlg@@QEAAHXZ 0000000067d9c420 f i LoadSaveDlg.obj
 0001:0001b430       ?_GetBaseClass@CLoadSaveDlg@@KAPEAUCRuntimeClass@@XZ 0000000067d9c430 f   LoadSaveDlg.obj
 0001:0001b440       ?GetThisClass@CLoadSaveDlg@@SAPEAUCRuntimeClass@@XZ 0000000067d9c440 f   LoadSaveDlg.obj
 0001:0001b450       ?GetRuntimeClass@CLoadSaveDlg@@UEBAPEAUCRuntimeClass@@XZ 0000000067d9c450 f   LoadSaveDlg.obj
 0001:0001b460       ?SaveSettings@CLoadSaveDlg@@IEAAXXZ 0000000067d9c460 f   LoadSaveDlg.obj
 0001:0001b500       ??1CTiffFileDlg@@UEAA@XZ   0000000067d9c500 f i LoadSaveDlg.obj
 0001:0001b510       ??1CRawFileDlg@@UEAA@XZ    0000000067d9c510 f i LoadSaveDlg.obj
 0001:0001b540       ?SetFilterIndex@CLoadSaveDlg@@IEAAXXZ 0000000067d9c540 f   LoadSaveDlg.obj
 0001:0001b5d0       ?GetThisMessageMap@CLoadSaveDlg@@KAPEBUAFX_MSGMAP@@XZ 0000000067d9c5d0 f   LoadSaveDlg.obj
 0001:0001b5e0       ?GetForegroundWindow@CWnd@@SAPEAV1@XZ 0000000067d9c5e0 f i LoadSaveDlg.obj
 0001:0001b690       ??_GCLoadSaveDlg@@UEAAPEAXI@Z 0000000067d9c690 f i LoadSaveDlg.obj
 0001:0001b6d0       ??_ECLoadSaveDlg@@UEAAPEAXI@Z 0000000067d9c6d0 f i LoadSaveDlg.obj
 0001:0001b760       ?AddTiffOptions@CLoadSaveDlg@@IEAAHXZ 0000000067d9c760 f   LoadSaveDlg.obj
 0001:0001b880       ?AddRawOptions@CLoadSaveDlg@@IEAAHXZ 0000000067d9c880 f   LoadSaveDlg.obj
 0001:0001ba10       ?AddJpegOptions@CLoadSaveDlg@@IEAAHXZ 0000000067d9ca10 f   LoadSaveDlg.obj
 0001:0001bad0       ?AddAviOptions@CLoadSaveDlg@@IEAAHXZ 0000000067d9cad0 f   LoadSaveDlg.obj
 0001:0001bb60       ?OnTypeChange@CLoadSaveDlg@@MEAAXXZ 0000000067d9cb60 f   LoadSaveDlg.obj
 0001:0001bbf0       ?GetMessageMap@CLoadSaveDlg@@MEBAPEBUAFX_MSGMAP@@XZ 0000000067d9cbf0 f   LoadSaveDlg.obj
 0001:0001bc00       ?LoadSettings@CLoadSaveDlg@@IEAAXXZ 0000000067d9cc00 f   LoadSaveDlg.obj
 0001:0001bcd0       ?SetOptions@CLoadSaveDlg@@IEAAHXZ 0000000067d9ccd0 f   LoadSaveDlg.obj
 0001:0001be40       ??0CLoadSaveDlg@@QEAA@PEAVCWnd@@PEAVSapBuffer@@HH@Z 0000000067d9ce40 f   LoadSaveDlg.obj
 0001:0001bf40       ?UpdateBuffer@CLoadSaveDlg@@IEAAHXZ 0000000067d9cf40 f   LoadSaveDlg.obj
 0001:0001c1e0       ?DoModal@CLoadSaveDlg@@UEAA_JXZ 0000000067d9d1e0 f   LoadSaveDlg.obj
 0001:0001c2a0       ?UpdateWindow@CLScanDlg@@IEAAXXZ 0000000067d9d2a0 f   LScanDlg.obj
 0001:0001c5c0       ?OnLineIntegrate@CLScanDlg@@IEAAXXZ 0000000067d9d5c0 f   LScanDlg.obj
 0001:0001c670       ??1CLScanDlg@@UEAA@XZ      0000000067d9d670 f i LScanDlg.obj
 0001:0001c6c0       ??_GCLScanDlg@@UEAAPEAXI@Z 0000000067d9d6c0 f i LScanDlg.obj
 0001:0001c730       ??_ECLScanDlg@@UEAAPEAXI@Z 0000000067d9d730 f i LScanDlg.obj
 0001:0001c7e0       ??0CLScanDlg@@QEAA@PEAVCWnd@@PEAVSapAcquisition@@@Z 0000000067d9d7e0 f   LScanDlg.obj
 0001:0001c8b0       ?DoDataExchange@CLScanDlg@@MEAAXPEAVCDataExchange@@@Z 0000000067d9d8b0 f   LScanDlg.obj
 0001:0001c9a0       ?OnInitDialog@CLScanDlg@@MEAAHXZ 0000000067d9d9a0 f   LScanDlg.obj
 0001:0001d2e0       ?OnExternalFrameTriggerEnable@CLScanDlg@@IEAAXXZ 0000000067d9e2e0 f   LScanDlg.obj
 0001:0001d390       ?OnExternalLineTriggerEnable@CLScanDlg@@IEAAXXZ 0000000067d9e390 f   LScanDlg.obj
 0001:0001d460       ?OnInternalLineTriggerEnable@CLScanDlg@@IEAAXXZ 0000000067d9e460 f   LScanDlg.obj
 0001:0001d4f0       ?OnLineIntegrateEnable@CLScanDlg@@IEAAXXZ 0000000067d9e4f0 f   LScanDlg.obj
 0001:0001d560       ?OnShaftEncoderEnable@CLScanDlg@@IEAAXXZ 0000000067d9e560 f   LScanDlg.obj
 0001:0001d5e0       ??_ECLScanDlg@@WBBI@EAAPEAXI@Z 0000000067d9e5e0 f i LScanDlg.obj
 0001:0001d5f0       ?VerifyLineIntegrateDuration@CLScanDlg@@IEAAXXZ 0000000067d9e5f0 f   LScanDlg.obj
 0001:0001d6f0       ?OnOK@CLScanDlg@@MEAAXXZ   0000000067d9e6f0 f   LScanDlg.obj
 0001:0001dbe0       ?OnKillfocusEditLineIntegration@CLScanDlg@@IEAAXXZ 0000000067d9ebe0 f   LScanDlg.obj
 0001:0001dc10       ?OnVScroll@CLScanDlg@@IEAAXIIPEAVCScrollBar@@@Z 0000000067d9ec10 f   LScanDlg.obj
 0001:0001dd00       ?GetThisMessageMap@CLScanDlg@@KAPEBUAFX_MSGMAP@@XZ 0000000067d9ed00 f   LScanDlg.obj
 0001:0001dd10       ?GetMessageMap@CLScanDlg@@MEBAPEBUAFX_MSGMAP@@XZ 0000000067d9ed10 f   LScanDlg.obj
 0001:0001dd20       ??0CRawFileDlg@@QEAA@PEAVCWnd@@HHHH@Z 0000000067d9ed20 f   RawFileDlg.obj
 0001:0001de20       ??_ECRawFileDlg@@UEAAPEAXI@Z 0000000067d9ee20 f i RawFileDlg.obj
 0001:0001de20       ??_GCRawFileDlg@@UEAAPEAXI@Z 0000000067d9ee20 f i RawFileDlg.obj
 0001:0001de70       ?DoDataExchange@CRawFileDlg@@MEAAXPEAVCDataExchange@@@Z 0000000067d9ee70 f   RawFileDlg.obj
 0001:0001dee0       ?OnOK@CRawFileDlg@@MEAAXXZ 0000000067d9eee0 f   RawFileDlg.obj
 0001:0001dfc0       ?OnInitDialog@CRawFileDlg@@MEAAHXZ 0000000067d9efc0 f   RawFileDlg.obj
 0001:0001e0c0       ?OnSelchangeComboFormat@CRawFileDlg@@IEAAXXZ 0000000067d9f0c0 f   RawFileDlg.obj
 0001:0001e110       ?GetThisMessageMap@CRawFileDlg@@KAPEBUAFX_MSGMAP@@XZ 0000000067d9f110 f   RawFileDlg.obj
 0001:0001e120       ?GetMessageMap@CRawFileDlg@@MEBAPEBUAFX_MSGMAP@@XZ 0000000067d9f120 f   RawFileDlg.obj
 0001:0001e130       ??0Thank_you@Define_the_symbol__ATL_MIXED@@QEAA@XZ 0000000067d9f130 f i SapClassGui.obj
 0001:0001e140       ?one@Thank_you@Define_the_symbol__ATL_MIXED@@UEAAXXZ 0000000067d9f140 f i SapClassGui.obj
 0001:0001e150       ?GetHead@CSimpleList@@QEBAPEAXXZ 0000000067d9f150 f i SapClassGui.obj
 0001:0001e160       ?_AfxInitManaged@@YAHXZ    0000000067d9f160 f i SapClassGui.obj
 0001:0001e170       ??2CObject@@SAPEAX_K@Z     0000000067d9f170 f i SapClassGui.obj
 0001:0001e180       ??_GCImageWnd@@UEAAPEAXI@Z 0000000067d9f180 f i SapClassGui.obj
 0001:0001e1b0       ??0CRectTracker@@QEAA@AEBV0@@Z 0000000067d9f1b0 f i SapClassGui.obj
 0001:0001e220       ??4CRectTracker@@QEAAAEAV0@AEBV0@@Z 0000000067d9f220 f i SapClassGui.obj
 0001:0001e290       ??0CImageViewportWndEventHandler@@QEAA@AEBV0@@Z 0000000067d9f290 f i SapClassGui.obj
 0001:0001e2a0       ??4CImageViewportWndEventHandler@@QEAAAEAV0@AEBV0@@Z 0000000067d9f2a0 f i SapClassGui.obj
 0001:0001e2b0       ?MarkerChanged@CImageExWndEventHandler@@UEAAXXZ 0000000067d9f2b0 f i SapClassGui.obj
 0001:0001e2c0       ?InteractiveMarkerChanged@CImageExWndEventHandler@@UEAAXH@Z 0000000067d9f2c0 f i SapClassGui.obj
 0001:0001e2d0       ??0CImageExWndEventHandler@@QEAA@XZ 0000000067d9f2d0 f i SapClassGui.obj
 0001:0001e2e0       ??0CImageExWndEventHandler@@QEAA@AEBV0@@Z 0000000067d9f2e0 f i SapClassGui.obj
 0001:0001e2f0       ??4CImageExWndEventHandler@@QEAAAEAV0@AEBV0@@Z 0000000067d9f2f0 f i SapClassGui.obj
 0001:0001e300       ?GetBuffer@CBufDlg@@QEAAAEAVSapBuffer@@XZ 0000000067d9f300 f i SapClassGui.obj
 0001:0001e310       ?GetServerCategory@CAcqConfigDlg@@QEAA?AW4ServerCategory@1@XZ 0000000067d9f310 f i SapClassGui.obj
 0001:0001e320       ?SetCameraLinkServerFlag@CAcqConfigDlg@@QEAAX_N@Z 0000000067d9f320 f i SapClassGui.obj
 0001:0001e330       ?GetAcquisition@CAcqConfigDlg@@QEAAAEAVSapAcquisition@@XZ 0000000067d9f330 f i SapClassGui.obj
 0001:0001e340       ??1CViewDlg@@UEAA@XZ       0000000067d9f340 f i SapClassGui.obj
 0001:0001e3b0       ??_FCViewDlg@@QEAAXXZ      0000000067d9f3b0 f i SapClassGui.obj
 0001:0001e3c0       ?GetType@CLoadSaveDlg@@QEAAHXZ 0000000067d9f3c0 f i SapClassGui.obj
 0001:0001e3d0       ?GetOptions@CLoadSaveDlg@@QEAA?AV?$CStringT@DV?$StrTraitMFC_DLL@DV?$ChTraitsCRT@D@ATL@@@@@ATL@@XZ 0000000067d9f3d0 f i SapClassGui.obj
 0001:0001e400       ?GetStartFrame@CLoadSaveDlg@@QEAAHXZ 0000000067d9f400 f i SapClassGui.obj
 0001:0001e410       ?GetRawFileWidth@CLoadSaveDlg@@QEAAHXZ 0000000067d9f410 f i SapClassGui.obj
 0001:0001e420       ?GetRawFileHeight@CLoadSaveDlg@@QEAAHXZ 0000000067d9f420 f i SapClassGui.obj
 0001:0001e430       ?GetRawFileOffset@CLoadSaveDlg@@QEAAHXZ 0000000067d9f430 f i SapClassGui.obj
 0001:0001e440       ?GetRawFileFormat@CLoadSaveDlg@@QEAAHXZ 0000000067d9f440 f i SapClassGui.obj
 0001:0001e450       ?SapClassGuiInitModule@@YAXXZ 0000000067d9f450 f   SapClassGui.obj
 0001:0001e490       DllMain                    0000000067d9f490 f   SapClassGui.obj
 0001:0001e500       ??B?$CTypedSimpleList@PEAUCRuntimeClass@@@@QEAAPEAUCRuntimeClass@@XZ 0000000067d9f500 f i SapClassGui.obj
 0001:0001e510       ??B?$CTypedSimpleList@PEAVCOleObjectFactory@@@@QEAAPEAVCOleObjectFactory@@XZ 0000000067d9f510 f i SapClassGui.obj
 0001:0001e520       ??0CSapRectTracker@@QEAA@AEBV0@@Z 0000000067d9f520 f i SapClassGui.obj
 0001:0001e5b0       ??4CSapRectTracker@@QEAAAEAV0@AEBV0@@Z 0000000067d9f5b0 f i SapClassGui.obj
 0001:0001e630       ExtRawDllMain              0000000067d9f630 f   SapClassGui.obj
 0001:0001e670       ??0CImageWnd@@QEAA@AEBV0@@Z 0000000067d9f670 f i SapClassGui.obj
 0001:0001e7d0       ??4CImageWnd@@QEAAAEAV0@AEBV0@@Z 0000000067d9f7d0 f i SapClassGui.obj
 0001:0001e910       ?OnVScroll@CTiffFileDlg@@IEAAXIIPEAVCScrollBar@@@Z 0000000067d9f910 f   TiffFileDlg.obj
 0001:0001e980       ?OnUpdateTiffEditCompressionLevel@CTiffFileDlg@@IEAAXXZ 0000000067d9f980 f   TiffFileDlg.obj
 0001:0001e990       ?OnOK@CTiffFileDlg@@MEAAXXZ 0000000067d9f990 f   TiffFileDlg.obj
 0001:0001e9f0       ??0CTiffFileDlg@@QEAA@PEAVCWnd@@HH@Z 0000000067d9f9f0 f   TiffFileDlg.obj
 0001:0001eaa0       ??_ECTiffFileDlg@@UEAAPEAXI@Z 0000000067d9faa0 f i TiffFileDlg.obj
 0001:0001eaa0       ??_GCTiffFileDlg@@UEAAPEAXI@Z 0000000067d9faa0 f i TiffFileDlg.obj
 0001:0001ead0       ?DoDataExchange@CTiffFileDlg@@MEAAXPEAVCDataExchange@@@Z 0000000067d9fad0 f   TiffFileDlg.obj
 0001:0001eb40       ?GetThisMessageMap@CTiffFileDlg@@KAPEBUAFX_MSGMAP@@XZ 0000000067d9fb40 f   TiffFileDlg.obj
 0001:0001eb50       ?GetMessageMap@CTiffFileDlg@@MEBAPEBUAFX_MSGMAP@@XZ 0000000067d9fb50 f   TiffFileDlg.obj
 0001:0001eb60       ?LoadSettings@CViewDlg@@IEAAXXZ 0000000067d9fb60 f   ViewDlg.obj
 0001:0001eba0       ?SaveSettings@CViewDlg@@IEAAXXZ 0000000067d9fba0 f   ViewDlg.obj
 0001:0001ebd0       ?SetRange@CViewDlg@@IEAAXXZ 0000000067d9fbd0 f   ViewDlg.obj
 0001:0001ec10       ?OnOK@CViewDlg@@MEAAXXZ    0000000067d9fc10 f   ViewDlg.obj
 0001:0001ec70       ?OnCancel@CViewDlg@@MEAAXXZ 0000000067d9fc70 f   ViewDlg.obj
 0001:0001eca0       ?floor@@YAMM@Z             0000000067d9fca0 f i ViewDlg.obj
 0001:0001ecb0       ??0CSpinButtonCtrl@@QEAA@XZ 0000000067d9fcb0 f i ViewDlg.obj
 0001:0001ece0       ??_ECSpinButtonCtrl@@UEAAPEAXI@Z 0000000067d9fce0 f i ViewDlg.obj
 0001:0001ece0       ??_GCSpinButtonCtrl@@UEAAPEAXI@Z 0000000067d9fce0 f i ViewDlg.obj
 0001:0001ed10       ??_GCViewDlg@@UEAAPEAXI@Z  0000000067d9fd10 f i ViewDlg.obj
 0001:0001eda0       ??_ECViewDlg@@UEAAPEAXI@Z  0000000067d9fda0 f i ViewDlg.obj
 0001:0001ee20       ?DoDataExchange@CViewDlg@@MEAAXPEAVCDataExchange@@@Z 0000000067d9fe20 f   ViewDlg.obj
 0001:0001efd0       ??0CViewDlg@@QEAA@PEAVCWnd@@PEAVSapView@@@Z 0000000067d9ffd0 f   ViewDlg.obj
 0001:0001f200       ?OnInitDialog@CViewDlg@@MEAAHXZ 0000000067da0200 f   ViewDlg.obj
 0001:0001f4b0       ?OnUpdateEditViewRange@CViewDlg@@IEAAXXZ 0000000067da04b0 f   ViewDlg.obj
 0001:0001f520       ?OnHScroll@CViewDlg@@IEAAXIIPEAVCScrollBar@@@Z 0000000067da0520 f   ViewDlg.obj
 0001:0001f5d0       ?OnUpdateScaleHeight@CViewDlg@@IEAAXXZ 0000000067da05d0 f   ViewDlg.obj
 0001:0001f6a0       ?OnUpdateScaleHeightFactor@CViewDlg@@IEAAXXZ 0000000067da06a0 f   ViewDlg.obj
 0001:0001f770       ?OnUpdateScaleWidth@CViewDlg@@IEAAXXZ 0000000067da0770 f   ViewDlg.obj
 0001:0001f840       ?OnUpdateScaleWidthFactor@CViewDlg@@IEAAXXZ 0000000067da0840 f   ViewDlg.obj
 0001:0001f910       ?OnDeltaposSpinScaleHeight@CViewDlg@@IEAAXPEAUtagNMHDR@@PEA_J@Z 0000000067da0910 f   ViewDlg.obj
 0001:0001fa10       ?OnDeltaposSpinScaleHeightFactor@CViewDlg@@IEAAXPEAUtagNMHDR@@PEA_J@Z 0000000067da0a10 f   ViewDlg.obj
 0001:0001fb20       ?OnDeltaposSpinScaleWidth@CViewDlg@@IEAAXPEAUtagNMHDR@@PEA_J@Z 0000000067da0b20 f   ViewDlg.obj
 0001:0001fc20       ?OnDeltaposSpinScaleWidthFactor@CViewDlg@@IEAAXPEAUtagNMHDR@@PEA_J@Z 0000000067da0c20 f   ViewDlg.obj
 0001:0001fd30       ?OnLockAspectRatio@CViewDlg@@IEAAXXZ 0000000067da0d30 f   ViewDlg.obj
 0001:0001fdb0       ?OnScalingNone@CViewDlg@@IEAAXXZ 0000000067da0db0 f   ViewDlg.obj
 0001:0001fe70       ?OnScalingFitToWindow@CViewDlg@@IEAAXXZ 0000000067da0e70 f   ViewDlg.obj
 0001:00020050       ?OnSelchangeViewFormat@CViewDlg@@IEAAXXZ 0000000067da1050 f   ViewDlg.obj
 0001:000200b0       ?GetThisMessageMap@CViewDlg@@KAPEBUAFX_MSGMAP@@XZ 0000000067da10b0 f   ViewDlg.obj
 0001:000200c0       ?GetMessageMap@CViewDlg@@MEBAPEBUAFX_MSGMAP@@XZ 0000000067da10c0 f   ViewDlg.obj
 0001:000200c6       CorAcqGetCap               0000000067da10c6 f   Corapi:CorApi.dll
 0001:000200cc       ??0SapLocation@@QEAA@PEBDH@Z 0000000067da10cc f   SapClassBasic:SapClassBasic82.dll
 0001:000200d2       ??1SapLocation@@UEAA@XZ    0000000067da10d2 f   SapClassBasic:SapClassBasic82.dll
 0001:000200d8       ?SetLocation@SapXferNode@@QEAAHVSapLocation@@@Z 0000000067da10d8 f   SapClassBasic:SapClassBasic82.dll
 0001:000200de       ??0SapLocation@@QEAA@AEBV0@@Z 0000000067da10de f   SapClassBasic:SapClassBasic82.dll
 0001:000200e4       ??1SapManager@@UEAA@XZ     0000000067da10e4 f   SapClassBasic:SapClassBasic82.dll
 0001:000200ea       ??1SapAcquisition@@UEAA@XZ 0000000067da10ea f   SapClassBasic:SapClassBasic82.dll
 0001:000200f0       ?GetServerName@SapManager@@SAHHPEADH@Z 0000000067da10f0 f   SapClassBasic:SapClassBasic82.dll
 0001:000200f6       ?GetResourceCount@SapManager@@SAHHH@Z 0000000067da10f6 f   SapClassBasic:SapClassBasic82.dll
 0001:000200fc       ?GetServerCount@SapManager@@SAHXZ 0000000067da10fc f   SapClassBasic:SapClassBasic82.dll
 0001:00020102       ?GetResourceCount@SapManager@@SAHVSapLocation@@H@Z 0000000067da1102 f   SapClassBasic:SapClassBasic82.dll
 0001:00020108       ?GetLocation@SapXferNode@@QEBA?AVSapLocation@@XZ 0000000067da1108 f   SapClassBasic:SapClassBasic82.dll
 0001:0002010e       ?IsResourceAvailable@SapManager@@SAHPEBDHH@Z 0000000067da110e f   SapClassBasic:SapClassBasic82.dll
 0001:00020114       ?GetResourceName@SapManager@@SAHPEBDHHPEADH@Z 0000000067da1114 f   SapClassBasic:SapClassBasic82.dll
 0001:0002011a       ?GetResourceCount@SapManager@@SAHPEBDH@Z 0000000067da111a f   SapClassBasic:SapClassBasic82.dll
 0001:00020120       ?GetServerIndex@SapManager@@SAHPEBD@Z 0000000067da1120 f   SapClassBasic:SapClassBasic82.dll
 0001:00020126       ??0SapAcquisition@@QEAA@VSapLocation@@@Z 0000000067da1126 f   SapClassBasic:SapClassBasic82.dll
 0001:0002012c       ??0SapLocation@@QEAA@HH@Z  0000000067da112c f   SapClassBasic:SapClassBasic82.dll
 0001:00020132       ??0SapManager@@QEAA@XZ     0000000067da1132 f   SapClassBasic:SapClassBasic82.dll
 0001:00020138       ?GetResourceIndex@SapLocation@@QEBAHXZ 0000000067da1138 f   SapClassBasic:SapClassBasic82.dll
 0001:0002013e       ?GetServerName@SapManager@@SAHVSapLocation@@PEADH@Z 0000000067da113e f   SapClassBasic:SapClassBasic82.dll
 0001:00020144       ?GetConfigFile@SapAcquisition@@QEBAPEBDXZ 0000000067da1144 f   SapClassBasic:SapClassBasic82.dll
 0001:0002014a       ??4SapAcquisition@@QEAAAEAV0@AEBV0@@Z 0000000067da114a f   SapClassBasic:SapClassBasic82.dll
 0001:00020150       ?DisplayStatus@SapManager@@SAIPEBDI@Z 0000000067da1150 f   SapClassBasic:SapClassBasic82.dll
 0001:00020156       ??1SapDataFRGB@@UEAA@XZ    0000000067da1156 f   SapClassBasic:SapClassBasic82.dll
 0001:0002015c       ?IsEnabled@SapBayer@@QEBAHXZ 0000000067da115c f   SapClassBasic:SapClassBasic82.dll
 0001:00020162       ?IsLutEnabled@SapBayer@@QEBAHXZ 0000000067da1162 f   SapClassBasic:SapClassBasic82.dll
 0001:00020168       ?GetGamma@SapBayer@@QEBAMXZ 0000000067da1168 f   SapClassBasic:SapClassBasic82.dll
 0001:0002016e       ?Blue@SapDataFRGB@@QEAAMXZ 0000000067da116e f   SapClassBasic:SapClassBasic82.dll
 0001:00020174       ?Green@SapDataFRGB@@QEAAMXZ 0000000067da1174 f   SapClassBasic:SapClassBasic82.dll
 0001:0002017a       ?Red@SapDataFRGB@@QEAAMXZ  0000000067da117a f   SapClassBasic:SapClassBasic82.dll
 0001:00020180       ?GetWBGain@SapBayer@@QEBA?AVSapDataFRGB@@XZ 0000000067da1180 f   SapClassBasic:SapClassBasic82.dll
 0001:00020186       ?GetMethod@SapBayer@@QEBAHXZ 0000000067da1186 f   SapClassBasic:SapClassBasic82.dll
 0001:0002018c       ?GetAlign@SapBayer@@QEBAHXZ 0000000067da118c f   SapClassBasic:SapClassBasic82.dll
 0001:00020192       ?GetAvailMethod@SapBayer@@QEBAHXZ 0000000067da1192 f   SapClassBasic:SapClassBasic82.dll
 0001:00020198       ?GetAvailAlign@SapBayer@@QEBAHXZ 0000000067da1198 f   SapClassBasic:SapClassBasic82.dll
 0001:0002019e       ?IsSoftware@SapBayer@@QEBAHXZ 0000000067da119e f   SapClassBasic:SapClassBasic82.dll
 0001:000201a4       ??BSapManager@@QEBAHXZ     0000000067da11a4 f   SapClassBasic:SapClassBasic82.dll
 0001:000201aa       ??0SapDataFRGB@@QEAA@MMM@Z 0000000067da11aa f   SapClassBasic:SapClassBasic82.dll
 0001:000201b0       ?GetPixelDepthMin@SapManager@@SAHH@Z 0000000067da11b0 f   SapClassBasic:SapClassBasic82.dll
 0001:000201b6       ?GetPixelDepthMax@SapManager@@SAHH@Z 0000000067da11b6 f   SapClassBasic:SapClassBasic82.dll
 0001:000201bc       ??1SapBuffer@@UEAA@XZ      0000000067da11bc f   SapClassBasic:SapClassBasic82.dll
 0001:000201c2       ?IsBufferTypeSupported@SapBuffer@@SAHVSapLocation@@H@Z 0000000067da11c2 f   SapClassBasic:SapClassBasic82.dll
 0001:000201c8       ??4SapLocation@@QEAAAEAV0@AEBV0@@Z 0000000067da11c8 f   SapClassBasic:SapClassBasic82.dll
 0001:000201ce       ?GetSrcNode@SapXferNode@@QEBAPEAV1@XZ 0000000067da11ce f   SapClassBasic:SapClassBasic82.dll
 0001:000201d4       ?GetPixelDepth@SapBuffer@@QEBAHXZ 0000000067da11d4 f   SapClassBasic:SapClassBasic82.dll
 0001:000201da       ?GetType@SapBuffer@@QEBAHXZ 0000000067da11da f   SapClassBasic:SapClassBasic82.dll
 0001:000201e0       ?GetFormat@SapBuffer@@QEBAHXZ 0000000067da11e0 f   SapClassBasic:SapClassBasic82.dll
 0001:000201e6       ?GetHeight@SapBuffer@@QEBAHXZ 0000000067da11e6 f   SapClassBasic:SapClassBasic82.dll
 0001:000201ec       ?GetWidth@SapBuffer@@QEBAHXZ 0000000067da11ec f   SapClassBasic:SapClassBasic82.dll
 0001:000201f2       ??0SapLocation@@QEAA@XZ    0000000067da11f2 f   SapClassBasic:SapClassBasic82.dll
 0001:000201f8       ??0SapBuffer@@QEAA@HHHHHVSapLocation@@@Z 0000000067da11f8 f   SapClassBasic:SapClassBasic82.dll
 0001:000201fe       ?IsEnabled@SapColorConversion@@QEBAHXZ 0000000067da11fe f   SapClassBasic:SapClassBasic82.dll
 0001:00020204       ?IsHardwareEnabled@SapColorConversion@@QEBAHXZ 0000000067da1204 f   SapClassBasic:SapClassBasic82.dll
 0001:0002020a       ?GetWBGain@SapColorConversion@@QEBA?AVSapDataFRGB@@XZ 0000000067da120a f   SapClassBasic:SapClassBasic82.dll
 0001:00020210       ?GetAvailMethod@SapColorConversion@@QEBAHXZ 0000000067da1210 f   SapClassBasic:SapClassBasic82.dll
 0001:00020216       ?GetAvailAlign@SapColorConversion@@QEBAHXZ 0000000067da1216 f   SapClassBasic:SapClassBasic82.dll
 0001:0002021c       ?IsLutEnabled@SapColorConversion@@QEBAHXZ 0000000067da121c f   SapClassBasic:SapClassBasic82.dll
 0001:00020222       ?GetGamma@SapColorConversion@@QEBAMXZ 0000000067da1222 f   SapClassBasic:SapClassBasic82.dll
 0001:00020228       ?GetMethod@SapColorConversion@@QEBAHXZ 0000000067da1228 f   SapClassBasic:SapClassBasic82.dll
 0001:0002022e       ?GetAlign@SapColorConversion@@QEBAHXZ 0000000067da122e f   SapClassBasic:SapClassBasic82.dll
 0001:00020234       ?GetClusterMapPixelCount@SapFlatField@@QEBAHXZ 0000000067da1234 f   SapClassBasic:SapClassBasic82.dll
 0001:0002023a       ?SetClusterMap@SapFlatField@@QEAAHPEBD@Z 0000000067da123a f   SapClassBasic:SapClassBasic82.dll
 0001:00020240       ?GetAverage@SapFlatFieldStats@@QEBAHH@Z 0000000067da1240 f   SapClassBasic:SapClassBasic82.dll
 0001:00020246       ?GetNumComponents@SapFlatFieldStats@@QEBAHXZ 0000000067da1246 f   SapClassBasic:SapClassBasic82.dll
 0001:0002024c       ?GetStdDeviation@SapFlatFieldStats@@QEBAHH@Z 0000000067da124c f   SapClassBasic:SapClassBasic82.dll
 0001:00020252       ?GetLow@SapFlatFieldStats@@QEBAHH@Z 0000000067da1252 f   SapClassBasic:SapClassBasic82.dll
 0001:00020258       ?GetHigh@SapFlatFieldStats@@QEBAHH@Z 0000000067da1258 f   SapClassBasic:SapClassBasic82.dll
 0001:0002025e       ?GetPeakPosition@SapFlatFieldStats@@QEBAHH@Z 0000000067da125e f   SapClassBasic:SapClassBasic82.dll
 0001:00020264       ?GetPixelRatio@SapFlatFieldStats@@QEBAMH@Z 0000000067da1264 f   SapClassBasic:SapClassBasic82.dll
 0001:0002026a       ?GetNumPixels@SapFlatFieldStats@@QEBAHH@Z 0000000067da126a f   SapClassBasic:SapClassBasic82.dll
 0001:00020270       ?Destroy@SapFeature@@UEAAHXZ 0000000067da1270 f   SapClassBasic:SapClassBasic82.dll
 0001:00020276       ?GetDisplayName@SapFeature@@QEAAHPEADH@Z 0000000067da1276 f   SapClassBasic:SapClassBasic82.dll
 0001:0002027c       ?GetFeatureInfo@SapAcqDevice@@QEAAHPEBDPEAVSapFeature@@@Z 0000000067da127c f   SapClassBasic:SapClassBasic82.dll
 0001:00020282       ?GetFileNameByIndex@SapAcqDevice@@QEAAHHPEADH@Z 0000000067da1282 f   SapClassBasic:SapClassBasic82.dll
 0001:00020288       ?GetFileCount@SapAcqDevice@@QEAAHPEAH@Z 0000000067da1288 f   SapClassBasic:SapClassBasic82.dll
 0001:0002028e       ??1SapFeature@@UEAA@XZ     0000000067da128e f   SapClassBasic:SapClassBasic82.dll
 0001:00020294       ?GetFeatureValue@SapAcqDevice@@QEAAHPEBDPEADH@Z 0000000067da1294 f   SapClassBasic:SapClassBasic82.dll
 0001:0002029a       ?IsFeatureAvailable@SapAcqDevice@@QEAAHPEBDPEAH@Z 0000000067da129a f   SapClassBasic:SapClassBasic82.dll
 0001:000202a0       ?Create@SapFeature@@UEAAHXZ 0000000067da12a0 f   SapClassBasic:SapClassBasic82.dll
 0001:000202a6       ??0SapFeature@@QEAA@VSapLocation@@@Z 0000000067da12a6 f   SapClassBasic:SapClassBasic82.dll
 0001:000202ac       ?GetAcqDevice@SapFlatField@@QEBAPEAVSapAcqDevice@@XZ 0000000067da12ac f   SapClassBasic:SapClassBasic82.dll
 0001:000202b2       ?GetNumFlatField@SapFlatField@@QEBAHXZ 0000000067da12b2 f   SapClassBasic:SapClassBasic82.dll
 0001:000202b8       ?GetBlackPixelPercentage@SapFlatField@@QEBAMXZ 0000000067da12b8 f   SapClassBasic:SapClassBasic82.dll
 0001:000202be       ?IsClippedGainOffsetDefects@SapFlatField@@QEBAHXZ 0000000067da12be f   SapClassBasic:SapClassBasic82.dll
 0001:000202c4       ?GetIndex@SapFlatField@@QEBAHXZ 0000000067da12c4 f   SapClassBasic:SapClassBasic82.dll
 0001:000202ca       ?GetDeviationMaxWhite@SapFlatField@@QEBAHXZ 0000000067da12ca f   SapClassBasic:SapClassBasic82.dll
 0001:000202d0       ?GetDeviationMaxBlack@SapFlatField@@QEBAHXZ 0000000067da12d0 f   SapClassBasic:SapClassBasic82.dll
 0001:000202d6       ?GetGainDivisor@SapFlatField@@QEBAHXZ 0000000067da12d6 f   SapClassBasic:SapClassBasic82.dll
 0001:000202dc       ?GetVerticalOffset@SapFlatField@@QEBAHXZ 0000000067da12dc f   SapClassBasic:SapClassBasic82.dll
 0001:000202e2       ?GetNumFramesAverage@SapFlatField@@QEBAHXZ 0000000067da12e2 f   SapClassBasic:SapClassBasic82.dll
 0001:000202e8       ?GetNumLinesAverage@SapFlatField@@QEBAHXZ 0000000067da12e8 f   SapClassBasic:SapClassBasic82.dll
 0001:000202ee       ?GetVideoType@SapFlatField@@QEBA?AW4VideoType@SapAcquisition@@XZ 0000000067da12ee f   SapClassBasic:SapClassBasic82.dll
 0001:000202f4       ?GetCorrectionType@SapFlatField@@QEBA?AW4CorrectionType@1@XZ 0000000067da12f4 f   SapClassBasic:SapClassBasic82.dll
 0001:000202fa       ?GetOffsetMinMax@SapFlatField@@QEAAXPEAH0@Z 0000000067da12fa f   SapClassBasic:SapClassBasic82.dll
 0001:00020300       ?WriteFile@SapAcqDevice@@QEAAHPEBDH@Z 0000000067da1300 f   SapClassBasic:SapClassBasic82.dll
 0001:00020306       ?SetCommandTimeout@SapManager@@SAXH@Z 0000000067da1306 f   SapClassBasic:SapClassBasic82.dll
 0001:0002030c       ?GetCommandTimeout@SapManager@@SAHXZ 0000000067da130c f   SapClassBasic:SapClassBasic82.dll
 0001:00020312       ?GetLastStatus@SapManager@@SAPEBDXZ 0000000067da1312 f   SapClassBasic:SapClassBasic82.dll
 0001:00020318       ??1SapFlatFieldStats@@QEAA@XZ 0000000067da1318 f   SapClassBasic:SapClassBasic82.dll
 0001:0002031e       ??0SapFlatFieldStats@@QEAA@XZ 0000000067da131e f   SapClassBasic:SapClassBasic82.dll
 0001:00020324       ??1SapFlatFieldDefects@@QEAA@XZ 0000000067da1324 f   SapClassBasic:SapClassBasic82.dll
 0001:0002032a       ?GetNumDefects@SapFlatFieldDefects@@QEBAHXZ 0000000067da132a f   SapClassBasic:SapClassBasic82.dll
 0001:00020330       ?GetDefectRatio@SapFlatFieldDefects@@QEBAMXZ 0000000067da1330 f   SapClassBasic:SapClassBasic82.dll
 0001:00020336       ?GetNumClusters@SapFlatFieldDefects@@QEBAHXZ 0000000067da1336 f   SapClassBasic:SapClassBasic82.dll
 0001:0002033c       ??0SapFlatFieldDefects@@QEAA@XZ 0000000067da133c f   SapClassBasic:SapClassBasic82.dll
 0001:00020342       ?Load@SapBuffer@@UEAAHPEBD0HH@Z 0000000067da1342 f   SapClassBasic:SapClassBasic82.dll
 0001:00020348       ?Create@SapBuffer@@UEAAHXZ 0000000067da1348 f   SapClassBasic:SapClassBasic82.dll
 0001:0002034e       ??0SapBuffer@@QEAA@PEBDHVSapLocation@@@Z 0000000067da134e f   SapClassBasic:SapClassBasic82.dll
 0001:00020354       ??0SapBuffer@@QEAA@HPEAVSapXferNode@@HVSapLocation@@@Z 0000000067da1354 f   SapClassBasic:SapClassBasic82.dll
 0001:0002035a       ?Destroy@SapBuffer@@UEAAHXZ 0000000067da135a f   SapClassBasic:SapClassBasic82.dll
 0001:00020360       ?GetXferParams@SapXferNode@@UEBA?AVSapXferParams@@H@Z 0000000067da1360 f   SapClassBasic:SapClassBasic82.dll
 0001:00020366       ?GetInputXferParams@SapXferNode@@UEBA?AVSapXferParams@@H@Z 0000000067da1366 f   SapClassBasic:SapClassBasic82.dll
 0001:0002036c       ?GetOutputXferParams@SapXferNode@@UEBA?AVSapXferParams@@H@Z 0000000067da136c f   SapClassBasic:SapClassBasic82.dll
 0001:00020372       ?SetSrcNode@SapXferNode@@UEAAHPEAV1@H@Z 0000000067da1372 f   SapClassBasic:SapClassBasic82.dll
 0001:00020378       ?SetXferParams@SapXferNode@@UEAAHVSapXferParams@@H@Z 0000000067da1378 f   SapClassBasic:SapClassBasic82.dll
 0001:0002037e       ?SetInputXferParams@SapXferNode@@UEAAHVSapXferParams@@H@Z 0000000067da137e f   SapClassBasic:SapClassBasic82.dll
 0001:00020384       ?SetOutputXferParams@SapXferNode@@UEAAHVSapXferParams@@H@Z 0000000067da1384 f   SapClassBasic:SapClassBasic82.dll
 0001:0002038a       ?GetHandle@SapBuffer@@UEBAPEAU__CORHANDLE@@H@Z 0000000067da138a f   SapClassBasic:SapClassBasic82.dll
 0001:00020390       ?GetHandle@SapBuffer@@UEBAPEAU__CORHANDLE@@XZ 0000000067da1390 f   SapClassBasic:SapClassBasic82.dll
 0001:00020396       ?GetXferParamsFromSrcNode@SapXferNode@@UEAAXXZ 0000000067da1396 f   SapClassBasic:SapClassBasic82.dll
 0001:0002039c       ?GetXferNodeType@SapBuffer@@UEAA?AW4XferNodeType@SapXferNode@@XZ 0000000067da139c f   SapClassBasic:SapClassBasic82.dll
 0001:000203a2       ?IsBuffer@SapXferNode@@UEAAHXZ 0000000067da13a2 f   SapClassBasic:SapClassBasic82.dll
 0001:000203a8       ??ASapBuffer@@UEBAPEAU__CORHANDLE@@H@Z 0000000067da13a8 f   SapClassBasic:SapClassBasic82.dll
 0001:000203ae       ?GetCount@SapBuffer@@UEBAHXZ 0000000067da13ae f   SapClassBasic:SapClassBasic82.dll
 0001:000203b4       ?GetIndex@SapBuffer@@UEBAHXZ 0000000067da13b4 f   SapClassBasic:SapClassBasic82.dll
 0001:000203ba       ?SetIndex@SapBuffer@@UEAAHH@Z 0000000067da13ba f   SapClassBasic:SapClassBasic82.dll
 0001:000203c0       ?ResetIndex@SapBuffer@@UEAAXXZ 0000000067da13c0 f   SapClassBasic:SapClassBasic82.dll
 0001:000203c6       ?Next@SapBuffer@@UEAAXXZ   0000000067da13c6 f   SapClassBasic:SapClassBasic82.dll
 0001:000203cc       ?GetTrash@SapBuffer@@UEBAPEAU__CORHANDLE@@XZ 0000000067da13cc f   SapClassBasic:SapClassBasic82.dll
 0001:000203d2       ?Empty@SapBuffer@@UEAAHH@Z 0000000067da13d2 f   SapClassBasic:SapClassBasic82.dll
 0001:000203d8       ?Empty@SapBuffer@@UEAAHXZ  0000000067da13d8 f   SapClassBasic:SapClassBasic82.dll
 0001:000203de       ?EmptyAll@SapBuffer@@UEAAHXZ 0000000067da13de f   SapClassBasic:SapClassBasic82.dll
 0001:000203e4       ?SetCount@SapBuffer@@UEAAHH@Z 0000000067da13e4 f   SapClassBasic:SapClassBasic82.dll
 0001:000203ea       ?SetWidth@SapBuffer@@UEAAHH@Z 0000000067da13ea f   SapClassBasic:SapClassBasic82.dll
 0001:000203f0       ?SetHeight@SapBuffer@@UEAAHH@Z 0000000067da13f0 f   SapClassBasic:SapClassBasic82.dll
 0001:000203f6       ?SetFormat@SapBuffer@@UEAAHH@Z 0000000067da13f6 f   SapClassBasic:SapClassBasic82.dll
 0001:000203fc       ?SetType@SapBuffer@@UEAAHH@Z 0000000067da13fc f   SapClassBasic:SapClassBasic82.dll
 0001:00020402       ?SetPixelDepth@SapBuffer@@UEAAHH@Z 0000000067da1402 f   SapClassBasic:SapClassBasic82.dll
 0001:00020408       ?SetVirtualAddress@SapBuffer@@UEAAHQEAPEAX@Z 0000000067da1408 f   SapClassBasic:SapClassBasic82.dll
 0001:0002040e       ?SetPhysicalAddress@SapBuffer@@UEAAHQEA_K@Z 0000000067da140e f   SapClassBasic:SapClassBasic82.dll
 0001:00020414       ?SetParameters@SapBuffer@@UEAAHHQEA_KHHHH@Z 0000000067da1414 f   SapClassBasic:SapClassBasic82.dll
 0001:0002041a       ?SetParameters@SapBuffer@@UEAAHHQEAPEAXHHHH@Z 0000000067da141a f   SapClassBasic:SapClassBasic82.dll
 0001:00020420       ?SetParameters@SapBuffer@@UEAAHHHHHH@Z 0000000067da1420 f   SapClassBasic:SapClassBasic82.dll
 0001:00020426       ?SetParametersFromFile@SapBuffer@@UEAAHPEBDH@Z 0000000067da1426 f   SapClassBasic:SapClassBasic82.dll
 0001:0002042c       ?SetFrameRate@SapBuffer@@UEAAXM@Z 0000000067da142c f   SapClassBasic:SapClassBasic82.dll
 0001:00020432       ?GetAddress@SapBuffer@@UEAAHH_K0PEAXPEAPEAX@Z 0000000067da1432 f   SapClassBasic:SapClassBasic82.dll
 0001:00020438       ?GetAddress@SapBuffer@@UEAAHH_K0PEAPEAX@Z 0000000067da1438 f   SapClassBasic:SapClassBasic82.dll
 0001:0002043e       ?GetAddress@SapBuffer@@UEAAH_K0PEAXPEAPEAX@Z 0000000067da143e f   SapClassBasic:SapClassBasic82.dll
 0001:00020444       ?GetAddress@SapBuffer@@UEAAH_K0PEAPEAX@Z 0000000067da1444 f   SapClassBasic:SapClassBasic82.dll
 0001:0002044a       ?GetAddress@SapBuffer@@UEAAHHPEAXPEAPEAX@Z 0000000067da144a f   SapClassBasic:SapClassBasic82.dll
 0001:00020450       ?GetAddress@SapBuffer@@UEAAHHPEAPEAX@Z 0000000067da1450 f   SapClassBasic:SapClassBasic82.dll
 0001:00020456       ?GetAddress@SapBuffer@@UEAAHPEAXPEAPEAX@Z 0000000067da1456 f   SapClassBasic:SapClassBasic82.dll
 0001:0002045c       ?GetAddress@SapBuffer@@UEAAHPEAPEAX@Z 0000000067da145c f   SapClassBasic:SapClassBasic82.dll
 0001:00020462       ?ReleaseAddress@SapBuffer@@UEAAHHPEAX@Z 0000000067da1462 f   SapClassBasic:SapClassBasic82.dll
 0001:00020468       ?ReleaseAddress@SapBuffer@@UEAAHPEAX@Z 0000000067da1468 f   SapClassBasic:SapClassBasic82.dll
 0001:0002046e       ?IsMapped@SapBuffer@@UEAAHXZ 0000000067da146e f   SapClassBasic:SapClassBasic82.dll
 0001:00020474       ?IsMapped@SapBuffer@@UEAAHH@Z 0000000067da1474 f   SapClassBasic:SapClassBasic82.dll
 0001:0002047a       ?GetCounterStamp@SapBuffer@@UEAAHHPEAH@Z 0000000067da147a f   SapClassBasic:SapClassBasic82.dll
 0001:00020480       ?GetCounterStamp@SapBuffer@@UEAAHPEAH@Z 0000000067da1480 f   SapClassBasic:SapClassBasic82.dll
 0001:00020486       ?GetHostCounterStamp@SapBuffer@@UEAAHHPEA_K@Z 0000000067da1486 f   SapClassBasic:SapClassBasic82.dll
 0001:0002048c       ?GetHostCounterStamp@SapBuffer@@UEAAHPEA_K@Z 0000000067da148c f   SapClassBasic:SapClassBasic82.dll
 0001:00020492       ?GetDeviceTimeStamp@SapBuffer@@UEAAHHPEA_K@Z 0000000067da1492 f   SapClassBasic:SapClassBasic82.dll
 0001:00020498       ?GetDeviceTimeStamp@SapBuffer@@UEAAHPEA_K@Z 0000000067da1498 f   SapClassBasic:SapClassBasic82.dll
 0001:0002049e       ?GetSpaceUsed@SapBuffer@@UEAAHHPEAH@Z 0000000067da149e f   SapClassBasic:SapClassBasic82.dll
 0001:000204a4       ?GetSpaceUsed@SapBuffer@@UEAAHPEAH@Z 0000000067da14a4 f   SapClassBasic:SapClassBasic82.dll
 0001:000204aa       ?GetHandles@SapBuffer@@UEBAPEAPEAU__CORHANDLE@@XZ 0000000067da14aa f   SapClassBasic:SapClassBasic82.dll
 0001:000204b0       ?IsCapabilityValid@SapBuffer@@UEAAHH@Z 0000000067da14b0 f   SapClassBasic:SapClassBasic82.dll
 0001:000204b6       ?GetCapability@SapBuffer@@UEAAHHHPEAX@Z 0000000067da14b6 f   SapClassBasic:SapClassBasic82.dll
 0001:000204bc       ?GetCapability@SapBuffer@@UEAAHHPEAX@Z 0000000067da14bc f   SapClassBasic:SapClassBasic82.dll
 0001:000204c2       ?IsParameterValid@SapBuffer@@UEAAHHH@Z 0000000067da14c2 f   SapClassBasic:SapClassBasic82.dll
 0001:000204c8       ?IsParameterValid@SapBuffer@@UEAAHH@Z 0000000067da14c8 f   SapClassBasic:SapClassBasic82.dll
 0001:000204ce       ?GetParameter@SapBuffer@@UEAAHHHPEAX@Z 0000000067da14ce f   SapClassBasic:SapClassBasic82.dll
 0001:000204d4       ?GetParameter@SapBuffer@@UEAAHHPEAX@Z 0000000067da14d4 f   SapClassBasic:SapClassBasic82.dll
 0001:000204da       ?SetParameter@SapBuffer@@UEAAHHHPEAX@Z 0000000067da14da f   SapClassBasic:SapClassBasic82.dll
 0001:000204e0       ?SetParameter@SapBuffer@@UEAAHHPEAX@Z 0000000067da14e0 f   SapClassBasic:SapClassBasic82.dll
 0001:000204e6       ?SetParameter@SapBuffer@@UEAAHHHH@Z 0000000067da14e6 f   SapClassBasic:SapClassBasic82.dll
 0001:000204ec       ?SetParameter@SapBuffer@@UEAAHHH@Z 0000000067da14ec f   SapClassBasic:SapClassBasic82.dll
 0001:000204f2       ?GetParent@SapBuffer@@UEAAPEAV1@XZ 0000000067da14f2 f   SapClassBasic:SapClassBasic82.dll
 0001:000204f8       ?GetRoot@SapBuffer@@UEAAPEAV1@XZ 0000000067da14f8 f   SapClassBasic:SapClassBasic82.dll
 0001:000204fe       ?SetState@SapBuffer@@UEAAHHH@Z 0000000067da14fe f   SapClassBasic:SapClassBasic82.dll
 0001:00020504       ?SetState@SapBuffer@@UEAAHH@Z 0000000067da1504 f   SapClassBasic:SapClassBasic82.dll
 0001:0002050a       ?SetAllState@SapBuffer@@UEAAHH@Z 0000000067da150a f   SapClassBasic:SapClassBasic82.dll
 0001:00020510       ?GetState@SapBuffer@@UEAAHHPEAH@Z 0000000067da1510 f   SapClassBasic:SapClassBasic82.dll
 0001:00020516       ?GetState@SapBuffer@@UEAAHPEAH@Z 0000000067da1516 f   SapClassBasic:SapClassBasic82.dll
 0001:0002051c       ?GetNumPages@SapBuffer@@UEAAHPEAH@Z 0000000067da151c f   SapClassBasic:SapClassBasic82.dll
 0001:00020522       ?SetPage@SapBuffer@@UEAAHHH@Z 0000000067da1522 f   SapClassBasic:SapClassBasic82.dll
 0001:00020528       ?SetPage@SapBuffer@@UEAAHH@Z 0000000067da1528 f   SapClassBasic:SapClassBasic82.dll
 0001:0002052e       ?SetAllPage@SapBuffer@@UEAAHH@Z 0000000067da152e f   SapClassBasic:SapClassBasic82.dll
 0001:00020534       ?GetPage@SapBuffer@@UEAAHHPEAH@Z 0000000067da1534 f   SapClassBasic:SapClassBasic82.dll
 0001:0002053a       ?GetPage@SapBuffer@@UEAAHPEAH@Z 0000000067da153a f   SapClassBasic:SapClassBasic82.dll
 0001:00020540       ?IsMultiFormat@SapBuffer@@UEAAHXZ 0000000067da1540 f   SapClassBasic:SapClassBasic82.dll
 0001:00020546       ?GetPageFormat@SapBuffer@@UEAAHPEAH@Z 0000000067da1546 f   SapClassBasic:SapClassBasic82.dll
 0001:0002054c       ?Clear@SapBuffer@@UEAAHHVSapData@@@Z 0000000067da154c f   SapClassBasic:SapClassBasic82.dll
 0001:00020552       ?Clear@SapBuffer@@UEAAHVSapData@@@Z 0000000067da1552 f   SapClassBasic:SapClassBasic82.dll
 0001:00020558       ?Clear@SapBuffer@@UEAAHH@Z 0000000067da1558 f   SapClassBasic:SapClassBasic82.dll
 0001:0002055e       ?Clear@SapBuffer@@UEAAHXZ  0000000067da155e f   SapClassBasic:SapClassBasic82.dll
 0001:00020564       ?Load@SapBuffer@@UEAAHPEBDHHH0@Z 0000000067da1564 f   SapClassBasic:SapClassBasic82.dll
 0001:0002056a       ?Save@SapBuffer@@UEAAHPEBD0HH@Z 0000000067da156a f   SapClassBasic:SapClassBasic82.dll
 0001:00020570       ?Read@SapBuffer@@UEAAHH_KHPEAX@Z 0000000067da1570 f   SapClassBasic:SapClassBasic82.dll
 0001:00020576       ?Read@SapBuffer@@UEAAH_KHPEAX@Z 0000000067da1576 f   SapClassBasic:SapClassBasic82.dll
 0001:0002057c       ?ReadElement@SapBuffer@@UEAAHHHPEAH00@Z 0000000067da157c f   SapClassBasic:SapClassBasic82.dll
 0001:00020582       ?ReadElement@SapBuffer@@UEAAHHHHPEAVSapData@@@Z 0000000067da1582 f   SapClassBasic:SapClassBasic82.dll
 0001:00020588       ?ReadElement@SapBuffer@@UEAAHHHPEAVSapData@@@Z 0000000067da1588 f   SapClassBasic:SapClassBasic82.dll
 0001:0002058e       ?ReadElement@SapBuffer@@UEAAHHHHPEAX@Z 0000000067da158e f   SapClassBasic:SapClassBasic82.dll
 0001:00020594       ?ReadElement@SapBuffer@@UEAAHHHPEAX@Z 0000000067da1594 f   SapClassBasic:SapClassBasic82.dll
 0001:0002059a       ?ReadLine@SapBuffer@@UEAAHHHHHHPEAXPEAH@Z 0000000067da159a f   SapClassBasic:SapClassBasic82.dll
 0001:000205a0       ?ReadLine@SapBuffer@@UEAAHHHHHPEAXPEAH@Z 0000000067da15a0 f   SapClassBasic:SapClassBasic82.dll
 0001:000205a6       ?ReadRect@SapBuffer@@UEAAHHHHHHPEAX@Z 0000000067da15a6 f   SapClassBasic:SapClassBasic82.dll
 0001:000205ac       ?ReadRect@SapBuffer@@UEAAHHHHHPEAX@Z 0000000067da15ac f   SapClassBasic:SapClassBasic82.dll
 0001:000205b2       ?Write@SapBuffer@@UEAAHH_KHPEBX@Z 0000000067da15b2 f   SapClassBasic:SapClassBasic82.dll
 0001:000205b8       ?Write@SapBuffer@@UEAAH_KHPEBX@Z 0000000067da15b8 f   SapClassBasic:SapClassBasic82.dll
 0001:000205be       ?WriteElement@SapBuffer@@UEAAHHHHVSapData@@@Z 0000000067da15be f   SapClassBasic:SapClassBasic82.dll
 0001:000205c4       ?WriteElement@SapBuffer@@UEAAHHHVSapData@@@Z 0000000067da15c4 f   SapClassBasic:SapClassBasic82.dll
 0001:000205ca       ?WriteElement@SapBuffer@@UEAAHHHHPEBX@Z 0000000067da15ca f   SapClassBasic:SapClassBasic82.dll
 0001:000205d0       ?WriteElement@SapBuffer@@UEAAHHHPEBX@Z 0000000067da15d0 f   SapClassBasic:SapClassBasic82.dll
 0001:000205d6       ?WriteLine@SapBuffer@@UEAAHHHHHHPEBXPEAH@Z 0000000067da15d6 f   SapClassBasic:SapClassBasic82.dll
 0001:000205dc       ?WriteLine@SapBuffer@@UEAAHHHHHPEBXPEAH@Z 0000000067da15dc f   SapClassBasic:SapClassBasic82.dll
 0001:000205e2       ?WriteRect@SapBuffer@@UEAAHHHHHHPEBX@Z 0000000067da15e2 f   SapClassBasic:SapClassBasic82.dll
 0001:000205e8       ?WriteRect@SapBuffer@@UEAAHHHHHPEBX@Z 0000000067da15e8 f   SapClassBasic:SapClassBasic82.dll
 0001:000205ee       ?Copy@SapBuffer@@UEAAHPEAV1@HH@Z 0000000067da15ee f   SapClassBasic:SapClassBasic82.dll
 0001:000205f4       ?Copy@SapBuffer@@UEAAHPEAV1@@Z 0000000067da15f4 f   SapClassBasic:SapClassBasic82.dll
 0001:000205fa       ?CopyAll@SapBuffer@@UEAAHPEAV1@@Z 0000000067da15fa f   SapClassBasic:SapClassBasic82.dll
 0001:00020600       ?CopyRect@SapBuffer@@UEAAHPEAV1@HHHHHHHH@Z 0000000067da1600 f   SapClassBasic:SapClassBasic82.dll
 0001:00020606       ?ColorConvert@SapBuffer@@UEAAHPEAV1@HHHHVSapDataFRGB@@PEAVSapLut@@@Z 0000000067da1606 f   SapClassBasic:SapClassBasic82.dll
 0001:0002060c       ?ColorConvert@SapBuffer@@UEAAHPEAV1@HHVSapDataFRGB@@PEAVSapLut@@@Z 0000000067da160c f   SapClassBasic:SapClassBasic82.dll
 0001:00020612       ?ColorWhiteBalance@SapBuffer@@UEAAHHHPEAVSapDataFRGB@@@Z 0000000067da1612 f   SapClassBasic:SapClassBasic82.dll
 0001:00020618       ?ColorWhiteBalance@SapBuffer@@UEAAHHPEAVSapDataFRGB@@@Z 0000000067da1618 f   SapClassBasic:SapClassBasic82.dll
 0001:0002061e       ?SplitComponents@SapBuffer@@UEAAHPEAV1@00H@Z 0000000067da161e f   SapClassBasic:SapClassBasic82.dll
 0001:00020624       ?SplitComponents@SapBuffer@@UEAAHPEAV1@00@Z 0000000067da1624 f   SapClassBasic:SapClassBasic82.dll
 0001:0002062a       ?SplitComponents@SapBuffer@@UEAAHPEAV1@H@Z 0000000067da162a f   SapClassBasic:SapClassBasic82.dll
 0001:00020630       ?SplitComponents@SapBuffer@@UEAAHPEAV1@@Z 0000000067da1630 f   SapClassBasic:SapClassBasic82.dll
 0001:00020636       ?MergeComponents@SapBuffer@@UEAAHPEAV1@00H@Z 0000000067da1636 f   SapClassBasic:SapClassBasic82.dll
 0001:0002063c       ?MergeComponents@SapBuffer@@UEAAHPEAV1@00@Z 0000000067da163c f   SapClassBasic:SapClassBasic82.dll
 0001:00020642       ?MergeComponents@SapBuffer@@UEAAHPEAV1@H@Z 0000000067da1642 f   SapClassBasic:SapClassBasic82.dll
 0001:00020648       ?MergeComponents@SapBuffer@@UEAAHPEAV1@@Z 0000000067da1648 f   SapClassBasic:SapClassBasic82.dll
 0001:0002064e       ?Register@SapBuffer@@UEAAHPEBD@Z 0000000067da164e f   SapClassBasic:SapClassBasic82.dll
 0001:00020654       ?Unregister@SapBuffer@@UEAAHXZ 0000000067da1654 f   SapClassBasic:SapClassBasic82.dll
 0001:0002065a       ?GetNumRoi@SapBuffer@@UEBAHXZ 0000000067da165a f   SapClassBasic:SapClassBasic82.dll
 0001:00020660       ?GetRoi@SapBuffer@@UEBAQEAUtagRECT@@H@Z 0000000067da1660 f   SapClassBasic:SapClassBasic82.dll
 0001:00020666       ?AddRoi@SapBuffer@@UEAAHUtagRECT@@@Z 0000000067da1666 f   SapClassBasic:SapClassBasic82.dll
 0001:0002066c       ?RemoveAllRoi@SapBuffer@@UEAAHXZ 0000000067da166c f   SapClassBasic:SapClassBasic82.dll
 0001:00020672       ?GetChild@SapBuffer@@UEBAPEAU__CORHANDLE@@HH@Z 0000000067da1672 f   SapClassBasic:SapClassBasic82.dll
 0001:00020678       ?BayerConvert@SapBuffer@@UEAAHPEAV1@HHHHVSapDataFRGB@@PEAVSapLut@@@Z 0000000067da1678 f   SapClassBasic:SapClassBasic82.dll
 0001:0002067e       ?BayerConvert@SapBuffer@@UEAAHPEAV1@HHVSapDataFRGB@@PEAVSapLut@@@Z 0000000067da167e f   SapClassBasic:SapClassBasic82.dll
 0001:00020684       ?BayerWhiteBalance@SapBuffer@@UEAAHHHPEAVSapDataFRGB@@@Z 0000000067da1684 f   SapClassBasic:SapClassBasic82.dll
 0001:0002068a       ?BayerWhiteBalance@SapBuffer@@UEAAHHPEAVSapDataFRGB@@@Z 0000000067da168a f   SapClassBasic:SapClassBasic82.dll
 0001:00020690       ?Construct@SapBuffer@@MEAAXPEBDPEAVSapDisplay@@@Z 0000000067da1690 f   SapClassBasic:SapClassBasic82.dll
 0001:00020696       ?GetPinNumber@SapGioCallbackInfo@@QEBAHXZ 0000000067da1696 f   SapClassBasic:SapClassBasic82.dll
 0001:0002069c       ?GetContext@SapGioCallbackInfo@@QEBAPEAXXZ 0000000067da169c f   SapClassBasic:SapClassBasic82.dll
 0001:000206a2       ?SetDisplayStatusMode@SapManager@@SAHHP6AXPEAVSapManCallbackInfo@@@ZPEAX@Z 0000000067da16a2 f   SapClassBasic:SapClassBasic82.dll
 0001:000206a8       ?GetNumPins@SapGio@@QEBAHXZ 0000000067da16a8 f   SapClassBasic:SapClassBasic82.dll
 0001:000206ae       ?Top@SapViewScaleParams@@QEBAHXZ 0000000067da16ae f   SapClassBasic:SapClassBasic82.dll
 0001:000206b4       ?Left@SapViewScaleParams@@QEBAHXZ 0000000067da16b4 f   SapClassBasic:SapClassBasic82.dll
 0001:000206ba       ?Height@SapViewScaleParams@@QEBAHXZ 0000000067da16ba f   SapClassBasic:SapClassBasic82.dll
 0001:000206c0       ?Width@SapViewScaleParams@@QEBAHXZ 0000000067da16c0 f   SapClassBasic:SapClassBasic82.dll
 0001:000206c6       ?GetScaleParamsSrc@SapView@@QEAAAEBVSapViewScaleParams@@XZ 0000000067da16c6 f   SapClassBasic:SapClassBasic82.dll
 0001:000206cc       ?GetBuffer@SapView@@QEBAPEAVSapBuffer@@XZ 0000000067da16cc f   SapClassBasic:SapClassBasic82.dll
 0001:000206d2       ?Mono@SapDataMono@@QEAAHXZ 0000000067da16d2 f   SapClassBasic:SapClassBasic82.dll
 0001:000206d8       ??1SapDataMono@@UEAA@XZ    0000000067da16d8 f   SapClassBasic:SapClassBasic82.dll
 0001:000206de       ??0SapDataMono@@QEAA@XZ    0000000067da16de f   SapClassBasic:SapClassBasic82.dll
 0001:000206e4       ?GetImageFilterKernelSize@SapAcquisition@@QEAAHIPEAW4ImageFilterKernelSize@1@@Z 0000000067da16e4 f   SapClassBasic:SapClassBasic82.dll
 0001:000206ea       ?GetImageFilter@SapAcquisition@@QEAAHIPEAVSapBuffer@@@Z 0000000067da16ea f   SapClassBasic:SapClassBasic82.dll
 0001:000206f0       ?EnableImageFilter@SapAcquisition@@QEAAHH@Z 0000000067da16f0 f   SapClassBasic:SapClassBasic82.dll
 0001:000206f6       ?IsImageFilterEnabled@SapAcquisition@@QEAAHXZ 0000000067da16f6 f   SapClassBasic:SapClassBasic82.dll
 0001:000206fc       ?IsImageFilterAvailable@SapAcquisition@@QEBAHXZ 0000000067da16fc f   SapClassBasic:SapClassBasic82.dll
 0001:00020702       ??0SapData@@QEAA@AEBV0@@Z  0000000067da1702 f   SapClassBasic:SapClassBasic82.dll
 0001:00020708       ?Set@SapDataMono@@QEAAXH@Z 0000000067da1708 f   SapClassBasic:SapClassBasic82.dll
 0001:0002070e       ?SetImageFilter@SapAcquisition@@QEAAHIPEAVSapBuffer@@@Z 0000000067da170e f   SapClassBasic:SapClassBasic82.dll
 0001:00020714       ??1SapViewScaleParams@@QEAA@XZ 0000000067da1714 f   SapClassBasic:SapClassBasic82.dll
 0001:0002071a       ?ZoomVert@SapViewScaleParams@@QEBAMXZ 0000000067da171a f   SapClassBasic:SapClassBasic82.dll
 0001:00020720       ?ZoomHorz@SapViewScaleParams@@QEBAMXZ 0000000067da1720 f   SapClassBasic:SapClassBasic82.dll
 0001:00020726       ?GetScaleParamsDst@SapView@@QEAAAEBVSapViewScaleParams@@XZ 0000000067da1726 f   SapClassBasic:SapClassBasic82.dll
 0001:0002072c       ?SetHeight@SapViewScaleParams@@QEAAXH@Z 0000000067da172c f   SapClassBasic:SapClassBasic82.dll
 0001:00020732       ?SetWidth@SapViewScaleParams@@QEAAXH@Z 0000000067da1732 f   SapClassBasic:SapClassBasic82.dll
 0001:00020738       ?SetLeft@SapViewScaleParams@@QEAAXH@Z 0000000067da1738 f   SapClassBasic:SapClassBasic82.dll
 0001:0002073e       ?SetTop@SapViewScaleParams@@QEAAXH@Z 0000000067da173e f   SapClassBasic:SapClassBasic82.dll
 0001:00020744       ??0SapViewScaleParams@@QEAA@XZ 0000000067da1744 f   SapClassBasic:SapClassBasic82.dll
 0001:0002074a       ?GetContext@SapViewCallbackInfo@@QEBAPEAXXZ 0000000067da174a f   SapClassBasic:SapClassBasic82.dll
 0001:00020750       ??1SapDataHSI@@UEAA@XZ     0000000067da1750 f   SapClassBasic:SapClassBasic82.dll
 0001:00020756       ?H@SapDataHSI@@QEAAHXZ     0000000067da1756 f   SapClassBasic:SapClassBasic82.dll
 0001:0002075c       ?S@SapDataHSI@@QEAAHXZ     0000000067da175c f   SapClassBasic:SapClassBasic82.dll
 0001:00020762       ?I@SapDataHSI@@QEAAHXZ     0000000067da1762 f   SapClassBasic:SapClassBasic82.dll
 0001:00020768       ??0SapDataHSI@@QEAA@XZ     0000000067da1768 f   SapClassBasic:SapClassBasic82.dll
 0001:0002076e       ??1SapDataLAB@@UEAA@XZ     0000000067da176e f   SapClassBasic:SapClassBasic82.dll
 0001:00020774       ?L@SapDataLAB@@QEAAHXZ     0000000067da1774 f   SapClassBasic:SapClassBasic82.dll
 0001:0002077a       ?A@SapDataLAB@@QEAAHXZ     0000000067da177a f   SapClassBasic:SapClassBasic82.dll
 0001:00020780       ?B@SapDataLAB@@QEAAHXZ     0000000067da1780 f   SapClassBasic:SapClassBasic82.dll
 0001:00020786       ??0SapDataLAB@@QEAA@XZ     0000000067da1786 f   SapClassBasic:SapClassBasic82.dll
 0001:0002078c       ??1SapDataYUV@@UEAA@XZ     0000000067da178c f   SapClassBasic:SapClassBasic82.dll
 0001:00020792       ?Y@SapDataYUV@@QEAAHXZ     0000000067da1792 f   SapClassBasic:SapClassBasic82.dll
 0001:00020798       ?U@SapDataYUV@@QEAAHXZ     0000000067da1798 f   SapClassBasic:SapClassBasic82.dll
 0001:0002079e       ?V@SapDataYUV@@QEAAHXZ     0000000067da179e f   SapClassBasic:SapClassBasic82.dll
 0001:000207a4       ??0SapDataYUV@@QEAA@XZ     0000000067da17a4 f   SapClassBasic:SapClassBasic82.dll
 0001:000207aa       ??0SapDataRGB@@QEAA@XZ     0000000067da17aa f   SapClassBasic:SapClassBasic82.dll
 0001:000207b0       ??1SapData@@UEAA@XZ        0000000067da17b0 f   SapClassBasic:SapClassBasic82.dll
 0001:000207b6       ??1SapDataRGB@@UEAA@XZ     0000000067da17b6 f   SapClassBasic:SapClassBasic82.dll
 0001:000207bc       ?Blue@SapDataRGB@@QEAAHXZ  0000000067da17bc f   SapClassBasic:SapClassBasic82.dll
 0001:000207c2       ?Green@SapDataRGB@@QEAAHXZ 0000000067da17c2 f   SapClassBasic:SapClassBasic82.dll
 0001:000207c8       ?Red@SapDataRGB@@QEAAHXZ   0000000067da17c8 f   SapClassBasic:SapClassBasic82.dll
 0001:000207ce       ??0SapDataRGB@@QEAA@AEBVSapData@@@Z 0000000067da17ce f   SapClassBasic:SapClassBasic82.dll
 0001:000207d4       ??0SapData@@QEAA@XZ        0000000067da17d4 f   SapClassBasic:SapClassBasic82.dll
 0001:000207da       ??1SapDataRGBA@@UEAA@XZ    0000000067da17da f   SapClassBasic:SapClassBasic82.dll
 0001:000207e0       ?Alpha@SapDataRGBA@@QEAAHXZ 0000000067da17e0 f   SapClassBasic:SapClassBasic82.dll
 0001:000207e6       ?Red@SapDataRGBA@@QEAAHXZ  0000000067da17e6 f   SapClassBasic:SapClassBasic82.dll
 0001:000207ec       ?Green@SapDataRGBA@@QEAAHXZ 0000000067da17ec f   SapClassBasic:SapClassBasic82.dll
 0001:000207f2       ?Blue@SapDataRGBA@@QEAAHXZ 0000000067da17f2 f   SapClassBasic:SapClassBasic82.dll
 0001:000207f8       ??0SapDataRGBA@@QEAA@XZ    0000000067da17f8 f   SapClassBasic:SapClassBasic82.dll
 0001:000207fe       ??1SapDataHSV@@UEAA@XZ     0000000067da17fe f   SapClassBasic:SapClassBasic82.dll
 0001:00020804       ?H@SapDataHSV@@QEAAHXZ     0000000067da1804 f   SapClassBasic:SapClassBasic82.dll
 0001:0002080a       ?S@SapDataHSV@@QEAAHXZ     0000000067da180a f   SapClassBasic:SapClassBasic82.dll
 0001:00020810       ?V@SapDataHSV@@QEAAHXZ     0000000067da1810 f   SapClassBasic:SapClassBasic82.dll
 0001:00020816       ??0SapDataHSV@@QEAA@XZ     0000000067da1816 f   SapClassBasic:SapClassBasic82.dll
 0001:0002081c       ??1SapDataLABA@@UEAA@XZ    0000000067da181c f   SapClassBasic:SapClassBasic82.dll
 0001:00020822       ?L@SapDataLABA@@QEAAHXZ    0000000067da1822 f   SapClassBasic:SapClassBasic82.dll
 0001:00020828       ?A@SapDataLABA@@QEAAHXZ    0000000067da1828 f   SapClassBasic:SapClassBasic82.dll
 0001:0002082e       ?B@SapDataLABA@@QEAAHXZ    0000000067da182e f   SapClassBasic:SapClassBasic82.dll
 0001:00020834       ??0SapDataLABA@@QEAA@XZ    0000000067da1834 f   SapClassBasic:SapClassBasic82.dll
 0001:0002083a       ?GetScrollRange@SapView@@QEBA?AUtagSIZE@@XZ 0000000067da183a f   SapClassBasic:SapClassBasic82.dll
 0001:00020840       ?GetScrollPos@SapView@@QEBA?AUtagPOINT@@XZ 0000000067da1840 f   SapClassBasic:SapClassBasic82.dll
 0001:00020846       ?GetScalingMode@SapView@@QEBA?AW4ScalingMode@1@XZ 0000000067da1846 f   SapClassBasic:SapClassBasic82.dll
 0001:0002084c       ?GetStringFromFormat@SapManager@@SAHHPEAD@Z 0000000067da184c f   SapClassBasic:SapClassBasic82.dll
 0001:00020852       ??3@YAXPEAX@Z              0000000067da1852 f   mfc100:mfc100.dll
 0001:00020858       ?Default@CWnd@@IEAA_JXZ    0000000067da1858 f   mfc100:mfc100.dll
 0001:0002085e       ??1CDialog@@UEAA@XZ        0000000067da185e f   mfc100:mfc100.dll
 0001:00020864       ??_V@YAXPEAX@Z             0000000067da1864 f   mfc100:mfc100.dll
 0001:0002086a       ??0CDialog@@QEAA@IPEAVCWnd@@@Z 0000000067da186a f   mfc100:mfc100.dll
 0001:00020870       ?GetRuntimeClass@CDialog@@UEBAPEAUCRuntimeClass@@XZ 0000000067da1870 f   mfc100:mfc100.dll
 0001:00020876       ?OnCmdMsg@CDialog@@UEAAHIHPEAXPEAUAFX_CMDHANDLERINFO@@@Z 0000000067da1876 f   mfc100:mfc100.dll
 0001:0002087c       ?OnFinalRelease@CWnd@@UEAAXXZ 0000000067da187c f   mfc100:mfc100.dll
 0001:00020882       ?IsInvokeAllowed@CCmdTarget@@UEAAHJ@Z 0000000067da1882 f   mfc100:mfc100.dll
 0001:00020888       ?GetDispatchIID@CCmdTarget@@UEAAHPEAU_GUID@@@Z 0000000067da1888 f   mfc100:mfc100.dll
 0001:0002088e       ?GetTypeInfoCount@CCmdTarget@@UEAAIXZ 0000000067da188e f   mfc100:mfc100.dll
 0001:00020894       ?GetTypeLibCache@CCmdTarget@@UEAAPEAVCTypeLibCache@@XZ 0000000067da1894 f   mfc100:mfc100.dll
 0001:0002089a       ?GetTypeLib@CCmdTarget@@UEAAJKPEAPEAUITypeLib@@@Z 0000000067da189a f   mfc100:mfc100.dll
 0001:000208a0       ?GetCommandMap@CCmdTarget@@MEBAPEBUAFX_OLECMDMAP@@XZ 0000000067da18a0 f   mfc100:mfc100.dll
 0001:000208a6       ?GetDispatchMap@CCmdTarget@@MEBAPEBUAFX_DISPMAP@@XZ 0000000067da18a6 f   mfc100:mfc100.dll
 0001:000208ac       ?GetConnectionMap@CCmdTarget@@MEBAPEBUAFX_CONNECTIONMAP@@XZ 0000000067da18ac f   mfc100:mfc100.dll
 0001:000208b2       ?GetInterfaceMap@CWnd@@MEBAPEBUAFX_INTERFACEMAP@@XZ 0000000067da18b2 f   mfc100:mfc100.dll
 0001:000208b8       ?GetEventSinkMap@CCmdTarget@@MEBAPEBUAFX_EVENTSINKMAP@@XZ 0000000067da18b8 f   mfc100:mfc100.dll
 0001:000208be       ?OnCreateAggregates@CCmdTarget@@UEAAHXZ 0000000067da18be f   mfc100:mfc100.dll
 0001:000208c4       ?GetInterfaceHook@CCmdTarget@@UEAAPEAUIUnknown@@PEBX@Z 0000000067da18c4 f   mfc100:mfc100.dll
 0001:000208ca       ?GetExtraConnectionPoints@CCmdTarget@@MEAAHPEAVCPtrArray@@@Z 0000000067da18ca f   mfc100:mfc100.dll
 0001:000208d0       ?GetConnectionHook@CCmdTarget@@MEAAPEAUIConnectionPoint@@AEBU_GUID@@@Z 0000000067da18d0 f   mfc100:mfc100.dll
 0001:000208d6       ?PreSubclassWindow@CWnd@@UEAAXXZ 0000000067da18d6 f   mfc100:mfc100.dll
 0001:000208dc       ?Create@CWnd@@UEAAHPEBD0KAEBUtagRECT@@PEAV1@IPEAUCCreateContext@@@Z 0000000067da18dc f   mfc100:mfc100.dll
 0001:000208e2       ?CreateEx@CWnd@@UEAAHKPEBD0KAEBUtagRECT@@PEAV1@IPEAX@Z 0000000067da18e2 f   mfc100:mfc100.dll
 0001:000208e8       ?CreateEx@CWnd@@UEAAHKPEBD0KHHHHPEAUHWND__@@PEAUHMENU__@@PEAX@Z 0000000067da18e8 f   mfc100:mfc100.dll
 0001:000208ee       ?DestroyWindow@CWnd@@UEAAHXZ 0000000067da18ee f   mfc100:mfc100.dll
 0001:000208f4       ?PreCreateWindow@CWnd@@UEAAHAEAUtagCREATESTRUCTA@@@Z 0000000067da18f4 f   mfc100:mfc100.dll
 0001:000208fa       ?CalcWindowRect@CWnd@@UEAAXPEAUtagRECT@@I@Z 0000000067da18fa f   mfc100:mfc100.dll
 0001:00020900       ?GetMenu@CWnd@@UEBAPEAVCMenu@@XZ 0000000067da1900 f   mfc100:mfc100.dll
 0001:00020906       ?SetMenu@CWnd@@UEAAHPEAVCMenu@@@Z 0000000067da1906 f   mfc100:mfc100.dll
 0001:0002090c       ?OnToolHitTest@CWnd@@UEBA_JVCPoint@@PEAUtagTOOLINFOA@@@Z 0000000067da190c f   mfc100:mfc100.dll
 0001:00020912       ?GetScrollBarCtrl@CWnd@@UEBAPEAVCScrollBar@@H@Z 0000000067da1912 f   mfc100:mfc100.dll
 0001:00020918       ?WinHelpA@CWnd@@UEAAX_KI@Z 0000000067da1918 f   mfc100:mfc100.dll
 0001:0002091e       ?HtmlHelpA@CWnd@@UEAAX_KI@Z 0000000067da191e f   mfc100:mfc100.dll
 0001:00020924       ?WinHelpInternal@CWnd@@UEAAX_KI@Z 0000000067da1924 f   mfc100:mfc100.dll
 0001:0002092a       ?ContinueModal@CWnd@@UEAAHXZ 0000000067da192a f   mfc100:mfc100.dll
 0001:00020930       ?EndModalLoop@CWnd@@UEAAXH@Z 0000000067da1930 f   mfc100:mfc100.dll
 0001:00020936       ?OnDrawIconicThumbnailOrLivePreview@CWnd@@UEAAXAEAVCDC@@VCRect@@VCSize@@HAEAH@Z 0000000067da1936 f   mfc100:mfc100.dll
 0001:0002093c       ?EnsureStdObj@CWnd@@UEAAJXZ 0000000067da193c f   mfc100:mfc100.dll
 0001:00020942       ?get_accParent@CWnd@@UEAAJPEAPEAUIDispatch@@@Z 0000000067da1942 f   mfc100:mfc100.dll
 0001:00020948       ?get_accChildCount@CWnd@@UEAAJPEAJ@Z 0000000067da1948 f   mfc100:mfc100.dll
 0001:0002094e       ?get_accChild@CWnd@@UEAAJUtagVARIANT@@PEAPEAUIDispatch@@@Z 0000000067da194e f   mfc100:mfc100.dll
 0001:00020954       ?get_accName@CWnd@@UEAAJUtagVARIANT@@PEAPEA_W@Z 0000000067da1954 f   mfc100:mfc100.dll
 0001:0002095a       ?get_accValue@CWnd@@UEAAJUtagVARIANT@@PEAPEA_W@Z 0000000067da195a f   mfc100:mfc100.dll
 0001:00020960       ?get_accDescription@CWnd@@UEAAJUtagVARIANT@@PEAPEA_W@Z 0000000067da1960 f   mfc100:mfc100.dll
 0001:00020966       ?get_accRole@CWnd@@UEAAJUtagVARIANT@@PEAU2@@Z 0000000067da1966 f   mfc100:mfc100.dll
 0001:0002096c       ?get_accState@CWnd@@UEAAJUtagVARIANT@@PEAU2@@Z 0000000067da196c f   mfc100:mfc100.dll
 0001:00020972       ?get_accHelp@CWnd@@UEAAJUtagVARIANT@@PEAPEA_W@Z 0000000067da1972 f   mfc100:mfc100.dll
 0001:00020978       ?get_accHelpTopic@CWnd@@UEAAJPEAPEA_WUtagVARIANT@@PEAJ@Z 0000000067da1978 f   mfc100:mfc100.dll
 0001:0002097e       ?get_accKeyboardShortcut@CWnd@@UEAAJUtagVARIANT@@PEAPEA_W@Z 0000000067da197e f   mfc100:mfc100.dll
 0001:00020984       ?get_accFocus@CWnd@@UEAAJPEAUtagVARIANT@@@Z 0000000067da1984 f   mfc100:mfc100.dll
 0001:0002098a       ?get_accSelection@CWnd@@UEAAJPEAUtagVARIANT@@@Z 0000000067da198a f   mfc100:mfc100.dll
 0001:00020990       ?get_accDefaultAction@CWnd@@UEAAJUtagVARIANT@@PEAPEA_W@Z 0000000067da1990 f   mfc100:mfc100.dll
 0001:00020996       ?accSelect@CWnd@@UEAAJJUtagVARIANT@@@Z 0000000067da1996 f   mfc100:mfc100.dll
 0001:0002099c       ?accLocation@CWnd@@UEAAJPEAJ000UtagVARIANT@@@Z 0000000067da199c f   mfc100:mfc100.dll
 0001:000209a2       ?accNavigate@CWnd@@UEAAJJUtagVARIANT@@PEAU2@@Z 0000000067da19a2 f   mfc100:mfc100.dll
 0001:000209a8       ?accHitTest@CWnd@@UEAAJJJPEAUtagVARIANT@@@Z 0000000067da19a8 f   mfc100:mfc100.dll
 0001:000209ae       ?accDoDefaultAction@CWnd@@UEAAJUtagVARIANT@@@Z 0000000067da19ae f   mfc100:mfc100.dll
 0001:000209b4       ?put_accName@CWnd@@UEAAJUtagVARIANT@@PEA_W@Z 0000000067da19b4 f   mfc100:mfc100.dll
 0001:000209ba       ?put_accValue@CWnd@@UEAAJUtagVARIANT@@PEA_W@Z 0000000067da19ba f   mfc100:mfc100.dll
 0001:000209c0       ?SetProxy@CWnd@@UEAAJPEAUIAccessibleProxy@@@Z 0000000067da19c0 f   mfc100:mfc100.dll
 0001:000209c6       ?CreateAccessibleProxy@CWnd@@UEAAJ_K_JPEA_J@Z 0000000067da19c6 f   mfc100:mfc100.dll
 0001:000209cc       ?OnCommand@CWnd@@MEAAH_K_J@Z 0000000067da19cc f   mfc100:mfc100.dll
 0001:000209d2       ?OnNotify@CWnd@@MEAAH_K_JPEA_J@Z 0000000067da19d2 f   mfc100:mfc100.dll
 0001:000209d8       ?GetSuperWndProcAddr@CWnd@@MEAAPEAP6A_JPEAUHWND__@@I_K_J@ZXZ 0000000067da19d8 f   mfc100:mfc100.dll
 0001:000209de       ?PreTranslateMessage@CDialog@@UEAAHPEAUtagMSG@@@Z 0000000067da19de f   mfc100:mfc100.dll
 0001:000209e4       ?OnAmbientProperty@CWnd@@UEAAHPEAVCOleControlSite@@JPEAUtagVARIANT@@@Z 0000000067da19e4 f   mfc100:mfc100.dll
 0001:000209ea       ?WindowProc@CWnd@@MEAA_JI_K_J@Z 0000000067da19ea f   mfc100:mfc100.dll
 0001:000209f0       ?OnWndMsg@CWnd@@MEAAHI_K_JPEA_J@Z 0000000067da19f0 f   mfc100:mfc100.dll
 0001:000209f6       ?DefWindowProcA@CWnd@@MEAA_JI_K_J@Z 0000000067da19f6 f   mfc100:mfc100.dll
 0001:000209fc       ?PostNcDestroy@CWnd@@MEAAXXZ 0000000067da19fc f   mfc100:mfc100.dll
 0001:00020a02       ?OnChildNotify@CWnd@@MEAAHI_K_JPEA_J@Z 0000000067da1a02 f   mfc100:mfc100.dll
 0001:00020a08       ?OnTouchInputs@CWnd@@MEAAHIPEAUtagTOUCHINPUT@@@Z 0000000067da1a08 f   mfc100:mfc100.dll
 0001:00020a0e       ?OnTouchInput@CWnd@@MEAAHVCPoint@@HHPEAUtagTOUCHINPUT@@@Z 0000000067da1a0e f   mfc100:mfc100.dll
 0001:00020a14       ?GetGestureStatus@CWnd@@MEAAKVCPoint@@@Z 0000000067da1a14 f   mfc100:mfc100.dll
 0001:00020a1a       ?OnGestureZoom@CWnd@@MEAAHVCPoint@@J@Z 0000000067da1a1a f   mfc100:mfc100.dll
 0001:00020a20       ?OnGesturePan@CWnd@@MEAAHVCPoint@@0@Z 0000000067da1a20 f   mfc100:mfc100.dll
 0001:00020a26       ?OnGestureRotate@CWnd@@MEAAHVCPoint@@N@Z 0000000067da1a26 f   mfc100:mfc100.dll
 0001:00020a2c       ?OnGestureTwoFingerTap@CWnd@@MEAAHVCPoint@@@Z 0000000067da1a2c f   mfc100:mfc100.dll
 0001:00020a32       ?OnGesturePressAndTap@CWnd@@MEAAHVCPoint@@J@Z 0000000067da1a32 f   mfc100:mfc100.dll
 0001:00020a38       ?CheckAutoCenter@CDialog@@UEAAHXZ 0000000067da1a38 f   mfc100:mfc100.dll
 0001:00020a3e       ?IsFrameWnd@CWnd@@UEBAHXZ  0000000067da1a3e f   mfc100:mfc100.dll
 0001:00020a44       ?CreateControlContainer@CWnd@@MEAAHPEAPEAVCOleControlContainer@@@Z 0000000067da1a44 f   mfc100:mfc100.dll
 0001:00020a4a       ?CreateControlSite@CWnd@@MEAAHPEAVCOleControlContainer@@PEAPEAVCOleControlSite@@IAEBU_GUID@@@Z 0000000067da1a4a f   mfc100:mfc100.dll
 0001:00020a50       ?SetOccDialogInfo@CDialog@@MEAAHPEAU_AFX_OCC_DIALOG_INFO@@@Z 0000000067da1a50 f   mfc100:mfc100.dll
 0001:00020a56       ?GetOccDialogInfo@CDialog@@MEAAPEAU_AFX_OCC_DIALOG_INFO@@XZ 0000000067da1a56 f   mfc100:mfc100.dll
 0001:00020a5c       ?Create@CDialog@@UEAAHPEBDPEAVCWnd@@@Z 0000000067da1a5c f   mfc100:mfc100.dll
 0001:00020a62       ?CreateIndirect@CDialog@@UEAAHPEAXPEAVCWnd@@@Z 0000000067da1a62 f   mfc100:mfc100.dll
 0001:00020a68       ?CreateIndirect@CDialog@@UEAAHPEBUDLGTEMPLATE@@PEAVCWnd@@PEAX@Z 0000000067da1a68 f   mfc100:mfc100.dll
 0001:00020a6e       ?DoModal@CDialog@@UEAA_JXZ 0000000067da1a6e f   mfc100:mfc100.dll
 0001:00020a74       ?OnSetFont@CDialog@@UEAAXPEAVCFont@@@Z 0000000067da1a74 f   mfc100:mfc100.dll
 0001:00020a7a       ?OnOK@CDialog@@MEAAXXZ     0000000067da1a7a f   mfc100:mfc100.dll
 0001:00020a80       ?OnCancel@CDialog@@MEAAXXZ 0000000067da1a80 f   mfc100:mfc100.dll
 0001:00020a86       ?PreInitDialog@CDialog@@MEAAXXZ 0000000067da1a86 f   mfc100:mfc100.dll
 0001:00020a8c       ?SetWindowPos@CWnd@@QEAAHPEBV1@HHHHI@Z 0000000067da1a8c f   mfc100:mfc100.dll
 0001:00020a92       ?OnInitDialog@CDialog@@UEAAHXZ 0000000067da1a92 f   mfc100:mfc100.dll
 0001:00020a98       ?GetThisMessageMap@CDialog@@KAPEBUAFX_MSGMAP@@XZ 0000000067da1a98 f   mfc100:mfc100.dll
 0001:00020a9e       ??1?$CStringT@DV?$StrTraitMFC_DLL@DV?$ChTraitsCRT@D@ATL@@@@@ATL@@QEAA@XZ 0000000067da1a9e f   mfc100:mfc100.dll
 0001:00020aa4       ??B?$CSimpleStringT@D$00@ATL@@QEBAPEBDXZ 0000000067da1aa4 f   mfc100:mfc100.dll
 0001:00020aaa       ??0?$CStringT@DV?$StrTraitMFC_DLL@DV?$ChTraitsCRT@D@ATL@@@@@ATL@@QEAA@AEBV01@@Z 0000000067da1aaa f   mfc100:mfc100.dll
 0001:00020ab0       ??0?$CStringT@DV?$StrTraitMFC_DLL@DV?$ChTraitsCRT@D@ATL@@@@@ATL@@QEAA@PEBD@Z 0000000067da1ab0 f   mfc100:mfc100.dll
 0001:00020ab6       ?SetDlgItemTextA@CWnd@@QEAAXHPEBD@Z 0000000067da1ab6 f   mfc100:mfc100.dll
 0001:00020abc       ?MessageBoxA@CWnd@@QEAAHPEBD0I@Z 0000000067da1abc f   mfc100:mfc100.dll
 0001:00020ac2       ?CompareNoCase@?$CStringT@DV?$StrTraitMFC_DLL@DV?$ChTraitsCRT@D@ATL@@@@@ATL@@QEBAHPEBD@Z 0000000067da1ac2 f   mfc100:mfc100.dll
 0001:00020ac8       ?ReleaseBuffer@?$CSimpleStringT@D$00@ATL@@QEAAXH@Z 0000000067da1ac8 f   mfc100:mfc100.dll
 0001:00020ace       ?GetBuffer@?$CSimpleStringT@D$00@ATL@@QEAAPEADH@Z 0000000067da1ace f   mfc100:mfc100.dll
 0001:00020ad4       ?Concatenate@?$CSimpleStringT@D$00@ATL@@KAXAEAV12@PEBDH1H@Z 0000000067da1ad4 f   mfc100:mfc100.dll
 0001:00020ada       ?GetLength@?$CSimpleStringT@D$00@ATL@@QEBAHXZ 0000000067da1ada f   mfc100:mfc100.dll
 0001:00020ae0       ??0?$CStringT@DV?$StrTraitMFC_DLL@DV?$ChTraitsCRT@D@ATL@@@@@ATL@@QEAA@PEAUIAtlStringMgr@1@@Z 0000000067da1ae0 f   mfc100:mfc100.dll
 0001:00020ae6       ?GetManager@?$CStringT@DV?$StrTraitMFC_DLL@DV?$ChTraitsCRT@D@ATL@@@@@ATL@@QEBAPEAUIAtlStringMgr@2@XZ 0000000067da1ae6 f   mfc100:mfc100.dll
 0001:00020aec       ?AfxGetModuleState@@YAPEAVAFX_MODULE_STATE@@XZ 0000000067da1aec f   mfc100:mfc100.dll
 0001:00020af2       ??0CWnd@@QEAA@XZ           0000000067da1af2 f   mfc100:mfc100.dll
 0001:00020af8       ?GetRuntimeClass@CListBox@@UEBAPEAUCRuntimeClass@@XZ 0000000067da1af8 f   mfc100:mfc100.dll
 0001:00020afe       ?OnCmdMsg@CCmdTarget@@UEAAHIHPEAXPEAUAFX_CMDHANDLERINFO@@@Z 0000000067da1afe f   mfc100:mfc100.dll
 0001:00020b04       ?GetMessageMap@CWnd@@MEBAPEBUAFX_MSGMAP@@XZ 0000000067da1b04 f   mfc100:mfc100.dll
 0001:00020b0a       ?PreTranslateMessage@CWnd@@UEAAHPEAUtagMSG@@@Z 0000000067da1b0a f   mfc100:mfc100.dll
 0001:00020b10       ?OnChildNotify@CListBox@@MEAAHI_K_JPEA_J@Z 0000000067da1b10 f   mfc100:mfc100.dll
 0001:00020b16       ?CheckAutoCenter@CWnd@@UEAAHXZ 0000000067da1b16 f   mfc100:mfc100.dll
 0001:00020b1c       ?SetOccDialogInfo@CWnd@@MEAAHPEAU_AFX_OCC_DIALOG_INFO@@@Z 0000000067da1b1c f   mfc100:mfc100.dll
 0001:00020b22       ?GetOccDialogInfo@CWnd@@MEAAPEAU_AFX_OCC_DIALOG_INFO@@XZ 0000000067da1b22 f   mfc100:mfc100.dll
 0001:00020b28       ?Create@CListBox@@UEAAHKAEBUtagRECT@@PEAVCWnd@@I@Z 0000000067da1b28 f   mfc100:mfc100.dll
 0001:00020b2e       ?DrawItem@CListBox@@UEAAXPEAUtagDRAWITEMSTRUCT@@@Z 0000000067da1b2e f   mfc100:mfc100.dll
 0001:00020b34       ?MeasureItem@CListBox@@UEAAXPEAUtagMEASUREITEMSTRUCT@@@Z 0000000067da1b34 f   mfc100:mfc100.dll
 0001:00020b3a       ?CompareItem@CListBox@@UEAAHPEAUtagCOMPAREITEMSTRUCT@@@Z 0000000067da1b3a f   mfc100:mfc100.dll
 0001:00020b40       ?DeleteItem@CListBox@@UEAAXPEAUtagDELETEITEMSTRUCT@@@Z 0000000067da1b40 f   mfc100:mfc100.dll
 0001:00020b46       ?VKeyToItem@CListBox@@UEAAHII@Z 0000000067da1b46 f   mfc100:mfc100.dll
 0001:00020b4c       ?CharToItem@CListBox@@UEAAHII@Z 0000000067da1b4c f   mfc100:mfc100.dll
 0001:00020b52       ??1CListBox@@UEAA@XZ       0000000067da1b52 f   mfc100:mfc100.dll
 0001:00020b58       ?GetRuntimeClass@CComboBox@@UEBAPEAUCRuntimeClass@@XZ 0000000067da1b58 f   mfc100:mfc100.dll
 0001:00020b5e       ?OnChildNotify@CComboBox@@MEAAHI_K_JPEA_J@Z 0000000067da1b5e f   mfc100:mfc100.dll
 0001:00020b64       ?Create@CComboBox@@UEAAHKAEBUtagRECT@@PEAVCWnd@@I@Z 0000000067da1b64 f   mfc100:mfc100.dll
 0001:00020b6a       ?DrawItem@CComboBox@@UEAAXPEAUtagDRAWITEMSTRUCT@@@Z 0000000067da1b6a f   mfc100:mfc100.dll
 0001:00020b70       ?MeasureItem@CComboBox@@UEAAXPEAUtagMEASUREITEMSTRUCT@@@Z 0000000067da1b70 f   mfc100:mfc100.dll
 0001:00020b76       ?CompareItem@CComboBox@@UEAAHPEAUtagCOMPAREITEMSTRUCT@@@Z 0000000067da1b76 f   mfc100:mfc100.dll
 0001:00020b7c       ?DeleteItem@CComboBox@@UEAAXPEAUtagDELETEITEMSTRUCT@@@Z 0000000067da1b7c f   mfc100:mfc100.dll
 0001:00020b82       ??1CComboBox@@UEAA@XZ      0000000067da1b82 f   mfc100:mfc100.dll
 0001:00020b88       ?GetRuntimeClass@CEdit@@UEBAPEAUCRuntimeClass@@XZ 0000000067da1b88 f   mfc100:mfc100.dll
 0001:00020b8e       ??1CEdit@@UEAA@XZ          0000000067da1b8e f   mfc100:mfc100.dll
 0001:00020b94       ?DDX_Check@@YAXPEAVCDataExchange@@HAEAH@Z 0000000067da1b94 f   mfc100:mfc100.dll
 0001:00020b9a       ?DDX_CBIndex@@YAXPEAVCDataExchange@@HAEAH@Z 0000000067da1b9a f   mfc100:mfc100.dll
 0001:00020ba0       ?DDX_CBString@@YAXPEAVCDataExchange@@HAEAV?$CStringT@DV?$StrTraitMFC_DLL@DV?$ChTraitsCRT@D@ATL@@@@@ATL@@@Z 0000000067da1ba0 f   mfc100:mfc100.dll
 0001:00020ba6       ?DDX_Control@@YAXPEAVCDataExchange@@HAEAVCWnd@@@Z 0000000067da1ba6 f   mfc100:mfc100.dll
 0001:00020bac       ?GetLBText@CComboBox@@QEBAXHAEAV?$CStringT@DV?$StrTraitMFC_DLL@DV?$ChTraitsCRT@D@ATL@@@@@ATL@@@Z 0000000067da1bac f   mfc100:mfc100.dll
 0001:00020bb2       ?IsEmpty@?$CSimpleStringT@D$00@ATL@@QEBA_NXZ 0000000067da1bb2 f   mfc100:mfc100.dll
 0001:00020bb8       ?UpdateData@CWnd@@QEAAHH@Z 0000000067da1bb8 f   mfc100:mfc100.dll
 0001:00020bbe       ?EnableWindow@CWnd@@QEAAHH@Z 0000000067da1bbe f   mfc100:mfc100.dll
 0001:00020bc4       ?GetDlgItem@CWnd@@QEBAPEAV1@H@Z 0000000067da1bc4 f   mfc100:mfc100.dll
 0001:00020bca       ??4?$CStringT@DV?$StrTraitMFC_DLL@DV?$ChTraitsCRT@D@ATL@@@@@ATL@@QEAAAEAV01@AEBV01@@Z 0000000067da1bca f   mfc100:mfc100.dll
 0001:00020bd0       ??0?$CStringT@DV?$StrTraitMFC_DLL@DV?$ChTraitsCRT@D@ATL@@@@@ATL@@QEAA@XZ 0000000067da1bd0 f   mfc100:mfc100.dll
 0001:00020bd6       ??4?$CStringT@DV?$StrTraitMFC_DLL@DV?$ChTraitsCRT@D@ATL@@@@@ATL@@QEAAAEAV01@PEBD@Z 0000000067da1bd6 f   mfc100:mfc100.dll
 0001:00020bdc       ??1CFileDialog@@UEAA@XZ    0000000067da1bdc f   mfc100:mfc100.dll
 0001:00020be2       ?GetPathName@CFileDialog@@QEBA?AV?$CStringT@DV?$StrTraitMFC_DLL@DV?$ChTraitsCRT@D@ATL@@@@@ATL@@XZ 0000000067da1be2 f   mfc100:mfc100.dll
 0001:00020be8       ?DoModal@CFileDialog@@UEAA_JXZ 0000000067da1be8 f   mfc100:mfc100.dll
 0001:00020bee       ?GetOFN@CFileDialog@@QEAAAEAUtagOFNA@@XZ 0000000067da1bee f   mfc100:mfc100.dll
 0001:00020bf4       ??0CFileDialog@@QEAA@HPEBD0K0PEAVCWnd@@KH@Z 0000000067da1bf4 f   mfc100:mfc100.dll
 0001:00020bfa       ?OnVScroll@CWnd@@IEAAXIIPEAVCScrollBar@@@Z 0000000067da1bfa f   mfc100:mfc100.dll
 0001:00020c00       ?AfxMessageBox@@YAHPEBDII@Z 0000000067da1c00 f   mfc100:mfc100.dll
 0001:00020c06       ?GetRuntimeClass@CScrollBar@@UEBAPEAUCRuntimeClass@@XZ 0000000067da1c06 f   mfc100:mfc100.dll
 0001:00020c0c       ?Create@CScrollBar@@UEAAHKAEBUtagRECT@@PEAVCWnd@@I@Z 0000000067da1c0c f   mfc100:mfc100.dll
 0001:00020c12       ??1CScrollBar@@UEAA@XZ     0000000067da1c12 f   mfc100:mfc100.dll
 0001:00020c18       ?DDX_Text@@YAXPEAVCDataExchange@@HAEAH@Z 0000000067da1c18 f   mfc100:mfc100.dll
 0001:00020c1e       ?GetDlgCtrlID@CWnd@@QEBAHXZ 0000000067da1c1e f   mfc100:mfc100.dll
 0001:00020c24       ?DDV_MinMaxInt@@YAXPEAVCDataExchange@@HHH@Z 0000000067da1c24 f   mfc100:mfc100.dll
 0001:00020c2a       ?DDX_Radio@@YAXPEAVCDataExchange@@HAEAH@Z 0000000067da1c2a f   mfc100:mfc100.dll
 0001:00020c30       ?DDX_Text@@YAXPEAVCDataExchange@@HAEAM@Z 0000000067da1c30 f   mfc100:mfc100.dll
 0001:00020c36       ?AfxFindResourceHandle@@YAPEAUHINSTANCE__@@PEBD0@Z 0000000067da1c36 f   mfc100:mfc100.dll
 0001:00020c3c       ?DDV_MinMaxUInt@@YAXPEAVCDataExchange@@III@Z 0000000067da1c3c f   mfc100:mfc100.dll
 0001:00020c42       ?StringLength@?$CSimpleStringT@D$00@ATL@@SAHPEBD@Z 0000000067da1c42 f   mfc100:mfc100.dll
 0001:00020c48       ?DDX_Text@@YAXPEAVCDataExchange@@HAEAV?$CStringT@DV?$StrTraitMFC_DLL@DV?$ChTraitsCRT@D@ATL@@@@@ATL@@@Z 0000000067da1c48 f   mfc100:mfc100.dll
 0001:00020c4e       ?GetRuntimeClass@CSliderCtrl@@UEBAPEAUCRuntimeClass@@XZ 0000000067da1c4e f   mfc100:mfc100.dll
 0001:00020c54       ?Create@CSliderCtrl@@UEAAHKAEBUtagRECT@@PEAVCWnd@@I@Z 0000000067da1c54 f   mfc100:mfc100.dll
 0001:00020c5a       ?CreateEx@CSliderCtrl@@UEAAHKKAEBUtagRECT@@PEAVCWnd@@I@Z 0000000067da1c5a f   mfc100:mfc100.dll
 0001:00020c60       ??1CSliderCtrl@@UEAA@XZ    0000000067da1c60 f   mfc100:mfc100.dll
 0001:00020c66       ?DDX_Text@@YAXPEAVCDataExchange@@HAEAJ@Z 0000000067da1c66 f   mfc100:mfc100.dll
 0001:00020c6c       ?SetRange@CSliderCtrl@@QEAAXHHH@Z 0000000067da1c6c f   mfc100:mfc100.dll
 0001:00020c72       ?OnHScroll@CWnd@@IEAAXIIPEAVCScrollBar@@@Z 0000000067da1c72 f   mfc100:mfc100.dll
 0001:00020c78       ?CheckRadioButton@CWnd@@QEAAXHHH@Z 0000000067da1c78 f   mfc100:mfc100.dll
 0001:00020c7e       ??1CButton@@UEAA@XZ        0000000067da1c7e f   mfc100:mfc100.dll
 0001:00020c84       ??1CStatic@@UEAA@XZ        0000000067da1c84 f   mfc100:mfc100.dll
 0001:00020c8a       ?OnDestroy@CWnd@@IEAAXXZ   0000000067da1c8a f   mfc100:mfc100.dll
 0001:00020c90       ?IsWindowEnabled@CWnd@@QEBAHXZ 0000000067da1c90 f   mfc100:mfc100.dll
 0001:00020c96       ?SetWindowTextA@CWnd@@QEAAXPEBD@Z 0000000067da1c96 f   mfc100:mfc100.dll
 0001:00020c9c       ?Format@?$CStringT@DV?$StrTraitMFC_DLL@DV?$ChTraitsCRT@D@ATL@@@@@ATL@@QEAAXPEBDZZ 0000000067da1c9c f   mfc100:mfc100.dll
 0001:00020ca2       ??Y?$CStringT@DV?$StrTraitMFC_DLL@DV?$ChTraitsCRT@D@ATL@@@@@ATL@@QEAAAEAV01@AEBV?$CSimpleStringT@D$00@1@@Z 0000000067da1ca2 f   mfc100:mfc100.dll
 0001:00020ca8       ??Y?$CStringT@DV?$StrTraitMFC_DLL@DV?$ChTraitsCRT@D@ATL@@@@@ATL@@QEAAAEAV01@PEBD@Z 0000000067da1ca8 f   mfc100:mfc100.dll
 0001:00020cae       ?FromHandle@CDC@@SAPEAV1@PEAUHDC__@@@Z 0000000067da1cae f   mfc100:mfc100.dll
 0001:00020cb4       ?FromHandle@CWnd@@SAPEAV1@PEAUHWND__@@@Z 0000000067da1cb4 f   mfc100:mfc100.dll
 0001:00020cba       ?GetRuntimeClass@CStatic@@UEBAPEAUCRuntimeClass@@XZ 0000000067da1cba f   mfc100:mfc100.dll
 0001:00020cc0       ?OnChildNotify@CStatic@@MEAAHI_K_JPEA_J@Z 0000000067da1cc0 f   mfc100:mfc100.dll
 0001:00020cc6       ?Create@CStatic@@UEAAHPEBDKAEBUtagRECT@@PEAVCWnd@@I@Z 0000000067da1cc6 f   mfc100:mfc100.dll
 0001:00020ccc       ?DrawItem@CStatic@@UEAAXPEAUtagDRAWITEMSTRUCT@@@Z 0000000067da1ccc f   mfc100:mfc100.dll
 0001:00020cd2       ?GetRuntimeClass@CButton@@UEBAPEAUCRuntimeClass@@XZ 0000000067da1cd2 f   mfc100:mfc100.dll
 0001:00020cd8       ?OnChildNotify@CButton@@MEAAHI_K_JPEA_J@Z 0000000067da1cd8 f   mfc100:mfc100.dll
 0001:00020cde       ?Create@CButton@@UEAAHPEBDKAEBUtagRECT@@PEAVCWnd@@I@Z 0000000067da1cde f   mfc100:mfc100.dll
 0001:00020ce4       ?DrawItem@CButton@@UEAAXPEAUtagDRAWITEMSTRUCT@@@Z 0000000067da1ce4 f   mfc100:mfc100.dll
 0001:00020cea       ?BeginWaitCursor@CCmdTarget@@QEAAXXZ 0000000067da1cea f   mfc100:mfc100.dll
 0001:00020cf0       ?EndWaitCursor@CCmdTarget@@QEAAXXZ 0000000067da1cf0 f   mfc100:mfc100.dll
 0001:00020cf6       ?DDV_MinMaxDWord@@YAXPEAVCDataExchange@@KKK@Z 0000000067da1cf6 f   mfc100:mfc100.dll
 0001:00020cfc       ?Find@?$CStringT@DV?$StrTraitMFC_DLL@DV?$ChTraitsCRT@D@ATL@@@@@ATL@@QEBAHPEBDH@Z 0000000067da1cfc f   mfc100:mfc100.dll
 0001:00020d02       ?ShowWindow@CWnd@@QEAAHH@Z 0000000067da1d02 f   mfc100:mfc100.dll
 0001:00020d08       ??2@YAPEAX_K@Z             0000000067da1d08 f   mfc100:mfc100.dll
 0001:00020d0e       ??_U@YAPEAX_K@Z            0000000067da1d0e f   mfc100:mfc100.dll
 0001:00020d14       ?GetRuntimeClass@CGdiObject@@UEBAPEAUCRuntimeClass@@XZ 0000000067da1d14 f   mfc100:mfc100.dll
 0001:00020d1a       ?DeleteObject@CGdiObject@@QEAAHXZ 0000000067da1d1a f   mfc100:mfc100.dll
 0001:00020d20       ?GetRuntimeClass@CBrush@@UEBAPEAUCRuntimeClass@@XZ 0000000067da1d20 f   mfc100:mfc100.dll
 0001:00020d26       ?MoveWindow@CWnd@@QEAAXHHHHH@Z 0000000067da1d26 f   mfc100:mfc100.dll
 0001:00020d2c       ?OnCtlColor@CWnd@@IEAAPEAUHBRUSH__@@PEAVCDC@@PEAV1@I@Z 0000000067da1d2c f   mfc100:mfc100.dll
 0001:00020d32       ?GetWindowTextA@CWnd@@QEBAXAEAV?$CStringT@DV?$StrTraitMFC_DLL@DV?$ChTraitsCRT@D@ATL@@@@@ATL@@@Z 0000000067da1d32 f   mfc100:mfc100.dll
 0001:00020d38       ?ModifyStyle@CWnd@@QEAAHKKI@Z 0000000067da1d38 f   mfc100:mfc100.dll
 0001:00020d3e       ?GetThisClass@CStatic@@SAPEAUCRuntimeClass@@XZ 0000000067da1d3e f   mfc100:mfc100.dll
 0001:00020d44       ?SetFocus@CWnd@@QEAAPEAV1@XZ 0000000067da1d44 f   mfc100:mfc100.dll
 0001:00020d4a       ?GetRuntimeClass@CPen@@UEBAPEAUCRuntimeClass@@XZ 0000000067da1d4a f   mfc100:mfc100.dll
 0001:00020d50       ?Attach@CGdiObject@@QEAAHPEAX@Z 0000000067da1d50 f   mfc100:mfc100.dll
 0001:00020d56       ?GetRuntimeClass@CBitmap@@UEBAPEAUCRuntimeClass@@XZ 0000000067da1d56 f   mfc100:mfc100.dll
 0001:00020d5c       ?GetRuntimeClass@CRgn@@UEBAPEAUCRuntimeClass@@XZ 0000000067da1d5c f   mfc100:mfc100.dll
 0001:00020d62       ?Attach@CDC@@QEAAHPEAUHDC__@@@Z 0000000067da1d62 f   mfc100:mfc100.dll
 0001:00020d68       ?SelectGdiObject@CDC@@KAPEAVCGdiObject@@PEAUHDC__@@PEAX@Z 0000000067da1d68 f   mfc100:mfc100.dll
 0001:00020d6e       ?SetScrollInfo@CWnd@@QEAAHHPEAUtagSCROLLINFO@@H@Z 0000000067da1d6e f   mfc100:mfc100.dll
 0001:00020d74       ?GetScrollInfo@CWnd@@QEAAHHPEAUtagSCROLLINFO@@I@Z 0000000067da1d74 f   mfc100:mfc100.dll
 0001:00020d7a       ??1CPaintDC@@UEAA@XZ       0000000067da1d7a f   mfc100:mfc100.dll
 0001:00020d80       ??1CDC@@UEAA@XZ            0000000067da1d80 f   mfc100:mfc100.dll
 0001:00020d86       ?DeleteDC@CDC@@QEAAHXZ     0000000067da1d86 f   mfc100:mfc100.dll
 0001:00020d8c       ?SelectObject@CDC@@QEAAPEAVCBrush@@PEAV2@@Z 0000000067da1d8c f   mfc100:mfc100.dll
 0001:00020d92       ?SelectObject@CDC@@QEAAPEAVCPen@@PEAV2@@Z 0000000067da1d92 f   mfc100:mfc100.dll
 0001:00020d98       ?SelectClipRgn@CDC@@QEAAHPEAVCRgn@@@Z 0000000067da1d98 f   mfc100:mfc100.dll
 0001:00020d9e       ??0CDC@@QEAA@XZ            0000000067da1d9e f   mfc100:mfc100.dll
 0001:00020da4       ??0CPaintDC@@QEAA@PEAVCWnd@@@Z 0000000067da1da4 f   mfc100:mfc100.dll
 0001:00020daa       ?GetThisMessageMap@CWnd@@KAPEBUAFX_MSGMAP@@XZ 0000000067da1daa f   mfc100:mfc100.dll
 0001:00020db0       ?GetThisClass@CDialog@@SAPEAUCRuntimeClass@@XZ 0000000067da1db0 f   mfc100:mfc100.dll
 0001:00020db6       ?FromHandle@CGdiObject@@SAPEAV1@PEAX@Z 0000000067da1db6 f   mfc100:mfc100.dll
 0001:00020dbc       ?Create@CEdit@@QEAAHKAEBUtagRECT@@PEAVCWnd@@I@Z 0000000067da1dbc f   mfc100:mfc100.dll
 0001:00020dc2       ?ScreenToClient@CWnd@@QEBAXPEAUtagRECT@@@Z 0000000067da1dc2 f   mfc100:mfc100.dll
 0001:00020dc8       ?EndDialog@CDialog@@QEAAXH@Z 0000000067da1dc8 f   mfc100:mfc100.dll
 0001:00020dce       ?ClientToScreen@CWnd@@QEBAXPEAUtagRECT@@@Z 0000000067da1dce f   mfc100:mfc100.dll
 0001:00020dd4       ?Construct@CRectTracker@@IEAAXXZ 0000000067da1dd4 f   mfc100:mfc100.dll
 0001:00020dda       ?DrawTrackerRect@CRectTracker@@UEAAXPEBUtagRECT@@PEAVCWnd@@PEAVCDC@@1@Z 0000000067da1dda f   mfc100:mfc100.dll
 0001:00020de0       ?AdjustRect@CRectTracker@@UEAAXHPEAUtagRECT@@@Z 0000000067da1de0 f   mfc100:mfc100.dll
 0001:00020de6       ?OnChangedRect@CRectTracker@@UEAAXAEBVCRect@@@Z 0000000067da1de6 f   mfc100:mfc100.dll
 0001:00020dec       ?GetHandleMask@CRectTracker@@UEBAIXZ 0000000067da1dec f   mfc100:mfc100.dll
 0001:00020df2       ?GetHandleSize@CRectTracker@@MEBAHPEBUtagRECT@@@Z 0000000067da1df2 f   mfc100:mfc100.dll
 0001:00020df8       ??1CRectTracker@@UEAA@XZ   0000000067da1df8 f   mfc100:mfc100.dll
 0001:00020dfe       ?FillSolidRect@CDC@@QEAAXPEBUtagRECT@@K@Z 0000000067da1dfe f   mfc100:mfc100.dll
 0001:00020e04       ?SetCursor@CRectTracker@@QEBAHPEAVCWnd@@I@Z 0000000067da1e04 f   mfc100:mfc100.dll
 0001:00020e0a       ??1CClientDC@@UEAA@XZ      0000000067da1e0a f   mfc100:mfc100.dll
 0001:00020e10       ?Draw@CRectTracker@@QEBAXPEAVCDC@@@Z 0000000067da1e10 f   mfc100:mfc100.dll
 0001:00020e16       ?SetWindowOrg@CDC@@QEAA?AVCPoint@@HH@Z 0000000067da1e16 f   mfc100:mfc100.dll
 0001:00020e1c       ??0CClientDC@@QEAA@PEAVCWnd@@@Z 0000000067da1e1c f   mfc100:mfc100.dll
 0001:00020e22       ?Track@CRectTracker@@QEAAHPEAVCWnd@@VCPoint@@H0@Z 0000000067da1e22 f   mfc100:mfc100.dll
 0001:00020e28       ?TrackRubberBand@CRectTracker@@QEAAHPEAVCWnd@@VCPoint@@H@Z 0000000067da1e28 f   mfc100:mfc100.dll
 0001:00020e2e       ?HitTest@CRectTracker@@QEBAHVCPoint@@@Z 0000000067da1e2e f   mfc100:mfc100.dll
 0001:00020e34       ?GetThisInterfaceMap@CWnd@@KAPEBUAFX_INTERFACEMAP@@XZ 0000000067da1e34 f   mfc100:mfc100.dll
 0001:00020e3a       ?GetThisDispatchMap@CCmdTarget@@KAPEBUAFX_DISPMAP@@XZ 0000000067da1e3a f   mfc100:mfc100.dll
 0001:00020e40       ?DDX_Text@@YAXPEAVCDataExchange@@HAEAI@Z 0000000067da1e40 f   mfc100:mfc100.dll
 0001:00020e46       ?GetThisClass@CFileDialog@@SAPEAUCRuntimeClass@@XZ 0000000067da1e46 f   mfc100:mfc100.dll
 0001:00020e4c       ?GetThisMessageMap@CCommonDialog@@KAPEBUAFX_MSGMAP@@XZ 0000000067da1e4c f   mfc100:mfc100.dll
 0001:00020e52       ?GetFileTitle@CFileDialog@@QEBA?AV?$CStringT@DV?$StrTraitMFC_DLL@DV?$ChTraitsCRT@D@ATL@@@@@ATL@@XZ 0000000067da1e52 f   mfc100:mfc100.dll
 0001:00020e58       ?GetInterfaceMap@CFileDialog@@MEBAPEBUAFX_INTERFACEMAP@@XZ 0000000067da1e58 f   mfc100:mfc100.dll
 0001:00020e5e       ?OnNotify@CFileDialog@@MEAAH_K_JPEA_J@Z 0000000067da1e5e f   mfc100:mfc100.dll
 0001:00020e64       ?OnOK@CCommonDialog@@MEAAXXZ 0000000067da1e64 f   mfc100:mfc100.dll
 0001:00020e6a       ?OnCancel@CCommonDialog@@MEAAXXZ 0000000067da1e6a f   mfc100:mfc100.dll
 0001:00020e70       ?UpdateOFNFromShellDialog@CFileDialog@@UEAAXXZ 0000000067da1e70 f   mfc100:mfc100.dll
 0001:00020e76       ?OnShareViolation@CFileDialog@@MEAAIPEBD@Z 0000000067da1e76 f   mfc100:mfc100.dll
 0001:00020e7c       ?OnFileNameOK@CFileDialog@@MEAAHXZ 0000000067da1e7c f   mfc100:mfc100.dll
 0001:00020e82       ?OnLBSelChangedNotify@CFileDialog@@MEAAXIII@Z 0000000067da1e82 f   mfc100:mfc100.dll
 0001:00020e88       ?OnInitDone@CFileDialog@@MEAAXXZ 0000000067da1e88 f   mfc100:mfc100.dll
 0001:00020e8e       ?OnFileNameChange@CFileDialog@@MEAAXXZ 0000000067da1e8e f   mfc100:mfc100.dll
 0001:00020e94       ?OnFolderChange@CFileDialog@@MEAAXXZ 0000000067da1e94 f   mfc100:mfc100.dll
 0001:00020e9a       ?OnItemSelected@CFileDialog@@MEAAXKK@Z 0000000067da1e9a f   mfc100:mfc100.dll
 0001:00020ea0       ?OnButtonClicked@CFileDialog@@MEAAXK@Z 0000000067da1ea0 f   mfc100:mfc100.dll
 0001:00020ea6       ?OnCheckButtonToggled@CFileDialog@@MEAAXKH@Z 0000000067da1ea6 f   mfc100:mfc100.dll
 0001:00020eac       ?OnControlActivating@CFileDialog@@MEAAXK@Z 0000000067da1eac f   mfc100:mfc100.dll
 0001:00020eb2       ??1CSpinButtonCtrl@@UEAA@XZ 0000000067da1eb2 f   mfc100:mfc100.dll
 0001:00020eb8       ??0CDynLinkLibrary@@QEAA@AEAUAFX_EXTENSION_MODULE@@H@Z 0000000067da1eb8 f   mfc100:mfc100.dll
 0001:00020ebe       ?AfxTermExtensionModule@@YAXAEAUAFX_EXTENSION_MODULE@@H@Z 0000000067da1ebe f   mfc100:mfc100.dll
 0001:00020ec4       ?AfxInitExtensionModule@@YAHAEAUAFX_EXTENSION_MODULE@@PEAUHINSTANCE__@@@Z 0000000067da1ec4 f   mfc100:mfc100.dll
 0001:00020eca       ?GetRuntimeClass@CSpinButtonCtrl@@UEBAPEAUCRuntimeClass@@XZ 0000000067da1eca f   mfc100:mfc100.dll
 0001:00020ed0       ?Create@CSpinButtonCtrl@@UEAAHKAEBUtagRECT@@PEAVCWnd@@I@Z 0000000067da1ed0 f   mfc100:mfc100.dll
 0001:00020ed6       ?CreateEx@CSpinButtonCtrl@@UEAAHKKAEBUtagRECT@@PEAVCWnd@@I@Z 0000000067da1ed6 f   mfc100:mfc100.dll
 0001:00020edc       ?DDV_MinMaxFloat@@YAXPEAVCDataExchange@@AEBMMM@Z 0000000067da1edc f   mfc100:mfc100.dll
 0001:00020ee2       ?DDX_Text@@YAXPEAVCDataExchange@@HAEAK@Z 0000000067da1ee2 f   mfc100:mfc100.dll
 0001:00020ee8       ??1CComBSTR@ATL@@QEAA@XZ   0000000067da1ee8 f i mfcs100:nolib.obj
 0001:00020ef4       ??1stringdispid@CComTypeInfoHolder@ATL@@QEAA@XZ 0000000067da1ef4 f i mfcs100:nolib.obj
 0001:00020f00       ??_Estringdispid@CComTypeInfoHolder@ATL@@QEAAPEAXI@Z 0000000067da1f00 f i mfcs100:nolib.obj
 0001:00020f8c       ?__ArrayUnwind@@YAXPEAX_KHP6AX0@Z@Z 0000000067da1f8c f   msvcrt:ehvecdtr.obj
 0001:00020fd8       ??_M@YAXPEAX_KHP6AX0@Z@Z   0000000067da1fd8 f   msvcrt:ehvecdtr.obj
 0001:00021038       ??0type_info@@AEAA@AEBV0@@Z 0000000067da2038 f   msvcrt:ti_inst.obj
 0001:00021048       ??_Etype_info@@UEAAPEAXI@Z 0000000067da2048 f i msvcrt:ti_inst.obj
 0001:000210b4       ??4type_info@@AEAAAEAV0@AEBV0@@Z 0000000067da20b4 f   msvcrt:ti_inst.obj
 0001:000210b8       strrchr                    0000000067da20b8 f   msvcrt:MSVCR100.dll
 0001:000210be       strstr                     0000000067da20be f   msvcrt:MSVCR100.dll
 0001:000210c4       __CxxFrameHandler3         0000000067da20c4 f   msvcrt:MSVCR100.dll
 0001:000210cc       __GSHandlerCheck_EH        0000000067da20cc f   msvcrt:gshandlereh.obj
 0001:00021170       __security_check_cookie    0000000067da2170 f   msvcrt:amdsecgs.obj
 0001:00021190       memset                     0000000067da2190 f   msvcrt:MSVCR100.dll
 0001:00021196       _vsnprintf                 0000000067da2196 f   msvcrt:MSVCR100.dll
 0001:0002119c       __GSHandlerCheckCommon     0000000067da219c f   msvcrt:gshandler.obj
 0001:00021200       __GSHandlerCheck           0000000067da2200 f   msvcrt:gshandler.obj
 0001:0002121e       _splitpath_s               0000000067da221e f   msvcrt:MSVCR100.dll
 0001:00021224       _onexit                    0000000067da2224 f   msvcrt:atonexit.obj
 0001:000212d4       atexit                     0000000067da22d4 f   msvcrt:atonexit.obj
 0001:000212ec       ??_L@YAXPEAX_KHP6AX0@Z2@Z  0000000067da22ec f   msvcrt:ehvecctr.obj
 0001:00021350       ??0exception@std@@QEAA@AEBQEBD@Z 0000000067da2350 f   msvcrt:MSVCR100.dll
 0001:00021356       ?what@exception@std@@UEBAPEBDXZ 0000000067da2356 f   msvcrt:MSVCR100.dll
 0001:0002135c       ??1exception@std@@UEAA@XZ  0000000067da235c f   msvcrt:MSVCR100.dll
 0001:00021362       memcpy                     0000000067da2362 f   msvcrt:MSVCR100.dll
 0001:00021368       memmove                    0000000067da2368 f   msvcrt:MSVCR100.dll
 0001:0002136e       _CxxThrowException         0000000067da236e f   msvcrt:MSVCR100.dll
 0001:00021374       ??0exception@std@@QEAA@AEBV01@@Z 0000000067da2374 f   msvcrt:MSVCR100.dll
 0001:0002137a       floorf                     0000000067da237a f   msvcrt:MSVCR100.dll
 0001:00021380       NtCurrentTeb               0000000067da2380 f i msvcrt:crtdll.obj
 0001:000213ec       _CRT_INIT                  0000000067da23ec f   msvcrt:crtdll.obj
 0001:00021784       _DllMainCRTStartup         0000000067da2784 f   msvcrt:crtdll.obj
 0001:000217c2       ?terminate@@YAXXZ          0000000067da27c2 f   msvcrt:MSVCR100.dll
 0001:000217c8       __C_specific_handler       0000000067da27c8 f   msvcrt:MSVCR100.dll
 0001:000217d0       __report_gsfailure         0000000067da27d0 f   msvcrt:gs_report.obj
 0001:0002191a       _unlock                    0000000067da291a f   msvcrt:MSVCR100.dll
 0001:00021920       __dllonexit                0000000067da2920 f   msvcrt:MSVCR100.dll
 0001:00021926       _lock                      0000000067da2926 f   msvcrt:MSVCR100.dll
 0001:0002192c       __clean_type_info_names    0000000067da292c f   msvcrt:tncleanup.obj
 0001:00021938       _RTC_Initialize            0000000067da2938 f   msvcrt:_initsect_.obj
 0001:00021970       _RTC_Terminate             0000000067da2970 f   msvcrt:_initsect_.obj
 0001:000219a8       _malloc_crt                0000000067da29a8 f   msvcrt:MSVCR100.dll
 0001:000219b0       _ValidateImageBase         0000000067da29b0 f   msvcrt:pesect.obj
 0001:000219e0       _FindPESection             0000000067da29e0 f   msvcrt:pesect.obj
 0001:00021a30       _IsNonwritableInCurrentImage 0000000067da2a30 f   msvcrt:pesect.obj
 0001:00021a72       _initterm                  0000000067da2a72 f   msvcrt:MSVCR100.dll
 0001:00021a78       _initterm_e                0000000067da2a78 f   msvcrt:MSVCR100.dll
 0001:00021a7e       free                       0000000067da2a7e f   msvcrt:MSVCR100.dll
 0001:00021a84       _encoded_null              0000000067da2a84 f   msvcrt:MSVCR100.dll
 0001:00021a8a       _amsg_exit                 0000000067da2a8a f   msvcrt:MSVCR100.dll
 0001:00021a90       __CppXcptFilter            0000000067da2a90 f   msvcrt:MSVCR100.dll
 0001:00021a98       __security_init_cookie     0000000067da2a98 f   msvcrt:gs_support.obj
 0001:00021b4c       ?_type_info_dtor_internal_method@type_info@@QEAAXXZ 0000000067da2b4c f   msvcrt:MSVCR100.dll
 0001:00021b4c       ??1type_info@@UEAA@XZ      0000000067da2b4c f   msvcrt:MSVCR100.dll
 0001:00021b52       __crt_debugger_hook        0000000067da2b52 f   msvcrt:MSVCR100.dll
 0001:00021b58       __clean_type_info_names_internal 0000000067da2b58 f   msvcrt:MSVCR100.dll
 0001:00021b5e       GetTickCount               0000000067da2b5e f   kernel32:KERNEL32.dll
 0001:00021b64       GetPrivateProfileStringA   0000000067da2b64 f   kernel32:KERNEL32.dll
 0001:00021b6a       Sleep                      0000000067da2b6a f   kernel32:KERNEL32.dll
 0001:00021b70       EncodePointer              0000000067da2b70 f   kernel32:KERNEL32.dll
 0001:00021b76       DecodePointer              0000000067da2b76 f   kernel32:KERNEL32.dll
 0001:00021b7c       TerminateProcess           0000000067da2b7c f   kernel32:KERNEL32.dll
 0001:00021b82       GetCurrentProcess          0000000067da2b82 f   kernel32:KERNEL32.dll
 0001:00021b88       UnhandledExceptionFilter   0000000067da2b88 f   kernel32:KERNEL32.dll
 0001:00021b8e       SetUnhandledExceptionFilter 0000000067da2b8e f   kernel32:KERNEL32.dll
 0001:00021b94       IsDebuggerPresent          0000000067da2b94 f   kernel32:KERNEL32.dll
 0001:00021b9a       RtlVirtualUnwind           0000000067da2b9a f   kernel32:KERNEL32.dll
 0001:00021ba0       RtlLookupFunctionEntry     0000000067da2ba0 f   kernel32:KERNEL32.dll
 0001:00021ba6       RtlCaptureContext          0000000067da2ba6 f   kernel32:KERNEL32.dll
 0001:00021bac       QueryPerformanceCounter    0000000067da2bac f   kernel32:KERNEL32.dll
 0001:00021bb2       GetCurrentThreadId         0000000067da2bb2 f   kernel32:KERNEL32.dll
 0001:00021bb8       GetCurrentProcessId        0000000067da2bb8 f   kernel32:KERNEL32.dll
 0001:00021bbe       GetSystemTimeAsFileTime    0000000067da2bbe f   kernel32:KERNEL32.dll
 0001:00021bc4       GetWindowRect              0000000067da2bc4 f   user32:USER32.dll
 0001:00021bca       SetTimer                   0000000067da2bca f   user32:USER32.dll
 0001:00021bd0       KillTimer                  0000000067da2bd0 f   user32:USER32.dll
 0001:00021bd6       EnableWindow               0000000067da2bd6 f   user32:USER32.dll
 0001:00021bdc       BringWindowToTop           0000000067da2bdc f   user32:USER32.dll
 0001:00021be2       SendMessageA               0000000067da2be2 f   user32:USER32.dll
 0001:00021be8       SetDlgItemTextA            0000000067da2be8 f   user32:USER32.dll
 0001:00021bee       SetForegroundWindow        0000000067da2bee f   user32:USER32.dll
 0001:00021bf4       GetFocus                   0000000067da2bf4 f   user32:USER32.dll
 0001:00021bfa       GetDC                      0000000067da2bfa f   user32:USER32.dll
 0001:00021c00       ReleaseDC                  0000000067da2c00 f   user32:USER32.dll
 0001:00021c06       GetParent                  0000000067da2c06 f   user32:USER32.dll
 0001:00021c0c       GetClientRect              0000000067da2c0c f   user32:USER32.dll
 0001:00021c12       RedrawWindow               0000000067da2c12 f   user32:USER32.dll
 0001:00021c18       OffsetRect                 0000000067da2c18 f   user32:USER32.dll
 0001:00021c1e       FillRect                   0000000067da2c1e f   user32:USER32.dll
 0001:00021c24       InvalidateRect             0000000067da2c24 f   user32:USER32.dll
 0001:00021c2a       TrackMouseEvent            0000000067da2c2a f   user32:USER32.dll
 0001:00021c30       GetSystemMetrics           0000000067da2c30 f   user32:USER32.dll
 0001:00021c36       PtInRect                   0000000067da2c36 f   user32:USER32.dll
 0001:00021c3c       SetRect                    0000000067da2c3c f   user32:USER32.dll
 0001:00021c42       ScreenToClient             0000000067da2c42 f   user32:USER32.dll
 0001:00021c48       LoadCursorA                0000000067da2c48 f   user32:USER32.dll
 0001:00021c4e       SetCursorPos               0000000067da2c4e f   user32:USER32.dll
 0001:00021c54       GetCursorPos               0000000067da2c54 f   user32:USER32.dll
 0001:00021c5a       SetCursor                  0000000067da2c5a f   user32:USER32.dll
 0001:00021c60       IsIconic                   0000000067da2c60 f   user32:USER32.dll
 0001:00021c66       ShowScrollBar              0000000067da2c66 f   user32:USER32.dll
 0001:00021c6c       GetForegroundWindow        0000000067da2c6c f   user32:USER32.dll
 0001:00021c72       GetTextExtentPoint32A      0000000067da2c72 f   gdi32:GDI32.dll
 0001:00021c78       CreatePen                  0000000067da2c78 f   gdi32:GDI32.dll
 0001:00021c7e       CreateSolidBrush           0000000067da2c7e f   gdi32:GDI32.dll
 0001:00021c84       CreateCompatibleBitmap     0000000067da2c84 f   gdi32:GDI32.dll
 0001:00021c8a       CreateRectRgnIndirect      0000000067da2c8a f   gdi32:GDI32.dll
 0001:00021c90       SetRectRgn                 0000000067da2c90 f   gdi32:GDI32.dll
 0001:00021c96       CombineRgn                 0000000067da2c96 f   gdi32:GDI32.dll
 0001:00021c9c       GetRgnBox                  0000000067da2c9c f   gdi32:GDI32.dll
 0001:00021ca2       CreateCompatibleDC         0000000067da2ca2 f   gdi32:GDI32.dll
 0001:00021ca8       FillRgn                    0000000067da2ca8 f   gdi32:GDI32.dll
 0001:00021cae       Rectangle                  0000000067da2cae f   gdi32:GDI32.dll
 0001:00021cb4       BitBlt                     0000000067da2cb4 f   gdi32:GDI32.dll
 0001:00021cba       GetStockObject             0000000067da2cba f   gdi32:GDI32.dll
 0001:00021cc0       GetBkColor                 0000000067da2cc0 f   gdi32:GDI32.dll
 0001:00021cc6       GetSaveFileNameA           0000000067da2cc6 f   comdlg32:COMDLG32.dll
 0001:00021ccc       SysFreeString              0000000067da2ccc f   oleaut32:OLEAUT32.dll
 0001:00021cd2       ?_Xout_of_range@std@@YAXPEBD@Z 0000000067da2cd2 f   msvcprt:MSVCP100.dll
 0001:00021cd8       ?_Xlength_error@std@@YAXPEBD@Z 0000000067da2cd8 f   msvcprt:MSVCP100.dll
 0001:00021cde       ?pptr@?$basic_streambuf@DU?$char_traits@D@std@@@std@@IEBAPEADXZ 0000000067da2cde f   msvcprt:MSVCP100.dll
 0001:00021ce4       ??1?$basic_streambuf@DU?$char_traits@D@std@@@std@@UEAA@XZ 0000000067da2ce4 f   msvcprt:MSVCP100.dll
 0001:00021cea       ?_Lock@?$basic_streambuf@DU?$char_traits@D@std@@@std@@UEAAXXZ 0000000067da2cea f   msvcprt:MSVCP100.dll
 0001:00021cf0       ?_Unlock@?$basic_streambuf@DU?$char_traits@D@std@@@std@@UEAAXXZ 0000000067da2cf0 f   msvcprt:MSVCP100.dll
 0001:00021cf6       ?showmanyc@?$basic_streambuf@DU?$char_traits@D@std@@@std@@MEAA_JXZ 0000000067da2cf6 f   msvcprt:MSVCP100.dll
 0001:00021cfc       ?uflow@?$basic_streambuf@DU?$char_traits@D@std@@@std@@MEAAHXZ 0000000067da2cfc f   msvcprt:MSVCP100.dll
 0001:00021d02       ?xsgetn@?$basic_streambuf@DU?$char_traits@D@std@@@std@@MEAA_JPEAD_J@Z 0000000067da2d02 f   msvcprt:MSVCP100.dll
 0001:00021d08       ?xsputn@?$basic_streambuf@DU?$char_traits@D@std@@@std@@MEAA_JPEBD_J@Z 0000000067da2d08 f   msvcprt:MSVCP100.dll
 0001:00021d0e       ?setbuf@?$basic_streambuf@DU?$char_traits@D@std@@@std@@MEAAPEAV12@PEAD_J@Z 0000000067da2d0e f   msvcprt:MSVCP100.dll
 0001:00021d14       ?sync@?$basic_streambuf@DU?$char_traits@D@std@@@std@@MEAAHXZ 0000000067da2d14 f   msvcprt:MSVCP100.dll
 0001:00021d1a       ?imbue@?$basic_streambuf@DU?$char_traits@D@std@@@std@@MEAAXAEBVlocale@2@@Z 0000000067da2d1a f   msvcprt:MSVCP100.dll
 0001:00021d20       ?gptr@?$basic_streambuf@DU?$char_traits@D@std@@@std@@IEBAPEADXZ 0000000067da2d20 f   msvcprt:MSVCP100.dll
 0001:00021d26       ?pbump@?$basic_streambuf@DU?$char_traits@D@std@@@std@@IEAAXH@Z 0000000067da2d26 f   msvcprt:MSVCP100.dll
 0001:00021d2c       ?gbump@?$basic_streambuf@DU?$char_traits@D@std@@@std@@IEAAXH@Z 0000000067da2d2c f   msvcprt:MSVCP100.dll
 0001:00021d32       ?_Pninc@?$basic_streambuf@DU?$char_traits@D@std@@@std@@IEAAPEADXZ 0000000067da2d32 f   msvcprt:MSVCP100.dll
 0001:00021d38       ??1?$basic_istream@DU?$char_traits@D@std@@@std@@UEAA@XZ 0000000067da2d38 f   msvcprt:MSVCP100.dll
 0001:00021d3e       ??0?$basic_streambuf@DU?$char_traits@D@std@@@std@@IEAA@XZ 0000000067da2d3e f   msvcprt:MSVCP100.dll
 0001:00021d44       ??1?$basic_ios@DU?$char_traits@D@std@@@std@@UEAA@XZ 0000000067da2d44 f   msvcprt:MSVCP100.dll
 0001:00021d4a       ??0?$basic_istream@DU?$char_traits@D@std@@@std@@QEAA@PEAV?$basic_streambuf@DU?$char_traits@D@std@@@1@_N@Z 0000000067da2d4a f   msvcprt:MSVCP100.dll
 0001:00021d50       ??0?$basic_ios@DU?$char_traits@D@std@@@std@@IEAA@XZ 0000000067da2d50 f   msvcprt:MSVCP100.dll
 0001:00021d56       ?eof@ios_base@std@@QEBA_NXZ 0000000067da2d56 f   msvcprt:MSVCP100.dll
 0001:00021d5c       ?fail@ios_base@std@@QEBA_NXZ 0000000067da2d5c f   msvcprt:MSVCP100.dll
 0001:00021d62       ??5?$basic_istream@DU?$char_traits@D@std@@@std@@QEAAAEAV01@P6AAEAV01@AEAV01@@Z@Z 0000000067da2d62 f   msvcprt:MSVCP100.dll
 0001:00021d68       ?ws@std@@YAAEAV?$basic_istream@DU?$char_traits@D@std@@@1@AEAV21@@Z 0000000067da2d68 f   msvcprt:MSVCP100.dll
 0001:00021d6e       ??5?$basic_istream@DU?$char_traits@D@std@@@std@@QEAAAEAV01@AEAN@Z 0000000067da2d6e f   msvcprt:MSVCP100.dll
 0002:00000000       __imp_GetSaveFileNameA     0000000067da6000     comdlg32:COMDLG32.dll
 0002:00000008       \177COMDLG32_NULL_THUNK_DATA 0000000067da6008     comdlg32:COMDLG32.dll
 0002:00000010       __imp_CorAcqGetCap         0000000067da6010     Corapi:CorApi.dll
 0002:00000018       \177CorApi_NULL_THUNK_DATA 0000000067da6018     Corapi:CorApi.dll
 0002:00000020       __imp_CreateSolidBrush     0000000067da6020     gdi32:GDI32.dll
 0002:00000028       __imp_CreateCompatibleBitmap 0000000067da6028     gdi32:GDI32.dll
 0002:00000030       __imp_CreateRectRgnIndirect 0000000067da6030     gdi32:GDI32.dll
 0002:00000038       __imp_SetRectRgn           0000000067da6038     gdi32:GDI32.dll
 0002:00000040       __imp_CombineRgn           0000000067da6040     gdi32:GDI32.dll
 0002:00000048       __imp_CreatePen            0000000067da6048     gdi32:GDI32.dll
 0002:00000050       __imp_CreateCompatibleDC   0000000067da6050     gdi32:GDI32.dll
 0002:00000058       __imp_FillRgn              0000000067da6058     gdi32:GDI32.dll
 0002:00000060       __imp_Rectangle            0000000067da6060     gdi32:GDI32.dll
 0002:00000068       __imp_BitBlt               0000000067da6068     gdi32:GDI32.dll
 0002:00000070       __imp_GetStockObject       0000000067da6070     gdi32:GDI32.dll
 0002:00000078       __imp_GetBkColor           0000000067da6078     gdi32:GDI32.dll
 0002:00000080       __imp_GetTextExtentPoint32A 0000000067da6080     gdi32:GDI32.dll
 0002:00000088       __imp_GetRgnBox            0000000067da6088     gdi32:GDI32.dll
 0002:00000090       \177GDI32_NULL_THUNK_DATA  0000000067da6090     gdi32:GDI32.dll
 0002:00000098       __imp_GetTickCount         0000000067da6098     kernel32:KERNEL32.dll
 0002:000000a0       __imp_Sleep                0000000067da60a0     kernel32:KERNEL32.dll
 0002:000000a8       __imp_EncodePointer        0000000067da60a8     kernel32:KERNEL32.dll
 0002:000000b0       __imp_DecodePointer        0000000067da60b0     kernel32:KERNEL32.dll
 0002:000000b8       __imp_TerminateProcess     0000000067da60b8     kernel32:KERNEL32.dll
 0002:000000c0       __imp_GetCurrentProcess    0000000067da60c0     kernel32:KERNEL32.dll
 0002:000000c8       __imp_UnhandledExceptionFilter 0000000067da60c8     kernel32:KERNEL32.dll
 0002:000000d0       __imp_SetUnhandledExceptionFilter 0000000067da60d0     kernel32:KERNEL32.dll
 0002:000000d8       __imp_IsDebuggerPresent    0000000067da60d8     kernel32:KERNEL32.dll
 0002:000000e0       __imp_RtlVirtualUnwind     0000000067da60e0     kernel32:KERNEL32.dll
 0002:000000e8       __imp_RtlLookupFunctionEntry 0000000067da60e8     kernel32:KERNEL32.dll
 0002:000000f0       __imp_RtlCaptureContext    0000000067da60f0     kernel32:KERNEL32.dll
 0002:000000f8       __imp_QueryPerformanceCounter 0000000067da60f8     kernel32:KERNEL32.dll
 0002:00000100       __imp_GetCurrentThreadId   0000000067da6100     kernel32:KERNEL32.dll
 0002:00000108       __imp_GetCurrentProcessId  0000000067da6108     kernel32:KERNEL32.dll
 0002:00000110       __imp_GetSystemTimeAsFileTime 0000000067da6110     kernel32:KERNEL32.dll
 0002:00000118       __imp_GetPrivateProfileStringA 0000000067da6118     kernel32:KERNEL32.dll
 0002:00000120       \177KERNEL32_NULL_THUNK_DATA 0000000067da6120     kernel32:KERNEL32.dll
 0002:00000128       __imp_??1?$basic_istream@DU?$char_traits@D@std@@@std@@UEAA@XZ 0000000067da6128     msvcprt:MSVCP100.dll
 0002:00000130       __imp_??0?$basic_streambuf@DU?$char_traits@D@std@@@std@@IEAA@XZ 0000000067da6130     msvcprt:MSVCP100.dll
 0002:00000138       __imp_??1?$basic_ios@DU?$char_traits@D@std@@@std@@UEAA@XZ 0000000067da6138     msvcprt:MSVCP100.dll
 0002:00000140       __imp_??0?$basic_istream@DU?$char_traits@D@std@@@std@@QEAA@PEAV?$basic_streambuf@DU?$char_traits@D@std@@@1@_N@Z 0000000067da6140     msvcprt:MSVCP100.dll
 0002:00000148       __imp_?_Pninc@?$basic_streambuf@DU?$char_traits@D@std@@@std@@IEAAPEADXZ 0000000067da6148     msvcprt:MSVCP100.dll
 0002:00000150       __imp_?eof@ios_base@std@@QEBA_NXZ 0000000067da6150     msvcprt:MSVCP100.dll
 0002:00000158       __imp_?fail@ios_base@std@@QEBA_NXZ 0000000067da6158     msvcprt:MSVCP100.dll
 0002:00000160       __imp_??5?$basic_istream@DU?$char_traits@D@std@@@std@@QEAAAEAV01@P6AAEAV01@AEAV01@@Z@Z 0000000067da6160     msvcprt:MSVCP100.dll
 0002:00000168       __imp_?ws@std@@YAAEAV?$basic_istream@DU?$char_traits@D@std@@@1@AEAV21@@Z 0000000067da6168     msvcprt:MSVCP100.dll
 0002:00000170       __imp_??5?$basic_istream@DU?$char_traits@D@std@@@std@@QEAAAEAV01@AEAN@Z 0000000067da6170     msvcprt:MSVCP100.dll
 0002:00000178       __imp_?_BADOFF@std@@3_JB   0000000067da6178     msvcprt:MSVCP100.dll
 0002:00000180       __imp_?gbump@?$basic_streambuf@DU?$char_traits@D@std@@@std@@IEAAXH@Z 0000000067da6180     msvcprt:MSVCP100.dll
 0002:00000188       __imp_?pbump@?$basic_streambuf@DU?$char_traits@D@std@@@std@@IEAAXH@Z 0000000067da6188     msvcprt:MSVCP100.dll
 0002:00000190       __imp_?gptr@?$basic_streambuf@DU?$char_traits@D@std@@@std@@IEBAPEADXZ 0000000067da6190     msvcprt:MSVCP100.dll
 0002:00000198       __imp_?imbue@?$basic_streambuf@DU?$char_traits@D@std@@@std@@MEAAXAEBVlocale@2@@Z 0000000067da6198     msvcprt:MSVCP100.dll
 0002:000001a0       __imp_?sync@?$basic_streambuf@DU?$char_traits@D@std@@@std@@MEAAHXZ 0000000067da61a0     msvcprt:MSVCP100.dll
 0002:000001a8       __imp_?_Xout_of_range@std@@YAXPEBD@Z 0000000067da61a8     msvcprt:MSVCP100.dll
 0002:000001b0       __imp_?_Xlength_error@std@@YAXPEBD@Z 0000000067da61b0     msvcprt:MSVCP100.dll
 0002:000001b8       __imp_?pptr@?$basic_streambuf@DU?$char_traits@D@std@@@std@@IEBAPEADXZ 0000000067da61b8     msvcprt:MSVCP100.dll
 0002:000001c0       __imp_??1?$basic_streambuf@DU?$char_traits@D@std@@@std@@UEAA@XZ 0000000067da61c0     msvcprt:MSVCP100.dll
 0002:000001c8       __imp_?_Lock@?$basic_streambuf@DU?$char_traits@D@std@@@std@@UEAAXXZ 0000000067da61c8     msvcprt:MSVCP100.dll
 0002:000001d0       __imp_?_Unlock@?$basic_streambuf@DU?$char_traits@D@std@@@std@@UEAAXXZ 0000000067da61d0     msvcprt:MSVCP100.dll
 0002:000001d8       __imp_?showmanyc@?$basic_streambuf@DU?$char_traits@D@std@@@std@@MEAA_JXZ 0000000067da61d8     msvcprt:MSVCP100.dll
 0002:000001e0       __imp_?uflow@?$basic_streambuf@DU?$char_traits@D@std@@@std@@MEAAHXZ 0000000067da61e0     msvcprt:MSVCP100.dll
 0002:000001e8       __imp_?xsgetn@?$basic_streambuf@DU?$char_traits@D@std@@@std@@MEAA_JPEAD_J@Z 0000000067da61e8     msvcprt:MSVCP100.dll
 0002:000001f0       __imp_?xsputn@?$basic_streambuf@DU?$char_traits@D@std@@@std@@MEAA_JPEBD_J@Z 0000000067da61f0     msvcprt:MSVCP100.dll
 0002:000001f8       __imp_??0?$basic_ios@DU?$char_traits@D@std@@@std@@IEAA@XZ 0000000067da61f8     msvcprt:MSVCP100.dll
 0002:00000200       __imp_?setbuf@?$basic_streambuf@DU?$char_traits@D@std@@@std@@MEAAPEAV12@PEAD_J@Z 0000000067da6200     msvcprt:MSVCP100.dll
 0002:00000208       \177MSVCP100_NULL_THUNK_DATA 0000000067da6208     msvcprt:MSVCP100.dll
 0002:00000210       __imp_strrchr              0000000067da6210     msvcrt:MSVCR100.dll
 0002:00000218       __imp___CxxFrameHandler3   0000000067da6218     msvcrt:MSVCR100.dll
 0002:00000220       __imp_memset               0000000067da6220     msvcrt:MSVCR100.dll
 0002:00000228       __imp__vsnprintf           0000000067da6228     msvcrt:MSVCR100.dll
 0002:00000230       __imp__splitpath_s         0000000067da6230     msvcrt:MSVCR100.dll
 0002:00000238       __imp_??0exception@std@@QEAA@AEBQEBD@Z 0000000067da6238     msvcrt:MSVCR100.dll
 0002:00000240       __imp_?what@exception@std@@UEBAPEBDXZ 0000000067da6240     msvcrt:MSVCR100.dll
 0002:00000248       __imp_??1exception@std@@UEAA@XZ 0000000067da6248     msvcrt:MSVCR100.dll
 0002:00000250       __imp_memcpy               0000000067da6250     msvcrt:MSVCR100.dll
 0002:00000258       __imp_memmove              0000000067da6258     msvcrt:MSVCR100.dll
 0002:00000260       __imp__CxxThrowException   0000000067da6260     msvcrt:MSVCR100.dll
 0002:00000268       __imp_??0exception@std@@QEAA@AEBV01@@Z 0000000067da6268     msvcrt:MSVCR100.dll
 0002:00000270       __imp_floorf               0000000067da6270     msvcrt:MSVCR100.dll
 0002:00000278       __imp_?terminate@@YAXXZ    0000000067da6278     msvcrt:MSVCR100.dll
 0002:00000280       __imp___C_specific_handler 0000000067da6280     msvcrt:MSVCR100.dll
 0002:00000288       __imp__unlock              0000000067da6288     msvcrt:MSVCR100.dll
 0002:00000290       __imp___dllonexit          0000000067da6290     msvcrt:MSVCR100.dll
 0002:00000298       __imp__lock                0000000067da6298     msvcrt:MSVCR100.dll
 0002:000002a0       __imp__onexit              0000000067da62a0     msvcrt:MSVCR100.dll
 0002:000002a8       __imp__malloc_crt          0000000067da62a8     msvcrt:MSVCR100.dll
 0002:000002b0       __imp__initterm            0000000067da62b0     msvcrt:MSVCR100.dll
 0002:000002b8       __imp__initterm_e          0000000067da62b8     msvcrt:MSVCR100.dll
 0002:000002c0       __imp_free                 0000000067da62c0     msvcrt:MSVCR100.dll
 0002:000002c8       __imp__encoded_null        0000000067da62c8     msvcrt:MSVCR100.dll
 0002:000002d0       __imp__amsg_exit           0000000067da62d0     msvcrt:MSVCR100.dll
 0002:000002d8       __imp___CppXcptFilter      0000000067da62d8     msvcrt:MSVCR100.dll
 0002:000002e0       __imp_?_type_info_dtor_internal_method@type_info@@QEAAXXZ 0000000067da62e0     msvcrt:MSVCR100.dll
 0002:000002e8       __imp___crt_debugger_hook  0000000067da62e8     msvcrt:MSVCR100.dll
 0002:000002f0       __imp___clean_type_info_names_internal 0000000067da62f0     msvcrt:MSVCR100.dll
 0002:000002f8       __imp_strstr               0000000067da62f8     msvcrt:MSVCR100.dll
 0002:00000300       \177MSVCR100_NULL_THUNK_DATA 0000000067da6300     msvcrt:MSVCR100.dll
 0002:00000308       __imp_SysFreeString        0000000067da6308     oleaut32:OLEAUT32.dll
 0002:00000310       \177OLEAUT32_NULL_THUNK_DATA 0000000067da6310     oleaut32:OLEAUT32.dll
 0002:00000318       __imp_?GetLastStatus@SapManager@@SAPEBDXZ 0000000067da6318     SapClassBasic:SapClassBasic82.dll
 0002:00000320       __imp_??1SapFlatFieldStats@@QEAA@XZ 0000000067da6320     SapClassBasic:SapClassBasic82.dll
 0002:00000328       __imp_??0SapFlatFieldStats@@QEAA@XZ 0000000067da6328     SapClassBasic:SapClassBasic82.dll
 0002:00000330       __imp_??1SapFlatFieldDefects@@QEAA@XZ 0000000067da6330     SapClassBasic:SapClassBasic82.dll
 0002:00000338       __imp_?GetNumDefects@SapFlatFieldDefects@@QEBAHXZ 0000000067da6338     SapClassBasic:SapClassBasic82.dll
 0002:00000340       __imp_?GetDefectRatio@SapFlatFieldDefects@@QEBAMXZ 0000000067da6340     SapClassBasic:SapClassBasic82.dll
 0002:00000348       __imp_?GetNumClusters@SapFlatFieldDefects@@QEBAHXZ 0000000067da6348     SapClassBasic:SapClassBasic82.dll
 0002:00000350       __imp_??0SapFlatFieldDefects@@QEAA@XZ 0000000067da6350     SapClassBasic:SapClassBasic82.dll
 0002:00000358       __imp_?Load@SapBuffer@@UEAAHPEBD0HH@Z 0000000067da6358     SapClassBasic:SapClassBasic82.dll
 0002:00000360       __imp_?Create@SapBuffer@@UEAAHXZ 0000000067da6360     SapClassBasic:SapClassBasic82.dll
 0002:00000368       __imp_??0SapBuffer@@QEAA@PEBDHVSapLocation@@@Z 0000000067da6368     SapClassBasic:SapClassBasic82.dll
 0002:00000370       __imp_??0SapBuffer@@QEAA@HPEAVSapXferNode@@HVSapLocation@@@Z 0000000067da6370     SapClassBasic:SapClassBasic82.dll
 0002:00000378       __imp_?Destroy@SapBuffer@@UEAAHXZ 0000000067da6378     SapClassBasic:SapClassBasic82.dll
 0002:00000380       __imp_?GetXferParams@SapXferNode@@UEBA?AVSapXferParams@@H@Z 0000000067da6380     SapClassBasic:SapClassBasic82.dll
 0002:00000388       __imp_?GetInputXferParams@SapXferNode@@UEBA?AVSapXferParams@@H@Z 0000000067da6388     SapClassBasic:SapClassBasic82.dll
 0002:00000390       __imp_?GetOutputXferParams@SapXferNode@@UEBA?AVSapXferParams@@H@Z 0000000067da6390     SapClassBasic:SapClassBasic82.dll
 0002:00000398       __imp_?SetSrcNode@SapXferNode@@UEAAHPEAV1@H@Z 0000000067da6398     SapClassBasic:SapClassBasic82.dll
 0002:000003a0       __imp_?SetXferParams@SapXferNode@@UEAAHVSapXferParams@@H@Z 0000000067da63a0     SapClassBasic:SapClassBasic82.dll
 0002:000003a8       __imp_?SetInputXferParams@SapXferNode@@UEAAHVSapXferParams@@H@Z 0000000067da63a8     SapClassBasic:SapClassBasic82.dll
 0002:000003b0       __imp_?SetOutputXferParams@SapXferNode@@UEAAHVSapXferParams@@H@Z 0000000067da63b0     SapClassBasic:SapClassBasic82.dll
 0002:000003b8       __imp_?GetHandle@SapBuffer@@UEBAPEAU__CORHANDLE@@H@Z 0000000067da63b8     SapClassBasic:SapClassBasic82.dll
 0002:000003c0       __imp_?GetHandle@SapBuffer@@UEBAPEAU__CORHANDLE@@XZ 0000000067da63c0     SapClassBasic:SapClassBasic82.dll
 0002:000003c8       __imp_?GetXferParamsFromSrcNode@SapXferNode@@UEAAXXZ 0000000067da63c8     SapClassBasic:SapClassBasic82.dll
 0002:000003d0       __imp_?GetXferNodeType@SapBuffer@@UEAA?AW4XferNodeType@SapXferNode@@XZ 0000000067da63d0     SapClassBasic:SapClassBasic82.dll
 0002:000003d8       __imp_?IsBuffer@SapXferNode@@UEAAHXZ 0000000067da63d8     SapClassBasic:SapClassBasic82.dll
 0002:000003e0       __imp_??ASapBuffer@@UEBAPEAU__CORHANDLE@@H@Z 0000000067da63e0     SapClassBasic:SapClassBasic82.dll
 0002:000003e8       __imp_?GetCount@SapBuffer@@UEBAHXZ 0000000067da63e8     SapClassBasic:SapClassBasic82.dll
 0002:000003f0       __imp_?GetIndex@SapBuffer@@UEBAHXZ 0000000067da63f0     SapClassBasic:SapClassBasic82.dll
 0002:000003f8       __imp_?SetIndex@SapBuffer@@UEAAHH@Z 0000000067da63f8     SapClassBasic:SapClassBasic82.dll
 0002:00000400       __imp_?ResetIndex@SapBuffer@@UEAAXXZ 0000000067da6400     SapClassBasic:SapClassBasic82.dll
 0002:00000408       __imp_?Next@SapBuffer@@UEAAXXZ 0000000067da6408     SapClassBasic:SapClassBasic82.dll
 0002:00000410       __imp_?GetTrash@SapBuffer@@UEBAPEAU__CORHANDLE@@XZ 0000000067da6410     SapClassBasic:SapClassBasic82.dll
 0002:00000418       __imp_?Empty@SapBuffer@@UEAAHH@Z 0000000067da6418     SapClassBasic:SapClassBasic82.dll
 0002:00000420       __imp_?Empty@SapBuffer@@UEAAHXZ 0000000067da6420     SapClassBasic:SapClassBasic82.dll
 0002:00000428       __imp_?EmptyAll@SapBuffer@@UEAAHXZ 0000000067da6428     SapClassBasic:SapClassBasic82.dll
 0002:00000430       __imp_?SetCount@SapBuffer@@UEAAHH@Z 0000000067da6430     SapClassBasic:SapClassBasic82.dll
 0002:00000438       __imp_?SetWidth@SapBuffer@@UEAAHH@Z 0000000067da6438     SapClassBasic:SapClassBasic82.dll
 0002:00000440       __imp_?SetHeight@SapBuffer@@UEAAHH@Z 0000000067da6440     SapClassBasic:SapClassBasic82.dll
 0002:00000448       __imp_?SetFormat@SapBuffer@@UEAAHH@Z 0000000067da6448     SapClassBasic:SapClassBasic82.dll
 0002:00000450       __imp_?SetType@SapBuffer@@UEAAHH@Z 0000000067da6450     SapClassBasic:SapClassBasic82.dll
 0002:00000458       __imp_?SetPixelDepth@SapBuffer@@UEAAHH@Z 0000000067da6458     SapClassBasic:SapClassBasic82.dll
 0002:00000460       __imp_?SetVirtualAddress@SapBuffer@@UEAAHQEAPEAX@Z 0000000067da6460     SapClassBasic:SapClassBasic82.dll
 0002:00000468       __imp_?SetPhysicalAddress@SapBuffer@@UEAAHQEA_K@Z 0000000067da6468     SapClassBasic:SapClassBasic82.dll
 0002:00000470       __imp_?SetParameters@SapBuffer@@UEAAHHQEA_KHHHH@Z 0000000067da6470     SapClassBasic:SapClassBasic82.dll
 0002:00000478       __imp_?SetParameters@SapBuffer@@UEAAHHQEAPEAXHHHH@Z 0000000067da6478     SapClassBasic:SapClassBasic82.dll
 0002:00000480       __imp_?SetParameters@SapBuffer@@UEAAHHHHHH@Z 0000000067da6480     SapClassBasic:SapClassBasic82.dll
 0002:00000488       __imp_?SetParametersFromFile@SapBuffer@@UEAAHPEBDH@Z 0000000067da6488     SapClassBasic:SapClassBasic82.dll
 0002:00000490       __imp_?SetFrameRate@SapBuffer@@UEAAXM@Z 0000000067da6490     SapClassBasic:SapClassBasic82.dll
 0002:00000498       __imp_?GetAddress@SapBuffer@@UEAAHH_K0PEAXPEAPEAX@Z 0000000067da6498     SapClassBasic:SapClassBasic82.dll
 0002:000004a0       __imp_?GetAddress@SapBuffer@@UEAAHH_K0PEAPEAX@Z 0000000067da64a0     SapClassBasic:SapClassBasic82.dll
 0002:000004a8       __imp_?GetAddress@SapBuffer@@UEAAH_K0PEAXPEAPEAX@Z 0000000067da64a8     SapClassBasic:SapClassBasic82.dll
 0002:000004b0       __imp_?GetAddress@SapBuffer@@UEAAH_K0PEAPEAX@Z 0000000067da64b0     SapClassBasic:SapClassBasic82.dll
 0002:000004b8       __imp_?GetAddress@SapBuffer@@UEAAHHPEAXPEAPEAX@Z 0000000067da64b8     SapClassBasic:SapClassBasic82.dll
 0002:000004c0       __imp_?GetAddress@SapBuffer@@UEAAHHPEAPEAX@Z 0000000067da64c0     SapClassBasic:SapClassBasic82.dll
 0002:000004c8       __imp_?GetAddress@SapBuffer@@UEAAHPEAXPEAPEAX@Z 0000000067da64c8     SapClassBasic:SapClassBasic82.dll
 0002:000004d0       __imp_?GetAddress@SapBuffer@@UEAAHPEAPEAX@Z 0000000067da64d0     SapClassBasic:SapClassBasic82.dll
 0002:000004d8       __imp_?ReleaseAddress@SapBuffer@@UEAAHHPEAX@Z 0000000067da64d8     SapClassBasic:SapClassBasic82.dll
 0002:000004e0       __imp_?ReleaseAddress@SapBuffer@@UEAAHPEAX@Z 0000000067da64e0     SapClassBasic:SapClassBasic82.dll
 0002:000004e8       __imp_?IsMapped@SapBuffer@@UEAAHXZ 0000000067da64e8     SapClassBasic:SapClassBasic82.dll
 0002:000004f0       __imp_?IsMapped@SapBuffer@@UEAAHH@Z 0000000067da64f0     SapClassBasic:SapClassBasic82.dll
 0002:000004f8       __imp_?GetCounterStamp@SapBuffer@@UEAAHHPEAH@Z 0000000067da64f8     SapClassBasic:SapClassBasic82.dll
 0002:00000500       __imp_?GetCounterStamp@SapBuffer@@UEAAHPEAH@Z 0000000067da6500     SapClassBasic:SapClassBasic82.dll
 0002:00000508       __imp_?GetHostCounterStamp@SapBuffer@@UEAAHHPEA_K@Z 0000000067da6508     SapClassBasic:SapClassBasic82.dll
 0002:00000510       __imp_?GetHostCounterStamp@SapBuffer@@UEAAHPEA_K@Z 0000000067da6510     SapClassBasic:SapClassBasic82.dll
 0002:00000518       __imp_?GetDeviceTimeStamp@SapBuffer@@UEAAHHPEA_K@Z 0000000067da6518     SapClassBasic:SapClassBasic82.dll
 0002:00000520       __imp_?GetDeviceTimeStamp@SapBuffer@@UEAAHPEA_K@Z 0000000067da6520     SapClassBasic:SapClassBasic82.dll
 0002:00000528       __imp_?GetSpaceUsed@SapBuffer@@UEAAHHPEAH@Z 0000000067da6528     SapClassBasic:SapClassBasic82.dll
 0002:00000530       __imp_?GetSpaceUsed@SapBuffer@@UEAAHPEAH@Z 0000000067da6530     SapClassBasic:SapClassBasic82.dll
 0002:00000538       __imp_?GetHandles@SapBuffer@@UEBAPEAPEAU__CORHANDLE@@XZ 0000000067da6538     SapClassBasic:SapClassBasic82.dll
 0002:00000540       __imp_?IsCapabilityValid@SapBuffer@@UEAAHH@Z 0000000067da6540     SapClassBasic:SapClassBasic82.dll
 0002:00000548       __imp_?GetCapability@SapBuffer@@UEAAHHHPEAX@Z 0000000067da6548     SapClassBasic:SapClassBasic82.dll
 0002:00000550       __imp_?GetCapability@SapBuffer@@UEAAHHPEAX@Z 0000000067da6550     SapClassBasic:SapClassBasic82.dll
 0002:00000558       __imp_?IsParameterValid@SapBuffer@@UEAAHHH@Z 0000000067da6558     SapClassBasic:SapClassBasic82.dll
 0002:00000560       __imp_?IsParameterValid@SapBuffer@@UEAAHH@Z 0000000067da6560     SapClassBasic:SapClassBasic82.dll
 0002:00000568       __imp_?GetParameter@SapBuffer@@UEAAHHHPEAX@Z 0000000067da6568     SapClassBasic:SapClassBasic82.dll
 0002:00000570       __imp_?GetParameter@SapBuffer@@UEAAHHPEAX@Z 0000000067da6570     SapClassBasic:SapClassBasic82.dll
 0002:00000578       __imp_?SetParameter@SapBuffer@@UEAAHHHPEAX@Z 0000000067da6578     SapClassBasic:SapClassBasic82.dll
 0002:00000580       __imp_?SetParameter@SapBuffer@@UEAAHHPEAX@Z 0000000067da6580     SapClassBasic:SapClassBasic82.dll
 0002:00000588       __imp_?SetParameter@SapBuffer@@UEAAHHHH@Z 0000000067da6588     SapClassBasic:SapClassBasic82.dll
 0002:00000590       __imp_?SetParameter@SapBuffer@@UEAAHHH@Z 0000000067da6590     SapClassBasic:SapClassBasic82.dll
 0002:00000598       __imp_?GetParent@SapBuffer@@UEAAPEAV1@XZ 0000000067da6598     SapClassBasic:SapClassBasic82.dll
 0002:000005a0       __imp_?GetRoot@SapBuffer@@UEAAPEAV1@XZ 0000000067da65a0     SapClassBasic:SapClassBasic82.dll
 0002:000005a8       __imp_?SetState@SapBuffer@@UEAAHHH@Z 0000000067da65a8     SapClassBasic:SapClassBasic82.dll
 0002:000005b0       __imp_?SetState@SapBuffer@@UEAAHH@Z 0000000067da65b0     SapClassBasic:SapClassBasic82.dll
 0002:000005b8       __imp_?SetAllState@SapBuffer@@UEAAHH@Z 0000000067da65b8     SapClassBasic:SapClassBasic82.dll
 0002:000005c0       __imp_?GetState@SapBuffer@@UEAAHHPEAH@Z 0000000067da65c0     SapClassBasic:SapClassBasic82.dll
 0002:000005c8       __imp_?GetState@SapBuffer@@UEAAHPEAH@Z 0000000067da65c8     SapClassBasic:SapClassBasic82.dll
 0002:000005d0       __imp_?GetNumPages@SapBuffer@@UEAAHPEAH@Z 0000000067da65d0     SapClassBasic:SapClassBasic82.dll
 0002:000005d8       __imp_?SetPage@SapBuffer@@UEAAHHH@Z 0000000067da65d8     SapClassBasic:SapClassBasic82.dll
 0002:000005e0       __imp_?SetPage@SapBuffer@@UEAAHH@Z 0000000067da65e0     SapClassBasic:SapClassBasic82.dll
 0002:000005e8       __imp_?SetAllPage@SapBuffer@@UEAAHH@Z 0000000067da65e8     SapClassBasic:SapClassBasic82.dll
 0002:000005f0       __imp_?GetPage@SapBuffer@@UEAAHHPEAH@Z 0000000067da65f0     SapClassBasic:SapClassBasic82.dll
 0002:000005f8       __imp_?GetPage@SapBuffer@@UEAAHPEAH@Z 0000000067da65f8     SapClassBasic:SapClassBasic82.dll
 0002:00000600       __imp_?IsMultiFormat@SapBuffer@@UEAAHXZ 0000000067da6600     SapClassBasic:SapClassBasic82.dll
 0002:00000608       __imp_?GetPageFormat@SapBuffer@@UEAAHPEAH@Z 0000000067da6608     SapClassBasic:SapClassBasic82.dll
 0002:00000610       __imp_?Clear@SapBuffer@@UEAAHHVSapData@@@Z 0000000067da6610     SapClassBasic:SapClassBasic82.dll
 0002:00000618       __imp_?Clear@SapBuffer@@UEAAHVSapData@@@Z 0000000067da6618     SapClassBasic:SapClassBasic82.dll
 0002:00000620       __imp_?Clear@SapBuffer@@UEAAHH@Z 0000000067da6620     SapClassBasic:SapClassBasic82.dll
 0002:00000628       __imp_?Clear@SapBuffer@@UEAAHXZ 0000000067da6628     SapClassBasic:SapClassBasic82.dll
 0002:00000630       __imp_?Load@SapBuffer@@UEAAHPEBDHHH0@Z 0000000067da6630     SapClassBasic:SapClassBasic82.dll
 0002:00000638       __imp_?Save@SapBuffer@@UEAAHPEBD0HH@Z 0000000067da6638     SapClassBasic:SapClassBasic82.dll
 0002:00000640       __imp_?Read@SapBuffer@@UEAAHH_KHPEAX@Z 0000000067da6640     SapClassBasic:SapClassBasic82.dll
 0002:00000648       __imp_?Read@SapBuffer@@UEAAH_KHPEAX@Z 0000000067da6648     SapClassBasic:SapClassBasic82.dll
 0002:00000650       __imp_?ReadElement@SapBuffer@@UEAAHHHPEAH00@Z 0000000067da6650     SapClassBasic:SapClassBasic82.dll
 0002:00000658       __imp_?ReadElement@SapBuffer@@UEAAHHHHPEAVSapData@@@Z 0000000067da6658     SapClassBasic:SapClassBasic82.dll
 0002:00000660       __imp_?ReadElement@SapBuffer@@UEAAHHHPEAVSapData@@@Z 0000000067da6660     SapClassBasic:SapClassBasic82.dll
 0002:00000668       __imp_?ReadElement@SapBuffer@@UEAAHHHHPEAX@Z 0000000067da6668     SapClassBasic:SapClassBasic82.dll
 0002:00000670       __imp_?ReadElement@SapBuffer@@UEAAHHHPEAX@Z 0000000067da6670     SapClassBasic:SapClassBasic82.dll
 0002:00000678       __imp_?ReadLine@SapBuffer@@UEAAHHHHHHPEAXPEAH@Z 0000000067da6678     SapClassBasic:SapClassBasic82.dll
 0002:00000680       __imp_?ReadLine@SapBuffer@@UEAAHHHHHPEAXPEAH@Z 0000000067da6680     SapClassBasic:SapClassBasic82.dll
 0002:00000688       __imp_?ReadRect@SapBuffer@@UEAAHHHHHHPEAX@Z 0000000067da6688     SapClassBasic:SapClassBasic82.dll
 0002:00000690       __imp_?ReadRect@SapBuffer@@UEAAHHHHHPEAX@Z 0000000067da6690     SapClassBasic:SapClassBasic82.dll
 0002:00000698       __imp_?Write@SapBuffer@@UEAAHH_KHPEBX@Z 0000000067da6698     SapClassBasic:SapClassBasic82.dll
 0002:000006a0       __imp_?Write@SapBuffer@@UEAAH_KHPEBX@Z 0000000067da66a0     SapClassBasic:SapClassBasic82.dll
 0002:000006a8       __imp_?WriteElement@SapBuffer@@UEAAHHHHVSapData@@@Z 0000000067da66a8     SapClassBasic:SapClassBasic82.dll
 0002:000006b0       __imp_?WriteElement@SapBuffer@@UEAAHHHVSapData@@@Z 0000000067da66b0     SapClassBasic:SapClassBasic82.dll
 0002:000006b8       __imp_?WriteElement@SapBuffer@@UEAAHHHHPEBX@Z 0000000067da66b8     SapClassBasic:SapClassBasic82.dll
 0002:000006c0       __imp_?WriteElement@SapBuffer@@UEAAHHHPEBX@Z 0000000067da66c0     SapClassBasic:SapClassBasic82.dll
 0002:000006c8       __imp_?WriteLine@SapBuffer@@UEAAHHHHHHPEBXPEAH@Z 0000000067da66c8     SapClassBasic:SapClassBasic82.dll
 0002:000006d0       __imp_?WriteLine@SapBuffer@@UEAAHHHHHPEBXPEAH@Z 0000000067da66d0     SapClassBasic:SapClassBasic82.dll
 0002:000006d8       __imp_?WriteRect@SapBuffer@@UEAAHHHHHHPEBX@Z 0000000067da66d8     SapClassBasic:SapClassBasic82.dll
 0002:000006e0       __imp_?WriteRect@SapBuffer@@UEAAHHHHHPEBX@Z 0000000067da66e0     SapClassBasic:SapClassBasic82.dll
 0002:000006e8       __imp_?Copy@SapBuffer@@UEAAHPEAV1@HH@Z 0000000067da66e8     SapClassBasic:SapClassBasic82.dll
 0002:000006f0       __imp_?Copy@SapBuffer@@UEAAHPEAV1@@Z 0000000067da66f0     SapClassBasic:SapClassBasic82.dll
 0002:000006f8       __imp_?CopyAll@SapBuffer@@UEAAHPEAV1@@Z 0000000067da66f8     SapClassBasic:SapClassBasic82.dll
 0002:00000700       __imp_?GetCommandTimeout@SapManager@@SAHXZ 0000000067da6700     SapClassBasic:SapClassBasic82.dll
 0002:00000708       __imp_?ColorConvert@SapBuffer@@UEAAHPEAV1@HHHHVSapDataFRGB@@PEAVSapLut@@@Z 0000000067da6708     SapClassBasic:SapClassBasic82.dll
 0002:00000710       __imp_?ColorConvert@SapBuffer@@UEAAHPEAV1@HHVSapDataFRGB@@PEAVSapLut@@@Z 0000000067da6710     SapClassBasic:SapClassBasic82.dll
 0002:00000718       __imp_?ColorWhiteBalance@SapBuffer@@UEAAHHHPEAVSapDataFRGB@@@Z 0000000067da6718     SapClassBasic:SapClassBasic82.dll
 0002:00000720       __imp_?ColorWhiteBalance@SapBuffer@@UEAAHHPEAVSapDataFRGB@@@Z 0000000067da6720     SapClassBasic:SapClassBasic82.dll
 0002:00000728       __imp_?SplitComponents@SapBuffer@@UEAAHPEAV1@00H@Z 0000000067da6728     SapClassBasic:SapClassBasic82.dll
 0002:00000730       __imp_?SplitComponents@SapBuffer@@UEAAHPEAV1@00@Z 0000000067da6730     SapClassBasic:SapClassBasic82.dll
 0002:00000738       __imp_?SplitComponents@SapBuffer@@UEAAHPEAV1@H@Z 0000000067da6738     SapClassBasic:SapClassBasic82.dll
 0002:00000740       __imp_?SplitComponents@SapBuffer@@UEAAHPEAV1@@Z 0000000067da6740     SapClassBasic:SapClassBasic82.dll
 0002:00000748       __imp_?MergeComponents@SapBuffer@@UEAAHPEAV1@00H@Z 0000000067da6748     SapClassBasic:SapClassBasic82.dll
 0002:00000750       __imp_?MergeComponents@SapBuffer@@UEAAHPEAV1@00@Z 0000000067da6750     SapClassBasic:SapClassBasic82.dll
 0002:00000758       __imp_?MergeComponents@SapBuffer@@UEAAHPEAV1@H@Z 0000000067da6758     SapClassBasic:SapClassBasic82.dll
 0002:00000760       __imp_?MergeComponents@SapBuffer@@UEAAHPEAV1@@Z 0000000067da6760     SapClassBasic:SapClassBasic82.dll
 0002:00000768       __imp_?Register@SapBuffer@@UEAAHPEBD@Z 0000000067da6768     SapClassBasic:SapClassBasic82.dll
 0002:00000770       __imp_?Unregister@SapBuffer@@UEAAHXZ 0000000067da6770     SapClassBasic:SapClassBasic82.dll
 0002:00000778       __imp_?GetNumRoi@SapBuffer@@UEBAHXZ 0000000067da6778     SapClassBasic:SapClassBasic82.dll
 0002:00000780       __imp_?GetRoi@SapBuffer@@UEBAQEAUtagRECT@@H@Z 0000000067da6780     SapClassBasic:SapClassBasic82.dll
 0002:00000788       __imp_?AddRoi@SapBuffer@@UEAAHUtagRECT@@@Z 0000000067da6788     SapClassBasic:SapClassBasic82.dll
 0002:00000790       __imp_?RemoveAllRoi@SapBuffer@@UEAAHXZ 0000000067da6790     SapClassBasic:SapClassBasic82.dll
 0002:00000798       __imp_?WriteFile@SapAcqDevice@@QEAAHPEBDH@Z 0000000067da6798     SapClassBasic:SapClassBasic82.dll
 0002:000007a0       __imp_?BayerConvert@SapBuffer@@UEAAHPEAV1@HHHHVSapDataFRGB@@PEAVSapLut@@@Z 0000000067da67a0     SapClassBasic:SapClassBasic82.dll
 0002:000007a8       __imp_?BayerConvert@SapBuffer@@UEAAHPEAV1@HHVSapDataFRGB@@PEAVSapLut@@@Z 0000000067da67a8     SapClassBasic:SapClassBasic82.dll
 0002:000007b0       __imp_?BayerWhiteBalance@SapBuffer@@UEAAHHHPEAVSapDataFRGB@@@Z 0000000067da67b0     SapClassBasic:SapClassBasic82.dll
 0002:000007b8       __imp_?BayerWhiteBalance@SapBuffer@@UEAAHHPEAVSapDataFRGB@@@Z 0000000067da67b8     SapClassBasic:SapClassBasic82.dll
 0002:000007c0       __imp_?Construct@SapBuffer@@MEAAXPEBDPEAVSapDisplay@@@Z 0000000067da67c0     SapClassBasic:SapClassBasic82.dll
 0002:000007c8       __imp_?GetPinNumber@SapGioCallbackInfo@@QEBAHXZ 0000000067da67c8     SapClassBasic:SapClassBasic82.dll
 0002:000007d0       __imp_?GetContext@SapGioCallbackInfo@@QEBAPEAXXZ 0000000067da67d0     SapClassBasic:SapClassBasic82.dll
 0002:000007d8       __imp_?SetDisplayStatusMode@SapManager@@SAHHP6AXPEAVSapManCallbackInfo@@@ZPEAX@Z 0000000067da67d8     SapClassBasic:SapClassBasic82.dll
 0002:000007e0       __imp_?GetNumPins@SapGio@@QEBAHXZ 0000000067da67e0     SapClassBasic:SapClassBasic82.dll
 0002:000007e8       __imp_?Top@SapViewScaleParams@@QEBAHXZ 0000000067da67e8     SapClassBasic:SapClassBasic82.dll
 0002:000007f0       __imp_?Left@SapViewScaleParams@@QEBAHXZ 0000000067da67f0     SapClassBasic:SapClassBasic82.dll
 0002:000007f8       __imp_?Height@SapViewScaleParams@@QEBAHXZ 0000000067da67f8     SapClassBasic:SapClassBasic82.dll
 0002:00000800       __imp_?Width@SapViewScaleParams@@QEBAHXZ 0000000067da6800     SapClassBasic:SapClassBasic82.dll
 0002:00000808       __imp_?GetScaleParamsSrc@SapView@@QEAAAEBVSapViewScaleParams@@XZ 0000000067da6808     SapClassBasic:SapClassBasic82.dll
 0002:00000810       __imp_?GetBuffer@SapView@@QEBAPEAVSapBuffer@@XZ 0000000067da6810     SapClassBasic:SapClassBasic82.dll
 0002:00000818       __imp_?Mono@SapDataMono@@QEAAHXZ 0000000067da6818     SapClassBasic:SapClassBasic82.dll
 0002:00000820       __imp_??1SapDataMono@@UEAA@XZ 0000000067da6820     SapClassBasic:SapClassBasic82.dll
 0002:00000828       __imp_??0SapDataMono@@QEAA@XZ 0000000067da6828     SapClassBasic:SapClassBasic82.dll
 0002:00000830       __imp_?GetImageFilterKernelSize@SapAcquisition@@QEAAHIPEAW4ImageFilterKernelSize@1@@Z 0000000067da6830     SapClassBasic:SapClassBasic82.dll
 0002:00000838       __imp_?GetImageFilter@SapAcquisition@@QEAAHIPEAVSapBuffer@@@Z 0000000067da6838     SapClassBasic:SapClassBasic82.dll
 0002:00000840       __imp_?EnableImageFilter@SapAcquisition@@QEAAHH@Z 0000000067da6840     SapClassBasic:SapClassBasic82.dll
 0002:00000848       __imp_?IsImageFilterEnabled@SapAcquisition@@QEAAHXZ 0000000067da6848     SapClassBasic:SapClassBasic82.dll
 0002:00000850       __imp_?IsImageFilterAvailable@SapAcquisition@@QEBAHXZ 0000000067da6850     SapClassBasic:SapClassBasic82.dll
 0002:00000858       __imp_??0SapData@@QEAA@AEBV0@@Z 0000000067da6858     SapClassBasic:SapClassBasic82.dll
 0002:00000860       __imp_?Set@SapDataMono@@QEAAXH@Z 0000000067da6860     SapClassBasic:SapClassBasic82.dll
 0002:00000868       __imp_?SetImageFilter@SapAcquisition@@QEAAHIPEAVSapBuffer@@@Z 0000000067da6868     SapClassBasic:SapClassBasic82.dll
 0002:00000870       __imp_??1SapViewScaleParams@@QEAA@XZ 0000000067da6870     SapClassBasic:SapClassBasic82.dll
 0002:00000878       __imp_?ZoomVert@SapViewScaleParams@@QEBAMXZ 0000000067da6878     SapClassBasic:SapClassBasic82.dll
 0002:00000880       __imp_?ZoomHorz@SapViewScaleParams@@QEBAMXZ 0000000067da6880     SapClassBasic:SapClassBasic82.dll
 0002:00000888       __imp_?GetScaleParamsDst@SapView@@QEAAAEBVSapViewScaleParams@@XZ 0000000067da6888     SapClassBasic:SapClassBasic82.dll
 0002:00000890       __imp_?SetHeight@SapViewScaleParams@@QEAAXH@Z 0000000067da6890     SapClassBasic:SapClassBasic82.dll
 0002:00000898       __imp_?SetWidth@SapViewScaleParams@@QEAAXH@Z 0000000067da6898     SapClassBasic:SapClassBasic82.dll
 0002:000008a0       __imp_?SetLeft@SapViewScaleParams@@QEAAXH@Z 0000000067da68a0     SapClassBasic:SapClassBasic82.dll
 0002:000008a8       __imp_?SetTop@SapViewScaleParams@@QEAAXH@Z 0000000067da68a8     SapClassBasic:SapClassBasic82.dll
 0002:000008b0       __imp_??0SapViewScaleParams@@QEAA@XZ 0000000067da68b0     SapClassBasic:SapClassBasic82.dll
 0002:000008b8       __imp_?GetContext@SapViewCallbackInfo@@QEBAPEAXXZ 0000000067da68b8     SapClassBasic:SapClassBasic82.dll
 0002:000008c0       __imp_??1SapDataHSI@@UEAA@XZ 0000000067da68c0     SapClassBasic:SapClassBasic82.dll
 0002:000008c8       __imp_?H@SapDataHSI@@QEAAHXZ 0000000067da68c8     SapClassBasic:SapClassBasic82.dll
 0002:000008d0       __imp_?S@SapDataHSI@@QEAAHXZ 0000000067da68d0     SapClassBasic:SapClassBasic82.dll
 0002:000008d8       __imp_?I@SapDataHSI@@QEAAHXZ 0000000067da68d8     SapClassBasic:SapClassBasic82.dll
 0002:000008e0       __imp_??0SapDataHSI@@QEAA@XZ 0000000067da68e0     SapClassBasic:SapClassBasic82.dll
 0002:000008e8       __imp_??1SapDataLAB@@UEAA@XZ 0000000067da68e8     SapClassBasic:SapClassBasic82.dll
 0002:000008f0       __imp_?L@SapDataLAB@@QEAAHXZ 0000000067da68f0     SapClassBasic:SapClassBasic82.dll
 0002:000008f8       __imp_?A@SapDataLAB@@QEAAHXZ 0000000067da68f8     SapClassBasic:SapClassBasic82.dll
 0002:00000900       __imp_?B@SapDataLAB@@QEAAHXZ 0000000067da6900     SapClassBasic:SapClassBasic82.dll
 0002:00000908       __imp_??0SapDataLAB@@QEAA@XZ 0000000067da6908     SapClassBasic:SapClassBasic82.dll
 0002:00000910       __imp_??1SapDataYUV@@UEAA@XZ 0000000067da6910     SapClassBasic:SapClassBasic82.dll
 0002:00000918       __imp_?Y@SapDataYUV@@QEAAHXZ 0000000067da6918     SapClassBasic:SapClassBasic82.dll
 0002:00000920       __imp_?U@SapDataYUV@@QEAAHXZ 0000000067da6920     SapClassBasic:SapClassBasic82.dll
 0002:00000928       __imp_?V@SapDataYUV@@QEAAHXZ 0000000067da6928     SapClassBasic:SapClassBasic82.dll
 0002:00000930       __imp_??0SapDataYUV@@QEAA@XZ 0000000067da6930     SapClassBasic:SapClassBasic82.dll
 0002:00000938       __imp_??0SapDataRGB@@QEAA@XZ 0000000067da6938     SapClassBasic:SapClassBasic82.dll
 0002:00000940       __imp_??1SapData@@UEAA@XZ  0000000067da6940     SapClassBasic:SapClassBasic82.dll
 0002:00000948       __imp_??1SapDataRGB@@UEAA@XZ 0000000067da6948     SapClassBasic:SapClassBasic82.dll
 0002:00000950       __imp_?Blue@SapDataRGB@@QEAAHXZ 0000000067da6950     SapClassBasic:SapClassBasic82.dll
 0002:00000958       __imp_?Green@SapDataRGB@@QEAAHXZ 0000000067da6958     SapClassBasic:SapClassBasic82.dll
 0002:00000960       __imp_?Red@SapDataRGB@@QEAAHXZ 0000000067da6960     SapClassBasic:SapClassBasic82.dll
 0002:00000968       __imp_??0SapDataRGB@@QEAA@AEBVSapData@@@Z 0000000067da6968     SapClassBasic:SapClassBasic82.dll
 0002:00000970       __imp_??0SapData@@QEAA@XZ  0000000067da6970     SapClassBasic:SapClassBasic82.dll
 0002:00000978       __imp_??1SapDataRGBA@@UEAA@XZ 0000000067da6978     SapClassBasic:SapClassBasic82.dll
 0002:00000980       __imp_?Alpha@SapDataRGBA@@QEAAHXZ 0000000067da6980     SapClassBasic:SapClassBasic82.dll
 0002:00000988       __imp_?Red@SapDataRGBA@@QEAAHXZ 0000000067da6988     SapClassBasic:SapClassBasic82.dll
 0002:00000990       __imp_?Green@SapDataRGBA@@QEAAHXZ 0000000067da6990     SapClassBasic:SapClassBasic82.dll
 0002:00000998       __imp_?Blue@SapDataRGBA@@QEAAHXZ 0000000067da6998     SapClassBasic:SapClassBasic82.dll
 0002:000009a0       __imp_??0SapDataRGBA@@QEAA@XZ 0000000067da69a0     SapClassBasic:SapClassBasic82.dll
 0002:000009a8       __imp_??1SapDataHSV@@UEAA@XZ 0000000067da69a8     SapClassBasic:SapClassBasic82.dll
 0002:000009b0       __imp_?H@SapDataHSV@@QEAAHXZ 0000000067da69b0     SapClassBasic:SapClassBasic82.dll
 0002:000009b8       __imp_?S@SapDataHSV@@QEAAHXZ 0000000067da69b8     SapClassBasic:SapClassBasic82.dll
 0002:000009c0       __imp_?V@SapDataHSV@@QEAAHXZ 0000000067da69c0     SapClassBasic:SapClassBasic82.dll
 0002:000009c8       __imp_??0SapDataHSV@@QEAA@XZ 0000000067da69c8     SapClassBasic:SapClassBasic82.dll
 0002:000009d0       __imp_??1SapDataLABA@@UEAA@XZ 0000000067da69d0     SapClassBasic:SapClassBasic82.dll
 0002:000009d8       __imp_?L@SapDataLABA@@QEAAHXZ 0000000067da69d8     SapClassBasic:SapClassBasic82.dll
 0002:000009e0       __imp_?A@SapDataLABA@@QEAAHXZ 0000000067da69e0     SapClassBasic:SapClassBasic82.dll
 0002:000009e8       __imp_?B@SapDataLABA@@QEAAHXZ 0000000067da69e8     SapClassBasic:SapClassBasic82.dll
 0002:000009f0       __imp_??0SapDataLABA@@QEAA@XZ 0000000067da69f0     SapClassBasic:SapClassBasic82.dll
 0002:000009f8       __imp_?GetScrollRange@SapView@@QEBA?AUtagSIZE@@XZ 0000000067da69f8     SapClassBasic:SapClassBasic82.dll
 0002:00000a00       __imp_?GetScrollPos@SapView@@QEBA?AUtagPOINT@@XZ 0000000067da6a00     SapClassBasic:SapClassBasic82.dll
 0002:00000a08       __imp_?GetScalingMode@SapView@@QEBA?AW4ScalingMode@1@XZ 0000000067da6a08     SapClassBasic:SapClassBasic82.dll
 0002:00000a10       __imp_?GetStringFromFormat@SapManager@@SAHHPEAD@Z 0000000067da6a10     SapClassBasic:SapClassBasic82.dll
 0002:00000a18       __imp_??1SapLocation@@UEAA@XZ 0000000067da6a18     SapClassBasic:SapClassBasic82.dll
 0002:00000a20       __imp_?SetLocation@SapXferNode@@QEAAHVSapLocation@@@Z 0000000067da6a20     SapClassBasic:SapClassBasic82.dll
 0002:00000a28       __imp_??0SapLocation@@QEAA@AEBV0@@Z 0000000067da6a28     SapClassBasic:SapClassBasic82.dll
 0002:00000a30       __imp_??1SapManager@@UEAA@XZ 0000000067da6a30     SapClassBasic:SapClassBasic82.dll
 0002:00000a38       __imp_??1SapAcquisition@@UEAA@XZ 0000000067da6a38     SapClassBasic:SapClassBasic82.dll
 0002:00000a40       __imp_?GetServerName@SapManager@@SAHHPEADH@Z 0000000067da6a40     SapClassBasic:SapClassBasic82.dll
 0002:00000a48       __imp_?GetResourceCount@SapManager@@SAHHH@Z 0000000067da6a48     SapClassBasic:SapClassBasic82.dll
 0002:00000a50       __imp_?GetServerCount@SapManager@@SAHXZ 0000000067da6a50     SapClassBasic:SapClassBasic82.dll
 0002:00000a58       __imp_?GetResourceCount@SapManager@@SAHVSapLocation@@H@Z 0000000067da6a58     SapClassBasic:SapClassBasic82.dll
 0002:00000a60       __imp_?GetLocation@SapXferNode@@QEBA?AVSapLocation@@XZ 0000000067da6a60     SapClassBasic:SapClassBasic82.dll
 0002:00000a68       __imp_?IsResourceAvailable@SapManager@@SAHPEBDHH@Z 0000000067da6a68     SapClassBasic:SapClassBasic82.dll
 0002:00000a70       __imp_?GetResourceName@SapManager@@SAHPEBDHHPEADH@Z 0000000067da6a70     SapClassBasic:SapClassBasic82.dll
 0002:00000a78       __imp_?GetResourceCount@SapManager@@SAHPEBDH@Z 0000000067da6a78     SapClassBasic:SapClassBasic82.dll
 0002:00000a80       __imp_?GetServerIndex@SapManager@@SAHPEBD@Z 0000000067da6a80     SapClassBasic:SapClassBasic82.dll
 0002:00000a88       __imp_??0SapAcquisition@@QEAA@VSapLocation@@@Z 0000000067da6a88     SapClassBasic:SapClassBasic82.dll
 0002:00000a90       __imp_??0SapLocation@@QEAA@HH@Z 0000000067da6a90     SapClassBasic:SapClassBasic82.dll
 0002:00000a98       __imp_??0SapManager@@QEAA@XZ 0000000067da6a98     SapClassBasic:SapClassBasic82.dll
 0002:00000aa0       __imp_?GetResourceIndex@SapLocation@@QEBAHXZ 0000000067da6aa0     SapClassBasic:SapClassBasic82.dll
 0002:00000aa8       __imp_?GetServerName@SapManager@@SAHVSapLocation@@PEADH@Z 0000000067da6aa8     SapClassBasic:SapClassBasic82.dll
 0002:00000ab0       __imp_?GetConfigFile@SapAcquisition@@QEBAPEBDXZ 0000000067da6ab0     SapClassBasic:SapClassBasic82.dll
 0002:00000ab8       __imp_??4SapAcquisition@@QEAAAEAV0@AEBV0@@Z 0000000067da6ab8     SapClassBasic:SapClassBasic82.dll
 0002:00000ac0       __imp_?DisplayStatus@SapManager@@SAIPEBDI@Z 0000000067da6ac0     SapClassBasic:SapClassBasic82.dll
 0002:00000ac8       __imp_??1SapDataFRGB@@UEAA@XZ 0000000067da6ac8     SapClassBasic:SapClassBasic82.dll
 0002:00000ad0       __imp_?IsEnabled@SapBayer@@QEBAHXZ 0000000067da6ad0     SapClassBasic:SapClassBasic82.dll
 0002:00000ad8       __imp_?IsLutEnabled@SapBayer@@QEBAHXZ 0000000067da6ad8     SapClassBasic:SapClassBasic82.dll
 0002:00000ae0       __imp_?GetGamma@SapBayer@@QEBAMXZ 0000000067da6ae0     SapClassBasic:SapClassBasic82.dll
 0002:00000ae8       __imp_?Blue@SapDataFRGB@@QEAAMXZ 0000000067da6ae8     SapClassBasic:SapClassBasic82.dll
 0002:00000af0       __imp_?CopyRect@SapBuffer@@UEAAHPEAV1@HHHHHHHH@Z 0000000067da6af0     SapClassBasic:SapClassBasic82.dll
 0002:00000af8       __imp_?SetCommandTimeout@SapManager@@SAXH@Z 0000000067da6af8     SapClassBasic:SapClassBasic82.dll
 0002:00000b00       __imp_?Green@SapDataFRGB@@QEAAMXZ 0000000067da6b00     SapClassBasic:SapClassBasic82.dll
 0002:00000b08       __imp_?Red@SapDataFRGB@@QEAAMXZ 0000000067da6b08     SapClassBasic:SapClassBasic82.dll
 0002:00000b10       __imp_?GetWBGain@SapBayer@@QEBA?AVSapDataFRGB@@XZ 0000000067da6b10     SapClassBasic:SapClassBasic82.dll
 0002:00000b18       __imp_?GetMethod@SapBayer@@QEBAHXZ 0000000067da6b18     SapClassBasic:SapClassBasic82.dll
 0002:00000b20       __imp_?GetAlign@SapBayer@@QEBAHXZ 0000000067da6b20     SapClassBasic:SapClassBasic82.dll
 0002:00000b28       __imp_?GetAvailMethod@SapBayer@@QEBAHXZ 0000000067da6b28     SapClassBasic:SapClassBasic82.dll
 0002:00000b30       __imp_?GetAvailAlign@SapBayer@@QEBAHXZ 0000000067da6b30     SapClassBasic:SapClassBasic82.dll
 0002:00000b38       __imp_?IsSoftware@SapBayer@@QEBAHXZ 0000000067da6b38     SapClassBasic:SapClassBasic82.dll
 0002:00000b40       __imp_??BSapManager@@QEBAHXZ 0000000067da6b40     SapClassBasic:SapClassBasic82.dll
 0002:00000b48       __imp_??0SapDataFRGB@@QEAA@MMM@Z 0000000067da6b48     SapClassBasic:SapClassBasic82.dll
 0002:00000b50       __imp_?GetPixelDepthMin@SapManager@@SAHH@Z 0000000067da6b50     SapClassBasic:SapClassBasic82.dll
 0002:00000b58       __imp_?GetPixelDepthMax@SapManager@@SAHH@Z 0000000067da6b58     SapClassBasic:SapClassBasic82.dll
 0002:00000b60       __imp_??1SapBuffer@@UEAA@XZ 0000000067da6b60     SapClassBasic:SapClassBasic82.dll
 0002:00000b68       __imp_?GetNumComponents@SapFlatFieldStats@@QEBAHXZ 0000000067da6b68     SapClassBasic:SapClassBasic82.dll
 0002:00000b70       __imp_?IsBufferTypeSupported@SapBuffer@@SAHVSapLocation@@H@Z 0000000067da6b70     SapClassBasic:SapClassBasic82.dll
 0002:00000b78       __imp_??4SapLocation@@QEAAAEAV0@AEBV0@@Z 0000000067da6b78     SapClassBasic:SapClassBasic82.dll
 0002:00000b80       __imp_?GetSrcNode@SapXferNode@@QEBAPEAV1@XZ 0000000067da6b80     SapClassBasic:SapClassBasic82.dll
 0002:00000b88       __imp_?GetPixelDepth@SapBuffer@@QEBAHXZ 0000000067da6b88     SapClassBasic:SapClassBasic82.dll
 0002:00000b90       __imp_?GetType@SapBuffer@@QEBAHXZ 0000000067da6b90     SapClassBasic:SapClassBasic82.dll
 0002:00000b98       __imp_?GetFormat@SapBuffer@@QEBAHXZ 0000000067da6b98     SapClassBasic:SapClassBasic82.dll
 0002:00000ba0       __imp_?GetHeight@SapBuffer@@QEBAHXZ 0000000067da6ba0     SapClassBasic:SapClassBasic82.dll
 0002:00000ba8       __imp_?GetWidth@SapBuffer@@QEBAHXZ 0000000067da6ba8     SapClassBasic:SapClassBasic82.dll
 0002:00000bb0       __imp_??0SapLocation@@QEAA@XZ 0000000067da6bb0     SapClassBasic:SapClassBasic82.dll
 0002:00000bb8       __imp_??0SapBuffer@@QEAA@HHHHHVSapLocation@@@Z 0000000067da6bb8     SapClassBasic:SapClassBasic82.dll
 0002:00000bc0       __imp_?IsEnabled@SapColorConversion@@QEBAHXZ 0000000067da6bc0     SapClassBasic:SapClassBasic82.dll
 0002:00000bc8       __imp_?IsHardwareEnabled@SapColorConversion@@QEBAHXZ 0000000067da6bc8     SapClassBasic:SapClassBasic82.dll
 0002:00000bd0       __imp_?GetWBGain@SapColorConversion@@QEBA?AVSapDataFRGB@@XZ 0000000067da6bd0     SapClassBasic:SapClassBasic82.dll
 0002:00000bd8       __imp_?GetAvailMethod@SapColorConversion@@QEBAHXZ 0000000067da6bd8     SapClassBasic:SapClassBasic82.dll
 0002:00000be0       __imp_?GetAvailAlign@SapColorConversion@@QEBAHXZ 0000000067da6be0     SapClassBasic:SapClassBasic82.dll
 0002:00000be8       __imp_?IsLutEnabled@SapColorConversion@@QEBAHXZ 0000000067da6be8     SapClassBasic:SapClassBasic82.dll
 0002:00000bf0       __imp_?GetGamma@SapColorConversion@@QEBAMXZ 0000000067da6bf0     SapClassBasic:SapClassBasic82.dll
 0002:00000bf8       __imp_?GetMethod@SapColorConversion@@QEBAHXZ 0000000067da6bf8     SapClassBasic:SapClassBasic82.dll
 0002:00000c00       __imp_?GetAlign@SapColorConversion@@QEBAHXZ 0000000067da6c00     SapClassBasic:SapClassBasic82.dll
 0002:00000c08       __imp_?GetClusterMapPixelCount@SapFlatField@@QEBAHXZ 0000000067da6c08     SapClassBasic:SapClassBasic82.dll
 0002:00000c10       __imp_?SetClusterMap@SapFlatField@@QEAAHPEBD@Z 0000000067da6c10     SapClassBasic:SapClassBasic82.dll
 0002:00000c18       __imp_?GetAverage@SapFlatFieldStats@@QEBAHH@Z 0000000067da6c18     SapClassBasic:SapClassBasic82.dll
 0002:00000c20       __imp_?GetOffsetMinMax@SapFlatField@@QEAAXPEAH0@Z 0000000067da6c20     SapClassBasic:SapClassBasic82.dll
 0002:00000c28       __imp_?GetCorrectionType@SapFlatField@@QEBA?AW4CorrectionType@1@XZ 0000000067da6c28     SapClassBasic:SapClassBasic82.dll
 0002:00000c30       __imp_?GetVideoType@SapFlatField@@QEBA?AW4VideoType@SapAcquisition@@XZ 0000000067da6c30     SapClassBasic:SapClassBasic82.dll
 0002:00000c38       __imp_?GetNumLinesAverage@SapFlatField@@QEBAHXZ 0000000067da6c38     SapClassBasic:SapClassBasic82.dll
 0002:00000c40       __imp_?GetNumFramesAverage@SapFlatField@@QEBAHXZ 0000000067da6c40     SapClassBasic:SapClassBasic82.dll
 0002:00000c48       __imp_?GetVerticalOffset@SapFlatField@@QEBAHXZ 0000000067da6c48     SapClassBasic:SapClassBasic82.dll
 0002:00000c50       __imp_?GetGainDivisor@SapFlatField@@QEBAHXZ 0000000067da6c50     SapClassBasic:SapClassBasic82.dll
 0002:00000c58       __imp_?GetDeviationMaxBlack@SapFlatField@@QEBAHXZ 0000000067da6c58     SapClassBasic:SapClassBasic82.dll
 0002:00000c60       __imp_?GetDeviationMaxWhite@SapFlatField@@QEBAHXZ 0000000067da6c60     SapClassBasic:SapClassBasic82.dll
 0002:00000c68       __imp_?GetIndex@SapFlatField@@QEBAHXZ 0000000067da6c68     SapClassBasic:SapClassBasic82.dll
 0002:00000c70       __imp_??0SapLocation@@QEAA@PEBDH@Z 0000000067da6c70     SapClassBasic:SapClassBasic82.dll
 0002:00000c78       __imp_?IsClippedGainOffsetDefects@SapFlatField@@QEBAHXZ 0000000067da6c78     SapClassBasic:SapClassBasic82.dll
 0002:00000c80       __imp_?GetBlackPixelPercentage@SapFlatField@@QEBAMXZ 0000000067da6c80     SapClassBasic:SapClassBasic82.dll
 0002:00000c88       __imp_?GetNumFlatField@SapFlatField@@QEBAHXZ 0000000067da6c88     SapClassBasic:SapClassBasic82.dll
 0002:00000c90       __imp_?GetAcqDevice@SapFlatField@@QEBAPEAVSapAcqDevice@@XZ 0000000067da6c90     SapClassBasic:SapClassBasic82.dll
 0002:00000c98       __imp_??0SapFeature@@QEAA@VSapLocation@@@Z 0000000067da6c98     SapClassBasic:SapClassBasic82.dll
 0002:00000ca0       __imp_?Create@SapFeature@@UEAAHXZ 0000000067da6ca0     SapClassBasic:SapClassBasic82.dll
 0002:00000ca8       __imp_?IsFeatureAvailable@SapAcqDevice@@QEAAHPEBDPEAH@Z 0000000067da6ca8     SapClassBasic:SapClassBasic82.dll
 0002:00000cb0       __imp_?GetFeatureValue@SapAcqDevice@@QEAAHPEBDPEADH@Z 0000000067da6cb0     SapClassBasic:SapClassBasic82.dll
 0002:00000cb8       __imp_??1SapFeature@@UEAA@XZ 0000000067da6cb8     SapClassBasic:SapClassBasic82.dll
 0002:00000cc0       __imp_?GetFileCount@SapAcqDevice@@QEAAHPEAH@Z 0000000067da6cc0     SapClassBasic:SapClassBasic82.dll
 0002:00000cc8       __imp_?GetFileNameByIndex@SapAcqDevice@@QEAAHHPEADH@Z 0000000067da6cc8     SapClassBasic:SapClassBasic82.dll
 0002:00000cd0       __imp_?GetFeatureInfo@SapAcqDevice@@QEAAHPEBDPEAVSapFeature@@@Z 0000000067da6cd0     SapClassBasic:SapClassBasic82.dll
 0002:00000cd8       __imp_?GetDisplayName@SapFeature@@QEAAHPEADH@Z 0000000067da6cd8     SapClassBasic:SapClassBasic82.dll
 0002:00000ce0       __imp_?Destroy@SapFeature@@UEAAHXZ 0000000067da6ce0     SapClassBasic:SapClassBasic82.dll
 0002:00000ce8       __imp_?GetNumPixels@SapFlatFieldStats@@QEBAHH@Z 0000000067da6ce8     SapClassBasic:SapClassBasic82.dll
 0002:00000cf0       __imp_?GetPixelRatio@SapFlatFieldStats@@QEBAMH@Z 0000000067da6cf0     SapClassBasic:SapClassBasic82.dll
 0002:00000cf8       __imp_?GetPeakPosition@SapFlatFieldStats@@QEBAHH@Z 0000000067da6cf8     SapClassBasic:SapClassBasic82.dll
 0002:00000d00       __imp_?GetHigh@SapFlatFieldStats@@QEBAHH@Z 0000000067da6d00     SapClassBasic:SapClassBasic82.dll
 0002:00000d08       __imp_?GetLow@SapFlatFieldStats@@QEBAHH@Z 0000000067da6d08     SapClassBasic:SapClassBasic82.dll
 0002:00000d10       __imp_?GetChild@SapBuffer@@UEBAPEAU__CORHANDLE@@HH@Z 0000000067da6d10     SapClassBasic:SapClassBasic82.dll
 0002:00000d18       __imp_?GetStdDeviation@SapFlatFieldStats@@QEBAHH@Z 0000000067da6d18     SapClassBasic:SapClassBasic82.dll
 0002:00000d20       \177SapClassBasic82_NULL_THUNK_DATA 0000000067da6d20     SapClassBasic:SapClassBasic82.dll
 0002:00000d28       __imp_ShowScrollBar        0000000067da6d28     user32:USER32.dll
 0002:00000d30       __imp_IsIconic             0000000067da6d30     user32:USER32.dll
 0002:00000d38       __imp_SetCursor            0000000067da6d38     user32:USER32.dll
 0002:00000d40       __imp_GetCursorPos         0000000067da6d40     user32:USER32.dll
 0002:00000d48       __imp_SetCursorPos         0000000067da6d48     user32:USER32.dll
 0002:00000d50       __imp_LoadCursorA          0000000067da6d50     user32:USER32.dll
 0002:00000d58       __imp_ScreenToClient       0000000067da6d58     user32:USER32.dll
 0002:00000d60       __imp_SetRect              0000000067da6d60     user32:USER32.dll
 0002:00000d68       __imp_PtInRect             0000000067da6d68     user32:USER32.dll
 0002:00000d70       __imp_GetSystemMetrics     0000000067da6d70     user32:USER32.dll
 0002:00000d78       __imp_TrackMouseEvent      0000000067da6d78     user32:USER32.dll
 0002:00000d80       __imp_InvalidateRect       0000000067da6d80     user32:USER32.dll
 0002:00000d88       __imp_FillRect             0000000067da6d88     user32:USER32.dll
 0002:00000d90       __imp_OffsetRect           0000000067da6d90     user32:USER32.dll
 0002:00000d98       __imp_RedrawWindow         0000000067da6d98     user32:USER32.dll
 0002:00000da0       __imp_GetClientRect        0000000067da6da0     user32:USER32.dll
 0002:00000da8       __imp_GetParent            0000000067da6da8     user32:USER32.dll
 0002:00000db0       __imp_ReleaseDC            0000000067da6db0     user32:USER32.dll
 0002:00000db8       __imp_GetDC                0000000067da6db8     user32:USER32.dll
 0002:00000dc0       __imp_GetFocus             0000000067da6dc0     user32:USER32.dll
 0002:00000dc8       __imp_SetForegroundWindow  0000000067da6dc8     user32:USER32.dll
 0002:00000dd0       __imp_SetDlgItemTextA      0000000067da6dd0     user32:USER32.dll
 0002:00000dd8       __imp_SendMessageA         0000000067da6dd8     user32:USER32.dll
 0002:00000de0       __imp_BringWindowToTop     0000000067da6de0     user32:USER32.dll
 0002:00000de8       __imp_EnableWindow         0000000067da6de8     user32:USER32.dll
 0002:00000df0       __imp_KillTimer            0000000067da6df0     user32:USER32.dll
 0002:00000df8       __imp_SetTimer             0000000067da6df8     user32:USER32.dll
 0002:00000e00       __imp_GetWindowRect        0000000067da6e00     user32:USER32.dll
 0002:00000e08       __imp_GetForegroundWindow  0000000067da6e08     user32:USER32.dll
 0002:00000e10       \177USER32_NULL_THUNK_DATA 0000000067da6e10     user32:USER32.dll
 0002:00000e18       __imp_?CharToItem@CListBox@@UEAAHII@Z 0000000067da6e18     mfc100:mfc100.dll
 0002:00000e20       __imp_??1CListBox@@UEAA@XZ 0000000067da6e20     mfc100:mfc100.dll
 0002:00000e28       __imp_?GetRuntimeClass@CComboBox@@UEBAPEAUCRuntimeClass@@XZ 0000000067da6e28     mfc100:mfc100.dll
 0002:00000e30       __imp_?OnChildNotify@CComboBox@@MEAAHI_K_JPEA_J@Z 0000000067da6e30     mfc100:mfc100.dll
 0002:00000e38       __imp_?Create@CComboBox@@UEAAHKAEBUtagRECT@@PEAVCWnd@@I@Z 0000000067da6e38     mfc100:mfc100.dll
 0002:00000e40       __imp_?DrawItem@CComboBox@@UEAAXPEAUtagDRAWITEMSTRUCT@@@Z 0000000067da6e40     mfc100:mfc100.dll
 0002:00000e48       __imp_?MeasureItem@CComboBox@@UEAAXPEAUtagMEASUREITEMSTRUCT@@@Z 0000000067da6e48     mfc100:mfc100.dll
 0002:00000e50       __imp_?CompareItem@CComboBox@@UEAAHPEAUtagCOMPAREITEMSTRUCT@@@Z 0000000067da6e50     mfc100:mfc100.dll
 0002:00000e58       __imp_?DeleteItem@CComboBox@@UEAAXPEAUtagDELETEITEMSTRUCT@@@Z 0000000067da6e58     mfc100:mfc100.dll
 0002:00000e60       __imp_??1CComboBox@@UEAA@XZ 0000000067da6e60     mfc100:mfc100.dll
 0002:00000e68       __imp_?GetRuntimeClass@CEdit@@UEBAPEAUCRuntimeClass@@XZ 0000000067da6e68     mfc100:mfc100.dll
 0002:00000e70       __imp_??1CEdit@@UEAA@XZ    0000000067da6e70     mfc100:mfc100.dll
 0002:00000e78       __imp_?DDX_Check@@YAXPEAVCDataExchange@@HAEAH@Z 0000000067da6e78     mfc100:mfc100.dll
 0002:00000e80       __imp_?DDX_CBIndex@@YAXPEAVCDataExchange@@HAEAH@Z 0000000067da6e80     mfc100:mfc100.dll
 0002:00000e88       __imp_?DDX_CBString@@YAXPEAVCDataExchange@@HAEAV?$CStringT@DV?$StrTraitMFC_DLL@DV?$ChTraitsCRT@D@ATL@@@@@ATL@@@Z 0000000067da6e88     mfc100:mfc100.dll
 0002:00000e90       __imp_?DDX_Control@@YAXPEAVCDataExchange@@HAEAVCWnd@@@Z 0000000067da6e90     mfc100:mfc100.dll
 0002:00000e98       __imp_?GetLBText@CComboBox@@QEBAXHAEAV?$CStringT@DV?$StrTraitMFC_DLL@DV?$ChTraitsCRT@D@ATL@@@@@ATL@@@Z 0000000067da6e98     mfc100:mfc100.dll
 0002:00000ea0       __imp_?IsEmpty@?$CSimpleStringT@D$00@ATL@@QEBA_NXZ 0000000067da6ea0     mfc100:mfc100.dll
 0002:00000ea8       __imp_?UpdateData@CWnd@@QEAAHH@Z 0000000067da6ea8     mfc100:mfc100.dll
 0002:00000eb0       __imp_?EnableWindow@CWnd@@QEAAHH@Z 0000000067da6eb0     mfc100:mfc100.dll
 0002:00000eb8       __imp_?GetDlgItem@CWnd@@QEBAPEAV1@H@Z 0000000067da6eb8     mfc100:mfc100.dll
 0002:00000ec0       __imp_??4?$CStringT@DV?$StrTraitMFC_DLL@DV?$ChTraitsCRT@D@ATL@@@@@ATL@@QEAAAEAV01@AEBV01@@Z 0000000067da6ec0     mfc100:mfc100.dll
 0002:00000ec8       __imp_??0?$CStringT@DV?$StrTraitMFC_DLL@DV?$ChTraitsCRT@D@ATL@@@@@ATL@@QEAA@XZ 0000000067da6ec8     mfc100:mfc100.dll
 0002:00000ed0       __imp_??4?$CStringT@DV?$StrTraitMFC_DLL@DV?$ChTraitsCRT@D@ATL@@@@@ATL@@QEAAAEAV01@PEBD@Z 0000000067da6ed0     mfc100:mfc100.dll
 0002:00000ed8       __imp_??1CFileDialog@@UEAA@XZ 0000000067da6ed8     mfc100:mfc100.dll
 0002:00000ee0       __imp_?GetPathName@CFileDialog@@QEBA?AV?$CStringT@DV?$StrTraitMFC_DLL@DV?$ChTraitsCRT@D@ATL@@@@@ATL@@XZ 0000000067da6ee0     mfc100:mfc100.dll
 0002:00000ee8       __imp_?DoModal@CFileDialog@@UEAA_JXZ 0000000067da6ee8     mfc100:mfc100.dll
 0002:00000ef0       __imp_?GetOFN@CFileDialog@@QEAAAEAUtagOFNA@@XZ 0000000067da6ef0     mfc100:mfc100.dll
 0002:00000ef8       __imp_??0CFileDialog@@QEAA@HPEBD0K0PEAVCWnd@@KH@Z 0000000067da6ef8     mfc100:mfc100.dll
 0002:00000f00       __imp_?OnVScroll@CWnd@@IEAAXIIPEAVCScrollBar@@@Z 0000000067da6f00     mfc100:mfc100.dll
 0002:00000f08       __imp_?AfxMessageBox@@YAHPEBDII@Z 0000000067da6f08     mfc100:mfc100.dll
 0002:00000f10       __imp_?GetRuntimeClass@CScrollBar@@UEBAPEAUCRuntimeClass@@XZ 0000000067da6f10     mfc100:mfc100.dll
 0002:00000f18       __imp_?Create@CScrollBar@@UEAAHKAEBUtagRECT@@PEAVCWnd@@I@Z 0000000067da6f18     mfc100:mfc100.dll
 0002:00000f20       __imp_??1CScrollBar@@UEAA@XZ 0000000067da6f20     mfc100:mfc100.dll
 0002:00000f28       __imp_?DDX_Text@@YAXPEAVCDataExchange@@HAEAH@Z 0000000067da6f28     mfc100:mfc100.dll
 0002:00000f30       __imp_?GetDlgCtrlID@CWnd@@QEBAHXZ 0000000067da6f30     mfc100:mfc100.dll
 0002:00000f38       __imp_?DDV_MinMaxInt@@YAXPEAVCDataExchange@@HHH@Z 0000000067da6f38     mfc100:mfc100.dll
 0002:00000f40       __imp_?DDX_Radio@@YAXPEAVCDataExchange@@HAEAH@Z 0000000067da6f40     mfc100:mfc100.dll
 0002:00000f48       __imp_?DDX_Text@@YAXPEAVCDataExchange@@HAEAM@Z 0000000067da6f48     mfc100:mfc100.dll
 0002:00000f50       __imp_?AfxFindResourceHandle@@YAPEAUHINSTANCE__@@PEBD0@Z 0000000067da6f50     mfc100:mfc100.dll
 0002:00000f58       __imp_?DDV_MinMaxUInt@@YAXPEAVCDataExchange@@III@Z 0000000067da6f58     mfc100:mfc100.dll
 0002:00000f60       __imp_?StringLength@?$CSimpleStringT@D$00@ATL@@SAHPEBD@Z 0000000067da6f60     mfc100:mfc100.dll
 0002:00000f68       __imp_?DDX_Text@@YAXPEAVCDataExchange@@HAEAV?$CStringT@DV?$StrTraitMFC_DLL@DV?$ChTraitsCRT@D@ATL@@@@@ATL@@@Z 0000000067da6f68     mfc100:mfc100.dll
 0002:00000f70       __imp_?GetRuntimeClass@CSliderCtrl@@UEBAPEAUCRuntimeClass@@XZ 0000000067da6f70     mfc100:mfc100.dll
 0002:00000f78       __imp_?Create@CSliderCtrl@@UEAAHKAEBUtagRECT@@PEAVCWnd@@I@Z 0000000067da6f78     mfc100:mfc100.dll
 0002:00000f80       __imp_?CreateEx@CSliderCtrl@@UEAAHKKAEBUtagRECT@@PEAVCWnd@@I@Z 0000000067da6f80     mfc100:mfc100.dll
 0002:00000f88       __imp_??1CSliderCtrl@@UEAA@XZ 0000000067da6f88     mfc100:mfc100.dll
 0002:00000f90       __imp_?DDX_Text@@YAXPEAVCDataExchange@@HAEAJ@Z 0000000067da6f90     mfc100:mfc100.dll
 0002:00000f98       __imp_?SetRange@CSliderCtrl@@QEAAXHHH@Z 0000000067da6f98     mfc100:mfc100.dll
 0002:00000fa0       __imp_?OnHScroll@CWnd@@IEAAXIIPEAVCScrollBar@@@Z 0000000067da6fa0     mfc100:mfc100.dll
 0002:00000fa8       __imp_?CheckRadioButton@CWnd@@QEAAXHHH@Z 0000000067da6fa8     mfc100:mfc100.dll
 0002:00000fb0       __imp_??1CButton@@UEAA@XZ  0000000067da6fb0     mfc100:mfc100.dll
 0002:00000fb8       __imp_??1CStatic@@UEAA@XZ  0000000067da6fb8     mfc100:mfc100.dll
 0002:00000fc0       __imp_?OnDestroy@CWnd@@IEAAXXZ 0000000067da6fc0     mfc100:mfc100.dll
 0002:00000fc8       __imp_?IsWindowEnabled@CWnd@@QEBAHXZ 0000000067da6fc8     mfc100:mfc100.dll
 0002:00000fd0       __imp_?SetWindowTextA@CWnd@@QEAAXPEBD@Z 0000000067da6fd0     mfc100:mfc100.dll
 0002:00000fd8       __imp_?Format@?$CStringT@DV?$StrTraitMFC_DLL@DV?$ChTraitsCRT@D@ATL@@@@@ATL@@QEAAXPEBDZZ 0000000067da6fd8     mfc100:mfc100.dll
 0002:00000fe0       __imp_??Y?$CStringT@DV?$StrTraitMFC_DLL@DV?$ChTraitsCRT@D@ATL@@@@@ATL@@QEAAAEAV01@AEBV?$CSimpleStringT@D$00@1@@Z 0000000067da6fe0     mfc100:mfc100.dll
 0002:00000fe8       __imp_??Y?$CStringT@DV?$StrTraitMFC_DLL@DV?$ChTraitsCRT@D@ATL@@@@@ATL@@QEAAAEAV01@PEBD@Z 0000000067da6fe8     mfc100:mfc100.dll
 0002:00000ff0       __imp_?FromHandle@CDC@@SAPEAV1@PEAUHDC__@@@Z 0000000067da6ff0     mfc100:mfc100.dll
 0002:00000ff8       __imp_?FromHandle@CWnd@@SAPEAV1@PEAUHWND__@@@Z 0000000067da6ff8     mfc100:mfc100.dll
 0002:00001000       __imp_?GetRuntimeClass@CStatic@@UEBAPEAUCRuntimeClass@@XZ 0000000067da7000     mfc100:mfc100.dll
 0002:00001008       __imp_?OnChildNotify@CStatic@@MEAAHI_K_JPEA_J@Z 0000000067da7008     mfc100:mfc100.dll
 0002:00001010       __imp_?Create@CStatic@@UEAAHPEBDKAEBUtagRECT@@PEAVCWnd@@I@Z 0000000067da7010     mfc100:mfc100.dll
 0002:00001018       __imp_?DrawItem@CStatic@@UEAAXPEAUtagDRAWITEMSTRUCT@@@Z 0000000067da7018     mfc100:mfc100.dll
 0002:00001020       __imp_?GetRuntimeClass@CButton@@UEBAPEAUCRuntimeClass@@XZ 0000000067da7020     mfc100:mfc100.dll
 0002:00001028       __imp_?OnChildNotify@CButton@@MEAAHI_K_JPEA_J@Z 0000000067da7028     mfc100:mfc100.dll
 0002:00001030       __imp_?Create@CButton@@UEAAHPEBDKAEBUtagRECT@@PEAVCWnd@@I@Z 0000000067da7030     mfc100:mfc100.dll
 0002:00001038       __imp_?DrawItem@CButton@@UEAAXPEAUtagDRAWITEMSTRUCT@@@Z 0000000067da7038     mfc100:mfc100.dll
 0002:00001040       __imp_?BeginWaitCursor@CCmdTarget@@QEAAXXZ 0000000067da7040     mfc100:mfc100.dll
 0002:00001048       __imp_?EndWaitCursor@CCmdTarget@@QEAAXXZ 0000000067da7048     mfc100:mfc100.dll
 0002:00001050       __imp_?DDV_MinMaxDWord@@YAXPEAVCDataExchange@@KKK@Z 0000000067da7050     mfc100:mfc100.dll
 0002:00001058       __imp_?Find@?$CStringT@DV?$StrTraitMFC_DLL@DV?$ChTraitsCRT@D@ATL@@@@@ATL@@QEBAHPEBDH@Z 0000000067da7058     mfc100:mfc100.dll
 0002:00001060       __imp_?ShowWindow@CWnd@@QEAAHH@Z 0000000067da7060     mfc100:mfc100.dll
 0002:00001068       __imp_??2@YAPEAX_K@Z       0000000067da7068     mfc100:mfc100.dll
 0002:00001070       __imp_??_U@YAPEAX_K@Z      0000000067da7070     mfc100:mfc100.dll
 0002:00001078       __imp_?GetRuntimeClass@CGdiObject@@UEBAPEAUCRuntimeClass@@XZ 0000000067da7078     mfc100:mfc100.dll
 0002:00001080       __imp_?DeleteObject@CGdiObject@@QEAAHXZ 0000000067da7080     mfc100:mfc100.dll
 0002:00001088       __imp_?GetRuntimeClass@CBrush@@UEBAPEAUCRuntimeClass@@XZ 0000000067da7088     mfc100:mfc100.dll
 0002:00001090       __imp_?MoveWindow@CWnd@@QEAAXHHHHH@Z 0000000067da7090     mfc100:mfc100.dll
 0002:00001098       __imp_?OnCtlColor@CWnd@@IEAAPEAUHBRUSH__@@PEAVCDC@@PEAV1@I@Z 0000000067da7098     mfc100:mfc100.dll
 0002:000010a0       __imp_?GetWindowTextA@CWnd@@QEBAXAEAV?$CStringT@DV?$StrTraitMFC_DLL@DV?$ChTraitsCRT@D@ATL@@@@@ATL@@@Z 0000000067da70a0     mfc100:mfc100.dll
 0002:000010a8       __imp_?ModifyStyle@CWnd@@QEAAHKKI@Z 0000000067da70a8     mfc100:mfc100.dll
 0002:000010b0       __imp_?GetThisClass@CStatic@@SAPEAUCRuntimeClass@@XZ 0000000067da70b0     mfc100:mfc100.dll
 0002:000010b8       __imp_?SetFocus@CWnd@@QEAAPEAV1@XZ 0000000067da70b8     mfc100:mfc100.dll
 0002:000010c0       __imp_?GetRuntimeClass@CPen@@UEBAPEAUCRuntimeClass@@XZ 0000000067da70c0     mfc100:mfc100.dll
 0002:000010c8       __imp_?Attach@CGdiObject@@QEAAHPEAX@Z 0000000067da70c8     mfc100:mfc100.dll
 0002:000010d0       __imp_?GetRuntimeClass@CBitmap@@UEBAPEAUCRuntimeClass@@XZ 0000000067da70d0     mfc100:mfc100.dll
 0002:000010d8       __imp_?GetRuntimeClass@CRgn@@UEBAPEAUCRuntimeClass@@XZ 0000000067da70d8     mfc100:mfc100.dll
 0002:000010e0       __imp_?Attach@CDC@@QEAAHPEAUHDC__@@@Z 0000000067da70e0     mfc100:mfc100.dll
 0002:000010e8       __imp_?SelectGdiObject@CDC@@KAPEAVCGdiObject@@PEAUHDC__@@PEAX@Z 0000000067da70e8     mfc100:mfc100.dll
 0002:000010f0       __imp_?SetScrollInfo@CWnd@@QEAAHHPEAUtagSCROLLINFO@@H@Z 0000000067da70f0     mfc100:mfc100.dll
 0002:000010f8       __imp_?GetScrollInfo@CWnd@@QEAAHHPEAUtagSCROLLINFO@@I@Z 0000000067da70f8     mfc100:mfc100.dll
 0002:00001100       __imp_??1CPaintDC@@UEAA@XZ 0000000067da7100     mfc100:mfc100.dll
 0002:00001108       __imp_??1CDC@@UEAA@XZ      0000000067da7108     mfc100:mfc100.dll
 0002:00001110       __imp_?DeleteDC@CDC@@QEAAHXZ 0000000067da7110     mfc100:mfc100.dll
 0002:00001118       __imp_?SelectObject@CDC@@QEAAPEAVCBrush@@PEAV2@@Z 0000000067da7118     mfc100:mfc100.dll
 0002:00001120       __imp_?SelectObject@CDC@@QEAAPEAVCPen@@PEAV2@@Z 0000000067da7120     mfc100:mfc100.dll
 0002:00001128       __imp_?SelectClipRgn@CDC@@QEAAHPEAVCRgn@@@Z 0000000067da7128     mfc100:mfc100.dll
 0002:00001130       __imp_??0CDC@@QEAA@XZ      0000000067da7130     mfc100:mfc100.dll
 0002:00001138       __imp_??0CPaintDC@@QEAA@PEAVCWnd@@@Z 0000000067da7138     mfc100:mfc100.dll
 0002:00001140       __imp_?VKeyToItem@CListBox@@UEAAHII@Z 0000000067da7140     mfc100:mfc100.dll
 0002:00001148       __imp_?GetThisClass@CDialog@@SAPEAUCRuntimeClass@@XZ 0000000067da7148     mfc100:mfc100.dll
 0002:00001150       __imp_?FromHandle@CGdiObject@@SAPEAV1@PEAX@Z 0000000067da7150     mfc100:mfc100.dll
 0002:00001158       __imp_?Create@CEdit@@QEAAHKAEBUtagRECT@@PEAVCWnd@@I@Z 0000000067da7158     mfc100:mfc100.dll
 0002:00001160       __imp_?ScreenToClient@CWnd@@QEBAXPEAUtagRECT@@@Z 0000000067da7160     mfc100:mfc100.dll
 0002:00001168       __imp_?EndDialog@CDialog@@QEAAXH@Z 0000000067da7168     mfc100:mfc100.dll
 0002:00001170       __imp_?ClientToScreen@CWnd@@QEBAXPEAUtagRECT@@@Z 0000000067da7170     mfc100:mfc100.dll
 0002:00001178       __imp_?Construct@CRectTracker@@IEAAXXZ 0000000067da7178     mfc100:mfc100.dll
 0002:00001180       __imp_?DrawTrackerRect@CRectTracker@@UEAAXPEBUtagRECT@@PEAVCWnd@@PEAVCDC@@1@Z 0000000067da7180     mfc100:mfc100.dll
 0002:00001188       __imp_?AdjustRect@CRectTracker@@UEAAXHPEAUtagRECT@@@Z 0000000067da7188     mfc100:mfc100.dll
 0002:00001190       __imp_?OnChangedRect@CRectTracker@@UEAAXAEBVCRect@@@Z 0000000067da7190     mfc100:mfc100.dll
 0002:00001198       __imp_?GetHandleMask@CRectTracker@@UEBAIXZ 0000000067da7198     mfc100:mfc100.dll
 0002:000011a0       __imp_?GetHandleSize@CRectTracker@@MEBAHPEBUtagRECT@@@Z 0000000067da71a0     mfc100:mfc100.dll
 0002:000011a8       __imp_??1CRectTracker@@UEAA@XZ 0000000067da71a8     mfc100:mfc100.dll
 0002:000011b0       __imp_?FillSolidRect@CDC@@QEAAXPEBUtagRECT@@K@Z 0000000067da71b0     mfc100:mfc100.dll
 0002:000011b8       __imp_?SetCursor@CRectTracker@@QEBAHPEAVCWnd@@I@Z 0000000067da71b8     mfc100:mfc100.dll
 0002:000011c0       __imp_??1CClientDC@@UEAA@XZ 0000000067da71c0     mfc100:mfc100.dll
 0002:000011c8       __imp_?Draw@CRectTracker@@QEBAXPEAVCDC@@@Z 0000000067da71c8     mfc100:mfc100.dll
 0002:000011d0       __imp_?SetWindowOrg@CDC@@QEAA?AVCPoint@@HH@Z 0000000067da71d0     mfc100:mfc100.dll
 0002:000011d8       __imp_??0CClientDC@@QEAA@PEAVCWnd@@@Z 0000000067da71d8     mfc100:mfc100.dll
 0002:000011e0       __imp_?Track@CRectTracker@@QEAAHPEAVCWnd@@VCPoint@@H0@Z 0000000067da71e0     mfc100:mfc100.dll
 0002:000011e8       __imp_?TrackRubberBand@CRectTracker@@QEAAHPEAVCWnd@@VCPoint@@H@Z 0000000067da71e8     mfc100:mfc100.dll
 0002:000011f0       __imp_?HitTest@CRectTracker@@QEBAHVCPoint@@@Z 0000000067da71f0     mfc100:mfc100.dll
 0002:000011f8       __imp_?GetThisInterfaceMap@CWnd@@KAPEBUAFX_INTERFACEMAP@@XZ 0000000067da71f8     mfc100:mfc100.dll
 0002:00001200       __imp_?GetThisDispatchMap@CCmdTarget@@KAPEBUAFX_DISPMAP@@XZ 0000000067da7200     mfc100:mfc100.dll
 0002:00001208       __imp_?DDX_Text@@YAXPEAVCDataExchange@@HAEAI@Z 0000000067da7208     mfc100:mfc100.dll
 0002:00001210       __imp_?GetThisClass@CFileDialog@@SAPEAUCRuntimeClass@@XZ 0000000067da7210     mfc100:mfc100.dll
 0002:00001218       __imp_?GetThisMessageMap@CCommonDialog@@KAPEBUAFX_MSGMAP@@XZ 0000000067da7218     mfc100:mfc100.dll
 0002:00001220       __imp_?GetFileTitle@CFileDialog@@QEBA?AV?$CStringT@DV?$StrTraitMFC_DLL@DV?$ChTraitsCRT@D@ATL@@@@@ATL@@XZ 0000000067da7220     mfc100:mfc100.dll
 0002:00001228       __imp_?GetInterfaceMap@CFileDialog@@MEBAPEBUAFX_INTERFACEMAP@@XZ 0000000067da7228     mfc100:mfc100.dll
 0002:00001230       __imp_?OnNotify@CFileDialog@@MEAAH_K_JPEA_J@Z 0000000067da7230     mfc100:mfc100.dll
 0002:00001238       __imp_?OnOK@CCommonDialog@@MEAAXXZ 0000000067da7238     mfc100:mfc100.dll
 0002:00001240       __imp_?OnCancel@CCommonDialog@@MEAAXXZ 0000000067da7240     mfc100:mfc100.dll
 0002:00001248       __imp_?UpdateOFNFromShellDialog@CFileDialog@@UEAAXXZ 0000000067da7248     mfc100:mfc100.dll
 0002:00001250       __imp_?OnShareViolation@CFileDialog@@MEAAIPEBD@Z 0000000067da7250     mfc100:mfc100.dll
 0002:00001258       __imp_?OnFileNameOK@CFileDialog@@MEAAHXZ 0000000067da7258     mfc100:mfc100.dll
 0002:00001260       __imp_?OnLBSelChangedNotify@CFileDialog@@MEAAXIII@Z 0000000067da7260     mfc100:mfc100.dll
 0002:00001268       __imp_?OnInitDone@CFileDialog@@MEAAXXZ 0000000067da7268     mfc100:mfc100.dll
 0002:00001270       __imp_?OnFileNameChange@CFileDialog@@MEAAXXZ 0000000067da7270     mfc100:mfc100.dll
 0002:00001278       __imp_?OnFolderChange@CFileDialog@@MEAAXXZ 0000000067da7278     mfc100:mfc100.dll
 0002:00001280       __imp_?OnItemSelected@CFileDialog@@MEAAXKK@Z 0000000067da7280     mfc100:mfc100.dll
 0002:00001288       __imp_?OnButtonClicked@CFileDialog@@MEAAXK@Z 0000000067da7288     mfc100:mfc100.dll
 0002:00001290       __imp_?OnCheckButtonToggled@CFileDialog@@MEAAXKH@Z 0000000067da7290     mfc100:mfc100.dll
 0002:00001298       __imp_?OnControlActivating@CFileDialog@@MEAAXK@Z 0000000067da7298     mfc100:mfc100.dll
 0002:000012a0       __imp_??1CSpinButtonCtrl@@UEAA@XZ 0000000067da72a0     mfc100:mfc100.dll
 0002:000012a8       __imp_??0CDynLinkLibrary@@QEAA@AEAUAFX_EXTENSION_MODULE@@H@Z 0000000067da72a8     mfc100:mfc100.dll
 0002:000012b0       __imp_?AfxTermExtensionModule@@YAXAEAUAFX_EXTENSION_MODULE@@H@Z 0000000067da72b0     mfc100:mfc100.dll
 0002:000012b8       __imp_?AfxInitExtensionModule@@YAHAEAUAFX_EXTENSION_MODULE@@PEAUHINSTANCE__@@@Z 0000000067da72b8     mfc100:mfc100.dll
 0002:000012c0       __imp_?GetRuntimeClass@CSpinButtonCtrl@@UEBAPEAUCRuntimeClass@@XZ 0000000067da72c0     mfc100:mfc100.dll
 0002:000012c8       __imp_?Create@CSpinButtonCtrl@@UEAAHKAEBUtagRECT@@PEAVCWnd@@I@Z 0000000067da72c8     mfc100:mfc100.dll
 0002:000012d0       __imp_?CreateEx@CSpinButtonCtrl@@UEAAHKKAEBUtagRECT@@PEAVCWnd@@I@Z 0000000067da72d0     mfc100:mfc100.dll
 0002:000012d8       __imp_?DDV_MinMaxFloat@@YAXPEAVCDataExchange@@AEBMMM@Z 0000000067da72d8     mfc100:mfc100.dll
 0002:000012e0       __imp_?DDX_Text@@YAXPEAVCDataExchange@@HAEAK@Z 0000000067da72e0     mfc100:mfc100.dll
 0002:000012e8       __imp_?OnInitDialog@CDialog@@UEAAHXZ 0000000067da72e8     mfc100:mfc100.dll
 0002:000012f0       __imp_?SetWindowPos@CWnd@@QEAAHPEBV1@HHHHI@Z 0000000067da72f0     mfc100:mfc100.dll
 0002:000012f8       __imp_?PreInitDialog@CDialog@@MEAAXXZ 0000000067da72f8     mfc100:mfc100.dll
 0002:00001300       __imp_?OnCancel@CDialog@@MEAAXXZ 0000000067da7300     mfc100:mfc100.dll
 0002:00001308       __imp_?OnOK@CDialog@@MEAAXXZ 0000000067da7308     mfc100:mfc100.dll
 0002:00001310       __imp_?OnSetFont@CDialog@@UEAAXPEAVCFont@@@Z 0000000067da7310     mfc100:mfc100.dll
 0002:00001318       __imp_?DoModal@CDialog@@UEAA_JXZ 0000000067da7318     mfc100:mfc100.dll
 0002:00001320       __imp_?CreateIndirect@CDialog@@UEAAHPEBUDLGTEMPLATE@@PEAVCWnd@@PEAX@Z 0000000067da7320     mfc100:mfc100.dll
 0002:00001328       __imp_?CreateIndirect@CDialog@@UEAAHPEAXPEAVCWnd@@@Z 0000000067da7328     mfc100:mfc100.dll
 0002:00001330       __imp_?Create@CDialog@@UEAAHPEBDPEAVCWnd@@@Z 0000000067da7330     mfc100:mfc100.dll
 0002:00001338       __imp_?GetOccDialogInfo@CDialog@@MEAAPEAU_AFX_OCC_DIALOG_INFO@@XZ 0000000067da7338     mfc100:mfc100.dll
 0002:00001340       __imp_?SetOccDialogInfo@CDialog@@MEAAHPEAU_AFX_OCC_DIALOG_INFO@@@Z 0000000067da7340     mfc100:mfc100.dll
 0002:00001348       __imp_?CreateControlSite@CWnd@@MEAAHPEAVCOleControlContainer@@PEAPEAVCOleControlSite@@IAEBU_GUID@@@Z 0000000067da7348     mfc100:mfc100.dll
 0002:00001350       __imp_?CreateControlContainer@CWnd@@MEAAHPEAPEAVCOleControlContainer@@@Z 0000000067da7350     mfc100:mfc100.dll
 0002:00001358       __imp_?IsFrameWnd@CWnd@@UEBAHXZ 0000000067da7358     mfc100:mfc100.dll
 0002:00001360       __imp_?CheckAutoCenter@CDialog@@UEAAHXZ 0000000067da7360     mfc100:mfc100.dll
 0002:00001368       __imp_?OnGesturePressAndTap@CWnd@@MEAAHVCPoint@@J@Z 0000000067da7368     mfc100:mfc100.dll
 0002:00001370       __imp_?OnGestureTwoFingerTap@CWnd@@MEAAHVCPoint@@@Z 0000000067da7370     mfc100:mfc100.dll
 0002:00001378       __imp_?OnGestureRotate@CWnd@@MEAAHVCPoint@@N@Z 0000000067da7378     mfc100:mfc100.dll
 0002:00001380       __imp_?OnGesturePan@CWnd@@MEAAHVCPoint@@0@Z 0000000067da7380     mfc100:mfc100.dll
 0002:00001388       __imp_?OnGestureZoom@CWnd@@MEAAHVCPoint@@J@Z 0000000067da7388     mfc100:mfc100.dll
 0002:00001390       __imp_?OnTouchInput@CWnd@@MEAAHVCPoint@@HHPEAUtagTOUCHINPUT@@@Z 0000000067da7390     mfc100:mfc100.dll
 0002:00001398       __imp_?OnTouchInputs@CWnd@@MEAAHIPEAUtagTOUCHINPUT@@@Z 0000000067da7398     mfc100:mfc100.dll
 0002:000013a0       __imp_?OnChildNotify@CWnd@@MEAAHI_K_JPEA_J@Z 0000000067da73a0     mfc100:mfc100.dll
 0002:000013a8       __imp_?PostNcDestroy@CWnd@@MEAAXXZ 0000000067da73a8     mfc100:mfc100.dll
 0002:000013b0       __imp_?DefWindowProcA@CWnd@@MEAA_JI_K_J@Z 0000000067da73b0     mfc100:mfc100.dll
 0002:000013b8       __imp_?OnWndMsg@CWnd@@MEAAHI_K_JPEA_J@Z 0000000067da73b8     mfc100:mfc100.dll
 0002:000013c0       __imp_?WindowProc@CWnd@@MEAA_JI_K_J@Z 0000000067da73c0     mfc100:mfc100.dll
 0002:000013c8       __imp_?OnAmbientProperty@CWnd@@UEAAHPEAVCOleControlSite@@JPEAUtagVARIANT@@@Z 0000000067da73c8     mfc100:mfc100.dll
 0002:000013d0       __imp_?PreTranslateMessage@CDialog@@UEAAHPEAUtagMSG@@@Z 0000000067da73d0     mfc100:mfc100.dll
 0002:000013d8       __imp_?GetSuperWndProcAddr@CWnd@@MEAAPEAP6A_JPEAUHWND__@@I_K_J@ZXZ 0000000067da73d8     mfc100:mfc100.dll
 0002:000013e0       __imp_?OnNotify@CWnd@@MEAAH_K_JPEA_J@Z 0000000067da73e0     mfc100:mfc100.dll
 0002:000013e8       __imp_?OnCommand@CWnd@@MEAAH_K_J@Z 0000000067da73e8     mfc100:mfc100.dll
 0002:000013f0       __imp_?CreateAccessibleProxy@CWnd@@UEAAJ_K_JPEA_J@Z 0000000067da73f0     mfc100:mfc100.dll
 0002:000013f8       __imp_?SetProxy@CWnd@@UEAAJPEAUIAccessibleProxy@@@Z 0000000067da73f8     mfc100:mfc100.dll
 0002:00001400       __imp_?put_accValue@CWnd@@UEAAJUtagVARIANT@@PEA_W@Z 0000000067da7400     mfc100:mfc100.dll
 0002:00001408       __imp_?put_accName@CWnd@@UEAAJUtagVARIANT@@PEA_W@Z 0000000067da7408     mfc100:mfc100.dll
 0002:00001410       __imp_?accDoDefaultAction@CWnd@@UEAAJUtagVARIANT@@@Z 0000000067da7410     mfc100:mfc100.dll
 0002:00001418       __imp_?accHitTest@CWnd@@UEAAJJJPEAUtagVARIANT@@@Z 0000000067da7418     mfc100:mfc100.dll
 0002:00001420       __imp_?accNavigate@CWnd@@UEAAJJUtagVARIANT@@PEAU2@@Z 0000000067da7420     mfc100:mfc100.dll
 0002:00001428       __imp_?accLocation@CWnd@@UEAAJPEAJ000UtagVARIANT@@@Z 0000000067da7428     mfc100:mfc100.dll
 0002:00001430       __imp_?accSelect@CWnd@@UEAAJJUtagVARIANT@@@Z 0000000067da7430     mfc100:mfc100.dll
 0002:00001438       __imp_?get_accDefaultAction@CWnd@@UEAAJUtagVARIANT@@PEAPEA_W@Z 0000000067da7438     mfc100:mfc100.dll
 0002:00001440       __imp_?get_accSelection@CWnd@@UEAAJPEAUtagVARIANT@@@Z 0000000067da7440     mfc100:mfc100.dll
 0002:00001448       __imp_?get_accFocus@CWnd@@UEAAJPEAUtagVARIANT@@@Z 0000000067da7448     mfc100:mfc100.dll
 0002:00001450       __imp_?get_accKeyboardShortcut@CWnd@@UEAAJUtagVARIANT@@PEAPEA_W@Z 0000000067da7450     mfc100:mfc100.dll
 0002:00001458       __imp_?get_accHelpTopic@CWnd@@UEAAJPEAPEA_WUtagVARIANT@@PEAJ@Z 0000000067da7458     mfc100:mfc100.dll
 0002:00001460       __imp_?get_accHelp@CWnd@@UEAAJUtagVARIANT@@PEAPEA_W@Z 0000000067da7460     mfc100:mfc100.dll
 0002:00001468       __imp_?get_accState@CWnd@@UEAAJUtagVARIANT@@PEAU2@@Z 0000000067da7468     mfc100:mfc100.dll
 0002:00001470       __imp_?DeleteItem@CListBox@@UEAAXPEAUtagDELETEITEMSTRUCT@@@Z 0000000067da7470     mfc100:mfc100.dll
 0002:00001478       __imp_?CompareItem@CListBox@@UEAAHPEAUtagCOMPAREITEMSTRUCT@@@Z 0000000067da7478     mfc100:mfc100.dll
 0002:00001480       __imp_?MeasureItem@CListBox@@UEAAXPEAUtagMEASUREITEMSTRUCT@@@Z 0000000067da7480     mfc100:mfc100.dll
 0002:00001488       __imp_?DrawItem@CListBox@@UEAAXPEAUtagDRAWITEMSTRUCT@@@Z 0000000067da7488     mfc100:mfc100.dll
 0002:00001490       __imp_?Create@CListBox@@UEAAHKAEBUtagRECT@@PEAVCWnd@@I@Z 0000000067da7490     mfc100:mfc100.dll
 0002:00001498       __imp_?GetOccDialogInfo@CWnd@@MEAAPEAU_AFX_OCC_DIALOG_INFO@@XZ 0000000067da7498     mfc100:mfc100.dll
 0002:000014a0       __imp_?SetOccDialogInfo@CWnd@@MEAAHPEAU_AFX_OCC_DIALOG_INFO@@@Z 0000000067da74a0     mfc100:mfc100.dll
 0002:000014a8       __imp_?CheckAutoCenter@CWnd@@UEAAHXZ 0000000067da74a8     mfc100:mfc100.dll
 0002:000014b0       __imp_?OnChildNotify@CListBox@@MEAAHI_K_JPEA_J@Z 0000000067da74b0     mfc100:mfc100.dll
 0002:000014b8       __imp_?PreTranslateMessage@CWnd@@UEAAHPEAUtagMSG@@@Z 0000000067da74b8     mfc100:mfc100.dll
 0002:000014c0       __imp_?GetMessageMap@CWnd@@MEBAPEBUAFX_MSGMAP@@XZ 0000000067da74c0     mfc100:mfc100.dll
 0002:000014c8       __imp_?OnCmdMsg@CCmdTarget@@UEAAHIHPEAXPEAUAFX_CMDHANDLERINFO@@@Z 0000000067da74c8     mfc100:mfc100.dll
 0002:000014d0       __imp_?GetRuntimeClass@CListBox@@UEBAPEAUCRuntimeClass@@XZ 0000000067da74d0     mfc100:mfc100.dll
 0002:000014d8       __imp_??0CWnd@@QEAA@XZ     0000000067da74d8     mfc100:mfc100.dll
 0002:000014e0       __imp_?AfxGetModuleState@@YAPEAVAFX_MODULE_STATE@@XZ 0000000067da74e0     mfc100:mfc100.dll
 0002:000014e8       __imp_?GetManager@?$CStringT@DV?$StrTraitMFC_DLL@DV?$ChTraitsCRT@D@ATL@@@@@ATL@@QEBAPEAUIAtlStringMgr@2@XZ 0000000067da74e8     mfc100:mfc100.dll
 0002:000014f0       __imp_??0?$CStringT@DV?$StrTraitMFC_DLL@DV?$ChTraitsCRT@D@ATL@@@@@ATL@@QEAA@PEAUIAtlStringMgr@1@@Z 0000000067da74f0     mfc100:mfc100.dll
 0002:000014f8       __imp_?GetLength@?$CSimpleStringT@D$00@ATL@@QEBAHXZ 0000000067da74f8     mfc100:mfc100.dll
 0002:00001500       __imp_?Concatenate@?$CSimpleStringT@D$00@ATL@@KAXAEAV12@PEBDH1H@Z 0000000067da7500     mfc100:mfc100.dll
 0002:00001508       __imp_?GetBuffer@?$CSimpleStringT@D$00@ATL@@QEAAPEADH@Z 0000000067da7508     mfc100:mfc100.dll
 0002:00001510       __imp_?ReleaseBuffer@?$CSimpleStringT@D$00@ATL@@QEAAXH@Z 0000000067da7510     mfc100:mfc100.dll
 0002:00001518       __imp_?CompareNoCase@?$CStringT@DV?$StrTraitMFC_DLL@DV?$ChTraitsCRT@D@ATL@@@@@ATL@@QEBAHPEBD@Z 0000000067da7518     mfc100:mfc100.dll
 0002:00001520       __imp_?MessageBoxA@CWnd@@QEAAHPEBD0I@Z 0000000067da7520     mfc100:mfc100.dll
 0002:00001528       __imp_?SetDlgItemTextA@CWnd@@QEAAXHPEBD@Z 0000000067da7528     mfc100:mfc100.dll
 0002:00001530       __imp_??0?$CStringT@DV?$StrTraitMFC_DLL@DV?$ChTraitsCRT@D@ATL@@@@@ATL@@QEAA@PEBD@Z 0000000067da7530     mfc100:mfc100.dll
 0002:00001538       __imp_??0?$CStringT@DV?$StrTraitMFC_DLL@DV?$ChTraitsCRT@D@ATL@@@@@ATL@@QEAA@AEBV01@@Z 0000000067da7538     mfc100:mfc100.dll
 0002:00001540       __imp_??B?$CSimpleStringT@D$00@ATL@@QEBAPEBDXZ 0000000067da7540     mfc100:mfc100.dll
 0002:00001548       __imp_??1?$CStringT@DV?$StrTraitMFC_DLL@DV?$ChTraitsCRT@D@ATL@@@@@ATL@@QEAA@XZ 0000000067da7548     mfc100:mfc100.dll
 0002:00001550       __imp_?GetThisMessageMap@CWnd@@KAPEBUAFX_MSGMAP@@XZ 0000000067da7550     mfc100:mfc100.dll
 0002:00001558       __imp_?GetThisMessageMap@CDialog@@KAPEBUAFX_MSGMAP@@XZ 0000000067da7558     mfc100:mfc100.dll
 0002:00001560       __imp_?get_accRole@CWnd@@UEAAJUtagVARIANT@@PEAU2@@Z 0000000067da7560     mfc100:mfc100.dll
 0002:00001568       __imp_?get_accDescription@CWnd@@UEAAJUtagVARIANT@@PEAPEA_W@Z 0000000067da7568     mfc100:mfc100.dll
 0002:00001570       __imp_?get_accValue@CWnd@@UEAAJUtagVARIANT@@PEAPEA_W@Z 0000000067da7570     mfc100:mfc100.dll
 0002:00001578       __imp_?get_accName@CWnd@@UEAAJUtagVARIANT@@PEAPEA_W@Z 0000000067da7578     mfc100:mfc100.dll
 0002:00001580       __imp_?get_accChildCount@CWnd@@UEAAJPEAJ@Z 0000000067da7580     mfc100:mfc100.dll
 0002:00001588       __imp_?get_accParent@CWnd@@UEAAJPEAPEAUIDispatch@@@Z 0000000067da7588     mfc100:mfc100.dll
 0002:00001590       __imp_?EnsureStdObj@CWnd@@UEAAJXZ 0000000067da7590     mfc100:mfc100.dll
 0002:00001598       __imp_?OnDrawIconicThumbnailOrLivePreview@CWnd@@UEAAXAEAVCDC@@VCRect@@VCSize@@HAEAH@Z 0000000067da7598     mfc100:mfc100.dll
 0002:000015a0       __imp_?EndModalLoop@CWnd@@UEAAXH@Z 0000000067da75a0     mfc100:mfc100.dll
 0002:000015a8       __imp_?ContinueModal@CWnd@@UEAAHXZ 0000000067da75a8     mfc100:mfc100.dll
 0002:000015b0       __imp_?WinHelpInternal@CWnd@@UEAAX_KI@Z 0000000067da75b0     mfc100:mfc100.dll
 0002:000015b8       __imp_?HtmlHelpA@CWnd@@UEAAX_KI@Z 0000000067da75b8     mfc100:mfc100.dll
 0002:000015c0       __imp_?WinHelpA@CWnd@@UEAAX_KI@Z 0000000067da75c0     mfc100:mfc100.dll
 0002:000015c8       __imp_?GetScrollBarCtrl@CWnd@@UEBAPEAVCScrollBar@@H@Z 0000000067da75c8     mfc100:mfc100.dll
 0002:000015d0       __imp_?OnToolHitTest@CWnd@@UEBA_JVCPoint@@PEAUtagTOOLINFOA@@@Z 0000000067da75d0     mfc100:mfc100.dll
 0002:000015d8       __imp_?SetMenu@CWnd@@UEAAHPEAVCMenu@@@Z 0000000067da75d8     mfc100:mfc100.dll
 0002:000015e0       __imp_?GetMenu@CWnd@@UEBAPEAVCMenu@@XZ 0000000067da75e0     mfc100:mfc100.dll
 0002:000015e8       __imp_?CalcWindowRect@CWnd@@UEAAXPEAUtagRECT@@I@Z 0000000067da75e8     mfc100:mfc100.dll
 0002:000015f0       __imp_?PreCreateWindow@CWnd@@UEAAHAEAUtagCREATESTRUCTA@@@Z 0000000067da75f0     mfc100:mfc100.dll
 0002:000015f8       __imp_?DestroyWindow@CWnd@@UEAAHXZ 0000000067da75f8     mfc100:mfc100.dll
 0002:00001600       __imp_?CreateEx@CWnd@@UEAAHKPEBD0KHHHHPEAUHWND__@@PEAUHMENU__@@PEAX@Z 0000000067da7600     mfc100:mfc100.dll
 0002:00001608       __imp_?CreateEx@CWnd@@UEAAHKPEBD0KAEBUtagRECT@@PEAV1@IPEAX@Z 0000000067da7608     mfc100:mfc100.dll
 0002:00001610       __imp_?Create@CWnd@@UEAAHPEBD0KAEBUtagRECT@@PEAV1@IPEAUCCreateContext@@@Z 0000000067da7610     mfc100:mfc100.dll
 0002:00001618       __imp_?PreSubclassWindow@CWnd@@UEAAXXZ 0000000067da7618     mfc100:mfc100.dll
 0002:00001620       __imp_?GetConnectionHook@CCmdTarget@@MEAAPEAUIConnectionPoint@@AEBU_GUID@@@Z 0000000067da7620     mfc100:mfc100.dll
 0002:00001628       __imp_?GetExtraConnectionPoints@CCmdTarget@@MEAAHPEAVCPtrArray@@@Z 0000000067da7628     mfc100:mfc100.dll
 0002:00001630       __imp_?GetInterfaceHook@CCmdTarget@@UEAAPEAUIUnknown@@PEBX@Z 0000000067da7630     mfc100:mfc100.dll
 0002:00001638       __imp_?OnCreateAggregates@CCmdTarget@@UEAAHXZ 0000000067da7638     mfc100:mfc100.dll
 0002:00001640       __imp_?GetEventSinkMap@CCmdTarget@@MEBAPEBUAFX_EVENTSINKMAP@@XZ 0000000067da7640     mfc100:mfc100.dll
 0002:00001648       __imp_?GetInterfaceMap@CWnd@@MEBAPEBUAFX_INTERFACEMAP@@XZ 0000000067da7648     mfc100:mfc100.dll
 0002:00001650       __imp_?GetConnectionMap@CCmdTarget@@MEBAPEBUAFX_CONNECTIONMAP@@XZ 0000000067da7650     mfc100:mfc100.dll
 0002:00001658       __imp_?GetDispatchMap@CCmdTarget@@MEBAPEBUAFX_DISPMAP@@XZ 0000000067da7658     mfc100:mfc100.dll
 0002:00001660       __imp_?GetCommandMap@CCmdTarget@@MEBAPEBUAFX_OLECMDMAP@@XZ 0000000067da7660     mfc100:mfc100.dll
 0002:00001668       __imp_?GetTypeLib@CCmdTarget@@UEAAJKPEAPEAUITypeLib@@@Z 0000000067da7668     mfc100:mfc100.dll
 0002:00001670       __imp_?GetTypeLibCache@CCmdTarget@@UEAAPEAVCTypeLibCache@@XZ 0000000067da7670     mfc100:mfc100.dll
 0002:00001678       __imp_?GetTypeInfoCount@CCmdTarget@@UEAAIXZ 0000000067da7678     mfc100:mfc100.dll
 0002:00001680       __imp_?GetDispatchIID@CCmdTarget@@UEAAHPEAU_GUID@@@Z 0000000067da7680     mfc100:mfc100.dll
 0002:00001688       __imp_?IsInvokeAllowed@CCmdTarget@@UEAAHJ@Z 0000000067da7688     mfc100:mfc100.dll
 0002:00001690       __imp_?OnFinalRelease@CWnd@@UEAAXXZ 0000000067da7690     mfc100:mfc100.dll
 0002:00001698       __imp_?OnCmdMsg@CDialog@@UEAAHIHPEAXPEAUAFX_CMDHANDLERINFO@@@Z 0000000067da7698     mfc100:mfc100.dll
 0002:000016a0       __imp_?GetRuntimeClass@CDialog@@UEBAPEAUCRuntimeClass@@XZ 0000000067da76a0     mfc100:mfc100.dll
 0002:000016a8       __imp_??0CDialog@@QEAA@IPEAVCWnd@@@Z 0000000067da76a8     mfc100:mfc100.dll
 0002:000016b0       __imp_??_V@YAXPEAX@Z       0000000067da76b0     mfc100:mfc100.dll
 0002:000016b8       __imp_??1CDialog@@UEAA@XZ  0000000067da76b8     mfc100:mfc100.dll
 0002:000016c0       __imp_?Default@CWnd@@IEAA_JXZ 0000000067da76c0     mfc100:mfc100.dll
 0002:000016c8       __imp_??3@YAXPEAX@Z        0000000067da76c8     mfc100:mfc100.dll
 0002:000016d0       __imp_?GetGestureStatus@CWnd@@MEAAKVCPoint@@@Z 0000000067da76d0     mfc100:mfc100.dll
 0002:000016d8       __imp_?get_accChild@CWnd@@UEAAJUtagVARIANT@@PEAPEAUIDispatch@@@Z 0000000067da76d8     mfc100:mfc100.dll
 0002:000016e0       \177mfc100_NULL_THUNK_DATA 0000000067da76e0     mfc100:mfc100.dll
 0002:000016e8       __xc_a                     0000000067da76e8     msvcrt:cinitexe.obj
 0002:000016f8       __xc_z                     0000000067da76f8     msvcrt:cinitexe.obj
 0002:00001700       __xi_a                     0000000067da7700     msvcrt:cinitexe.obj
 0002:00001710       __xi_z                     0000000067da7710     msvcrt:cinitexe.obj
 0002:00001728       ??_7CAbortDlg@@6B@         0000000067da7728     AbortDlg.obj
 0002:00001ac0       ??_C@_08FGDEIKKM@Vic?5Name?$AA@ 0000000067da7ac0     AcqConfigDlg.obj
 0002:00001ad0       ??_C@_0L@EHKKKJAJ@Model?5Name?$AA@ 0000000067da7ad0     AcqConfigDlg.obj
 0002:00001ae0       ??_C@_0N@LPKOPLJ@Company?5Name?$AA@ 0000000067da7ae0     AcqConfigDlg.obj
 0002:00001af0       ??_C@_0M@JIKEDLBG@Camera?5Name?$AA@ 0000000067da7af0     AcqConfigDlg.obj
 0002:00001afc       ??_C@_03IOBOMBFG@ccf?$AA@  0000000067da7afc     AcqConfigDlg.obj
 0002:00001b78       ??_C@_0O@MHKMKKDC@ConfigFileDir?$AA@ 0000000067da7b78     AcqConfigDlg.obj
 0002:00001b88       ??_C@_0P@EIOELGML@ConfigFileName?$AA@ 0000000067da7b88     AcqConfigDlg.obj
 0002:00001b98       ??_C@_08FLGELGHE@Resource?$AA@ 0000000067da7b98     AcqConfigDlg.obj
 0002:00001ba8       ??_C@_0P@BCPHBIBE@SapAcquisition?$AA@ 0000000067da7ba8     AcqConfigDlg.obj
 0002:00001bb8       ??_C@_06LGMEBDBC@Server?$AA@ 0000000067da7bb8     AcqConfigDlg.obj
 0002:00001be8       ??_C@_00CNPNBAHC@?$AA@     0000000067da7be8     AcqConfigDlg.obj
 0002:00001bf0       ??_C@_07ECEMPDJM@General?$AA@ 0000000067da7bf0     AcqConfigDlg.obj
 0002:00001bf8       ??_C@_07NBCGADJA@Unknown?$AA@ 0000000067da7bf8     AcqConfigDlg.obj
 0002:00001c00       ??_C@_05MCLBJHFM@Board?$AA@ 0000000067da7c00     AcqConfigDlg.obj
 0002:00001c08       ??_C@_0M@IGAEJANM@Server?5name?$AA@ 0000000067da7c08     AcqConfigDlg.obj
 0002:00001c14       ??_C@_06DHGOCNPL@Unknow?$AA@ 0000000067da7c14     AcqConfigDlg.obj
 0002:00001c50       ??_C@_0JE@OAAMOPEP@The?5selected?5file?5does?5not?5match@ 0000000067da7c50     AcqConfigDlg.obj
 0002:00001ce8       ??_C@_0CD@HEOFCGBO@Camera?5Configuration?5File?5Mismat@ 0000000067da7ce8     AcqConfigDlg.obj
 0002:00001d48       ??_7CListBox@@6B@          0000000067da7d48     AcqConfigDlg.obj
 0002:00002058       ??_7CComboBox@@6B@         0000000067da8058     AcqConfigDlg.obj
 0002:00002358       ??_7CEdit@@6B@             0000000067da8358     AcqConfigDlg.obj
 0002:00002650       ??_C@_0M@ONDELFLO@CameraLink_?$AA@ 0000000067da8650     AcqConfigDlg.obj
 0002:000026b0       ??_C@_02DKCKIIND@?$CFs?$AA@ 0000000067da86b0     AcqConfigDlg.obj
 0002:000026b8       ??_C@_0CA@MFLNOFDE@Not?5Available?5?9?5Resource?5In?5Use?$AA@ 0000000067da86b8     AcqConfigDlg.obj
 0002:000026d8       ??_C@_04HDOCAJNK@?$CFs?$CFs?$AA@ 0000000067da86d8     AcqConfigDlg.obj
 0002:00002710       ??_7CAcqConfigDlg@@6BSapManager@@@ 0000000067da8710     AcqConfigDlg.obj
 0002:00002728       ??_7CAcqConfigDlg@@6BCDialog@@@ 0000000067da8728     AcqConfigDlg.obj
 0002:00002ac0       ??_C@_0BM@OPNFDDGP@Please?5select?5a?5CCF?5file?4?4?4?$AA@ 0000000067da8ac0     AcqConfigDlg.obj
 0002:00002b08       ??_C@_0DO@HPLKKALF@Camera?5Configuration?5Files?$CI?$CK?4ccf@ 0000000067da8b08     AcqConfigDlg.obj
 0002:00002c30       ??_7CAcqDlg@@6BSapManager@@@ 0000000067da8c30     AcqDlg.obj
 0002:00002c48       ??_7CAcqDlg@@6BCDialog@@@  0000000067da8c48     AcqDlg.obj
 0002:00003050       ??_C@_02DPKJAMEF@?$CFd?$AA@ 0000000067da9050     AcqDlg.obj
 0002:00003058       ??_C@_0BL@FANCBNCF@Invalid?5acquisition?5object?$AA@ 0000000067da9058     AcqDlg.obj
 0002:00003088       ??_7CScrollBar@@6B@        0000000067da9088     AScanDlg.obj
 0002:00003408       ??_7CAScanDlg@@6BSapManager@@@ 0000000067da9408     AScanDlg.obj
 0002:00003418       ??_7CAScanDlg@@6BCDialog@@@ 0000000067da9418     AScanDlg.obj
 0002:00003760       ??_C@_0DK@HMDELPBI@Time?5integration?5duration?5out?5of@ 0000000067da9760     AScanDlg.obj
 0002:000037c8       ??_C@_0DI@NIKIJHOG@Frame?5integration?5count?5out?5of?5r@ 0000000067da97c8     AScanDlg.obj
 0002:00003800       ??_C@_0N@ECGEKAIB@CorAcqGetCap?$AA@ 0000000067da9800     AScanDlg.obj
 0002:00003920       ??_C@_0BF@DJJGMDDH@Avi?5Compression?5Type?$AA@ 0000000067da9920     AviFileDlg.obj
 0002:00003938       ??_C@_0BG@BODCLCMO@Avi?5Compression?5Level?$AA@ 0000000067da9938     AviFileDlg.obj
 0002:00003950       ??_C@_07KPENCGOF@SapFile?$AA@ 0000000067da9950     AviFileDlg.obj
 0002:00003958       ??_C@_0BA@IPPPFNME@Avi?5First?5Frame?$AA@ 0000000067da9958     AviFileDlg.obj
 0002:00003998       ??_7CAviFileDlg@@6B@       0000000067da9998     AviFileDlg.obj
 0002:00003d80       ??_7CBayerOptionsDlg@@6BSapManager@@@ 0000000067da9d80     BayerDlg.obj
 0002:00003d98       ??_7CBayerOptionsDlg@@6BCDialog@@@ 0000000067da9d98     BayerDlg.obj
 0002:00004108       ??_C@_0BK@FIMABCFD@No?5Bayer?5object?5specified?$AA@ 0000000067daa108     BayerDlg.obj
 0002:00004130       ??_C@_0EJ@CKOJKFEC@White?5balance?5is?5not?5available?5w@ 0000000067daa130     BayerDlg.obj
 0002:00004180       ??_C@_0CO@IAFKJJCM@You?5must?5select?5a?5ROI?5containing@ 0000000067daa180     BayerDlg.obj
 0002:00004398       ??_C@_0N@DHMDELMH@filename?4txt?$AA@ 0000000067daa398     BrowseDirDlg.obj
 0002:000043f8       ??_C@_0BF@FMJAKOIH@Browse?5for?5Directory?$AA@ 0000000067daa3f8     BrowseDirDlg.obj
 0002:00004410       ??_C@_0BN@NEOCHHEC@Monochrome?516?9bit?5?$CI3?5planes?$CJ?$AA@ 0000000067daa410     BufDlg.obj
 0002:00004430       ??_C@_0BN@DLCABMHM@Monochrome?516?9bit?5?$CI2?5planes?$CJ?$AA@ 0000000067daa430     BufDlg.obj
 0002:00004450       ??_C@_0BM@GPAKAEKL@Monochrome?58?9bit?5?$CI3?5planes?$CJ?$AA@ 0000000067daa450     BufDlg.obj
 0002:00004470       ??_C@_0BM@IAMIGPJF@Monochrome?58?9bit?5?$CI2?5planes?$CJ?$AA@ 0000000067daa470     BufDlg.obj
 0002:00004490       ??_C@_0O@GOOAALO@RGB?9IR?516?9bit?$AA@ 0000000067daa490     BufDlg.obj
 0002:000044a0       ??_C@_0N@PKMCIKN@RGB?9IR?58?9bit?$AA@ 0000000067daa4a0     BufDlg.obj
 0002:000044b0       ??_C@_0P@IJCDOFDE@BICOLOR?516?9bit?$AA@ 0000000067daa4b0     BufDlg.obj
 0002:000044c0       ??_C@_0O@KHNHFNHB@BICOLOR?58?9bit?$AA@ 0000000067daa4c0     BufDlg.obj
 0002:000044d0       ??_C@_0BC@KGGGHLHE@LAB?5Planar?516?9bit?$AA@ 0000000067daa4d0     BufDlg.obj
 0002:000044e8       ??_C@_0L@KMKLJJPK@LAB?5101010?$AA@ 0000000067daa4e8     BufDlg.obj
 0002:000044f8       ??_C@_0BB@INDFJKEN@LAB?5Planar?58?9bit?$AA@ 0000000067daa4f8     BufDlg.obj
 0002:0000450c       ??_C@_03LMGOANBG@LAB?$AA@  0000000067daa50c     BufDlg.obj
 0002:00004510       ??_C@_04HPIBLFCF@YUYV?$AA@ 0000000067daa510     BufDlg.obj
 0002:00004518       ??_C@_04HOBABLIG@YUY2?$AA@ 0000000067daa518     BufDlg.obj
 0002:00004520       ??_C@_04HMGDLMGO@UYVY?$AA@ 0000000067daa520     BufDlg.obj
 0002:00004528       ??_C@_03CAADKAK@HSV?$AA@   0000000067daa528     BufDlg.obj
 0002:00004530       ??_C@_0BB@EBEOAAIB@HSI?5Planar?58?9bit?$AA@ 0000000067daa530     BufDlg.obj
 0002:00004544       ??_C@_03MPFKDEJE@HSI?$AA@  0000000067daa544     BufDlg.obj
 0002:00004548       ??_C@_0BC@DGNMICON@RGB?5Planar?516?9bit?$AA@ 0000000067daa548     BufDlg.obj
 0002:00004560       ??_C@_0BB@IINBJCEC@RGB?5Planar?58?9bit?$AA@ 0000000067daa560     BufDlg.obj
 0002:00004578       ??_C@_0N@FPLECKGC@RGB?516161616?$AA@ 0000000067daa578     BufDlg.obj
 0002:00004588       ??_C@_0L@PIFNBNDH@RGB?5161616?$AA@ 0000000067daa588     BufDlg.obj
 0002:00004598       ??_C@_0L@FNDFAGHA@RGB?5101010?$AA@ 0000000067daa598     BufDlg.obj
 0002:000045a8       ??_C@_08CLBLADOJ@RGB?58888?$AA@ 0000000067daa5a8     BufDlg.obj
 0002:000045b8       ??_C@_0BF@EAEIKEMN@RGBR?5888?5?$CIred?5first?$CJ?$AA@ 0000000067daa5b8     BufDlg.obj
 0002:000045d0       ??_C@_0BF@GEFMFJCF@RGB?5888?5?$CIblue?5first?$CJ?$AA@ 0000000067daa5d0     BufDlg.obj
 0002:000045e8       ??_C@_07MKABEILO@RGB?5565?$AA@ 0000000067daa5e8     BufDlg.obj
 0002:000045f0       ??_C@_08PIPLDHJP@RGB?55551?$AA@ 0000000067daa5f0     BufDlg.obj
 0002:00004600       ??_C@_0BC@HHEGDDKP@Monochrome?516?9bit?$AA@ 0000000067daa600     BufDlg.obj
 0002:00004618       ??_C@_0BB@BGBKLAOJ@Monochrome?58?9bit?$AA@ 0000000067daa618     BufDlg.obj
 0002:00004630       ??_C@_0BB@DBBFOBCB@Monochrome?51?9bit?$AA@ 0000000067daa630     BufDlg.obj
 0002:000046f8       ??_7CBufDlg@@6B@           0000000067daa6f8     BufDlg.obj
 0002:00004aa0       ??_7CColorConversionOptionsDlg@@6BSapManager@@@ 0000000067daaaa0     ColorConversionDlg.obj
 0002:00004ab8       ??_7CColorConversionOptionsDlg@@6BCDialog@@@ 0000000067daaab8     ColorConversionDlg.obj
 0002:00004e50       ??_C@_0N@OONLOHLK@?5is?5selected?$AA@ 0000000067daae50     ColorConversionDlg.obj
 0002:00005080       ??_C@_0CF@OIGMDMLI@No?5Color?5Conversion?5object?5speci@ 0000000067dab080     ColorConversionDlg.obj
 0002:000050d0       ??_C@_0CO@IOHOEEPH@Bi?9Color?5Method?57?5?$CIcompatible?5wi@ 0000000067dab0d0     ColorConversionDlg.obj
 0002:00005100       ??_C@_0DC@OAKLKCEN@Bi?9Color?5Method?56?5?$CIcompatible?5wi@ 0000000067dab100     ColorConversionDlg.obj
 0002:00005138       ??_C@_0P@EBAMOKCD@Bayer?5Method?55?$AA@ 0000000067dab138     ColorConversionDlg.obj
 0002:00005148       ??_C@_0P@FIBHNLGC@Bayer?5Method?54?$AA@ 0000000067dab148     ColorConversionDlg.obj
 0002:00005158       ??_C@_0P@BHFGENKF@Bayer?5Method?53?$AA@ 0000000067dab158     ColorConversionDlg.obj
 0002:00005168       ??_C@_0P@OENHMOE@Bayer?5Method?52?$AA@ 0000000067dab168     ColorConversionDlg.obj
 0002:00005178       ??_C@_0P@CFGACPCH@Bayer?5Method?51?$AA@ 0000000067dab178     ColorConversionDlg.obj
 0002:00005188       ??_C@_09CLJFLNLE@No?5Method?$AA@ 0000000067dab188     ColorConversionDlg.obj
 0002:000051a8       ??_7CSliderCtrl@@6B@       0000000067dab1a8     CompDlg.obj
 0002:000054e0       ??_7CCompDlg@@6BSapManager@@@ 0000000067dab4e0     CompDlg.obj
 0002:000054f8       ??_7CCompDlg@@6BCDialog@@@ 0000000067dab4f8     CompDlg.obj
 0002:000059f0       ??_7CFlatFieldDlg@@6BSapManager@@@ 0000000067dab9f0     FlatFieldDlg.obj
 0002:00005a08       ??_7CFlatFieldDlg@@6BCDialog@@@ 0000000067daba08     FlatFieldDlg.obj
 0002:00005d50       ??_C@_0BE@HIHNNFKM@Invalid?5cluster?5map?$AA@ 0000000067dabd50     FlatFieldDlg.obj
 0002:00005d68       ??_C@_0CM@IEOLBPAL@Cluster?5map?5loaded?5with?5?$CFd?5defec@ 0000000067dabd68     FlatFieldDlg.obj
 0002:00005d94       ??_C@_03NIPKHAHH@csv?$AA@  0000000067dabd94     FlatFieldDlg.obj
 0002:00005d98       ??_C@_0P@JLJFGKAI@clustermap?4csv?$AA@ 0000000067dabd98     FlatFieldDlg.obj
 0002:00005da8       ??_C@_0CG@IHMBBENM@CSV?5?$CIComma?5delimited?$CJ?5?$CI?$CK?4csv?$CJ?$HM?$CK?4@ 0000000067dabda8     FlatFieldDlg.obj
 0002:00005df8       ??_C@_02DHOGEDBE@?5?$FN?$AA@ 0000000067dabdf8     FlatFieldDlg.obj
 0002:00005dfc       ??_C@_02KEGNLNML@?0?5?$AA@ 0000000067dabdfc     FlatFieldDlg.obj
 0002:00005e00       ??_C@_02PFNDMDBO@?$FL?5?$AA@ 0000000067dabe00     FlatFieldDlg.obj
 0002:00005ed0       ??_C@_06NBGJEFCJ@?$CF?42f?$CF?$CF?$AA@ 0000000067dabed0     FlatFieldDlg.obj
 0002:00005f08       ??_7CStatic@@6B@           0000000067dabf08     FlatFieldDlg.obj
 0002:000061f8       ??_7CButton@@6B@           0000000067dac1f8     FlatFieldDlg.obj
 0002:00006500       ??_C@_0L@LBHJMCDF@?$CFs?5?$CI?$CFs?3?$CFd?$CJ?$AA@ 0000000067dac500     FlatFieldDlg.obj
 0002:00006510       ??_C@_0O@KHJMBFME@?$CFs?5?$CI?$CFs?3?$CFd?$CJ?6?$CFs?$AA@ 0000000067dac510     FlatFieldDlg.obj
 0002:00006520       ??_C@_0BP@OIEOKIDM@Exception?5thrown?5in?5destructor?$AA@ 0000000067dac520     FlatFieldDlg.obj
 0002:00006540       ??_C@_0FC@HHCMBKHG@C?3?2Program?5Files?5?$CIx86?$CJ?2Microsoft@ 0000000067dac540     FlatFieldDlg.obj
 0002:00006598       __real@3ff0000000000000    0000000067dac598     FlatFieldDlg.obj
 0002:00006618       ??_C@_06KPBAEEOK@?$FLErr?$FN?5?$AA@ 0000000067dac618     FlatFieldDlg.obj
 0002:00006620       ??_C@_06PLMBAPFN@?$FLWrn?$FN?5?$AA@ 0000000067dac620     FlatFieldDlg.obj
 0002:00006628       ??_C@_06BJOEEIJK@?$FLMsg?$FN?5?$AA@ 0000000067dac628     FlatFieldDlg.obj
 0002:00006658       ??_C@_0BG@LLLPGOKF@Invalid?5buffer?5object?$AA@ 0000000067dac658     FlatFieldDlg.obj
 0002:00006670       ??_C@_0DA@DKEAPBIC@Step?53?3?5?5Save?5Calibration?5offset@ 0000000067dac670     FlatFieldDlg.obj
 0002:000066a0       ??_C@_01GBGANLPD@0?$AA@    0000000067dac6a0     FlatFieldDlg.obj
 0002:000066a8       ??_C@_0BA@CPNFBOGK@?$CD?$CDFileSelector?4?$AA@ 0000000067dac6a8     FlatFieldDlg.obj
 0002:000066b8       ??_C@_09DAGHKBFI@FlatField?$AA@ 0000000067dac6b8     FlatFieldDlg.obj
 0002:000066c4       ??_C@_04INACKGJP@Save?$AA@ 0000000067dac6c4     FlatFieldDlg.obj
 0002:000066cc       ??_C@_02PKJNKOBG@TS?$AA@   0000000067dac6cc     FlatFieldDlg.obj
 0002:000066d0       ??_C@_05IJMHHDMI@Genie?$AA@ 0000000067dac6d0     FlatFieldDlg.obj
 0002:000066d8       ??_C@_0BA@FLGNCIOA@DeviceModelName?$AA@ 0000000067dac6d8     FlatFieldDlg.obj
 0002:000066e8       ??_C@_05ONNNFGGP@Bayer?$AA@ 0000000067dac6e8     FlatFieldDlg.obj
 0002:000066f0       ??_C@_0L@NCAJOFAD@Monochrome?$AA@ 0000000067dac6f0     FlatFieldDlg.obj
 0002:00006700       ??_C@_09LHKCLHPM@Flat?5Line?$AA@ 0000000067dac700     FlatFieldDlg.obj
 0002:00006710       ??_C@_0L@MMGGCNML@Flat?5Field?$AA@ 0000000067dac710     FlatFieldDlg.obj
 0002:00006720       ??_C@_0CN@EMNMGOGH@?$CIrecommended?5average?5pixel?6value@ 0000000067dac720     FlatFieldDlg.obj
 0002:00006750       ??_C@_0CM@JGOBHFDE@?$CIrecommended?5average?5pixel?6value@ 0000000067dac750     FlatFieldDlg.obj
 0002:00006780       __real@4000000000000000    0000000067dac780     FlatFieldDlg.obj
 0002:00006788       ??_C@_0BB@DFLDOJCD@?$CFs?5?$CGBright?5Image?$AA@ 0000000067dac788     FlatFieldDlg.obj
 0002:000067a0       ??_C@_0CI@DOJLNJCO@Step?52?3?5?$CFs?5a?5non?9saturated?5brigh@ 0000000067dac7a0     FlatFieldDlg.obj
 0002:000067c8       ??_C@_0P@BKLCIOAG@?$CFs?5?$CGDark?5Image?$AA@ 0000000067dac7c8     FlatFieldDlg.obj
 0002:000067d8       ??_C@_0BI@GLPPPEMF@Step?51?3?5?$CFs?5a?5dark?5image?$AA@ 0000000067dac7d8     FlatFieldDlg.obj
 0002:000067f0       ??_C@_07DNCJJOBD@Acquire?$AA@ 0000000067dac7f0     FlatFieldDlg.obj
 0002:000067f8       ??_C@_04IPBPFFEL@Load?$AA@ 0000000067dac7f8     FlatFieldDlg.obj
 0002:00006800       ??_C@_0BK@FJJKDGAB@Invalid?5flat?9field?5object?$AA@ 0000000067dac800     FlatFieldDlg.obj
 0002:00006848       ??_C@_0BE@EFLJEAEI@File?5upload?5failed?4?$AA@ 0000000067dac848     FlatFieldDlg.obj
 0002:00006860       ??_C@_0CE@GKFODOBC@File?5upload?5completed?5successful@ 0000000067dac860     FlatFieldDlg.obj
 0002:00006888       ??_C@_0CJ@NPJMHPBK@Uploading?5file?5to?5device?4?4?4?5Plea@ 0000000067dac888     FlatFieldDlg.obj
 0002:000068b8       ??_C@_0BJ@JINNHDAJ@File?5saved?5successfully?4?$AA@ 0000000067dac8b8     FlatFieldDlg.obj
 0002:000068d8       ??_C@_07DFDFEJFN@FFC?4tif?$AA@ 0000000067dac8d8     FlatFieldDlg.obj
 0002:000068e0       ??_C@_0BK@GKBMAGJP@TIFF?5Files?5?$CI?$CK?4tif?$CJ?$HM?$CK?4tif?$HM?$AA@ 0000000067dac8e0     FlatFieldDlg.obj
 0002:00006928       ??_C@_0DJ@OLPJIGDJ@Calibration?5with?5a?5dark?5image?5ha@ 0000000067dac928     FlatFieldDlg.obj
 0002:00006968       ??_C@_0DM@MBNOMEDE@?5?5?5?5Maximum?5deviation?5allowed?5fr@ 0000000067dac968     FlatFieldDlg.obj
 0002:000069a8       ??_C@_0BM@CPAPBPBL@?5?5?5?5Average?5pixel?5value?3?5?$CFs?$AA@ 0000000067dac9a8     FlatFieldDlg.obj
 0002:000069d0       ??_C@_0LI@JFBOOCNO@The?5following?5statistics?5have?5be@ 0000000067dac9d0     FlatFieldDlg.obj
 0002:00006a90       ??_C@_0BAP@LFPMEKLK@The?5following?5statistics?5have?5be@ 0000000067daca90     FlatFieldDlg.obj
 0002:00006ba0       ??_C@_0CC@IJEIOOMH@?5?5?5Unable?5to?5get?5image?5statistic@ 0000000067dacba0     FlatFieldDlg.obj
 0002:00006bc8       ??_C@_0BH@IMNLKCGC@Dark?5image?5calibration?$AA@ 0000000067dacbc8     FlatFieldDlg.obj
 0002:00006be0       ??_C@_0BN@GBBBPCEI@Vertical?5offset?5from?5top?3?5?$CFd?$AA@ 0000000067dacbe0     FlatFieldDlg.obj
 0002:00006c00       ??_C@_0BP@GKHJLHLJ@Number?5of?5lines?5to?5average?3?5?$CFd?$AA@ 0000000067dacc00     FlatFieldDlg.obj
 0002:00006c20       ??_C@_0CA@FDKMEOHM@Number?5of?5frames?5to?5average?3?5?$CFd?$AA@ 0000000067dacc20     FlatFieldDlg.obj
 0002:00006c40       ??_C@_0BB@IBEIAGLK@Video?5type?3?5?8?$CFs?8?$AA@ 0000000067dacc40     FlatFieldDlg.obj
 0002:00006c58       ??_C@_0BG@OHFNEGHN@Correction?5type?3?5?8?$CFs?8?$AA@ 0000000067dacc58     FlatFieldDlg.obj
 0002:00006c70       ??_C@_04LIDDHMOL@Line?$AA@ 0000000067dacc70     FlatFieldDlg.obj
 0002:00006c78       ??_C@_05EPLKDJMH@Field?$AA@ 0000000067dacc78     FlatFieldDlg.obj
 0002:00006ca8       ??_C@_0DL@MNKLEMDH@Calibration?5with?5a?5bright?5image?5@ 0000000067dacca8     FlatFieldDlg.obj
 0002:00006ce8       ??_C@_0CF@KMGMFJKN@?5?5?5?5Number?5of?5clusters?5detected?3@ 0000000067dacce8     FlatFieldDlg.obj
 0002:00006d10       ??_C@_0DG@EMPPKLPI@?5?5?5?5Number?5of?5defective?5pixels?5d@ 0000000067dacd10     FlatFieldDlg.obj
 0002:00006d50       ??_C@_0LL@CHJDOBFE@?$CFlu?5pixels?5?$CI?$CF?42f?$CF?$CF?5?$CJ?5have?5been?5i@ 0000000067dacd50     FlatFieldDlg.obj
 0002:00006e10       ??_C@_0CM@CDPHOBCA@?5?5?5?5Number?5of?5pixels?5inside?5boun@ 0000000067dace10     FlatFieldDlg.obj
 0002:00006e40       ??_C@_0BE@DHBGJDNC@?5?5?5?5Upper?5bound?3?5?$CFs?$AA@ 0000000067dace40     FlatFieldDlg.obj
 0002:00006e58       ??_C@_0BE@HJGNFFIA@?5?5?5?5Lower?5bound?3?5?$CFs?$AA@ 0000000067dace58     FlatFieldDlg.obj
 0002:00006e70       ??_C@_0BO@DMDJDHEJ@?5?5?5?5Highest?5peak?5position?3?5?$CFs?$AA@ 0000000067dace70     FlatFieldDlg.obj
 0002:00006e90       ??_C@_0BIN@IEDFHGJN@The?5following?5statistics?5have?5be@ 0000000067dace90     FlatFieldDlg.obj
 0002:00007020       __real@4058c00000000000    0000000067dad020     FlatFieldDlg.obj
 0002:00007028       ??_C@_0BO@HNGIMDLB@Unable?5to?5get?5image?5statistic?$AA@ 0000000067dad028     FlatFieldDlg.obj
 0002:00007048       ??_C@_0BJ@LPKMBNGK@Bright?5image?5calibration?$AA@ 0000000067dad048     FlatFieldDlg.obj
 0002:00007090       ??_C@_0DM@KCBLFJDF@Image?5file?5selected?5doesn?8t?5have@ 0000000067dad090     FlatFieldDlg.obj
 0002:000070d0       ??_C@_0BI@NFBBHKMO@Loaded?5dark?5image?3?5?8?$CFs?8?$AA@ 0000000067dad0d0     FlatFieldDlg.obj
 0002:000070e8       ??_C@_0N@BFOOOCCK@?9format?5auto?$AA@ 0000000067dad0e8     FlatFieldDlg.obj
 0002:00007100       ??_C@_0FA@FBPKILOE@Image?5file?5has?5a?5different?5forma@ 0000000067dad100     FlatFieldDlg.obj
 0002:00007150       ??_C@_0BL@DGIDEJEA@Unable?5to?5acquire?5an?5image?$AA@ 0000000067dad150     FlatFieldDlg.obj
 0002:00007178       ??_SSapBuffer@@6B@         0000000067dad178     FlatFieldDlg.obj
 0002:00007608       ??_C@_0BK@CFDGCENE@Loaded?5bright?5image?3?5?8?$CFs?8?$AA@ 0000000067dad608     FlatFieldDlg.obj
 0002:00007788       ??_C@_04PKDHFCJF@HIGH?$AA@ 0000000067dad788     GioBidirectionalDlg.obj
 0002:00007790       ??_C@_03IBEFMGAI@LOW?$AA@  0000000067dad790     GioBidirectionalDlg.obj
 0002:000077c8       ??_7CGdiObject@@6B@        0000000067dad7c8     GioBidirectionalDlg.obj
 0002:00007820       ??_C@_0FC@PBLIGINI@C?3?2Program?5Files?5?$CIx86?$CJ?2Microsoft@ 0000000067dad820     GioBidirectionalDlg.obj
 0002:00007880       ??_7CBrush@@6B@            0000000067dad880     GioBidirectionalDlg.obj
 0002:00007928       ??_7CGioBidirectionalDlg@@6B@ 0000000067dad928     GioBidirectionalDlg.obj
 0002:00007c70       ??_C@_0M@GPNEGMCE@Rising?5Edge?$AA@ 0000000067dadc70     GioBidirectionalDlg.obj
 0002:00007ca8       ??_C@_03HPADHAHE@N?1A?$AA@ 0000000067dadca8     GioBidirectionalDlg.obj
 0002:00007cd8       ??_C@_05GCLNDCPO@fault?$AA@ 0000000067dadcd8     GioBidirectionalDlg.obj
 0002:00007ce0       ??_C@_0N@MCFIDAGM@Falling?5Edge?$AA@ 0000000067dadce0     GioBidirectionalDlg.obj
 0002:00007cf0       ??_C@_06NAEEEDIK@RS?9422?$AA@ 0000000067dadcf0     GioBidirectionalDlg.obj
 0002:00007cf8       ??_C@_0M@EOLJBMAN@LVDS?5RS?9644?$AA@ 0000000067dadcf8     GioBidirectionalDlg.obj
 0002:00007d08       ??_C@_0BG@IAMGFNNM@24?9Volts?5Single?5Ended?$AA@ 0000000067dadd08     GioBidirectionalDlg.obj
 0002:00007d20       ??_C@_0BG@EPIDPFFK@12?9Volts?5Single?5Ended?$AA@ 0000000067dadd20     GioBidirectionalDlg.obj
 0002:00007d38       ??_C@_0BF@PJAJLLCL@5?9Volts?5Single?5Ended?$AA@ 0000000067dadd38     GioBidirectionalDlg.obj
 0002:00007d50       ??_C@_0BH@KMPACII@3?43?9Volts?5Single?5Ended?$AA@ 0000000067dadd50     GioBidirectionalDlg.obj
 0002:00007d68       ??_C@_08NKCLJDKG@Reserved?$AA@ 0000000067dadd68     GioBidirectionalDlg.obj
 0002:00007d74       ??_C@_06PFDLEJLJ@Output?$AA@ 0000000067dadd74     GioBidirectionalDlg.obj
 0002:00007d7c       ??_C@_05DCDOHKAB@Input?$AA@ 0000000067dadd7c     GioBidirectionalDlg.obj
 0002:00007d88       ??_C@_0BB@NMDDMCAP@?5?$CIBidirectional?$CJ?$AA@ 0000000067dadd88     GioBidirectionalDlg.obj
 0002:00007da0       ??_C@_0O@MKAOODLE@Bidirectional?$AA@ 0000000067dadda0     GioBidirectionalDlg.obj
 0002:00007db0       ??_C@_0O@HGKJLGM@bidirectional?$AA@ 0000000067daddb0     GioBidirectionalDlg.obj
 0002:000083c8       ??_7CGioInputDlg@@6B@      0000000067dae3c8     GioInputDlg.obj
 0002:00008710       ??_C@_08CPMJJIAL@?5?$CIinput?$CJ?$AA@ 0000000067dae710     GioInputDlg.obj
 0002:0000871c       ??_C@_05DFJCHPDH@input?$AA@ 0000000067dae71c     GioInputDlg.obj
 0002:000089e8       ??_7CGioOutputDlg@@6B@     0000000067dae9e8     GioOutputDlg.obj
 0002:00008f48       ??_C@_0BD@KBJPDDHB@Invalid?5Gio?5object?$AA@ 0000000067daef48     GioOutputDlg.obj
 0002:00008f5c       ??_C@_06MAFFGDO@Active?$AA@ 0000000067daef5c     GioOutputDlg.obj
 0002:00008f64       ??_C@_05PCOCLALA@LVTTL?$AA@ 0000000067daef64     GioOutputDlg.obj
 0002:00008f6c       ??_C@_03KNKNDOHD@TTL?$AA@  0000000067daef6c     GioOutputDlg.obj
 0002:00008f70       ??_C@_04DECHBNHO@OPTO?$AA@ 0000000067daef70     GioOutputDlg.obj
 0002:00008f78       ??_C@_03ONDNACEM@LED?$AA@  0000000067daef78     GioOutputDlg.obj
 0002:00008f7c       ??_C@_03KHDGEDNG@NPN?$AA@  0000000067daef7c     GioOutputDlg.obj
 0002:00008f80       ??_C@_03NFAJNCNP@PNP?$AA@  0000000067daef80     GioOutputDlg.obj
 0002:00008f88       ??_C@_08IPBPJCJI@Tristate?$AA@ 0000000067daef88     GioOutputDlg.obj
 0002:00008f98       ??_C@_09PPKEFJKI@?5?$CIoutput?$CJ?$AA@ 0000000067daef98     GioOutputDlg.obj
 0002:00008fa4       ??_C@_06DKIGHACF@output?$AA@ 0000000067daefa4     GioOutputDlg.obj
 0002:00008fb0       ??_C@_0M@IBEGOEHO@CImageExWnd?$AA@ 0000000067daefb0     ImageExWnd.obj
 0002:00008fc0       ?classCImageExWnd@CImageExWnd@@2UCRuntimeClass@@B 0000000067daefc0     ImageExWnd.obj
 0002:00008ff8       ??_7CPen@@6B@              0000000067daeff8     ImageExWnd.obj
 0002:00009028       ??_7CBitmap@@6B@           0000000067daf028     ImageExWnd.obj
 0002:00009058       ??_7CRgn@@6B@              0000000067daf058     ImageExWnd.obj
 0002:00009088       ??_7CImageViewportWndEventHandler@@6B@ 0000000067daf088     ImageExWnd.obj
 0002:000090d8       ??_7CImageExWnd@@6BCImageViewportWndEventHandler@@@ 0000000067daf0d8     ImageExWnd.obj
 0002:00009108       ??_7CImageExWnd@@6BCStatic@@@ 0000000067daf108     ImageExWnd.obj
 0002:000093e8       ??_C@_0BD@LJEGDADL@inner?5image?5window?$AA@ 0000000067daf3e8     ImageExWnd.obj
 0002:000093fc       __real@3f800000            0000000067daf3fc     ImageExWnd.obj
 0002:00009400       __real@3fe0000000000000    0000000067daf400     ImageExWnd.obj
 0002:00009618       ??_C@_0BG@GGONPKMH@CImageFilterEditorDlg?$AA@ 0000000067daf618     ImageFilterEditorDlg.obj
 0002:00009668       ?classCImageFilterEditorDlg@CImageFilterEditorDlg@@2UCRuntimeClass@@B 0000000067daf668     ImageFilterEditorDlg.obj
 0002:000096c0       ??_C@_0CO@ELPBDPHA@Failed?5to?5read?5a?5coefficient?5fro@ 0000000067daf6c0     ImageFilterEditorDlg.obj
 0002:000096f0       ??_C@_04GBBGJLMB@?$CF?45f?$AA@ 0000000067daf6f0     ImageFilterEditorDlg.obj
 0002:00009700       ??_C@_0FF@KCPIHMOD@The?5input?5buffer?5is?5for?5a?5?$CFdx?$CFd?5@ 0000000067daf700     ImageFilterEditorDlg.obj
 0002:00009758       ??_C@_0CJ@IEBKEMNN@The?5input?5buffer?5is?5not?5a?5square@ 0000000067daf758     ImageFilterEditorDlg.obj
 0002:00009788       ??_C@_0BE@BJACJAFM@Image?5Filter?5Editor?$AA@ 0000000067daf788     ImageFilterEditorDlg.obj
 0002:000097c8       ??_C@_0CO@OHBNNIJE@Failed?5to?5load?1read?5the?5kernel?5f@ 0000000067daf7c8     ImageFilterEditorDlg.obj
 0002:000097f8       ??_C@_03OOINPMFE@crc?$AA@  0000000067daf7f8     ImageFilterEditorDlg.obj
 0002:00009800       ??_C@_0L@CDAICIDA@kernel?4crc?$AA@ 0000000067daf800     ImageFilterEditorDlg.obj
 0002:00009810       ??_C@_0CE@IKNONHPN@Teledyne?5DALSA?5Files?$CI?$CK?4crc?$CJ?$HM?$CK?4cr@ 0000000067daf810     ImageFilterEditorDlg.obj
 0002:00009840       ??_7bad_alloc@std@@6B@     0000000067daf840     ImageFilterEditorDlg.obj
 0002:00009850       ??_C@_0BI@CFPLBAOH@invalid?5string?5position?$AA@ 0000000067daf850     ImageFilterEditorDlg.obj
 0002:00009868       ??_C@_0BA@JFNIOLAK@string?5too?5long?$AA@ 0000000067daf868     ImageFilterEditorDlg.obj
 0002:000098a8       ??_7CImageFilterEditorDlg@@6B@ 0000000067daf8a8     ImageFilterEditorDlg.obj
 0002:00009c40       ??_C@_07FJJAPPM@?$CFd?5x?5?$CFd?$AA@ 0000000067dafc40     ImageFilterEditorDlg.obj
 0002:00009c48       ??_C@_0DJ@DIKCNNJD@Failed?5to?5create?5the?5edit?5contro@ 0000000067dafc48     ImageFilterEditorDlg.obj
 0002:00009cb0       ??_C@_0DB@BDJKAALE@Failed?5to?5read?5the?5coefficients?5@ 0000000067dafcb0     ImageFilterEditorDlg.obj
 0002:00009ce8       ??_C@_0DA@IHECGIAJ@Failed?5to?5get?5the?5coefficients?5f@ 0000000067dafce8     ImageFilterEditorDlg.obj
 0002:00009d18       ??_C@_0DJ@EOBHGEAI@Failed?5to?5create?5the?5buffer?5for?5@ 0000000067dafd18     ImageFilterEditorDlg.obj
 0002:00009d58       ??_C@_0CD@PHDKKNBO@Failed?5to?5enable?5the?5image?5filte@ 0000000067dafd58     ImageFilterEditorDlg.obj
 0002:00009d80       ??_C@_0DB@PKPOKJO@Failed?5to?5read?5the?5coefficients?5@ 0000000067dafd80     ImageFilterEditorDlg.obj
 0002:00009de8       ??_7?$basic_stringbuf@DU?$char_traits@D@std@@V?$allocator@D@2@@std@@6B@ 0000000067dafde8     ImageFilterEditorDlg.obj
 0002:00009e88       ??_C@_0CN@NOFBEKGG@The?5acquisition?5device?5passed?5in@ 0000000067dafe88     ImageFilterEditorDlg.obj
 0002:00009ec0       ??_C@_0GA@FOECIGIA@Not?5available?5for?5color?5correcti@ 0000000067dafec0     ImageFilterEditorDlg.obj
 0002:00009f20       ??_C@_0CP@MJHMNAAM@Image?5Filter?5is?5incompatible?5wit@ 0000000067daff20     ImageFilterEditorDlg.obj
 0002:00009f80       ??_7?$basic_istringstream@DU?$char_traits@D@std@@V?$allocator@D@2@@std@@6B@ 0000000067daff80     ImageFilterEditorDlg.obj
 0002:0000a000       ??_8?$basic_istringstream@DU?$char_traits@D@std@@V?$allocator@D@2@@std@@7B@ 0000000067db0000     ImageFilterEditorDlg.obj
 0002:0000a080       ??_C@_0DJ@CKBMELHL@Failed?5to?5convert?5?8?$CFs?8?5to?5a?5sign@ 0000000067db0080     ImageFilterEditorDlg.obj
 0002:0000a0c0       ??_C@_0CN@HMPOFMAA@Failed?5to?5write?5a?5coefficient?5to@ 0000000067db00c0     ImageFilterEditorDlg.obj
 0002:0000a0f0       ??_C@_0DP@HIGPBHNP@User?5value?5at?5location?5?$CI?$CFd?0?$CFd?$CJ?5w@ 0000000067db00f0     ImageFilterEditorDlg.obj
 0002:0000a130       ??_C@_0GG@JNGILBJB@The?5output?5buffer?5is?5for?5a?5?$CFdx?$CFd@ 0000000067db0130     ImageFilterEditorDlg.obj
 0002:0000a198       ??_C@_0CK@KCNMHPNI@The?5output?5buffer?5is?5not?5a?5squar@ 0000000067db0198     ImageFilterEditorDlg.obj
 0002:0000a1f0       ??_C@_0CD@OEFGLFMA@Failed?5to?5save?5the?5kernel?5to?5fil@ 0000000067db01f0     ImageFilterEditorDlg.obj
 0002:0000a218       ??_C@_0M@EDAHEFAM@?9format?5crc?$AA@ 0000000067db0218     ImageFilterEditorDlg.obj
 0002:0000a228       ??_C@_0DA@EPDLLOCP@Failed?5to?5write?5the?5coefficients@ 0000000067db0228     ImageFilterEditorDlg.obj
 0002:0000a280       ??_C@_0DA@DCALPCLI@Failed?5to?5set?5the?5coefficients?5o@ 0000000067db0280     ImageFilterEditorDlg.obj
 0002:0000a380       ??_C@_0CD@NKNBCPDB@Coefficients?5successfully?5applie@ 0000000067db0380     ImageFilterEditorDlg.obj
 0002:0000a3a8       ??_C@_0CC@NAANMPLG@Failed?5to?5apply?5the?5coefficients@ 0000000067db03a8     ImageFilterEditorDlg.obj
 0002:0000a3d0       ??_C@_0BC@BANKGPFK@CImageViewportWnd?$AA@ 0000000067db03d0     ImageViewportWnd.obj
 0002:0000a3e8       ?classCImageViewportWnd@CImageViewportWnd@@2UCRuntimeClass@@B 0000000067db03e8     ImageViewportWnd.obj
 0002:0000a478       ??_7CImageViewportWnd@@6B@ 0000000067db0478     ImageViewportWnd.obj
 0002:0000a848       __real@3f000000            0000000067db0848     ImageViewportWnd.obj
 0002:0000a84c       __real@3e000000            0000000067db084c     ImageViewportWnd.obj
 0002:0000a8a0       __real@42c80000            0000000067db08a0     ImageViewportWnd.obj
 0002:0000aac8       ??_C@_0CE@HEMHJNKO@Position?5x?3?$CF03ld?5y?3?$CF03ld?5?5?5Value@ 0000000067db0ac8     ImageWnd.obj
 0002:0000aaf0       ??_C@_0BL@GJEEFOBE@H?30x?$CF02x?5S?30x?$CF02x?5I?30x?$CF02x?$AA@ 0000000067db0af0     ImageWnd.obj
 0002:0000ab10       ??_C@_0BF@LJLMIFFI@H?3?$CF03d?5S?3?$CF03d?5I?3?$CF03d?$AA@ 0000000067db0b10     ImageWnd.obj
 0002:0000ab28       ??_C@_0BL@KBCHJMBH@L?30x?$CF02x?5A?30x?$CF02x?5B?30x?$CF02x?$AA@ 0000000067db0b28     ImageWnd.obj
 0002:0000ab48       ??_C@_0BF@COJOCNNI@L?3?$CF03d?5A?3?$CF03d?5B?3?$CF03d?$AA@ 0000000067db0b48     ImageWnd.obj
 0002:0000ab60       ??_C@_0BL@CELJNPCF@Y?30x?$CF02x?5U?30x?$CF02x?5V?30x?$CF02x?$AA@ 0000000067db0b60     ImageWnd.obj
 0002:0000ab80       ??_C@_0BF@ENGLDLL@Y?3?$CF03d?5U?3?$CF03d?5V?3?$CF03d?$AA@ 0000000067db0b80     ImageWnd.obj
 0002:0000ab98       ??_C@_0CE@GIAENJBM@R?30x?$CF02x?5G?30x?$CF02x?5B?30x?$CF02x?5A?30x?$CF@ 0000000067db0b98     ImageWnd.obj
 0002:0000abc0       ??_C@_0BM@IIOJLNOJ@R?3?$CF03d?5G?3?$CF03d?5B?3?$CF03d?5A?3?$CF03d?$AA@ 0000000067db0bc0     ImageWnd.obj
 0002:0000abdc       ??_C@_06BEICJAKK@0x?$CF02x?$AA@ 0000000067db0bdc     ImageWnd.obj
 0002:0000abe4       ??_C@_04OHGLKFFN@?$CF03d?$AA@ 0000000067db0be4     ImageWnd.obj
 0002:0000abf0       ??_C@_0BL@IPPEAAIK@R?30x?$CF02x?5G?30x?$CF02x?5B?30x?$CF02x?$AA@ 0000000067db0bf0     ImageWnd.obj
 0002:0000ac10       ??_C@_0BF@EOHHHIDC@R?3?$CF03d?5G?3?$CF03d?5B?3?$CF03d?$AA@ 0000000067db0c10     ImageWnd.obj
 0002:0000ac28       ??_C@_0BL@BKDNNDLE@H?30x?$CF02x?5S?30x?$CF02x?5V?30x?$CF02x?$AA@ 0000000067db0c28     ImageWnd.obj
 0002:0000ac48       ??_C@_0BF@CICKGJHP@H?3?$CF03d?5S?3?$CF03d?5V?3?$CF03d?$AA@ 0000000067db0c48     ImageWnd.obj
 0002:0000ac60       ??_C@_0BL@LMKKEAID@L?30x?$CF04x?5A?30x?$CF04x?5B?30x?$CF04x?$AA@ 0000000067db0c60     ImageWnd.obj
 0002:0000ac80       ??_C@_0BF@IADJJGCF@L?3?$CF05d?5A?3?$CF05d?5B?3?$CF05d?$AA@ 0000000067db0c80     ImageWnd.obj
 0002:0000ac98       ??_C@_03EKLFPLOI@n?1a?$AA@ 0000000067db0c98     ImageWnd.obj
 0002:0000aca0       ??_C@_0BJ@NOINAOGN@Pixel?5data?5not?5available?$AA@ 0000000067db0ca0     ImageWnd.obj
 0002:0000acc8       ??_7CRectTracker@@6B@      0000000067db0cc8     ImageWnd.obj
 0002:0000ad00       ??_7CSapRectTracker@@6B@   0000000067db0d00     ImageWnd.obj
 0002:0000ad38       ??_7CImageWnd@@6B@         0000000067db0d38     ImageWnd.obj
 0002:0000adb8       ?_interfaceEntries@CJpegFileDlg@@0QBUAFX_INTERFACEMAP_ENTRY@@B 0000000067db0db8     JpegFileDlg.obj
 0002:0000ade0       ?_dispatchEntries@CJpegFileDlg@@0QBUAFX_DISPMAP_ENTRY@@B 0000000067db0de0     JpegFileDlg.obj
 0002:0000ae20       ?dispatchMap@CJpegFileDlg@@1UAFX_DISPMAP@@B 0000000067db0e20     JpegFileDlg.obj
 0002:0000ae50       ?interfaceMap@CJpegFileDlg@@1UAFX_INTERFACEMAP@@B 0000000067db0e50     JpegFileDlg.obj
 0002:0000ae60       ??_C@_0N@JAMHJIAJ@Jpeg?5Quality?$AA@ 0000000067db0e60     JpegFileDlg.obj
 0002:0000aea8       ??_7CJpegFileDlg@@6B@      0000000067db0ea8     JpegFileDlg.obj
 0002:0000b240       ??_C@_0N@DMOFMGKK@CLoadSaveDlg?$AA@ 0000000067db1240     LoadSaveDlg.obj
 0002:0000b250       ??_C@_0BN@CFGOIGDL@corfile_val_compression_jpeg?$AA@ 0000000067db1250     LoadSaveDlg.obj
 0002:0000b270       ??_C@_0BM@ICIKMFJA@corfile_val_compression_lzw?$AA@ 0000000067db1270     LoadSaveDlg.obj
 0002:0000b290       ??_C@_0BM@FCBDEKCN@corfile_val_compression_rle?$AA@ 0000000067db1290     LoadSaveDlg.obj
 0002:0000b2b0       ??_C@_0BN@OGPHOKFB@corfile_val_compression_none?$AA@ 0000000067db12b0     LoadSaveDlg.obj
 0002:0000b2d0       ?classCLoadSaveDlg@CLoadSaveDlg@@2UCRuntimeClass@@B 0000000067db12d0     LoadSaveDlg.obj
 0002:0000b328       ??_C@_04KOACHJEN@Type?$AA@ 0000000067db1328     LoadSaveDlg.obj
 0002:0000b330       ??_C@_04FABLJDN@Name?$AA@  0000000067db1330     LoadSaveDlg.obj
 0002:0000b3b8       ??_C@_0N@MDIBIKKL@?5?9quality?5?$CFd?$AA@ 0000000067db13b8     LoadSaveDlg.obj
 0002:0000b3c8       ??_C@_0BB@MDAABLPN@?5?9compression?5?$CFs?$AA@ 0000000067db13c8     LoadSaveDlg.obj
 0002:0000b408       ??_C@_0CB@HIHNFCFK@?5?9width?5?$CFd?5?9height?5?$CFd?5?9offset?5?$CFd@ 0000000067db1408     LoadSaveDlg.obj
 0002:0000b458       ??_C@_06ENILEDBM@?5?9q?5?$CFd?$AA@ 0000000067db1458     LoadSaveDlg.obj
 0002:0000b4d8       ??_C@_0M@BEOIMNNB@?9format?5avi?$AA@ 0000000067db14d8     LoadSaveDlg.obj
 0002:0000b4e8       ??_C@_0M@JOCLLCPN@?9format?5jp2?$AA@ 0000000067db14e8     LoadSaveDlg.obj
 0002:0000b4f8       ??_C@_0M@FJOHBLOM@?9format?5jpg?$AA@ 0000000067db14f8     LoadSaveDlg.obj
 0002:0000b508       ??_C@_0M@JLGMLPIK@?9format?5raw?$AA@ 0000000067db1508     LoadSaveDlg.obj
 0002:0000b518       ??_C@_0M@ODMNJCPO@?9format?5tif?$AA@ 0000000067db1518     LoadSaveDlg.obj
 0002:0000b528       ??_C@_0M@INCOIHLG@?9format?5bmp?$AA@ 0000000067db1528     LoadSaveDlg.obj
 0002:0000b568       ??_7CLoadSaveDlg@@6B@      0000000067db1568     LoadSaveDlg.obj
 0002:0000b8f0       ??_C@_0IL@EHAHMLEE@BMP?5Files?5?$CI?$CK?4bmp?$CJ?$HM?$CK?4bmp?$HMTIF?5File@ 0000000067db18f0     LoadSaveDlg.obj
 0002:0000b980       ??_C@_0BK@IIOPDCBJ@AVI?5Files?5?$CI?$CK?4avi?$CJ?$HM?$CK?4avi?$HM?$HM?$AA@ 0000000067db1980     LoadSaveDlg.obj
 0002:0000b9d0       ??_C@_0FJ@BKMFLAEH@Warning?3?5data?5conversion?5to?5MONO@ 0000000067db19d0     LoadSaveDlg.obj
 0002:0000ba30       ??_C@_0FK@OMFNFBMO@Warning?3?5data?5conversion?5to?5RGB8@ 0000000067db1a30     LoadSaveDlg.obj
 0002:0000ba90       ??_C@_0FN@EJGFPHMP@Warning?3?5data?5conversion?5to?5RGB1@ 0000000067db1a90     LoadSaveDlg.obj
 0002:0000baf0       ??_C@_0FN@GBJMKIDD@Warning?3?5data?5conversion?5to?5RGB1@ 0000000067db1af0     LoadSaveDlg.obj
 0002:0000bbf8       ??_7CLScanDlg@@6BSapManager@@@ 0000000067db1bf8     LScanDlg.obj
 0002:0000bc08       ??_7CLScanDlg@@6BCDialog@@@ 0000000067db1c08     LScanDlg.obj
 0002:0000bf50       ??_C@_0DK@BGHGBBIM@Line?5integration?5duration?5out?5of@ 0000000067db1f50     LScanDlg.obj
 0002:0000c0c8       ??_C@_0L@OBGCFIID@Raw?5Offset?$AA@ 0000000067db20c8     RawFileDlg.obj
 0002:0000c0d8       ??_C@_0L@PHKCNAOJ@Raw?5Height?$AA@ 0000000067db20d8     RawFileDlg.obj
 0002:0000c0e8       ??_C@_09EMJFJJAK@Raw?5Width?$AA@ 0000000067db20e8     RawFileDlg.obj
 0002:0000c108       ??_7CRawFileDlg@@6B@       0000000067db2108     RawFileDlg.obj
 0002:0000c450       ??_C@_0L@HBFKPFKK@Raw?5Format?$AA@ 0000000067db2450     RawFileDlg.obj
 0002:0000c4b0       ??_C@_07KJLOKDKB@TypeLib?$AA@ 0000000067db24b0     SapClassGui.obj
 0002:0000c4b8       ??_C@_08KEKAJNJI@Software?$AA@ 0000000067db24b8     SapClassGui.obj
 0002:0000c4c4       ??_C@_06FDHFNJBJ@SYSTEM?$AA@ 0000000067db24c4     SapClassGui.obj
 0002:0000c4d0       ??_C@_08LOPHEHKG@SECURITY?$AA@ 0000000067db24d0     SapClassGui.obj
 0002:0000c4dc       ??_C@_03DDIMFGBA@SAM?$AA@  0000000067db24dc     SapClassGui.obj
 0002:0000c4e0       ??_C@_04IHBFOLAC@Mime?$AA@ 0000000067db24e0     SapClassGui.obj
 0002:0000c4e8       ??_C@_08PPIOJEA@Hardware?$AA@ 0000000067db24e8     SapClassGui.obj
 0002:0000c4f8       ??_C@_09JKPGEJCH@Interface?$AA@ 0000000067db24f8     SapClassGui.obj
 0002:0000c508       ??_C@_08PICKODJL@FileType?$AA@ 0000000067db2508     SapClassGui.obj
 0002:0000c518       ??_C@_0BF@HDDNNDFH@Component?5Categories?$AA@ 0000000067db2518     SapClassGui.obj
 0002:0000c530       ??_C@_05GIBEAPNE@CLSID?$AA@ 0000000067db2530     SapClassGui.obj
 0002:0000c538       ??_C@_05PDIKPLII@AppID?$AA@ 0000000067db2538     SapClassGui.obj
 0002:0000c540       ??_C@_06JBKGCNBB@Delete?$AA@ 0000000067db2540     SapClassGui.obj
 0002:0000c548       ??_C@_08KAAPDIAN@NoRemove?$AA@ 0000000067db2548     SapClassGui.obj
 0002:0000c558       ??_C@_0M@DBGDLGLL@ForceRemove?$AA@ 0000000067db2558     SapClassGui.obj
 0002:0000c564       ??_C@_03LAIAPFCB@Val?$AA@  0000000067db2564     SapClassGui.obj
 0002:0000c568       ??_C@_01HMGJMAIH@B?$AA@    0000000067db2568     SapClassGui.obj
 0002:0000c56c       ??_C@_01CKDDGHAB@D?$AA@    0000000067db256c     SapClassGui.obj
 0002:0000c570       ??_C@_01PLPBNMEI@M?$AA@    0000000067db2570     SapClassGui.obj
 0002:0000c574       ??_C@_01CPLAODJH@S?$AA@    0000000067db2574     SapClassGui.obj
 0002:0000c578       ??_C@_0BF@GPPHKJFN@Invalid?5DateTimeSpan?$AA@ 0000000067db2578     SapClassGui.obj
 0002:0000c590       ??_C@_0BB@KEKMKJPM@Invalid?5DateTime?$AA@ 0000000067db2590     SapClassGui.obj
 0002:0000c5a4       ?_Min@?$AtlLimits@H@ATL@@2HB 0000000067db25a4     SapClassGui.obj
 0002:0000c5a8       ?_Max@?$AtlLimits@H@ATL@@2HB 0000000067db25a8     SapClassGui.obj
 0002:0000c5ac       ?_Min@?$AtlLimits@I@ATL@@2IB 0000000067db25ac     SapClassGui.obj
 0002:0000c5b0       ?_Max@?$AtlLimits@I@ATL@@2IB 0000000067db25b0     SapClassGui.obj
 0002:0000c5b4       ?_Min@?$AtlLimits@J@ATL@@2JB 0000000067db25b4     SapClassGui.obj
 0002:0000c5b8       ?_Max@?$AtlLimits@J@ATL@@2JB 0000000067db25b8     SapClassGui.obj
 0002:0000c5bc       ?_Min@?$AtlLimits@K@ATL@@2KB 0000000067db25bc     SapClassGui.obj
 0002:0000c5c0       ?_Max@?$AtlLimits@K@ATL@@2KB 0000000067db25c0     SapClassGui.obj
 0002:0000c5c8       ?_Min@?$AtlLimits@_J@ATL@@2_JB 0000000067db25c8     SapClassGui.obj
 0002:0000c5d0       ?_Max@?$AtlLimits@_J@ATL@@2_JB 0000000067db25d0     SapClassGui.obj
 0002:0000c5d8       ?_Min@?$AtlLimits@_K@ATL@@2_KB 0000000067db25d8     SapClassGui.obj
 0002:0000c5e0       ?_Max@?$AtlLimits@_K@ATL@@2_KB 0000000067db25e0     SapClassGui.obj
 0002:0000c5e8       ?VT@?$CVarTypeInfo@D@ATL@@2GB 0000000067db25e8     SapClassGui.obj
 0002:0000c5f0       ?pmField@?$CVarTypeInfo@D@ATL@@2QEQtagVARIANT@@DEQ3@ 0000000067db25f0     SapClassGui.obj
 0002:0000c5f4       ?VT@?$CVarTypeInfo@E@ATL@@2GB 0000000067db25f4     SapClassGui.obj
 0002:0000c5f8       ?pmField@?$CVarTypeInfo@E@ATL@@2QEQtagVARIANT@@EEQ3@ 0000000067db25f8     SapClassGui.obj
 0002:0000c5fc       ?VT@?$CVarTypeInfo@PEAD@ATL@@2GB 0000000067db25fc     SapClassGui.obj
 0002:0000c600       ?pmField@?$CVarTypeInfo@PEAD@ATL@@2QEQtagVARIANT@@PEADEQ3@ 0000000067db2600     SapClassGui.obj
 0002:0000c604       ?VT@?$CVarTypeInfo@PEAE@ATL@@2GB 0000000067db2604     SapClassGui.obj
 0002:0000c608       ?pmField@?$CVarTypeInfo@PEAE@ATL@@2QEQtagVARIANT@@PEAEEQ3@ 0000000067db2608     SapClassGui.obj
 0002:0000c60c       ?VT@?$CVarTypeInfo@F@ATL@@2GB 0000000067db260c     SapClassGui.obj
 0002:0000c610       ?pmField@?$CVarTypeInfo@F@ATL@@2QEQtagVARIANT@@FEQ3@ 0000000067db2610     SapClassGui.obj
 0002:0000c614       ?VT@?$CVarTypeInfo@PEAF@ATL@@2GB 0000000067db2614     SapClassGui.obj
 0002:0000c618       ?pmField@?$CVarTypeInfo@PEAF@ATL@@2QEQtagVARIANT@@PEAFEQ3@ 0000000067db2618     SapClassGui.obj
 0002:0000c61c       ?VT@?$CVarTypeInfo@G@ATL@@2GB 0000000067db261c     SapClassGui.obj
 0002:0000c620       ?pmField@?$CVarTypeInfo@G@ATL@@2QEQtagVARIANT@@GEQ3@ 0000000067db2620     SapClassGui.obj
 0002:0000c624       ?VT@?$CVarTypeInfo@PEAG@ATL@@2GB 0000000067db2624     SapClassGui.obj
 0002:0000c628       ?pmField@?$CVarTypeInfo@PEAG@ATL@@2QEQtagVARIANT@@PEAGEQ3@ 0000000067db2628     SapClassGui.obj
 0002:0000c62c       ?VT@?$CVarTypeInfo@H@ATL@@2GB 0000000067db262c     SapClassGui.obj
 0002:0000c630       ?pmField@?$CVarTypeInfo@H@ATL@@2QEQtagVARIANT@@HEQ3@ 0000000067db2630     SapClassGui.obj
 0002:0000c634       ?VT@?$CVarTypeInfo@PEAH@ATL@@2GB 0000000067db2634     SapClassGui.obj
 0002:0000c638       ?pmField@?$CVarTypeInfo@PEAH@ATL@@2QEQtagVARIANT@@PEAHEQ3@ 0000000067db2638     SapClassGui.obj
 0002:0000c63c       ?VT@?$CVarTypeInfo@I@ATL@@2GB 0000000067db263c     SapClassGui.obj
 0002:0000c640       ?pmField@?$CVarTypeInfo@I@ATL@@2QEQtagVARIANT@@IEQ3@ 0000000067db2640     SapClassGui.obj
 0002:0000c644       ?VT@?$CVarTypeInfo@PEAI@ATL@@2GB 0000000067db2644     SapClassGui.obj
 0002:0000c648       ?pmField@?$CVarTypeInfo@PEAI@ATL@@2QEQtagVARIANT@@PEAIEQ3@ 0000000067db2648     SapClassGui.obj
 0002:0000c64c       ?VT@?$CVarTypeInfo@J@ATL@@2GB 0000000067db264c     SapClassGui.obj
 0002:0000c650       ?pmField@?$CVarTypeInfo@J@ATL@@2QEQtagVARIANT@@JEQ3@ 0000000067db2650     SapClassGui.obj
 0002:0000c654       ?VT@?$CVarTypeInfo@PEAJ@ATL@@2GB 0000000067db2654     SapClassGui.obj
 0002:0000c658       ?pmField@?$CVarTypeInfo@PEAJ@ATL@@2QEQtagVARIANT@@PEAJEQ3@ 0000000067db2658     SapClassGui.obj
 0002:0000c65c       ?VT@?$CVarTypeInfo@K@ATL@@2GB 0000000067db265c     SapClassGui.obj
 0002:0000c660       ?pmField@?$CVarTypeInfo@K@ATL@@2QEQtagVARIANT@@KEQ3@ 0000000067db2660     SapClassGui.obj
 0002:0000c664       ?VT@?$CVarTypeInfo@PEAK@ATL@@2GB 0000000067db2664     SapClassGui.obj
 0002:0000c668       ?pmField@?$CVarTypeInfo@PEAK@ATL@@2QEQtagVARIANT@@PEAKEQ3@ 0000000067db2668     SapClassGui.obj
 0002:0000c66c       ?VT@?$CVarTypeInfo@_J@ATL@@2GB 0000000067db266c     SapClassGui.obj
 0002:0000c670       ?pmField@?$CVarTypeInfo@_J@ATL@@2QEQtagVARIANT@@_JEQ3@ 0000000067db2670     SapClassGui.obj
 0002:0000c674       ?VT@?$CVarTypeInfo@PEA_J@ATL@@2GB 0000000067db2674     SapClassGui.obj
 0002:0000c678       ?pmField@?$CVarTypeInfo@PEA_J@ATL@@2QEQtagVARIANT@@PEA_JEQ3@ 0000000067db2678     SapClassGui.obj
 0002:0000c67c       ?VT@?$CVarTypeInfo@_K@ATL@@2GB 0000000067db267c     SapClassGui.obj
 0002:0000c680       ?pmField@?$CVarTypeInfo@_K@ATL@@2QEQtagVARIANT@@_KEQ3@ 0000000067db2680     SapClassGui.obj
 0002:0000c684       ?VT@?$CVarTypeInfo@PEA_K@ATL@@2GB 0000000067db2684     SapClassGui.obj
 0002:0000c688       ?pmField@?$CVarTypeInfo@PEA_K@ATL@@2QEQtagVARIANT@@PEA_KEQ3@ 0000000067db2688     SapClassGui.obj
 0002:0000c68c       ?VT@?$CVarTypeInfo@M@ATL@@2GB 0000000067db268c     SapClassGui.obj
 0002:0000c690       ?pmField@?$CVarTypeInfo@M@ATL@@2QEQtagVARIANT@@MEQ3@ 0000000067db2690     SapClassGui.obj
 0002:0000c694       ?VT@?$CVarTypeInfo@PEAM@ATL@@2GB 0000000067db2694     SapClassGui.obj
 0002:0000c698       ?pmField@?$CVarTypeInfo@PEAM@ATL@@2QEQtagVARIANT@@PEAMEQ3@ 0000000067db2698     SapClassGui.obj
 0002:0000c69c       ?VT@?$CVarTypeInfo@N@ATL@@2GB 0000000067db269c     SapClassGui.obj
 0002:0000c6a0       ?pmField@?$CVarTypeInfo@N@ATL@@2QEQtagVARIANT@@NEQ3@ 0000000067db26a0     SapClassGui.obj
 0002:0000c6a4       ?VT@?$CVarTypeInfo@PEAN@ATL@@2GB 0000000067db26a4     SapClassGui.obj
 0002:0000c6a8       ?pmField@?$CVarTypeInfo@PEAN@ATL@@2QEQtagVARIANT@@PEANEQ3@ 0000000067db26a8     SapClassGui.obj
 0002:0000c6ac       ?VT@?$CVarTypeInfo@PEAUtagVARIANT@@@ATL@@2GB 0000000067db26ac     SapClassGui.obj
 0002:0000c6b0       ?VT@?$CVarTypeInfo@PEA_W@ATL@@2GB 0000000067db26b0     SapClassGui.obj
 0002:0000c6b8       ?pmField@?$CVarTypeInfo@PEA_W@ATL@@2QEQtagVARIANT@@PEA_WEQ3@ 0000000067db26b8     SapClassGui.obj
 0002:0000c6bc       ?VT@?$CVarTypeInfo@PEAPEA_W@ATL@@2GB 0000000067db26bc     SapClassGui.obj
 0002:0000c6c0       ?pmField@?$CVarTypeInfo@PEAPEA_W@ATL@@2QEQtagVARIANT@@PEAPEA_WEQ3@ 0000000067db26c0     SapClassGui.obj
 0002:0000c6c4       ?VT@?$CVarTypeInfo@PEAUIUnknown@@@ATL@@2GB 0000000067db26c4     SapClassGui.obj
 0002:0000c6c8       ?pmField@?$CVarTypeInfo@PEAUIUnknown@@@ATL@@2QEQtagVARIANT@@PEAUIUnknown@@EQ3@ 0000000067db26c8     SapClassGui.obj
 0002:0000c6cc       ?VT@?$CVarTypeInfo@PEAPEAUIUnknown@@@ATL@@2GB 0000000067db26cc     SapClassGui.obj
 0002:0000c6d0       ?pmField@?$CVarTypeInfo@PEAPEAUIUnknown@@@ATL@@2QEQtagVARIANT@@PEAPEAUIUnknown@@EQ3@ 0000000067db26d0     SapClassGui.obj
 0002:0000c6d4       ?VT@?$CVarTypeInfo@PEAUIDispatch@@@ATL@@2GB 0000000067db26d4     SapClassGui.obj
 0002:0000c6d8       ?pmField@?$CVarTypeInfo@PEAUIDispatch@@@ATL@@2QEQtagVARIANT@@PEAUIDispatch@@EQ3@ 0000000067db26d8     SapClassGui.obj
 0002:0000c6dc       ?VT@?$CVarTypeInfo@PEAPEAUIDispatch@@@ATL@@2GB 0000000067db26dc     SapClassGui.obj
 0002:0000c6e0       ?pmField@?$CVarTypeInfo@PEAPEAUIDispatch@@@ATL@@2QEQtagVARIANT@@PEAPEAUIDispatch@@EQ3@ 0000000067db26e0     SapClassGui.obj
 0002:0000c6e4       ?VT@?$CVarTypeInfo@TtagCY@@@ATL@@2GB 0000000067db26e4     SapClassGui.obj
 0002:0000c6e8       ?pmField@?$CVarTypeInfo@TtagCY@@@ATL@@2QEQtagVARIANT@@TtagCY@@EQ3@ 0000000067db26e8     SapClassGui.obj
 0002:0000c6ec       ?VT@?$CVarTypeInfo@PEATtagCY@@@ATL@@2GB 0000000067db26ec     SapClassGui.obj
 0002:0000c6f0       ?pmField@?$CVarTypeInfo@PEATtagCY@@@ATL@@2QEQtagVARIANT@@PEATtagCY@@EQ3@ 0000000067db26f0     SapClassGui.obj
 0002:0000c6f4       ?c_bIsMFCDLLTraits@?$_MFCDLLTraitsCheck@DV?$StrTraitMFC_DLL@DV?$ChTraitsCRT@D@ATL@@@@@_CSTRING_IMPL_@ATL@@2_NB 0000000067db26f4     SapClassGui.obj
 0002:0000c6f5       ?c_bIsMFCDLLTraits@?$_MFCDLLTraitsCheck@_WV?$StrTraitMFC_DLL@_WV?$ChTraitsCRT@_W@ATL@@@@@_CSTRING_IMPL_@ATL@@2_NB 0000000067db26f5     SapClassGui.obj
 0002:0000c6f8       ?generic@CArchiveException@@2HB 0000000067db26f8     SapClassGui.obj
 0002:0000c6fc       ?generic@CFileException@@2HB 0000000067db26fc     SapClassGui.obj
 0002:0000c700       ?Millisecond@CFileTime@ATL@@2_KB 0000000067db2700     SapClassGui.obj
 0002:0000c708       ?Second@CFileTime@ATL@@2_KB 0000000067db2708     SapClassGui.obj
 0002:0000c710       ?Minute@CFileTime@ATL@@2_KB 0000000067db2710     SapClassGui.obj
 0002:0000c718       ?Hour@CFileTime@ATL@@2_KB  0000000067db2718     SapClassGui.obj
 0002:0000c720       ?Day@CFileTime@ATL@@2_KB   0000000067db2720     SapClassGui.obj
 0002:0000c728       ?Week@CFileTime@ATL@@2_KB  0000000067db2728     SapClassGui.obj
 0002:0000c730       ?szInvalidDateTime@ATL@@3QEBDEB 0000000067db2730     SapClassGui.obj
 0002:0000c738       ?szInvalidDateTimeSpan@ATL@@3QEBDEB 0000000067db2738     SapClassGui.obj
 0002:0000c740       LIBID_ATLLib               0000000067db2740     SapClassGui.obj
 0002:0000c750       CLSID_Registrar            0000000067db2750     SapClassGui.obj
 0002:0000c760       IID_IRegistrar             0000000067db2760     SapClassGui.obj
 0002:0000c770       IID_IAxWinHostWindow       0000000067db2770     SapClassGui.obj
 0002:0000c780       IID_IAxWinAmbientDispatch  0000000067db2780     SapClassGui.obj
 0002:0000c790       IID_IInternalConnection    0000000067db2790     SapClassGui.obj
 0002:0000c7a0       IID_IDocHostUIHandlerDispatch 0000000067db27a0     SapClassGui.obj
 0002:0000c7b0       IID_IAxWinHostWindowLic    0000000067db27b0     SapClassGui.obj
 0002:0000c7c0       IID_IAxWinAmbientDispatchEx 0000000067db27c0     SapClassGui.obj
 0002:0000c810       _pRawDllMain               0000000067db2810     SapClassGui.obj
 0002:0000c818       ?MAX_VALUE@CRegParser@ATL@@1HB 0000000067db2818     SapClassGui.obj
 0002:0000c81c       ?MAX_TYPE@CRegParser@ATL@@1HB 0000000067db281c     SapClassGui.obj
 0002:0000c820       ?rgszNeverDelete@CRegParser@ATL@@1QBQEBDB 0000000067db2820     SapClassGui.obj
 0002:0000c880       ?cbNeverDelete@CRegParser@ATL@@1HB 0000000067db2880     SapClassGui.obj
 0002:0000c884       ?c_bIsMFCDLLTraits@?$_MFCDLLTraitsCheck@DV?$StrTraitATL@DV?$ChTraitsCRT@D@ATL@@@ATL@@@_CSTRING_IMPL_@ATL@@2_NB 0000000067db2884     SapClassGui.obj
 0002:0000c885       ?c_bIsMFCDLLTraits@?$_MFCDLLTraitsCheck@_WV?$StrTraitATL@_WV?$ChTraitsCRT@_W@ATL@@@ATL@@@_CSTRING_IMPL_@ATL@@2_NB 0000000067db2885     SapClassGui.obj
 0002:0000c888       ?OLE_DATETIME_HALFSECOND@COleDateTimeSpan@ATL@@2NB 0000000067db2888     SapClassGui.obj
 0002:0000c890       ?CLSID_WinFormsControl@@3U_GUID@@B 0000000067db2890     SapClassGui.obj
 0002:0000c8a0       ?value@?$integral_constant@_N$0A@@tr1@std@@2_NB 0000000067db28a0     SapClassGui.obj
 0002:0000c8a1       ?value@?$integral_constant@_N$00@tr1@std@@2_NB 0000000067db28a1     SapClassGui.obj
 0002:0000c8a8       ?value@?$integral_constant@_K$0A@@tr1@std@@2_KB 0000000067db28a8     SapClassGui.obj
 0002:0000c8b0       ?_Rank@?$_Arithmetic_traits@_N@std@@2HB 0000000067db28b0     SapClassGui.obj
 0002:0000c8b4       ?_Rank@?$_Arithmetic_traits@D@std@@2HB 0000000067db28b4     SapClassGui.obj
 0002:0000c8b8       ?_Rank@?$_Arithmetic_traits@C@std@@2HB 0000000067db28b8     SapClassGui.obj
 0002:0000c8bc       ?_Rank@?$_Arithmetic_traits@E@std@@2HB 0000000067db28bc     SapClassGui.obj
 0002:0000c8c0       ?_Rank@?$_Arithmetic_traits@F@std@@2HB 0000000067db28c0     SapClassGui.obj
 0002:0000c8c4       ?_Rank@?$_Arithmetic_traits@G@std@@2HB 0000000067db28c4     SapClassGui.obj
 0002:0000c8c8       ?_Rank@?$_Arithmetic_traits@H@std@@2HB 0000000067db28c8     SapClassGui.obj
 0002:0000c8cc       ?_Rank@?$_Arithmetic_traits@I@std@@2HB 0000000067db28cc     SapClassGui.obj
 0002:0000c8d0       ?_Rank@?$_Arithmetic_traits@J@std@@2HB 0000000067db28d0     SapClassGui.obj
 0002:0000c8d4       ?_Rank@?$_Arithmetic_traits@K@std@@2HB 0000000067db28d4     SapClassGui.obj
 0002:0000c8d8       ?_Rank@?$_Arithmetic_traits@_J@std@@2HB 0000000067db28d8     SapClassGui.obj
 0002:0000c8dc       ?_Rank@?$_Arithmetic_traits@_K@std@@2HB 0000000067db28dc     SapClassGui.obj
 0002:0000c8e0       ?_Rank@?$_Arithmetic_traits@M@std@@2HB 0000000067db28e0     SapClassGui.obj
 0002:0000c8e4       ?_Rank@?$_Arithmetic_traits@N@std@@2HB 0000000067db28e4     SapClassGui.obj
 0002:0000c8e8       ?_Rank@?$_Arithmetic_traits@O@std@@2HB 0000000067db28e8     SapClassGui.obj
 0002:0000c8ec       ?collate@?$_Locbase@H@std@@2HB 0000000067db28ec     SapClassGui.obj
 0002:0000c8f0       ?ctype@?$_Locbase@H@std@@2HB 0000000067db28f0     SapClassGui.obj
 0002:0000c8f4       ?monetary@?$_Locbase@H@std@@2HB 0000000067db28f4     SapClassGui.obj
 0002:0000c8f8       ?numeric@?$_Locbase@H@std@@2HB 0000000067db28f8     SapClassGui.obj
 0002:0000c8fc       ?time@?$_Locbase@H@std@@2HB 0000000067db28fc     SapClassGui.obj
 0002:0000c900       ?messages@?$_Locbase@H@std@@2HB 0000000067db2900     SapClassGui.obj
 0002:0000c904       ?all@?$_Locbase@H@std@@2HB 0000000067db2904     SapClassGui.obj
 0002:0000c908       ?none@?$_Locbase@H@std@@2HB 0000000067db2908     SapClassGui.obj
 0002:0000c90c       ?skipws@?$_Iosb@H@std@@2W4_Fmtflags@12@B 0000000067db290c     SapClassGui.obj
 0002:0000c910       ?unitbuf@?$_Iosb@H@std@@2W4_Fmtflags@12@B 0000000067db2910     SapClassGui.obj
 0002:0000c914       ?uppercase@?$_Iosb@H@std@@2W4_Fmtflags@12@B 0000000067db2914     SapClassGui.obj
 0002:0000c918       ?showbase@?$_Iosb@H@std@@2W4_Fmtflags@12@B 0000000067db2918     SapClassGui.obj
 0002:0000c91c       ?showpoint@?$_Iosb@H@std@@2W4_Fmtflags@12@B 0000000067db291c     SapClassGui.obj
 0002:0000c920       ?showpos@?$_Iosb@H@std@@2W4_Fmtflags@12@B 0000000067db2920     SapClassGui.obj
 0002:0000c924       ?left@?$_Iosb@H@std@@2W4_Fmtflags@12@B 0000000067db2924     SapClassGui.obj
 0002:0000c928       ?right@?$_Iosb@H@std@@2W4_Fmtflags@12@B 0000000067db2928     SapClassGui.obj
 0002:0000c92c       ?internal@?$_Iosb@H@std@@2W4_Fmtflags@12@B 0000000067db292c     SapClassGui.obj
 0002:0000c930       ?dec@?$_Iosb@H@std@@2W4_Fmtflags@12@B 0000000067db2930     SapClassGui.obj
 0002:0000c934       ?oct@?$_Iosb@H@std@@2W4_Fmtflags@12@B 0000000067db2934     SapClassGui.obj
 0002:0000c938       ?hex@?$_Iosb@H@std@@2W4_Fmtflags@12@B 0000000067db2938     SapClassGui.obj
 0002:0000c93c       ?scientific@?$_Iosb@H@std@@2W4_Fmtflags@12@B 0000000067db293c     SapClassGui.obj
 0002:0000c940       ?fixed@?$_Iosb@H@std@@2W4_Fmtflags@12@B 0000000067db2940     SapClassGui.obj
 0002:0000c944       ?hexfloat@?$_Iosb@H@std@@2W4_Fmtflags@12@B 0000000067db2944     SapClassGui.obj
 0002:0000c948       ?boolalpha@?$_Iosb@H@std@@2W4_Fmtflags@12@B 0000000067db2948     SapClassGui.obj
 0002:0000c94c       ?_Stdio@?$_Iosb@H@std@@2W4_Fmtflags@12@B 0000000067db294c     SapClassGui.obj
 0002:0000c950       ?adjustfield@?$_Iosb@H@std@@2W4_Fmtflags@12@B 0000000067db2950     SapClassGui.obj
 0002:0000c954       ?basefield@?$_Iosb@H@std@@2W4_Fmtflags@12@B 0000000067db2954     SapClassGui.obj
 0002:0000c958       ?floatfield@?$_Iosb@H@std@@2W4_Fmtflags@12@B 0000000067db2958     SapClassGui.obj
 0002:0000c95c       ?goodbit@?$_Iosb@H@std@@2W4_Iostate@12@B 0000000067db295c     SapClassGui.obj
 0002:0000c960       ?eofbit@?$_Iosb@H@std@@2W4_Iostate@12@B 0000000067db2960     SapClassGui.obj
 0002:0000c964       ?failbit@?$_Iosb@H@std@@2W4_Iostate@12@B 0000000067db2964     SapClassGui.obj
 0002:0000c968       ?badbit@?$_Iosb@H@std@@2W4_Iostate@12@B 0000000067db2968     SapClassGui.obj
 0002:0000c96c       ?_Hardfail@?$_Iosb@H@std@@2W4_Iostate@12@B 0000000067db296c     SapClassGui.obj
 0002:0000c970       ?in@?$_Iosb@H@std@@2W4_Openmode@12@B 0000000067db2970     SapClassGui.obj
 0002:0000c974       ?out@?$_Iosb@H@std@@2W4_Openmode@12@B 0000000067db2974     SapClassGui.obj
 0002:0000c978       ?ate@?$_Iosb@H@std@@2W4_Openmode@12@B 0000000067db2978     SapClassGui.obj
 0002:0000c97c       ?app@?$_Iosb@H@std@@2W4_Openmode@12@B 0000000067db297c     SapClassGui.obj
 0002:0000c980       ?trunc@?$_Iosb@H@std@@2W4_Openmode@12@B 0000000067db2980     SapClassGui.obj
 0002:0000c984       ?_Nocreate@?$_Iosb@H@std@@2W4_Openmode@12@B 0000000067db2984     SapClassGui.obj
 0002:0000c988       ?_Noreplace@?$_Iosb@H@std@@2W4_Openmode@12@B 0000000067db2988     SapClassGui.obj
 0002:0000c98c       ?binary@?$_Iosb@H@std@@2W4_Openmode@12@B 0000000067db298c     SapClassGui.obj
 0002:0000c990       ?beg@?$_Iosb@H@std@@2W4_Seekdir@12@B 0000000067db2990     SapClassGui.obj
 0002:0000c994       ?cur@?$_Iosb@H@std@@2W4_Seekdir@12@B 0000000067db2994     SapClassGui.obj
 0002:0000c998       ?end@?$_Iosb@H@std@@2W4_Seekdir@12@B 0000000067db2998     SapClassGui.obj
 0002:0000c9a8       ??_7Thank_you@Define_the_symbol__ATL_MIXED@@6B@ 0000000067db29a8     SapClassGui.obj
 0002:0000c9b8       ??_7CImageExWndEventHandler@@6B@ 0000000067db29b8     SapClassGui.obj
 0002:0000ca38       ??_C@_0BG@POMAFMJP@Tiff?5Compression?5Type?$AA@ 0000000067db2a38     TiffFileDlg.obj
 0002:0000ca50       ??_C@_0BH@MGPIMPIL@Tiff?5Compression?5Level?$AA@ 0000000067db2a50     TiffFileDlg.obj
 0002:0000ca98       ??_7CTiffFileDlg@@6B@      0000000067db2a98     TiffFileDlg.obj
 0002:0000ce30       ??_C@_07LIIIPKDL@SapView?$AA@ 0000000067db2e30     ViewDlg.obj
 0002:0000ce38       ??_C@_0N@CMMLGDAK@Aspect?5Ratio?$AA@ 0000000067db2e38     ViewDlg.obj
 0002:0000ce58       ??_7CSpinButtonCtrl@@6B@   0000000067db2e58     ViewDlg.obj
 0002:0000d160       __real@3a83126f            0000000067db3160     ViewDlg.obj
 0002:0000d164       __real@4cbebc20            0000000067db3164     ViewDlg.obj
 0002:0000d198       ??_7CViewDlg@@6B@          0000000067db3198     ViewDlg.obj
 0002:0000d4e0       ??_C@_0L@OJBBIBIN@?5?$CIpage?5?$CFd?$CJ?$AA@ 0000000067db34e0     ViewDlg.obj
 0002:0000d768       ??_7type_info@@6B@         0000000067db3768     msvcrt:ti_inst.obj
 0002:0000d770       _pDefaultRawDllMain        0000000067db3770     msvcrt:crtdll.obj
 0002:0000d788       ?ProcessDetach@NativeDll@<CrtImplementationDetails>@@0IB 0000000067db3788     msvcrt:tncleanup.obj
 0002:0000d78c       ?ProcessAttach@NativeDll@<CrtImplementationDetails>@@0IB 0000000067db378c     msvcrt:tncleanup.obj
 0002:0000d790       ?ThreadAttach@NativeDll@<CrtImplementationDetails>@@0IB 0000000067db3790     msvcrt:tncleanup.obj
 0002:0000d794       ?ThreadDetach@NativeDll@<CrtImplementationDetails>@@0IB 0000000067db3794     msvcrt:tncleanup.obj
 0002:0000d798       ?ProcessVerifier@NativeDll@<CrtImplementationDetails>@@0IB 0000000067db3798     msvcrt:tncleanup.obj
 0002:0000d7a0       ??_R4CAbortDlg@@6B@        0000000067db37a0     AbortDlg.obj
 0002:0000d7c8       ??_R3CAbortDlg@@8          0000000067db37c8     AbortDlg.obj
 0002:0000d7e0       ??_R2CAbortDlg@@8          0000000067db37e0     AbortDlg.obj
 0002:0000d810       ??_R1A@?0A@EA@CAbortDlg@@8 0000000067db3810     AbortDlg.obj
 0002:0000d838       ??_R1A@?0A@EA@CDialog@@8   0000000067db3838     AbortDlg.obj
 0002:0000d860       ??_R3CDialog@@8            0000000067db3860     AbortDlg.obj
 0002:0000d878       ??_R2CDialog@@8            0000000067db3878     AbortDlg.obj
 0002:0000d8a0       ??_R1A@?0A@EA@CWnd@@8      0000000067db38a0     AbortDlg.obj
 0002:0000d8c8       ??_R3CWnd@@8               0000000067db38c8     AbortDlg.obj
 0002:0000d8e0       ??_R2CWnd@@8               0000000067db38e0     AbortDlg.obj
 0002:0000d900       ??_R1A@?0A@EA@CCmdTarget@@8 0000000067db3900     AbortDlg.obj
 0002:0000d928       ??_R3CCmdTarget@@8         0000000067db3928     AbortDlg.obj
 0002:0000d940       ??_R2CCmdTarget@@8         0000000067db3940     AbortDlg.obj
 0002:0000d958       ??_R1A@?0A@EA@CObject@@8   0000000067db3958     AbortDlg.obj
 0002:0000d980       ??_R3CObject@@8            0000000067db3980     AbortDlg.obj
 0002:0000d998       ??_R2CObject@@8            0000000067db3998     AbortDlg.obj
 0002:0000d9a8       ??_R4CListBox@@6B@         0000000067db39a8     AcqConfigDlg.obj
 0002:0000d9d0       ??_R3CListBox@@8           0000000067db39d0     AcqConfigDlg.obj
 0002:0000d9e8       ??_R2CListBox@@8           0000000067db39e8     AcqConfigDlg.obj
 0002:0000da10       ??_R1A@?0A@EA@CListBox@@8  0000000067db3a10     AcqConfigDlg.obj
 0002:0000da38       ??_R4CComboBox@@6B@        0000000067db3a38     AcqConfigDlg.obj
 0002:0000da60       ??_R3CComboBox@@8          0000000067db3a60     AcqConfigDlg.obj
 0002:0000da78       ??_R2CComboBox@@8          0000000067db3a78     AcqConfigDlg.obj
 0002:0000daa0       ??_R1A@?0A@EA@CComboBox@@8 0000000067db3aa0     AcqConfigDlg.obj
 0002:0000dac8       ??_R4CEdit@@6B@            0000000067db3ac8     AcqConfigDlg.obj
 0002:0000daf0       ??_R3CEdit@@8              0000000067db3af0     AcqConfigDlg.obj
 0002:0000db08       ??_R2CEdit@@8              0000000067db3b08     AcqConfigDlg.obj
 0002:0000db30       ??_R1A@?0A@EA@CEdit@@8     0000000067db3b30     AcqConfigDlg.obj
 0002:0000db58       ??_R4CAcqConfigDlg@@6BCDialog@@@ 0000000067db3b58     AcqConfigDlg.obj
 0002:0000db80       ??_R3CAcqConfigDlg@@8      0000000067db3b80     AcqConfigDlg.obj
 0002:0000db98       ??_R2CAcqConfigDlg@@8      0000000067db3b98     AcqConfigDlg.obj
 0002:0000dbd0       ??_R1A@?0A@EA@CAcqConfigDlg@@8 0000000067db3bd0     AcqConfigDlg.obj
 0002:0000dbf8       ??_R1BBI@?0A@EA@SapManager@@8 0000000067db3bf8     AcqConfigDlg.obj
 0002:0000dc20       ??_R3SapManager@@8         0000000067db3c20     AcqConfigDlg.obj
 0002:0000dc38       ??_R2SapManager@@8         0000000067db3c38     AcqConfigDlg.obj
 0002:0000dc48       ??_R1A@?0A@EA@SapManager@@8 0000000067db3c48     AcqConfigDlg.obj
 0002:0000dc70       ??_R4CAcqConfigDlg@@6BSapManager@@@ 0000000067db3c70     AcqConfigDlg.obj
 0002:0000dc98       ??_R4CAcqDlg@@6BCDialog@@@ 0000000067db3c98     AcqDlg.obj
 0002:0000dcc0       ??_R3CAcqDlg@@8            0000000067db3cc0     AcqDlg.obj
 0002:0000dcd8       ??_R2CAcqDlg@@8            0000000067db3cd8     AcqDlg.obj
 0002:0000dd10       ??_R1A@?0A@EA@CAcqDlg@@8   0000000067db3d10     AcqDlg.obj
 0002:0000dd38       ??_R4CAcqDlg@@6BSapManager@@@ 0000000067db3d38     AcqDlg.obj
 0002:0000dd60       ??_R4CScrollBar@@6B@       0000000067db3d60     AScanDlg.obj
 0002:0000dd88       ??_R3CScrollBar@@8         0000000067db3d88     AScanDlg.obj
 0002:0000dda0       ??_R2CScrollBar@@8         0000000067db3da0     AScanDlg.obj
 0002:0000ddc8       ??_R1A@?0A@EA@CScrollBar@@8 0000000067db3dc8     AScanDlg.obj
 0002:0000ddf0       ??_R4CAScanDlg@@6BCDialog@@@ 0000000067db3df0     AScanDlg.obj
 0002:0000de18       ??_R3CAScanDlg@@8          0000000067db3e18     AScanDlg.obj
 0002:0000de30       ??_R2CAScanDlg@@8          0000000067db3e30     AScanDlg.obj
 0002:0000de68       ??_R1A@?0A@EA@CAScanDlg@@8 0000000067db3e68     AScanDlg.obj
 0002:0000de90       ??_R4CAScanDlg@@6BSapManager@@@ 0000000067db3e90     AScanDlg.obj
 0002:0000deb8       ??_R4CAviFileDlg@@6B@      0000000067db3eb8     AviFileDlg.obj
 0002:0000dee0       ??_R3CAviFileDlg@@8        0000000067db3ee0     AviFileDlg.obj
 0002:0000def8       ??_R2CAviFileDlg@@8        0000000067db3ef8     AviFileDlg.obj
 0002:0000df28       ??_R1A@?0A@EA@CAviFileDlg@@8 0000000067db3f28     AviFileDlg.obj
 0002:0000df50       ??_R4CBayerOptionsDlg@@6BCDialog@@@ 0000000067db3f50     BayerDlg.obj
 0002:0000df78       ??_R3CBayerOptionsDlg@@8   0000000067db3f78     BayerDlg.obj
 0002:0000df90       ??_R2CBayerOptionsDlg@@8   0000000067db3f90     BayerDlg.obj
 0002:0000dfc8       ??_R1A@?0A@EA@CBayerOptionsDlg@@8 0000000067db3fc8     BayerDlg.obj
 0002:0000dff0       ??_R4CBayerOptionsDlg@@6BSapManager@@@ 0000000067db3ff0     BayerDlg.obj
 0002:0000e018       ??_R4CBufDlg@@6B@          0000000067db4018     BufDlg.obj
 0002:0000e040       ??_R3CBufDlg@@8            0000000067db4040     BufDlg.obj
 0002:0000e058       ??_R2CBufDlg@@8            0000000067db4058     BufDlg.obj
 0002:0000e088       ??_R1A@?0A@EA@CBufDlg@@8   0000000067db4088     BufDlg.obj
 0002:0000e0b0       ??_R4CColorConversionOptionsDlg@@6BCDialog@@@ 0000000067db40b0     ColorConversionDlg.obj
 0002:0000e0d8       ??_R3CColorConversionOptionsDlg@@8 0000000067db40d8     ColorConversionDlg.obj
 0002:0000e0f0       ??_R2CColorConversionOptionsDlg@@8 0000000067db40f0     ColorConversionDlg.obj
 0002:0000e128       ??_R1A@?0A@EA@CColorConversionOptionsDlg@@8 0000000067db4128     ColorConversionDlg.obj
 0002:0000e150       ??_R4CColorConversionOptionsDlg@@6BSapManager@@@ 0000000067db4150     ColorConversionDlg.obj
 0002:0000e178       ??_R4CSliderCtrl@@6B@      0000000067db4178     CompDlg.obj
 0002:0000e1a0       ??_R3CSliderCtrl@@8        0000000067db41a0     CompDlg.obj
 0002:0000e1b8       ??_R2CSliderCtrl@@8        0000000067db41b8     CompDlg.obj
 0002:0000e1e0       ??_R1A@?0A@EA@CSliderCtrl@@8 0000000067db41e0     CompDlg.obj
 0002:0000e208       ??_R4CCompDlg@@6BCDialog@@@ 0000000067db4208     CompDlg.obj
 0002:0000e230       ??_R3CCompDlg@@8           0000000067db4230     CompDlg.obj
 0002:0000e248       ??_R2CCompDlg@@8           0000000067db4248     CompDlg.obj
 0002:0000e280       ??_R1A@?0A@EA@CCompDlg@@8  0000000067db4280     CompDlg.obj
 0002:0000e2a8       ??_R4CCompDlg@@6BSapManager@@@ 0000000067db42a8     CompDlg.obj
 0002:0000e2d0       ??_R4CFlatFieldDlg@@6BCDialog@@@ 0000000067db42d0     FlatFieldDlg.obj
 0002:0000e2f8       ??_R3CFlatFieldDlg@@8      0000000067db42f8     FlatFieldDlg.obj
 0002:0000e310       ??_R2CFlatFieldDlg@@8      0000000067db4310     FlatFieldDlg.obj
 0002:0000e348       ??_R1A@?0A@EA@CFlatFieldDlg@@8 0000000067db4348     FlatFieldDlg.obj
 0002:0000e370       ??_R4CFlatFieldDlg@@6BSapManager@@@ 0000000067db4370     FlatFieldDlg.obj
 0002:0000e398       ??_R4CStatic@@6B@          0000000067db4398     FlatFieldDlg.obj
 0002:0000e3c0       ??_R3CStatic@@8            0000000067db43c0     FlatFieldDlg.obj
 0002:0000e3d8       ??_R2CStatic@@8            0000000067db43d8     FlatFieldDlg.obj
 0002:0000e400       ??_R1A@?0A@EA@CStatic@@8   0000000067db4400     FlatFieldDlg.obj
 0002:0000e428       ??_R4CButton@@6B@          0000000067db4428     FlatFieldDlg.obj
 0002:0000e450       ??_R3CButton@@8            0000000067db4450     FlatFieldDlg.obj
 0002:0000e468       ??_R2CButton@@8            0000000067db4468     FlatFieldDlg.obj
 0002:0000e490       ??_R1A@?0A@EA@CButton@@8   0000000067db4490     FlatFieldDlg.obj
 0002:0000e4b8       ??_R4SapBuffer@@6B@        0000000067db44b8     FlatFieldDlg.obj
 0002:0000e4e0       ??_R3SapBuffer@@8          0000000067db44e0     FlatFieldDlg.obj
 0002:0000e4f8       ??_R2SapBuffer@@8          0000000067db44f8     FlatFieldDlg.obj
 0002:0000e518       ??_R1A@?0A@EA@SapBuffer@@8 0000000067db4518     FlatFieldDlg.obj
 0002:0000e540       ??_R1A@?0A@EA@SapXferNode@@8 0000000067db4540     FlatFieldDlg.obj
 0002:0000e568       ??_R3SapXferNode@@8        0000000067db4568     FlatFieldDlg.obj
 0002:0000e580       ??_R2SapXferNode@@8        0000000067db4580     FlatFieldDlg.obj
 0002:0000e598       ??_R4CGdiObject@@6B@       0000000067db4598     GioBidirectionalDlg.obj
 0002:0000e5c0       ??_R3CGdiObject@@8         0000000067db45c0     GioBidirectionalDlg.obj
 0002:0000e5d8       ??_R2CGdiObject@@8         0000000067db45d8     GioBidirectionalDlg.obj
 0002:0000e5f0       ??_R1A@?0A@EA@CGdiObject@@8 0000000067db45f0     GioBidirectionalDlg.obj
 0002:0000e618       ??_R4CBrush@@6B@           0000000067db4618     GioBidirectionalDlg.obj
 0002:0000e640       ??_R3CBrush@@8             0000000067db4640     GioBidirectionalDlg.obj
 0002:0000e658       ??_R2CBrush@@8             0000000067db4658     GioBidirectionalDlg.obj
 0002:0000e678       ??_R1A@?0A@EA@CBrush@@8    0000000067db4678     GioBidirectionalDlg.obj
 0002:0000e6a0       ??_R4CGioBidirectionalDlg@@6B@ 0000000067db46a0     GioBidirectionalDlg.obj
 0002:0000e6c8       ??_R3CGioBidirectionalDlg@@8 0000000067db46c8     GioBidirectionalDlg.obj
 0002:0000e6e0       ??_R2CGioBidirectionalDlg@@8 0000000067db46e0     GioBidirectionalDlg.obj
 0002:0000e710       ??_R1A@?0A@EA@CGioBidirectionalDlg@@8 0000000067db4710     GioBidirectionalDlg.obj
 0002:0000e738       ??_R4CGioInputDlg@@6B@     0000000067db4738     GioInputDlg.obj
 0002:0000e760       ??_R3CGioInputDlg@@8       0000000067db4760     GioInputDlg.obj
 0002:0000e778       ??_R2CGioInputDlg@@8       0000000067db4778     GioInputDlg.obj
 0002:0000e7a8       ??_R1A@?0A@EA@CGioInputDlg@@8 0000000067db47a8     GioInputDlg.obj
 0002:0000e7d0       ??_R4CGioOutputDlg@@6B@    0000000067db47d0     GioOutputDlg.obj
 0002:0000e7f8       ??_R3CGioOutputDlg@@8      0000000067db47f8     GioOutputDlg.obj
 0002:0000e810       ??_R2CGioOutputDlg@@8      0000000067db4810     GioOutputDlg.obj
 0002:0000e840       ??_R1A@?0A@EA@CGioOutputDlg@@8 0000000067db4840     GioOutputDlg.obj
 0002:0000e868       ??_R4CPen@@6B@             0000000067db4868     ImageExWnd.obj
 0002:0000e890       ??_R3CPen@@8               0000000067db4890     ImageExWnd.obj
 0002:0000e8a8       ??_R2CPen@@8               0000000067db48a8     ImageExWnd.obj
 0002:0000e8c8       ??_R1A@?0A@EA@CPen@@8      0000000067db48c8     ImageExWnd.obj
 0002:0000e8f0       ??_R4CBitmap@@6B@          0000000067db48f0     ImageExWnd.obj
 0002:0000e918       ??_R3CBitmap@@8            0000000067db4918     ImageExWnd.obj
 0002:0000e930       ??_R2CBitmap@@8            0000000067db4930     ImageExWnd.obj
 0002:0000e950       ??_R1A@?0A@EA@CBitmap@@8   0000000067db4950     ImageExWnd.obj
 0002:0000e978       ??_R4CRgn@@6B@             0000000067db4978     ImageExWnd.obj
 0002:0000e9a0       ??_R3CRgn@@8               0000000067db49a0     ImageExWnd.obj
 0002:0000e9b8       ??_R2CRgn@@8               0000000067db49b8     ImageExWnd.obj
 0002:0000e9d8       ??_R1A@?0A@EA@CRgn@@8      0000000067db49d8     ImageExWnd.obj
 0002:0000ea00       ??_R4CImageViewportWndEventHandler@@6B@ 0000000067db4a00     ImageExWnd.obj
 0002:0000ea28       ??_R3CImageViewportWndEventHandler@@8 0000000067db4a28     ImageExWnd.obj
 0002:0000ea40       ??_R2CImageViewportWndEventHandler@@8 0000000067db4a40     ImageExWnd.obj
 0002:0000ea50       ??_R1A@?0A@EA@CImageViewportWndEventHandler@@8 0000000067db4a50     ImageExWnd.obj
 0002:0000ea78       ??_R4CImageExWnd@@6BCStatic@@@ 0000000067db4a78     ImageExWnd.obj
 0002:0000eaa0       ??_R3CImageExWnd@@8        0000000067db4aa0     ImageExWnd.obj
 0002:0000eab8       ??_R2CImageExWnd@@8        0000000067db4ab8     ImageExWnd.obj
 0002:0000eaf0       ??_R1A@?0A@EA@CImageExWnd@@8 0000000067db4af0     ImageExWnd.obj
 0002:0000eb18       ??_R1NI@?0A@EA@CImageViewportWndEventHandler@@8 0000000067db4b18     ImageExWnd.obj
 0002:0000eb40       ??_R4CImageExWnd@@6BCImageViewportWndEventHandler@@@ 0000000067db4b40     ImageExWnd.obj
 0002:0000eb68       ??_R4bad_alloc@std@@6B@    0000000067db4b68     ImageFilterEditorDlg.obj
 0002:0000eb90       ??_R3bad_alloc@std@@8      0000000067db4b90     ImageFilterEditorDlg.obj
 0002:0000eba8       ??_R2bad_alloc@std@@8      0000000067db4ba8     ImageFilterEditorDlg.obj
 0002:0000ebc0       ??_R1A@?0A@EA@bad_alloc@std@@8 0000000067db4bc0     ImageFilterEditorDlg.obj
 0002:0000ebe8       ??_R1A@?0A@EA@exception@std@@8 0000000067db4be8     ImageFilterEditorDlg.obj
 0002:0000ec10       ??_R3exception@std@@8      0000000067db4c10     ImageFilterEditorDlg.obj
 0002:0000ec28       ??_R2exception@std@@8      0000000067db4c28     ImageFilterEditorDlg.obj
 0002:0000ec38       ??_R4CImageFilterEditorDlg@@6B@ 0000000067db4c38     ImageFilterEditorDlg.obj
 0002:0000ec60       ??_R3CImageFilterEditorDlg@@8 0000000067db4c60     ImageFilterEditorDlg.obj
 0002:0000ec78       ??_R2CImageFilterEditorDlg@@8 0000000067db4c78     ImageFilterEditorDlg.obj
 0002:0000eca8       ??_R1A@?0A@EA@CImageFilterEditorDlg@@8 0000000067db4ca8     ImageFilterEditorDlg.obj
 0002:0000ecd0       ??_R4?$basic_stringbuf@DU?$char_traits@D@std@@V?$allocator@D@2@@std@@6B@ 0000000067db4cd0     ImageFilterEditorDlg.obj
 0002:0000ecf8       ??_R3?$basic_stringbuf@DU?$char_traits@D@std@@V?$allocator@D@2@@std@@8 0000000067db4cf8     ImageFilterEditorDlg.obj
 0002:0000ed10       ??_R2?$basic_stringbuf@DU?$char_traits@D@std@@V?$allocator@D@2@@std@@8 0000000067db4d10     ImageFilterEditorDlg.obj
 0002:0000ed28       ??_R1A@?0A@EA@?$basic_stringbuf@DU?$char_traits@D@std@@V?$allocator@D@2@@std@@8 0000000067db4d28     ImageFilterEditorDlg.obj
 0002:0000ed50       ??_R1A@?0A@EA@?$basic_streambuf@DU?$char_traits@D@std@@@std@@8 0000000067db4d50     ImageFilterEditorDlg.obj
 0002:0000ed78       ??_R3?$basic_streambuf@DU?$char_traits@D@std@@@std@@8 0000000067db4d78     ImageFilterEditorDlg.obj
 0002:0000ed90       ??_R2?$basic_streambuf@DU?$char_traits@D@std@@@std@@8 0000000067db4d90     ImageFilterEditorDlg.obj
 0002:0000eda0       ??_R4?$basic_istringstream@DU?$char_traits@D@std@@V?$allocator@D@2@@std@@6B@ 0000000067db4da0     ImageFilterEditorDlg.obj
 0002:0000edc8       ??_R3?$basic_istringstream@DU?$char_traits@D@std@@V?$allocator@D@2@@std@@8 0000000067db4dc8     ImageFilterEditorDlg.obj
 0002:0000ede0       ??_R2?$basic_istringstream@DU?$char_traits@D@std@@V?$allocator@D@2@@std@@8 0000000067db4de0     ImageFilterEditorDlg.obj
 0002:0000ee10       ??_R1A@?0A@EA@?$basic_istringstream@DU?$char_traits@D@std@@V?$allocator@D@2@@std@@8 0000000067db4e10     ImageFilterEditorDlg.obj
 0002:0000ee38       ??_R1A@?0A@EA@?$basic_istream@DU?$char_traits@D@std@@@std@@8 0000000067db4e38     ImageFilterEditorDlg.obj
 0002:0000ee60       ??_R3?$basic_istream@DU?$char_traits@D@std@@@std@@8 0000000067db4e60     ImageFilterEditorDlg.obj
 0002:0000ee78       ??_R2?$basic_istream@DU?$char_traits@D@std@@@std@@8 0000000067db4e78     ImageFilterEditorDlg.obj
 0002:0000eea0       ??_R1A@A@3FA@?$basic_ios@DU?$char_traits@D@std@@@std@@8 0000000067db4ea0     ImageFilterEditorDlg.obj
 0002:0000eec8       ??_R3?$basic_ios@DU?$char_traits@D@std@@@std@@8 0000000067db4ec8     ImageFilterEditorDlg.obj
 0002:0000eee0       ??_R2?$basic_ios@DU?$char_traits@D@std@@@std@@8 0000000067db4ee0     ImageFilterEditorDlg.obj
 0002:0000ef00       ??_R1A@?0A@EA@?$basic_ios@DU?$char_traits@D@std@@@std@@8 0000000067db4f00     ImageFilterEditorDlg.obj
 0002:0000ef28       ??_R1A@?0A@EA@ios_base@std@@8 0000000067db4f28     ImageFilterEditorDlg.obj
 0002:0000ef50       ??_R3ios_base@std@@8       0000000067db4f50     ImageFilterEditorDlg.obj
 0002:0000ef68       ??_R2ios_base@std@@8       0000000067db4f68     ImageFilterEditorDlg.obj
 0002:0000ef80       ??_R17?0A@EA@?$_Iosb@H@std@@8 0000000067db4f80     ImageFilterEditorDlg.obj
 0002:0000efa8       ??_R3?$_Iosb@H@std@@8      0000000067db4fa8     ImageFilterEditorDlg.obj
 0002:0000efc0       ??_R2?$_Iosb@H@std@@8      0000000067db4fc0     ImageFilterEditorDlg.obj
 0002:0000efd0       ??_R1A@?0A@EA@?$_Iosb@H@std@@8 0000000067db4fd0     ImageFilterEditorDlg.obj
 0002:0000eff8       ??_R1A@A@3EA@ios_base@std@@8 0000000067db4ff8     ImageFilterEditorDlg.obj
 0002:0000f020       ??_R17A@3EA@?$_Iosb@H@std@@8 0000000067db5020     ImageFilterEditorDlg.obj
 0002:0000f048       ??_R4CImageViewportWnd@@6B@ 0000000067db5048     ImageViewportWnd.obj
 0002:0000f070       ??_R3CImageViewportWnd@@8  0000000067db5070     ImageViewportWnd.obj
 0002:0000f088       ??_R2CImageViewportWnd@@8  0000000067db5088     ImageViewportWnd.obj
 0002:0000f0b8       ??_R1A@?0A@EA@CImageViewportWnd@@8 0000000067db50b8     ImageViewportWnd.obj
 0002:0000f0e0       ??_R4CRectTracker@@6B@     0000000067db50e0     ImageWnd.obj
 0002:0000f108       ??_R3CRectTracker@@8       0000000067db5108     ImageWnd.obj
 0002:0000f120       ??_R2CRectTracker@@8       0000000067db5120     ImageWnd.obj
 0002:0000f130       ??_R1A@?0A@EA@CRectTracker@@8 0000000067db5130     ImageWnd.obj
 0002:0000f158       ??_R4CSapRectTracker@@6B@  0000000067db5158     ImageWnd.obj
 0002:0000f180       ??_R3CSapRectTracker@@8    0000000067db5180     ImageWnd.obj
 0002:0000f198       ??_R2CSapRectTracker@@8    0000000067db5198     ImageWnd.obj
 0002:0000f1b0       ??_R1A@?0A@EA@CSapRectTracker@@8 0000000067db51b0     ImageWnd.obj
 0002:0000f1d8       ??_R4CImageWnd@@6B@        0000000067db51d8     ImageWnd.obj
 0002:0000f200       ??_R3CImageWnd@@8          0000000067db5200     ImageWnd.obj
 0002:0000f218       ??_R2CImageWnd@@8          0000000067db5218     ImageWnd.obj
 0002:0000f228       ??_R1A@?0A@EA@CImageWnd@@8 0000000067db5228     ImageWnd.obj
 0002:0000f250       ??_R4CJpegFileDlg@@6B@     0000000067db5250     JpegFileDlg.obj
 0002:0000f278       ??_R3CJpegFileDlg@@8       0000000067db5278     JpegFileDlg.obj
 0002:0000f290       ??_R2CJpegFileDlg@@8       0000000067db5290     JpegFileDlg.obj
 0002:0000f2c0       ??_R1A@?0A@EA@CJpegFileDlg@@8 0000000067db52c0     JpegFileDlg.obj
 0002:0000f2e8       ??_R4CLoadSaveDlg@@6B@     0000000067db52e8     LoadSaveDlg.obj
 0002:0000f310       ??_R3CLoadSaveDlg@@8       0000000067db5310     LoadSaveDlg.obj
 0002:0000f328       ??_R2CLoadSaveDlg@@8       0000000067db5328     LoadSaveDlg.obj
 0002:0000f368       ??_R1A@?0A@EA@CLoadSaveDlg@@8 0000000067db5368     LoadSaveDlg.obj
 0002:0000f390       ??_R1A@?0A@EA@CFileDialog@@8 0000000067db5390     LoadSaveDlg.obj
 0002:0000f3b8       ??_R3CFileDialog@@8        0000000067db53b8     LoadSaveDlg.obj
 0002:0000f3d0       ??_R2CFileDialog@@8        0000000067db53d0     LoadSaveDlg.obj
 0002:0000f408       ??_R1A@?0A@EA@CCommonDialog@@8 0000000067db5408     LoadSaveDlg.obj
 0002:0000f430       ??_R3CCommonDialog@@8      0000000067db5430     LoadSaveDlg.obj
 0002:0000f448       ??_R2CCommonDialog@@8      0000000067db5448     LoadSaveDlg.obj
 0002:0000f478       ??_R4CLScanDlg@@6BCDialog@@@ 0000000067db5478     LScanDlg.obj
 0002:0000f4a0       ??_R3CLScanDlg@@8          0000000067db54a0     LScanDlg.obj
 0002:0000f4b8       ??_R2CLScanDlg@@8          0000000067db54b8     LScanDlg.obj
 0002:0000f4f0       ??_R1A@?0A@EA@CLScanDlg@@8 0000000067db54f0     LScanDlg.obj
 0002:0000f518       ??_R4CLScanDlg@@6BSapManager@@@ 0000000067db5518     LScanDlg.obj
 0002:0000f540       ??_R4CRawFileDlg@@6B@      0000000067db5540     RawFileDlg.obj
 0002:0000f568       ??_R3CRawFileDlg@@8        0000000067db5568     RawFileDlg.obj
 0002:0000f580       ??_R2CRawFileDlg@@8        0000000067db5580     RawFileDlg.obj
 0002:0000f5b0       ??_R1A@?0A@EA@CRawFileDlg@@8 0000000067db55b0     RawFileDlg.obj
 0002:0000f5d8       ??_R4Thank_you@Define_the_symbol__ATL_MIXED@@6B@ 0000000067db55d8     SapClassGui.obj
 0002:0000f600       ??_R3Thank_you@Define_the_symbol__ATL_MIXED@@8 0000000067db5600     SapClassGui.obj
 0002:0000f618       ??_R2Thank_you@Define_the_symbol__ATL_MIXED@@8 0000000067db5618     SapClassGui.obj
 0002:0000f628       ??_R1A@?0A@EA@Thank_you@Define_the_symbol__ATL_MIXED@@8 0000000067db5628     SapClassGui.obj
 0002:0000f650       ??_R4CImageExWndEventHandler@@6B@ 0000000067db5650     SapClassGui.obj
 0002:0000f678       ??_R3CImageExWndEventHandler@@8 0000000067db5678     SapClassGui.obj
 0002:0000f690       ??_R2CImageExWndEventHandler@@8 0000000067db5690     SapClassGui.obj
 0002:0000f6a8       ??_R1A@?0A@EA@CImageExWndEventHandler@@8 0000000067db56a8     SapClassGui.obj
 0002:0000f6d0       ??_R4CTiffFileDlg@@6B@     0000000067db56d0     TiffFileDlg.obj
 0002:0000f6f8       ??_R3CTiffFileDlg@@8       0000000067db56f8     TiffFileDlg.obj
 0002:0000f710       ??_R2CTiffFileDlg@@8       0000000067db5710     TiffFileDlg.obj
 0002:0000f740       ??_R1A@?0A@EA@CTiffFileDlg@@8 0000000067db5740     TiffFileDlg.obj
 0002:0000f768       ??_R4CSpinButtonCtrl@@6B@  0000000067db5768     ViewDlg.obj
 0002:0000f790       ??_R3CSpinButtonCtrl@@8    0000000067db5790     ViewDlg.obj
 0002:0000f7a8       ??_R2CSpinButtonCtrl@@8    0000000067db57a8     ViewDlg.obj
 0002:0000f7d0       ??_R1A@?0A@EA@CSpinButtonCtrl@@8 0000000067db57d0     ViewDlg.obj
 0002:0000f7f8       ??_R4CViewDlg@@6B@         0000000067db57f8     ViewDlg.obj
 0002:0000f820       ??_R3CViewDlg@@8           0000000067db5820     ViewDlg.obj
 0002:0000f838       ??_R2CViewDlg@@8           0000000067db5838     ViewDlg.obj
 0002:0000f868       ??_R1A@?0A@EA@CViewDlg@@8  0000000067db5868     ViewDlg.obj
 0002:0000f890       ??_R4type_info@@6B@        0000000067db5890     msvcrt:ti_inst.obj
 0002:0000f8b8       ??_R3type_info@@8          0000000067db58b8     msvcrt:ti_inst.obj
 0002:0000f8d0       ??_R2type_info@@8          0000000067db58d0     msvcrt:ti_inst.obj
 0002:0000f8e0       ??_R1A@?0A@EA@type_info@@8 0000000067db58e0     msvcrt:ti_inst.obj
 0002:0000f908       __rtc_iaa                  0000000067db5908     msvcrt:_initsect_.obj
 0002:0000f910       __rtc_izz                  0000000067db5910     msvcrt:_initsect_.obj
 0002:0000f918       __rtc_taa                  0000000067db5918     msvcrt:_initsect_.obj
 0002:0000f920       __rtc_tzz                  0000000067db5920     msvcrt:_initsect_.obj
 0002:00015228       _TI2?AVbad_alloc@std@@     0000000067dbb228     ImageFilterEditorDlg.obj
 0002:00015248       _CTA2?AVbad_alloc@std@@    0000000067dbb248     ImageFilterEditorDlg.obj
 0002:00015260       _CT??_R0?AVbad_alloc@std@@@8??0bad_alloc@std@@QEAA@AEBV01@@Z24 0000000067dbb260     ImageFilterEditorDlg.obj
 0002:00015288       _CT??_R0?AVexception@std@@@8??0exception@std@@QEAA@AEBV01@@Z24 0000000067dbb288     ImageFilterEditorDlg.obj
 0002:000152b0       __pobjMapEntryFirst        0000000067dbb2b0     SapClassGui.obj
 0002:000152b8       __pobjMapEntryLast         0000000067dbb2b8     SapClassGui.obj
 0002:000152c0       __IMPORT_DESCRIPTOR_CorApi 0000000067dbb2c0     Corapi:CorApi.dll
 0002:000152d4       __IMPORT_DESCRIPTOR_SapClassBasic82 0000000067dbb2d4     SapClassBasic:SapClassBasic82.dll
 0002:000152e8       __IMPORT_DESCRIPTOR_mfc100 0000000067dbb2e8     mfc100:mfc100.dll
 0002:000152fc       __IMPORT_DESCRIPTOR_MSVCR100 0000000067dbb2fc     msvcrt:MSVCR100.dll
 0002:00015310       __IMPORT_DESCRIPTOR_KERNEL32 0000000067dbb310     kernel32:KERNEL32.dll
 0002:00015324       __IMPORT_DESCRIPTOR_USER32 0000000067dbb324     user32:USER32.dll
 0002:00015338       __IMPORT_DESCRIPTOR_GDI32  0000000067dbb338     gdi32:GDI32.dll
 0002:0001534c       __IMPORT_DESCRIPTOR_COMDLG32 0000000067dbb34c     comdlg32:COMDLG32.dll
 0002:00015360       __IMPORT_DESCRIPTOR_OLEAUT32 0000000067dbb360     oleaut32:OLEAUT32.dll
 0002:00015374       __IMPORT_DESCRIPTOR_MSVCP100 0000000067dbb374     msvcprt:MSVCP100.dll
 0002:00015388       __NULL_IMPORT_DESCRIPTOR   0000000067dbb388     Corapi:CorApi.dll
 0003:00000000       ??_R0?AVCAbortDlg@@@8      0000000067dc9000     AbortDlg.obj
 0003:00000020       ??_R0?AVCDialog@@@8        0000000067dc9020     AbortDlg.obj
 0003:00000040       ??_R0?AVCWnd@@@8           0000000067dc9040     AbortDlg.obj
 0003:00000060       ??_R0?AVCCmdTarget@@@8     0000000067dc9060     AbortDlg.obj
 0003:00000088       ??_R0?AVCObject@@@8        0000000067dc9088     AbortDlg.obj
 0003:000000d0       ??_R0?AVCListBox@@@8       0000000067dc90d0     AcqConfigDlg.obj
 0003:000000f0       ??_R0?AVCComboBox@@@8      0000000067dc90f0     AcqConfigDlg.obj
 0003:00000110       ??_R0?AVCEdit@@@8          0000000067dc9110     AcqConfigDlg.obj
 0003:00000130       ??_R0?AVCAcqConfigDlg@@@8  0000000067dc9130     AcqConfigDlg.obj
 0003:00000158       ??_R0?AVSapManager@@@8     0000000067dc9158     AcqConfigDlg.obj
 0003:00000180       ??_R0?AVCAcqDlg@@@8        0000000067dc9180     AcqDlg.obj
 0003:000001a0       ??_R0?AVCScrollBar@@@8     0000000067dc91a0     AScanDlg.obj
 0003:000001c8       ??_R0?AVCAScanDlg@@@8      0000000067dc91c8     AScanDlg.obj
 0003:000001e8       ??_R0?AVCAviFileDlg@@@8    0000000067dc91e8     AviFileDlg.obj
 0003:00000210       ?m_AlignValues@CBayerOptionsDlg@@0PAHA 0000000067dc9210     BayerDlg.obj
 0003:00000220       ?m_MethodValues@CBayerOptionsDlg@@0PAHA 0000000067dc9220     BayerDlg.obj
 0003:00000238       ??_R0?AVCBayerOptionsDlg@@@8 0000000067dc9238     BayerDlg.obj
 0003:00000260       ?m_FormatInfo@CBufDlg@@1PAVSapFormatInfo@@A 0000000067dc9260     BufDlg.obj
 0003:00000450       ??_R0?AVCBufDlg@@@8        0000000067dc9450     BufDlg.obj
 0003:00000470       ?m_Aligns@CColorConversionOptionsDlg@@0PAHA 0000000067dc9470     ColorConversionDlg.obj
 0003:00000488       ??_R0?AVCColorConversionOptionsDlg@@@8 0000000067dc9488     ColorConversionDlg.obj
 0003:000004c0       ??_R0?AVCSliderCtrl@@@8    0000000067dc94c0     CompDlg.obj
 0003:000004e8       ??_R0?AVCCompDlg@@@8       0000000067dc94e8     CompDlg.obj
 0003:00000508       ??_R0?AVCFlatFieldDlg@@@8  0000000067dc9508     FlatFieldDlg.obj
 0003:00000530       ??_R0?AVCStatic@@@8        0000000067dc9530     FlatFieldDlg.obj
 0003:00000550       ??_R0?AVCButton@@@8        0000000067dc9550     FlatFieldDlg.obj
 0003:00000570       ??_R0PEAVCException@@@8    0000000067dc9570     FlatFieldDlg.obj
 0003:00000598       ??_R0?AVSapBuffer@@@8      0000000067dc9598     FlatFieldDlg.obj
 0003:000005b8       ??_R0?AVSapXferNode@@@8    0000000067dc95b8     FlatFieldDlg.obj
 0003:000005e0       ??_R0?AVCGdiObject@@@8     0000000067dc95e0     GioBidirectionalDlg.obj
 0003:00000608       ??_R0?AVCBrush@@@8         0000000067dc9608     GioBidirectionalDlg.obj
 0003:00000628       ??_R0?AVCGioBidirectionalDlg@@@8 0000000067dc9628     GioBidirectionalDlg.obj
 0003:00000658       ??_R0?AVCGioInputDlg@@@8   0000000067dc9658     GioInputDlg.obj
 0003:00000680       ??_R0?AVCGioOutputDlg@@@8  0000000067dc9680     GioOutputDlg.obj
 0003:000006a8       ??_R0?AVCPen@@@8           0000000067dc96a8     ImageExWnd.obj
 0003:000006c8       ??_R0?AVCBitmap@@@8        0000000067dc96c8     ImageExWnd.obj
 0003:000006e8       ??_R0?AVCRgn@@@8           0000000067dc96e8     ImageExWnd.obj
 0003:00000708       ??_R0?AVCImageViewportWndEventHandler@@@8 0000000067dc9708     ImageExWnd.obj
 0003:00000740       ??_R0?AVCImageExWnd@@@8    0000000067dc9740     ImageExWnd.obj
 0003:00000768       ??_R0?AVbad_alloc@std@@@8  0000000067dc9768     ImageFilterEditorDlg.obj
 0003:00000790       ??_R0?AVexception@std@@@8  0000000067dc9790     ImageFilterEditorDlg.obj
 0003:000007b8       ??_R0?AVCImageFilterEditorDlg@@@8 0000000067dc97b8     ImageFilterEditorDlg.obj
 0003:000007f0       ??_R0?AV?$basic_stringbuf@DU?$char_traits@D@std@@V?$allocator@D@2@@std@@@8 0000000067dc97f0     ImageFilterEditorDlg.obj
 0003:00000850       ??_R0?AV?$basic_streambuf@DU?$char_traits@D@std@@@std@@@8 0000000067dc9850     ImageFilterEditorDlg.obj
 0003:000008a0       ??_R0?AV?$basic_istringstream@DU?$char_traits@D@std@@V?$allocator@D@2@@std@@@8 0000000067dc98a0     ImageFilterEditorDlg.obj
 0003:00000900       ??_R0?AV?$basic_istream@DU?$char_traits@D@std@@@std@@@8 0000000067dc9900     ImageFilterEditorDlg.obj
 0003:00000948       ??_R0?AV?$basic_ios@DU?$char_traits@D@std@@@std@@@8 0000000067dc9948     ImageFilterEditorDlg.obj
 0003:00000988       ??_R0?AVios_base@std@@@8   0000000067dc9988     ImageFilterEditorDlg.obj
 0003:000009b0       ??_R0?AV?$_Iosb@H@std@@@8  0000000067dc99b0     ImageFilterEditorDlg.obj
 0003:000009d8       ??_R0?AVCImageViewportWnd@@@8 0000000067dc99d8     ImageViewportWnd.obj
 0003:00000a00       ??_R0?AVCRectTracker@@@8   0000000067dc9a00     ImageWnd.obj
 0003:00000a28       ??_R0?AVCSapRectTracker@@@8 0000000067dc9a28     ImageWnd.obj
 0003:00000a50       ??_R0?AVCImageWnd@@@8      0000000067dc9a50     ImageWnd.obj
 0003:00000a70       ?_dwStockPropMask@CJpegFileDlg@@0KA 0000000067dc9a70     JpegFileDlg.obj
 0003:00000a74       ?_dispatchEntryCount@CJpegFileDlg@@0IA 0000000067dc9a74     JpegFileDlg.obj
 0003:00000a78       ??_R0?AVCJpegFileDlg@@@8   0000000067dc9a78     JpegFileDlg.obj
 0003:00000aa0       ?m_TiffCompressionTypes@CLoadSaveDlg@@1PAPEADA 0000000067dc9aa0     LoadSaveDlg.obj
 0003:00000ac0       ?m_StandardTypes@CLoadSaveDlg@@1PAHA 0000000067dc9ac0     LoadSaveDlg.obj
 0003:00000ad4       ?m_SequenceTypes@CLoadSaveDlg@@1PAHA 0000000067dc9ad4     LoadSaveDlg.obj
 0003:00000ad8       ?m_StandardExtensions@CLoadSaveDlg@@1PAY04DA 0000000067dc9ad8     LoadSaveDlg.obj
 0003:00000b00       ?m_ConversionTable@CLoadSaveDlg@@1PAUCONVERSION_TABLE@@A 0000000067dc9b00     LoadSaveDlg.obj
 0003:00000fd0       ??_R0?AVCLoadSaveDlg@@@8   0000000067dc9fd0     LoadSaveDlg.obj
 0003:00000ff8       ??_R0?AVCFileDialog@@@8    0000000067dc9ff8     LoadSaveDlg.obj
 0003:00001020       ??_R0?AVCCommonDialog@@@8  0000000067dca020     LoadSaveDlg.obj
 0003:00001048       ??_R0?AVCLScanDlg@@@8      0000000067dca048     LScanDlg.obj
 0003:00001070       ?m_FormatInfo@CRawFileDlg@@1PAVSapFormatInfo@@A 0000000067dca070     RawFileDlg.obj
 0003:00001260       ??_R0?AVCRawFileDlg@@@8    0000000067dca260     RawFileDlg.obj
 0003:00001288       _pIncludeInitManaged       0000000067dca288     SapClassGui.obj
 0003:00001290       ??_R0?AUThank_you@Define_the_symbol__ATL_MIXED@@@8 0000000067dca290     SapClassGui.obj
 0003:000012d0       ??_R0?AVCImageExWndEventHandler@@@8 0000000067dca2d0     SapClassGui.obj
 0003:00001300       ?clash@Define_the_symbol__ATL_MIXED@@3UThank_you@1@A 0000000067dca300     SapClassGui.obj
 0003:00001308       ??_R0?AVCTiffFileDlg@@@8   0000000067dca308     TiffFileDlg.obj
 0003:00001330       ??_R0?AVCSpinButtonCtrl@@@8 0000000067dca330     ViewDlg.obj
 0003:00001358       ??_R0?AVCViewDlg@@@8       0000000067dca358     ViewDlg.obj
 0003:00001378       ??_R0?AVtype_info@@@8      0000000067dca378     msvcrt:ti_inst.obj
 0003:00001398       __security_cookie          0000000067dca398     msvcrt:gs_cookie.obj
 0003:000013a0       __security_cookie_complement 0000000067dca3a0     msvcrt:gs_cookie.obj
 0003:000013b0       _fltused                   0000000067dca3b0     msvcrt:dllsupp.obj
 0003:000013b4       __native_dllmain_reason    0000000067dca3b4     msvcrt:natstart.obj
 0003:000013b8       __native_vcclrit_reason    0000000067dca3b8     msvcrt:natstart.obj
 0003:000013c0       ?m_Methods@CColorConversionOptionsDlg@@0PAUSapColorConversionMethodDictionary@@A 0000000067dca3c0     ColorConversionDlg.obj
 0003:00001448       ?_pAtlAutoThreadModule@ATL@@3PEAUIAtlAutoThreadModule@1@EA 0000000067dca448     SapClassGui.obj
 0003:00001450       __@@_PchSym_@00@UkiltiznLurovhUgvovwbmvLwzohzUhzkvizUxozhhvhUtfrUivovzhvGEOmvgPCABAUhzkxozhhtfrOlyq@ 0000000067dca450     SapClassGui.obj
 0003:00001454       __afxForceEXTDLL           0000000067dca454     SapClassGui.obj
 0003:00001480       ?m_bInitFailed@CAtlBaseModule@ATL@@2_NA 0000000067dca480     SapClassGui.obj
 0003:00001488       ?s_pLog@CFixedStringMgr@ATL@@2PEAVIFixedStringLog@2@EA 0000000067dca488     SapClassGui.obj
 0003:00001490       ?_pPerfRegFunc@ATL@@3P6AJPEAUHINSTANCE__@@@ZEA 0000000067dca490     SapClassGui.obj
 0003:00001498       ?_pPerfUnRegFunc@ATL@@3P6AJXZEA 0000000067dca498     SapClassGui.obj
 0003:000014a0       ?_AtlRegisterPerUser@ATL@@3_NA 0000000067dca4a0     SapClassGui.obj
 0003:000014a8       ?_pAtlModule@ATL@@3PEAVCAtlModule@1@EA 0000000067dca4a8     SapClassGui.obj
 0003:000014b0       ?m_libid@CAtlModule@ATL@@2U_GUID@@A 0000000067dca4b0     SapClassGui.obj
 0003:000014c0       ?_pModule@ATL@@3PEAVCComModule@1@EA 0000000067dca4c0     SapClassGui.obj
 0003:000014c8       ?ATL_CREATE_OBJECT@CComApartment@ATL@@2IA 0000000067dca4c8     SapClassGui.obj
 0003:000014cc       ?clash@Inconsistent_definition_of_symbol__ATL_MIXED@@3U_Please_define_it_the_same_throughout_your_project@1@A 0000000067dca4cc     SapClassGui.obj
 0003:000014d0       __afxForceEXCLUDE          0000000067dca4d0     mfcs100:nolib.obj
 0003:000014d4       ?WM_DESTROYMODELESS@CDHtmlDialog@@1IA 0000000067dca4d4     mfcs100:nolib.obj
 0003:000014d8       __afxForceSTDAFX           0000000067dca4d8     mfcs100:stdafx.obj
 0003:00001a50       ?__type_info_root_node@@3U__type_info_node@@A 0000000067dcaa50     msvcrt:tncleanup.obj
 0003:00001a60       __native_startup_state     0000000067dcaa60     <common>
 0003:00001a68       __native_startup_lock      0000000067dcaa68     <common>
 0003:00001a70       __dyn_tls_init_callback    0000000067dcaa70     <common>
 0003:00001a78       __onexitend                0000000067dcaa78     <common>
 0003:00001a80       __onexitbegin              0000000067dcaa80     <common>

 entry point at        0001:00021784

 Static symbols

 0001:fffff000       ?dtor$0@?0???HATL@@YA?AV?$CStringT@DV?$StrTraitMFC_DLL@DV?$ChTraitsCRT@D@ATL@@@@@0@AEBV10@0@Z@4HA 0000000067d80000 f   ViewDlg.obj
 0001:fffff000       ?dtor$0@?0???1CViewDlg@@UEAA@XZ@4HA 0000000067d80000 f   ViewDlg.obj
 0001:fffff000       ?catch$0@?0???1CGdiObject@@UEAA@XZ@4HA 0000000067d80000 f   ImageExWnd.obj
 0001:fffff000       ?dtor$0@?0???1CAScanDlg@@UEAA@XZ@4HA 0000000067d80000 f   SapClassGui.obj
 0001:fffff000       ?catch$0@?0???1CGdiObject@@UEAA@XZ@4HA 0000000067d80000 f   GioOutputDlg.obj
 0001:fffff000       ?dtor$0@?0???1CAcqDlg@@UEAA@XZ@4HA 0000000067d80000 f   SapClassGui.obj
 0001:fffff000       ?catch$0@?0???1CGdiObject@@UEAA@XZ@4HA 0000000067d80000 f   GioInputDlg.obj
 0001:fffff000       ?dtor$0@?0???HATL@@YA?AV?$CStringT@DV?$StrTraitMFC_DLL@DV?$ChTraitsCRT@D@ATL@@@@@0@AEBV10@0@Z@4HA 0000000067d80000 f   BrowseDirDlg.obj
 0001:fffff000       ?catch$0@?0???1CGdiObject@@UEAA@XZ@4HA 0000000067d80000 f   ImageViewportWnd.obj
 0001:fffff000       ?dtor$0@?0???1CGioInputDlg@@UEAA@XZ@4HA 0000000067d80000 f   SapClassGui.obj
 0001:fffff000       ?catch$0@?0???1CGdiObject@@UEAA@XZ@4HA 0000000067d80000 f   ImageWnd.obj
 0001:fffff000       ?catch$0@?0???1CGdiObject@@UEAA@XZ@4HA 0000000067d80000 f   SapClassGui.obj
 0001:fffff000       ?dtor$0@?0???1CGioOutputDlg@@UEAA@XZ@4HA 0000000067d80000 f   SapClassGui.obj
 0001:fffff000       ?catch$0@?0???1CWaitCursor@@QEAA@XZ@4HA 0000000067d80000 f   LoadSaveDlg.obj
 0001:fffff000       ?dtor$0@?0???1CGioBidirectionalDlg@@UEAA@XZ@4HA 0000000067d80000 f   SapClassGui.obj
 0001:fffff000       ?dtor$0@?0???1CRawFileDlg@@UEAA@XZ@4HA 0000000067d80000 f   RawFileDlg.obj
 0001:fffff000       ?dtor$0@?0???1CLScanDlg@@UEAA@XZ@4HA 0000000067d80000 f   SapClassGui.obj
 0001:fffff000       ?dtor$0@?0???1CCompDlg@@UEAA@XZ@4HA 0000000067d80000 f   SapClassGui.obj
 0001:fffff000       ?dtor$0@?0???1CAcqConfigDlg@@UEAA@XZ@4HA 0000000067d80000 f   SapClassGui.obj
 0001:fffff000       ?dtor$0@?0???1CBufDlg@@UEAA@XZ@4HA 0000000067d80000 f   SapClassGui.obj
 0001:fffff00e       __catch$??1CGdiObject@@UEAA@XZ$0 0000000067d8000e f   SapClassGui.obj
 0001:fffff00e       __catch$??1CGdiObject@@UEAA@XZ$0 0000000067d8000e f   ImageWnd.obj
 0001:fffff00e       __catch$??1CGdiObject@@UEAA@XZ$0 0000000067d8000e f   ImageViewportWnd.obj
 0001:fffff00e       __catch$??1CGdiObject@@UEAA@XZ$0 0000000067d8000e f   GioInputDlg.obj
 0001:fffff00e       __catch$??1CGdiObject@@UEAA@XZ$0 0000000067d8000e f   GioOutputDlg.obj
 0001:fffff00e       __catch$??1CGdiObject@@UEAA@XZ$0 0000000067d8000e f   ImageExWnd.obj
 0001:fffff00e       __catch$??1CWaitCursor@@QEAA@XZ$0 0000000067d8000e f   LoadSaveDlg.obj
 0001:fffff010       ?dtor$1@?0???1CCompDlg@@UEAA@XZ@4HA 0000000067d80010 f   SapClassGui.obj
 0001:fffff010       ?dtor$1@?0???1CAScanDlg@@UEAA@XZ@4HA 0000000067d80010 f   SapClassGui.obj
 0001:fffff010       ?dtor$1@?0???1CBufDlg@@UEAA@XZ@4HA 0000000067d80010 f   SapClassGui.obj
 0001:fffff010       ?dtor$1@?0???1CAcqConfigDlg@@UEAA@XZ@4HA 0000000067d80010 f   SapClassGui.obj
 0001:fffff010       ?dtor$1@?0???1CLScanDlg@@UEAA@XZ@4HA 0000000067d80010 f   SapClassGui.obj
 0001:fffff010       ?dtor$1@?0???1CGioInputDlg@@UEAA@XZ@4HA 0000000067d80010 f   SapClassGui.obj
 0001:fffff010       ?dtor$1@?0???1CGioOutputDlg@@UEAA@XZ@4HA 0000000067d80010 f   SapClassGui.obj
 0001:fffff010       ?dtor$1@?0???1CViewDlg@@UEAA@XZ@4HA 0000000067d80010 f   ViewDlg.obj
 0001:fffff010       ?dtor$1@?0???1CGioBidirectionalDlg@@UEAA@XZ@4HA 0000000067d80010 f   SapClassGui.obj
 0001:fffff030       ?dtor$2@?0???1CGioOutputDlg@@UEAA@XZ@4HA 0000000067d80030 f   SapClassGui.obj
 0001:fffff030       ?dtor$2@?0???1CAScanDlg@@UEAA@XZ@4HA 0000000067d80030 f   SapClassGui.obj
 0001:fffff030       ?dtor$2@?0???1CLScanDlg@@UEAA@XZ@4HA 0000000067d80030 f   SapClassGui.obj
 0001:fffff030       ?dtor$2@?0???1CBufDlg@@UEAA@XZ@4HA 0000000067d80030 f   SapClassGui.obj
 0001:fffff030       ?dtor$2@?0???1CCompDlg@@UEAA@XZ@4HA 0000000067d80030 f   SapClassGui.obj
 0001:fffff030       ?dtor$2@?0???1CGioInputDlg@@UEAA@XZ@4HA 0000000067d80030 f   SapClassGui.obj
 0001:fffff030       ?dtor$2@?0???1CAcqConfigDlg@@UEAA@XZ@4HA 0000000067d80030 f   SapClassGui.obj
 0001:fffff030       ?dtor$2@?0???1CGioBidirectionalDlg@@UEAA@XZ@4HA 0000000067d80030 f   SapClassGui.obj
 0001:fffff030       ?dtor$2@?0???1CViewDlg@@UEAA@XZ@4HA 0000000067d80030 f   ViewDlg.obj
 0001:fffff050       ?dtor$3@?0???1CCompDlg@@UEAA@XZ@4HA 0000000067d80050 f   SapClassGui.obj
 0001:fffff050       ?dtor$3@?0???1CGioInputDlg@@UEAA@XZ@4HA 0000000067d80050 f   SapClassGui.obj
 0001:fffff050       ?dtor$3@?0???1CAcqConfigDlg@@UEAA@XZ@4HA 0000000067d80050 f   SapClassGui.obj
 0001:fffff050       ?dtor$3@?0???1CGioOutputDlg@@UEAA@XZ@4HA 0000000067d80050 f   SapClassGui.obj
 0001:fffff050       ?dtor$3@?0???1CGioBidirectionalDlg@@UEAA@XZ@4HA 0000000067d80050 f   SapClassGui.obj
 0001:fffff050       ?dtor$3@?0???1CViewDlg@@UEAA@XZ@4HA 0000000067d80050 f   ViewDlg.obj
 0001:fffff070       ?dtor$4@?0???1CCompDlg@@UEAA@XZ@4HA 0000000067d80070 f   SapClassGui.obj
 0001:fffff070       ?dtor$4@?0???1CAcqConfigDlg@@UEAA@XZ@4HA 0000000067d80070 f   SapClassGui.obj
 0001:fffff070       ?dtor$4@?0???1CViewDlg@@UEAA@XZ@4HA 0000000067d80070 f   ViewDlg.obj
 0001:fffff070       ?dtor$4@?0???1CGioOutputDlg@@UEAA@XZ@4HA 0000000067d80070 f   SapClassGui.obj
 0001:fffff090       ?dtor$5@?0???1CGioOutputDlg@@UEAA@XZ@4HA 0000000067d80090 f   SapClassGui.obj
 0001:fffff090       ?dtor$5@?0???1CCompDlg@@UEAA@XZ@4HA 0000000067d80090 f   SapClassGui.obj
 0001:fffff090       ?dtor$5@?0???1CAcqConfigDlg@@UEAA@XZ@4HA 0000000067d80090 f   SapClassGui.obj
 0001:fffff0b0       ?dtor$6@?0???1CAcqConfigDlg@@UEAA@XZ@4HA 0000000067d800b0 f   SapClassGui.obj
 0001:fffff0c0       ?dtor$0@?0???1CGdiObject@@UEAA@XZ@4HA 0000000067d800c0 f   GioInputDlg.obj
 0001:fffff0c0       ?dtor$0@?0???1CGdiObject@@UEAA@XZ@4HA 0000000067d800c0 f   ImageViewportWnd.obj
 0001:fffff0c0       ?dtor$0@?0???1CGdiObject@@UEAA@XZ@4HA 0000000067d800c0 f   ImageWnd.obj
 0001:fffff0c0       ?dtor$0@?0???1CGdiObject@@UEAA@XZ@4HA 0000000067d800c0 f   SapClassGui.obj
 0001:fffff0c0       ?dtor$0@?0???1CGdiObject@@UEAA@XZ@4HA 0000000067d800c0 f   GioOutputDlg.obj
 0001:fffff0c0       ?dtor$0@?0???1CGdiObject@@UEAA@XZ@4HA 0000000067d800c0 f   ImageExWnd.obj
 0001:fffff0c0       ?dtor$0@?0???1CWaitCursor@@QEAA@XZ@4HA 0000000067d800c0 f   LoadSaveDlg.obj
 0001:00000e70       ?StringValidateDestA@@YAJPEBD_K_K@Z 0000000067d81e70 f   AcqConfigDlg.obj
 0001:00000e90       ?StringCopyWorkerA@@YAJPEAD_KPEA_KPEBD1@Z 0000000067d81e90 f   AcqConfigDlg.obj
 0001:00000f00       ?StringVPrintfWorkerA@@YAJPEAD_KPEA_KPEBD0@Z 0000000067d81f00 f   AcqConfigDlg.obj
 0001:00002850       ?StringValidateDestA@@YAJPEBD_K_K@Z 0000000067d83850 f   AcqDlg.obj
 0001:00002870       ?StringVPrintfWorkerA@@YAJPEAD_KPEA_KPEBD0@Z 0000000067d83870 f   AcqDlg.obj
 0001:00003330       ?StringValidateDestA@@YAJPEBD_K_K@Z 0000000067d84330 f   AScanDlg.obj
 0001:00003350       ?StringVPrintfWorkerA@@YAJPEAD_KPEA_KPEBD0@Z 0000000067d84350 f   AScanDlg.obj
 0001:00005560       ?StringValidateDestA@@YAJPEBD_K_K@Z 0000000067d86560 f   BrowseDirDlg.obj
 0001:00005580       ?StringCopyWorkerA@@YAJPEAD_KPEA_KPEBD1@Z 0000000067d86580 f   BrowseDirDlg.obj
 0001:0000cb20       ?StringLengthWorkerA@@YAJPEBD_KPEA_K@Z 0000000067d8db20 f   GioBidirectionalDlg.obj
 0001:0000cb70       ?StringValidateDestA@@YAJPEBD_K_K@Z 0000000067d8db70 f   GioBidirectionalDlg.obj
 0001:0000cb90       ?StringValidateDestAndLengthA@@YAJPEBD_KPEA_K_K@Z 0000000067d8db90 f   GioBidirectionalDlg.obj
 0001:0000cbf0       ?StringCopyWorkerA@@YAJPEAD_KPEA_KPEBD1@Z 0000000067d8dbf0 f   GioBidirectionalDlg.obj
 0001:0000e690       ?StringLengthWorkerA@@YAJPEBD_KPEA_K@Z 0000000067d8f690 f   GioInputDlg.obj
 0001:0000e6e0       ?StringValidateDestA@@YAJPEBD_K_K@Z 0000000067d8f6e0 f   GioInputDlg.obj
 0001:0000e700       ?StringValidateDestAndLengthA@@YAJPEBD_KPEA_K_K@Z 0000000067d8f700 f   GioInputDlg.obj
 0001:0000e760       ?StringCopyWorkerA@@YAJPEAD_KPEA_KPEBD1@Z 0000000067d8f760 f   GioInputDlg.obj
 0001:0000f830       ?StringLengthWorkerA@@YAJPEBD_KPEA_K@Z 0000000067d90830 f   GioOutputDlg.obj
 0001:0000f880       ?StringValidateDestA@@YAJPEBD_K_K@Z 0000000067d90880 f   GioOutputDlg.obj
 0001:0000f8a0       ?StringValidateDestAndLengthA@@YAJPEBD_KPEA_K_K@Z 0000000067d908a0 f   GioOutputDlg.obj
 0001:0000f900       ?StringCopyWorkerA@@YAJPEAD_KPEA_KPEBD1@Z 0000000067d90900 f   GioOutputDlg.obj
 0001:00012b90       ?ConvertKernelSizeToInt@@YAHW4ImageFilterKernelSize@SapAcquisition@@@Z 0000000067d93b90 f   ImageFilterEditorDlg.obj
 0001:0001b600       ?StringValidateDestA@@YAJPEBD_K_K@Z 0000000067d9c600 f   LoadSaveDlg.obj
 0001:0001b620       ?StringCopyWorkerA@@YAJPEAD_KPEA_KPEBD1@Z 0000000067d9c620 f   LoadSaveDlg.obj
 0001:0001c5d0       ?StringValidateDestA@@YAJPEBD_K_K@Z 0000000067d9d5d0 f   LScanDlg.obj
 0001:0001c5f0       ?StringVPrintfWorkerA@@YAJPEAD_KPEA_KPEBD0@Z 0000000067d9d5f0 f   LScanDlg.obj
 0001:00020f70       ?ArrayUnwindFilter@@YAHPEAU_EXCEPTION_POINTERS@@@Z 0000000067da1f70 f   msvcrt:ehvecdtr.obj
 0001:0002138c       pre_c_init                 0000000067da238c f   msvcrt:crtdll.obj
 0001:00021648       __DllMainCRTStartup        0000000067da2648 f   msvcrt:crtdll.obj
 0001:00021d80       ?dtor$0@?0??GetLocation@CAcqConfigDlg@@QEAA?AVSapLocation@@XZ@4HA 0000000067da2d80 f   AcqConfigDlg.obj
 0001:00021d90       ?dtor$0@?0??UpdateAcquisition@CAcqConfigDlg@@IEAAHXZ@4HA 0000000067da2d90 f   AcqConfigDlg.obj
 0001:00021da0       ?dtor$1@?0??UpdateAcquisition@CAcqConfigDlg@@IEAAHXZ@4HA 0000000067da2da0 f   AcqConfigDlg.obj
 0001:00021db0       ?dtor$3@?0??UpdateAcquisition@CAcqConfigDlg@@IEAAHXZ@4HA 0000000067da2db0 f   AcqConfigDlg.obj
 0001:00021dc0       ?dtor$0@?0??SaveSettings@CAcqConfigDlg@@IEAAXXZ@4HA 0000000067da2dc0 f   AcqConfigDlg.obj
 0001:00021dd0       ?dtor$1@?0??SaveSettings@CAcqConfigDlg@@IEAAXXZ@4HA 0000000067da2dd0 f   AcqConfigDlg.obj
 0001:00021de0       ?dtor$0@?0??UpdateDescription@CAcqConfigDlg@@IEAAXXZ@4HA 0000000067da2de0 f   AcqConfigDlg.obj
 0001:00021df0       ?dtor$5@?0??UpdateDescription@CAcqConfigDlg@@IEAAXXZ@4HA 0000000067da2df0 f   AcqConfigDlg.obj
 0001:00021e00       ?dtor$0@?0??ValidateCCFAgainstServerName@CAcqConfigDlg@@IEAA_N_N@Z@4HA 0000000067da2e00 f   AcqConfigDlg.obj
 0001:00021e10       ?dtor$1@?0??ValidateCCFAgainstServerName@CAcqConfigDlg@@IEAA_N_N@Z@4HA 0000000067da2e10 f   AcqConfigDlg.obj
 0001:00021e20       ?dtor$2@?0??ValidateCCFAgainstServerName@CAcqConfigDlg@@IEAA_N_N@Z@4HA 0000000067da2e20 f   AcqConfigDlg.obj
 0001:00021e30       ?dtor$0@?0???HATL@@YA?AV?$CStringT@DV?$StrTraitMFC_DLL@DV?$ChTraitsCRT@D@ATL@@@@@0@AEBV10@0@Z@4HA 0000000067da2e30 f   AcqConfigDlg.obj
 0001:00021e60       ?dtor$0@?0???1CAcqConfigDlg@@UEAA@XZ@4HA 0000000067da2e60 f   AcqConfigDlg.obj
 0001:00021e70       ?dtor$1@?0???1CAcqConfigDlg@@UEAA@XZ@4HA 0000000067da2e70 f   AcqConfigDlg.obj
 0001:00021e90       ?dtor$2@?0???1CAcqConfigDlg@@UEAA@XZ@4HA 0000000067da2e90 f   AcqConfigDlg.obj
 0001:00021eb0       ?dtor$3@?0???1CAcqConfigDlg@@UEAA@XZ@4HA 0000000067da2eb0 f   AcqConfigDlg.obj
 0001:00021ed0       ?dtor$4@?0???1CAcqConfigDlg@@UEAA@XZ@4HA 0000000067da2ed0 f   AcqConfigDlg.obj
 0001:00021ef0       ?dtor$5@?0???1CAcqConfigDlg@@UEAA@XZ@4HA 0000000067da2ef0 f   AcqConfigDlg.obj
 0001:00021f10       ?dtor$6@?0???1CAcqConfigDlg@@UEAA@XZ@4HA 0000000067da2f10 f   AcqConfigDlg.obj
 0001:00021f30       ?dtor$0@?0??LoadSettings@CAcqConfigDlg@@IEAAXXZ@4HA 0000000067da2f30 f   AcqConfigDlg.obj
 0001:00021f40       ?dtor$1@?0??LoadSettings@CAcqConfigDlg@@IEAAXXZ@4HA 0000000067da2f40 f   AcqConfigDlg.obj
 0001:00021f50       ?dtor$2@?0??LoadSettings@CAcqConfigDlg@@IEAAXXZ@4HA 0000000067da2f50 f   AcqConfigDlg.obj
 0001:00021f60       ?dtor$4@?0??LoadSettings@CAcqConfigDlg@@IEAAXXZ@4HA 0000000067da2f60 f   AcqConfigDlg.obj
 0001:00021f70       ?dtor$6@?0??LoadSettings@CAcqConfigDlg@@IEAAXXZ@4HA 0000000067da2f70 f   AcqConfigDlg.obj
 0001:00021f80       ?dtor$7@?0??LoadSettings@CAcqConfigDlg@@IEAAXXZ@4HA 0000000067da2f80 f   AcqConfigDlg.obj
 0001:00021f90       ?dtor$8@?0??LoadSettings@CAcqConfigDlg@@IEAAXXZ@4HA 0000000067da2f90 f   AcqConfigDlg.obj
 0001:00021fa0       ?dtor$0@?0??InitResourceCombo@CAcqConfigDlg@@IEAAXXZ@4HA 0000000067da2fa0 f   AcqConfigDlg.obj
 0001:00021fb0       ?dtor$1@?0??InitResourceCombo@CAcqConfigDlg@@IEAAXXZ@4HA 0000000067da2fb0 f   AcqConfigDlg.obj
 0001:00021fc0       ?dtor$2@?0??InitResourceCombo@CAcqConfigDlg@@IEAAXXZ@4HA 0000000067da2fc0 f   AcqConfigDlg.obj
 0001:00021fd0       ?dtor$3@?0??InitResourceCombo@CAcqConfigDlg@@IEAAXXZ@4HA 0000000067da2fd0 f   AcqConfigDlg.obj
 0001:00021fe0       ?dtor$5@?0??InitResourceCombo@CAcqConfigDlg@@IEAAXXZ@4HA 0000000067da2fe0 f   AcqConfigDlg.obj
 0001:00021ff0       ?dtor$6@?0??InitResourceCombo@CAcqConfigDlg@@IEAAXXZ@4HA 0000000067da2ff0 f   AcqConfigDlg.obj
 0001:00022000       ?dtor$7@?0??InitResourceCombo@CAcqConfigDlg@@IEAAXXZ@4HA 0000000067da3000 f   AcqConfigDlg.obj
 0001:00022010       ?dtor$0@?0???0CAcqConfigDlg@@QEAA@PEAVCWnd@@W4ServerCategory@0@@Z@4HA 0000000067da3010 f   AcqConfigDlg.obj
 0001:00022020       ?dtor$1@?0???0CAcqConfigDlg@@QEAA@PEAVCWnd@@W4ServerCategory@0@@Z@4HA 0000000067da3020 f   AcqConfigDlg.obj
 0001:00022040       ?dtor$2@?0???0CAcqConfigDlg@@QEAA@PEAVCWnd@@W4ServerCategory@0@@Z@4HA 0000000067da3040 f   AcqConfigDlg.obj
 0001:00022060       ?dtor$3@?0???0CAcqConfigDlg@@QEAA@PEAVCWnd@@W4ServerCategory@0@@Z@4HA 0000000067da3060 f   AcqConfigDlg.obj
 0001:00022080       ?dtor$4@?0???0CAcqConfigDlg@@QEAA@PEAVCWnd@@W4ServerCategory@0@@Z@4HA 0000000067da3080 f   AcqConfigDlg.obj
 0001:000220a0       ?dtor$5@?0???0CAcqConfigDlg@@QEAA@PEAVCWnd@@W4ServerCategory@0@@Z@4HA 0000000067da30a0 f   AcqConfigDlg.obj
 0001:000220c0       ?dtor$6@?0???0CAcqConfigDlg@@QEAA@PEAVCWnd@@W4ServerCategory@0@@Z@4HA 0000000067da30c0 f   AcqConfigDlg.obj
 0001:000220e0       ?dtor$8@?0???0CAcqConfigDlg@@QEAA@PEAVCWnd@@W4ServerCategory@0@@Z@4HA 0000000067da30e0 f   AcqConfigDlg.obj
 0001:00022100       ?dtor$9@?0???0CAcqConfigDlg@@QEAA@PEAVCWnd@@W4ServerCategory@0@@Z@4HA 0000000067da3100 f   AcqConfigDlg.obj
 0001:00022120       ?dtor$10@?0???0CAcqConfigDlg@@QEAA@PEAVCWnd@@W4ServerCategory@0@@Z@4HA 0000000067da3120 f   AcqConfigDlg.obj
 0001:00022140       ?dtor$0@?0???0CAcqConfigDlg@@QEAA@PEAVCWnd@@VSapLocation@@PEBDW4ServerCategory@0@@Z@4HA 0000000067da3140 f   AcqConfigDlg.obj
 0001:00022150       ?dtor$1@?0???0CAcqConfigDlg@@QEAA@PEAVCWnd@@VSapLocation@@PEBDW4ServerCategory@0@@Z@4HA 0000000067da3150 f   AcqConfigDlg.obj
 0001:00022160       ?dtor$2@?0???0CAcqConfigDlg@@QEAA@PEAVCWnd@@VSapLocation@@PEBDW4ServerCategory@0@@Z@4HA 0000000067da3160 f   AcqConfigDlg.obj
 0001:00022180       ?dtor$3@?0???0CAcqConfigDlg@@QEAA@PEAVCWnd@@VSapLocation@@PEBDW4ServerCategory@0@@Z@4HA 0000000067da3180 f   AcqConfigDlg.obj
 0001:000221a0       ?dtor$4@?0???0CAcqConfigDlg@@QEAA@PEAVCWnd@@VSapLocation@@PEBDW4ServerCategory@0@@Z@4HA 0000000067da31a0 f   AcqConfigDlg.obj
 0001:000221c0       ?dtor$5@?0???0CAcqConfigDlg@@QEAA@PEAVCWnd@@VSapLocation@@PEBDW4ServerCategory@0@@Z@4HA 0000000067da31c0 f   AcqConfigDlg.obj
 0001:000221e0       ?dtor$6@?0???0CAcqConfigDlg@@QEAA@PEAVCWnd@@VSapLocation@@PEBDW4ServerCategory@0@@Z@4HA 0000000067da31e0 f   AcqConfigDlg.obj
 0001:00022200       ?dtor$7@?0???0CAcqConfigDlg@@QEAA@PEAVCWnd@@VSapLocation@@PEBDW4ServerCategory@0@@Z@4HA 0000000067da3200 f   AcqConfigDlg.obj
 0001:00022220       ?dtor$9@?0???0CAcqConfigDlg@@QEAA@PEAVCWnd@@VSapLocation@@PEBDW4ServerCategory@0@@Z@4HA 0000000067da3220 f   AcqConfigDlg.obj
 0001:00022240       ?dtor$10@?0???0CAcqConfigDlg@@QEAA@PEAVCWnd@@VSapLocation@@PEBDW4ServerCategory@0@@Z@4HA 0000000067da3240 f   AcqConfigDlg.obj
 0001:00022260       ?dtor$11@?0???0CAcqConfigDlg@@QEAA@PEAVCWnd@@VSapLocation@@PEBDW4ServerCategory@0@@Z@4HA 0000000067da3260 f   AcqConfigDlg.obj
 0001:00022280       ?dtor$13@?0???0CAcqConfigDlg@@QEAA@PEAVCWnd@@VSapLocation@@PEBDW4ServerCategory@0@@Z@4HA 0000000067da3280 f   AcqConfigDlg.obj
 0001:00022290       ?dtor$0@?0???0CAcqConfigDlg@@QEAA@PEAVCWnd@@PEAVSapAcquisition@@PEBD@Z@4HA 0000000067da3290 f   AcqConfigDlg.obj
 0001:000222a0       ?dtor$1@?0???0CAcqConfigDlg@@QEAA@PEAVCWnd@@PEAVSapAcquisition@@PEBD@Z@4HA 0000000067da32a0 f   AcqConfigDlg.obj
 0001:000222c0       ?dtor$2@?0???0CAcqConfigDlg@@QEAA@PEAVCWnd@@PEAVSapAcquisition@@PEBD@Z@4HA 0000000067da32c0 f   AcqConfigDlg.obj
 0001:000222e0       ?dtor$3@?0???0CAcqConfigDlg@@QEAA@PEAVCWnd@@PEAVSapAcquisition@@PEBD@Z@4HA 0000000067da32e0 f   AcqConfigDlg.obj
 0001:00022300       ?dtor$4@?0???0CAcqConfigDlg@@QEAA@PEAVCWnd@@PEAVSapAcquisition@@PEBD@Z@4HA 0000000067da3300 f   AcqConfigDlg.obj
 0001:00022320       ?dtor$5@?0???0CAcqConfigDlg@@QEAA@PEAVCWnd@@PEAVSapAcquisition@@PEBD@Z@4HA 0000000067da3320 f   AcqConfigDlg.obj
 0001:00022340       ?dtor$6@?0???0CAcqConfigDlg@@QEAA@PEAVCWnd@@PEAVSapAcquisition@@PEBD@Z@4HA 0000000067da3340 f   AcqConfigDlg.obj
 0001:00022360       ?dtor$8@?0???0CAcqConfigDlg@@QEAA@PEAVCWnd@@PEAVSapAcquisition@@PEBD@Z@4HA 0000000067da3360 f   AcqConfigDlg.obj
 0001:00022380       ?dtor$9@?0???0CAcqConfigDlg@@QEAA@PEAVCWnd@@PEAVSapAcquisition@@PEBD@Z@4HA 0000000067da3380 f   AcqConfigDlg.obj
 0001:000223a0       ?dtor$10@?0???0CAcqConfigDlg@@QEAA@PEAVCWnd@@PEAVSapAcquisition@@PEBD@Z@4HA 0000000067da33a0 f   AcqConfigDlg.obj
 0001:000223c0       ?dtor$12@?0???0CAcqConfigDlg@@QEAA@PEAVCWnd@@PEAVSapAcquisition@@PEBD@Z@4HA 0000000067da33c0 f   AcqConfigDlg.obj
 0001:000223d0       ?dtor$13@?0???0CAcqConfigDlg@@QEAA@PEAVCWnd@@PEAVSapAcquisition@@PEBD@Z@4HA 0000000067da33d0 f   AcqConfigDlg.obj
 0001:000223e0       ?dtor$0@?0??OnInitDialog@CAcqConfigDlg@@MEAAHXZ@4HA 0000000067da33e0 f   AcqConfigDlg.obj
 0001:000223f0       ?dtor$0@?0??OnConfigBrowse@CAcqConfigDlg@@IEAAXXZ@4HA 0000000067da33f0 f   AcqConfigDlg.obj
 0001:00022400       ?dtor$1@?0??OnConfigBrowse@CAcqConfigDlg@@IEAAXXZ@4HA 0000000067da3400 f   AcqConfigDlg.obj
 0001:00022410       ?dtor$2@?0??OnConfigBrowse@CAcqConfigDlg@@IEAAXXZ@4HA 0000000067da3410 f   AcqConfigDlg.obj
 0001:00022420       ?dtor$3@?0??OnConfigBrowse@CAcqConfigDlg@@IEAAXXZ@4HA 0000000067da3420 f   AcqConfigDlg.obj
 0001:00022430       ?dtor$0@?0???0CAcqDlg@@QEAA@PEAVCWnd@@PEAVSapAcquisition@@@Z@4HA 0000000067da3430 f   AcqDlg.obj
 0001:00022440       ?dtor$0@?0???1CAcqDlg@@UEAA@XZ@4HA 0000000067da3440 f   AcqDlg.obj
 0001:00022450       ?dtor$0@?0???_GCAcqDlg@@UEAAPEAXI@Z@4HA 0000000067da3450 f   AcqDlg.obj
 0001:00022460       ?dtor$0@?0???_ECAcqDlg@@UEAAPEAXI@Z@4HA 0000000067da3460 f   AcqDlg.obj
 0001:00022470       ?dtor$0@?0???1CAScanDlg@@UEAA@XZ@4HA 0000000067da3470 f   AScanDlg.obj
 0001:00022480       ?dtor$1@?0???1CAScanDlg@@UEAA@XZ@4HA 0000000067da3480 f   AScanDlg.obj
 0001:000224a0       ?dtor$2@?0???1CAScanDlg@@UEAA@XZ@4HA 0000000067da34a0 f   AScanDlg.obj
 0001:000224c0       ?dtor$0@?0???_GCAScanDlg@@UEAAPEAXI@Z@4HA 0000000067da34c0 f   AScanDlg.obj
 0001:000224d0       ?dtor$1@?0???_GCAScanDlg@@UEAAPEAXI@Z@4HA 0000000067da34d0 f   AScanDlg.obj
 0001:000224f0       ?dtor$2@?0???_GCAScanDlg@@UEAAPEAXI@Z@4HA 0000000067da34f0 f   AScanDlg.obj
 0001:00022510       ?dtor$0@?0???_ECAScanDlg@@UEAAPEAXI@Z@4HA 0000000067da3510 f   AScanDlg.obj
 0001:00022520       ?dtor$1@?0???_ECAScanDlg@@UEAAPEAXI@Z@4HA 0000000067da3520 f   AScanDlg.obj
 0001:00022540       ?dtor$2@?0???_ECAScanDlg@@UEAAPEAXI@Z@4HA 0000000067da3540 f   AScanDlg.obj
 0001:00022560       ?dtor$0@?0???0CAScanDlg@@QEAA@PEAVCWnd@@PEAVSapAcquisition@@@Z@4HA 0000000067da3560 f   AScanDlg.obj
 0001:00022570       ?dtor$1@?0???0CAScanDlg@@QEAA@PEAVCWnd@@PEAVSapAcquisition@@@Z@4HA 0000000067da3570 f   AScanDlg.obj
 0001:00022590       ?dtor$2@?0???0CAScanDlg@@QEAA@PEAVCWnd@@PEAVSapAcquisition@@@Z@4HA 0000000067da3590 f   AScanDlg.obj
 0001:000225b0       ?dtor$0@?0??VerifyTimeIntegrateDuration@CAScanDlg@@IEAAXH@Z@4HA 0000000067da35b0 f   AScanDlg.obj
 0001:000225c0       ?dtor$0@?0??VerifyFrameIntegrateCount@CAScanDlg@@IEAAXXZ@4HA 0000000067da35c0 f   AScanDlg.obj
 0001:000225d0       ?dtor$0@?0???0CAviFileDlg@@QEAA@PEAVCWnd@@HHHH@Z@4HA 0000000067da35d0 f   AviFileDlg.obj
 0001:000225e0       ?dtor$0@?0???0CBayerOptionsDlg@@QEAA@PEAVCWnd@@PEAVSapBayer@@PEAVSapTransfer@@PEAVCImageWnd@@PEAVSapProcessing@@@Z@4HA 0000000067da35e0 f   BayerDlg.obj
 0001:000225f0       ?dtor$0@?0???1CBayerOptionsDlg@@UEAA@XZ@4HA 0000000067da35f0 f   BayerDlg.obj
 0001:00022600       ?dtor$0@?0??UpdateInterface@CBayerOptionsDlg@@QEAAXXZ@4HA 0000000067da3600 f   BayerDlg.obj
 0001:00022610       ?dtor$1@?0??OnApply@CBayerOptionsDlg@@IEAAXXZ@4HA 0000000067da3610 f   BayerDlg.obj
 0001:00022620       ?dtor$0@?0???0CBrowseDirDlg@@QEAA@PEBD@Z@4HA 0000000067da3620 f   BrowseDirDlg.obj
 0001:00022630       ?dtor$0@?0???HATL@@YA?AV?$CStringT@DV?$StrTraitMFC_DLL@DV?$ChTraitsCRT@D@ATL@@@@@0@AEBV10@D@Z@4HA 0000000067da3630 f   BrowseDirDlg.obj
 0001:00022660       ?dtor$1@?0??DoModal@CBrowseDirDlg@@QEAAHXZ@4HA 0000000067da3660 f   BrowseDirDlg.obj
 0001:00022670       ?dtor$2@?0??DoModal@CBrowseDirDlg@@QEAAHXZ@4HA 0000000067da3670 f   BrowseDirDlg.obj
 0001:00022680       ?dtor$3@?0??DoModal@CBrowseDirDlg@@QEAAHXZ@4HA 0000000067da3680 f   BrowseDirDlg.obj
 0001:00022690       ?dtor$4@?0??DoModal@CBrowseDirDlg@@QEAAHXZ@4HA 0000000067da3690 f   BrowseDirDlg.obj
 0001:000226a0       ?dtor$0@?0???1CBufDlg@@UEAA@XZ@4HA 0000000067da36a0 f   BufDlg.obj
 0001:000226b0       ?dtor$1@?0???1CBufDlg@@UEAA@XZ@4HA 0000000067da36b0 f   BufDlg.obj
 0001:000226d0       ?dtor$2@?0???1CBufDlg@@UEAA@XZ@4HA 0000000067da36d0 f   BufDlg.obj
 0001:000226f0       ?dtor$0@?0???_GCBufDlg@@UEAAPEAXI@Z@4HA 0000000067da36f0 f   BufDlg.obj
 0001:00022700       ?dtor$1@?0???_GCBufDlg@@UEAAPEAXI@Z@4HA 0000000067da3700 f   BufDlg.obj
 0001:00022720       ?dtor$2@?0???_GCBufDlg@@UEAAPEAXI@Z@4HA 0000000067da3720 f   BufDlg.obj
 0001:00022740       ?dtor$0@?0???_ECBufDlg@@UEAAPEAXI@Z@4HA 0000000067da3740 f   BufDlg.obj
 0001:00022750       ?dtor$1@?0???_ECBufDlg@@UEAAPEAXI@Z@4HA 0000000067da3750 f   BufDlg.obj
 0001:00022770       ?dtor$2@?0???_ECBufDlg@@UEAAPEAXI@Z@4HA 0000000067da3770 f   BufDlg.obj
 0001:00022790       ?dtor$0@?0???0CBufDlg@@QEAA@PEAVCWnd@@PEAVSapBuffer@@PEAVSapDisplay@@@Z@4HA 0000000067da3790 f   BufDlg.obj
 0001:000227a0       ?dtor$1@?0???0CBufDlg@@QEAA@PEAVCWnd@@PEAVSapBuffer@@PEAVSapDisplay@@@Z@4HA 0000000067da37a0 f   BufDlg.obj
 0001:000227c0       ?dtor$3@?0???0CBufDlg@@QEAA@PEAVCWnd@@PEAVSapBuffer@@PEAVSapDisplay@@@Z@4HA 0000000067da37c0 f   BufDlg.obj
 0001:000227e0       ?dtor$4@?0???0CBufDlg@@QEAA@PEAVCWnd@@PEAVSapBuffer@@PEAVSapDisplay@@@Z@4HA 0000000067da37e0 f   BufDlg.obj
 0001:00022800       ?dtor$6@?0???0CBufDlg@@QEAA@PEAVCWnd@@PEAVSapBuffer@@PEAVSapDisplay@@@Z@4HA 0000000067da3800 f   BufDlg.obj
 0001:00022810       ?dtor$0@?0???0CColorConversionOptionsDlg@@QEAA@PEAVCWnd@@PEAVSapColorConversion@@PEAVSapTransfer@@PEAVCImageWnd@@PEAVSapProcessing@@@Z@4HA 0000000067da3810 f   ColorConversionDlg.obj
 0001:00022820       ?dtor$0@?0???1CColorConversionOptionsDlg@@UEAA@XZ@4HA 0000000067da3820 f   ColorConversionDlg.obj
 0001:00022830       ?dtor$0@?0???HATL@@YA?AV?$CStringT@DV?$StrTraitMFC_DLL@DV?$ChTraitsCRT@D@ATL@@@@@0@AEBV10@PEBD@Z@4HA 0000000067da3830 f   ColorConversionDlg.obj
 0001:00022860       ?dtor$0@?0??SetSelectedMethodDescription@CColorConversionOptionsDlg@@IEAAXXZ@4HA 0000000067da3860 f   ColorConversionDlg.obj
 0001:00022870       ?dtor$1@?0??OnApply@CColorConversionOptionsDlg@@IEAAXXZ@4HA 0000000067da3870 f   ColorConversionDlg.obj
 0001:00022880       ?dtor$0@?0??UpdateInterface@CColorConversionOptionsDlg@@QEAAXXZ@4HA 0000000067da3880 f   ColorConversionDlg.obj
 0001:00022890       ?dtor$1@?0???__E?m_Methods@CColorConversionOptionsDlg@@0PAUSapColorConversionMethodDictionary@@A@@YAXXZ@4HA 0000000067da3890 f   ColorConversionDlg.obj
 0001:000228a0       ?dtor$3@?0???__E?m_Methods@CColorConversionOptionsDlg@@0PAUSapColorConversionMethodDictionary@@A@@YAXXZ@4HA 0000000067da38a0 f   ColorConversionDlg.obj
 0001:000228b0       ?dtor$5@?0???__E?m_Methods@CColorConversionOptionsDlg@@0PAUSapColorConversionMethodDictionary@@A@@YAXXZ@4HA 0000000067da38b0 f   ColorConversionDlg.obj
 0001:000228c0       ?dtor$7@?0???__E?m_Methods@CColorConversionOptionsDlg@@0PAUSapColorConversionMethodDictionary@@A@@YAXXZ@4HA 0000000067da38c0 f   ColorConversionDlg.obj
 0001:000228d0       ?dtor$9@?0???__E?m_Methods@CColorConversionOptionsDlg@@0PAUSapColorConversionMethodDictionary@@A@@YAXXZ@4HA 0000000067da38d0 f   ColorConversionDlg.obj
 0001:000228e0       ?dtor$11@?0???__E?m_Methods@CColorConversionOptionsDlg@@0PAUSapColorConversionMethodDictionary@@A@@YAXXZ@4HA 0000000067da38e0 f   ColorConversionDlg.obj
 0001:000228f0       ?dtor$13@?0???__E?m_Methods@CColorConversionOptionsDlg@@0PAUSapColorConversionMethodDictionary@@A@@YAXXZ@4HA 0000000067da38f0 f   ColorConversionDlg.obj
 0001:00022900       ?dtor$0@?0???1CCompDlg@@UEAA@XZ@4HA 0000000067da3900 f   CompDlg.obj
 0001:00022910       ?dtor$1@?0???1CCompDlg@@UEAA@XZ@4HA 0000000067da3910 f   CompDlg.obj
 0001:00022930       ?dtor$2@?0???1CCompDlg@@UEAA@XZ@4HA 0000000067da3930 f   CompDlg.obj
 0001:00022950       ?dtor$3@?0???1CCompDlg@@UEAA@XZ@4HA 0000000067da3950 f   CompDlg.obj
 0001:00022970       ?dtor$4@?0???1CCompDlg@@UEAA@XZ@4HA 0000000067da3970 f   CompDlg.obj
 0001:00022990       ?dtor$5@?0???1CCompDlg@@UEAA@XZ@4HA 0000000067da3990 f   CompDlg.obj
 0001:000229b0       ?dtor$0@?0???0CCompDlg@@QEAA@PEAVCWnd@@PEAVSapAcquisition@@PEAVSapTransfer@@@Z@4HA 0000000067da39b0 f   CompDlg.obj
 0001:000229c0       ?dtor$1@?0???0CCompDlg@@QEAA@PEAVCWnd@@PEAVSapAcquisition@@PEAVSapTransfer@@@Z@4HA 0000000067da39c0 f   CompDlg.obj
 0001:000229e0       ?dtor$2@?0???0CCompDlg@@QEAA@PEAVCWnd@@PEAVSapAcquisition@@PEAVSapTransfer@@@Z@4HA 0000000067da39e0 f   CompDlg.obj
 0001:00022a00       ?dtor$3@?0???0CCompDlg@@QEAA@PEAVCWnd@@PEAVSapAcquisition@@PEAVSapTransfer@@@Z@4HA 0000000067da3a00 f   CompDlg.obj
 0001:00022a20       ?dtor$4@?0???0CCompDlg@@QEAA@PEAVCWnd@@PEAVSapAcquisition@@PEAVSapTransfer@@@Z@4HA 0000000067da3a20 f   CompDlg.obj
 0001:00022a40       ?dtor$5@?0???0CCompDlg@@QEAA@PEAVCWnd@@PEAVSapAcquisition@@PEAVSapTransfer@@@Z@4HA 0000000067da3a40 f   CompDlg.obj
 0001:00022a60       ?dtor$0@?0??Snap@CCompDlg@@IEAAXXZ@4HA 0000000067da3a60 f   CompDlg.obj
 0001:00022a70       ?dtor$0@?0???1CFlatFieldDlg@@UEAA@XZ@4HA 0000000067da3a70 f   FlatFieldDlg.obj
 0001:00022a80       ?dtor$1@?0???1CFlatFieldDlg@@UEAA@XZ@4HA 0000000067da3a80 f   FlatFieldDlg.obj
 0001:00022aa0       ?dtor$2@?0???1CFlatFieldDlg@@UEAA@XZ@4HA 0000000067da3aa0 f   FlatFieldDlg.obj
 0001:00022ac0       ?dtor$3@?0???1CFlatFieldDlg@@UEAA@XZ@4HA 0000000067da3ac0 f   FlatFieldDlg.obj
 0001:00022ae0       ?dtor$4@?0???1CFlatFieldDlg@@UEAA@XZ@4HA 0000000067da3ae0 f   FlatFieldDlg.obj
 0001:00022b00       ?dtor$5@?0???1CFlatFieldDlg@@UEAA@XZ@4HA 0000000067da3b00 f   FlatFieldDlg.obj
 0001:00022b20       ?dtor$6@?0???1CFlatFieldDlg@@UEAA@XZ@4HA 0000000067da3b20 f   FlatFieldDlg.obj
 0001:00022b40       ?dtor$7@?0???1CFlatFieldDlg@@UEAA@XZ@4HA 0000000067da3b40 f   FlatFieldDlg.obj
 0001:00022b60       ?dtor$8@?0???1CFlatFieldDlg@@UEAA@XZ@4HA 0000000067da3b60 f   FlatFieldDlg.obj
 0001:00022b80       ?dtor$0@?0??OnBnClickedScgFfLoadClusterMap@CFlatFieldDlg@@IEAAXXZ@4HA 0000000067da3b80 f   FlatFieldDlg.obj
 0001:00022b90       ?dtor$1@?0??OnBnClickedScgFfLoadClusterMap@CFlatFieldDlg@@IEAAXXZ@4HA 0000000067da3b90 f   FlatFieldDlg.obj
 0001:00022ba0       ?dtor$2@?0??OnBnClickedScgFfLoadClusterMap@CFlatFieldDlg@@IEAAXXZ@4HA 0000000067da3ba0 f   FlatFieldDlg.obj
 0001:00022bb0       ?dtor$3@?0??OnBnClickedScgFfLoadClusterMap@CFlatFieldDlg@@IEAAXXZ@4HA 0000000067da3bb0 f   FlatFieldDlg.obj
 0001:00022bc0       ?dtor$0@?0??GetAverageStr@CFlatFieldDlg@@AEBA?AV?$CStringT@DV?$StrTraitMFC_DLL@DV?$ChTraitsCRT@D@ATL@@@@@ATL@@AEAVSapFlatFieldStats@@@Z@4HA 0000000067da3bc0 f   FlatFieldDlg.obj
 0001:00022bf0       ?dtor$1@?0??GetAverageStr@CFlatFieldDlg@@AEBA?AV?$CStringT@DV?$StrTraitMFC_DLL@DV?$ChTraitsCRT@D@ATL@@@@@ATL@@AEAVSapFlatFieldStats@@@Z@4HA 0000000067da3bf0 f   FlatFieldDlg.obj
 0001:00022c00       ?dtor$0@?0??GetStdDeviationStr@CFlatFieldDlg@@AEBA?AV?$CStringT@DV?$StrTraitMFC_DLL@DV?$ChTraitsCRT@D@ATL@@@@@ATL@@AEAVSapFlatFieldStats@@@Z@4HA 0000000067da3c00 f   FlatFieldDlg.obj
 0001:00022c30       ?dtor$1@?0??GetStdDeviationStr@CFlatFieldDlg@@AEBA?AV?$CStringT@DV?$StrTraitMFC_DLL@DV?$ChTraitsCRT@D@ATL@@@@@ATL@@AEAVSapFlatFieldStats@@@Z@4HA 0000000067da3c30 f   FlatFieldDlg.obj
 0001:00022c40       ?dtor$0@?0??GetLowStr@CFlatFieldDlg@@AEBA?AV?$CStringT@DV?$StrTraitMFC_DLL@DV?$ChTraitsCRT@D@ATL@@@@@ATL@@AEAVSapFlatFieldStats@@@Z@4HA 0000000067da3c40 f   FlatFieldDlg.obj
 0001:00022c70       ?dtor$1@?0??GetLowStr@CFlatFieldDlg@@AEBA?AV?$CStringT@DV?$StrTraitMFC_DLL@DV?$ChTraitsCRT@D@ATL@@@@@ATL@@AEAVSapFlatFieldStats@@@Z@4HA 0000000067da3c70 f   FlatFieldDlg.obj
 0001:00022c80       ?dtor$0@?0??GetHighStr@CFlatFieldDlg@@AEBA?AV?$CStringT@DV?$StrTraitMFC_DLL@DV?$ChTraitsCRT@D@ATL@@@@@ATL@@AEAVSapFlatFieldStats@@@Z@4HA 0000000067da3c80 f   FlatFieldDlg.obj
 0001:00022cb0       ?dtor$1@?0??GetHighStr@CFlatFieldDlg@@AEBA?AV?$CStringT@DV?$StrTraitMFC_DLL@DV?$ChTraitsCRT@D@ATL@@@@@ATL@@AEAVSapFlatFieldStats@@@Z@4HA 0000000067da3cb0 f   FlatFieldDlg.obj
 0001:00022cc0       ?dtor$0@?0??GetPeakPositionStr@CFlatFieldDlg@@AEBA?AV?$CStringT@DV?$StrTraitMFC_DLL@DV?$ChTraitsCRT@D@ATL@@@@@ATL@@AEAVSapFlatFieldStats@@@Z@4HA 0000000067da3cc0 f   FlatFieldDlg.obj
 0001:00022cf0       ?dtor$1@?0??GetPeakPositionStr@CFlatFieldDlg@@AEBA?AV?$CStringT@DV?$StrTraitMFC_DLL@DV?$ChTraitsCRT@D@ATL@@@@@ATL@@AEAVSapFlatFieldStats@@@Z@4HA 0000000067da3cf0 f   FlatFieldDlg.obj
 0001:00022d00       ?dtor$0@?0??GetPixelRatioStr@CFlatFieldDlg@@AEBA?AV?$CStringT@DV?$StrTraitMFC_DLL@DV?$ChTraitsCRT@D@ATL@@@@@ATL@@AEAVSapFlatFieldStats@@@Z@4HA 0000000067da3d00 f   FlatFieldDlg.obj
 0001:00022d30       ?dtor$1@?0??GetPixelRatioStr@CFlatFieldDlg@@AEBA?AV?$CStringT@DV?$StrTraitMFC_DLL@DV?$ChTraitsCRT@D@ATL@@@@@ATL@@AEAVSapFlatFieldStats@@@Z@4HA 0000000067da3d30 f   FlatFieldDlg.obj
 0001:00022d40       ?dtor$0@?0??GetNumPixelsStr@CFlatFieldDlg@@AEBA?AV?$CStringT@DV?$StrTraitMFC_DLL@DV?$ChTraitsCRT@D@ATL@@@@@ATL@@AEAVSapFlatFieldStats@@@Z@4HA 0000000067da3d40 f   FlatFieldDlg.obj
 0001:00022d70       ?dtor$1@?0??GetNumPixelsStr@CFlatFieldDlg@@AEBA?AV?$CStringT@DV?$StrTraitMFC_DLL@DV?$ChTraitsCRT@D@ATL@@@@@ATL@@AEAVSapFlatFieldStats@@@Z@4HA 0000000067da3d70 f   FlatFieldDlg.obj
 0001:00022d80       ?catch$0@?0???1CWaitCursor@@QEAA@XZ@4HA 0000000067da3d80 f   FlatFieldDlg.obj
 0001:00022d8e       __catch$??1CWaitCursor@@QEAA@XZ$0 0000000067da3d8e f   FlatFieldDlg.obj
 0001:00022e40       ?dtor$0@?0???1CWaitCursor@@QEAA@XZ@4HA 0000000067da3e40 f   FlatFieldDlg.obj
 0001:00022e50       ?dtor$0@?0???0CFlatFieldDlg@@QEAA@PEAVCWnd@@PEAVSapFlatField@@PEAVSapTransfer@@PEAVSapBuffer@@@Z@4HA 0000000067da3e50 f   FlatFieldDlg.obj
 0001:00022e60       ?dtor$1@?0???0CFlatFieldDlg@@QEAA@PEAVCWnd@@PEAVSapFlatField@@PEAVSapTransfer@@PEAVSapBuffer@@@Z@4HA 0000000067da3e60 f   FlatFieldDlg.obj
 0001:00022e80       ?dtor$2@?0???0CFlatFieldDlg@@QEAA@PEAVCWnd@@PEAVSapFlatField@@PEAVSapTransfer@@PEAVSapBuffer@@@Z@4HA 0000000067da3e80 f   FlatFieldDlg.obj
 0001:00022ea0       ?dtor$3@?0???0CFlatFieldDlg@@QEAA@PEAVCWnd@@PEAVSapFlatField@@PEAVSapTransfer@@PEAVSapBuffer@@@Z@4HA 0000000067da3ea0 f   FlatFieldDlg.obj
 0001:00022ec0       ?dtor$4@?0???0CFlatFieldDlg@@QEAA@PEAVCWnd@@PEAVSapFlatField@@PEAVSapTransfer@@PEAVSapBuffer@@@Z@4HA 0000000067da3ec0 f   FlatFieldDlg.obj
 0001:00022ee0       ?dtor$5@?0???0CFlatFieldDlg@@QEAA@PEAVCWnd@@PEAVSapFlatField@@PEAVSapTransfer@@PEAVSapBuffer@@@Z@4HA 0000000067da3ee0 f   FlatFieldDlg.obj
 0001:00022f00       ?dtor$6@?0???0CFlatFieldDlg@@QEAA@PEAVCWnd@@PEAVSapFlatField@@PEAVSapTransfer@@PEAVSapBuffer@@@Z@4HA 0000000067da3f00 f   FlatFieldDlg.obj
 0001:00022f20       ?dtor$7@?0???0CFlatFieldDlg@@QEAA@PEAVCWnd@@PEAVSapFlatField@@PEAVSapTransfer@@PEAVSapBuffer@@@Z@4HA 0000000067da3f20 f   FlatFieldDlg.obj
 0001:00022f40       ?dtor$8@?0???0CFlatFieldDlg@@QEAA@PEAVCWnd@@PEAVSapFlatField@@PEAVSapTransfer@@PEAVSapBuffer@@@Z@4HA 0000000067da3f40 f   FlatFieldDlg.obj
 0001:00022f60       ?dtor$0@?0??Snap@CFlatFieldDlg@@QEAAHXZ@4HA 0000000067da3f60 f   FlatFieldDlg.obj
 0001:00022f70       ?dtor$0@?0??LogMessage@CFlatFieldDlg@@AEAAXHV?$CStringT@DV?$StrTraitMFC_DLL@DV?$ChTraitsCRT@D@ATL@@@@@ATL@@@Z@4HA 0000000067da3f70 f   FlatFieldDlg.obj
 0001:00022f80       ?dtor$1@?0??LogMessage@CFlatFieldDlg@@AEAAXHV?$CStringT@DV?$StrTraitMFC_DLL@DV?$ChTraitsCRT@D@ATL@@@@@ATL@@@Z@4HA 0000000067da3f80 f   FlatFieldDlg.obj
 0001:00022f90       ?dtor$0@?0??OnInitDialog@CFlatFieldDlg@@MEAAHXZ@4HA 0000000067da3f90 f   FlatFieldDlg.obj
 0001:00022fa0       ?dtor$1@?0??OnInitDialog@CFlatFieldDlg@@MEAAHXZ@4HA 0000000067da3fa0 f   FlatFieldDlg.obj
 0001:00022fb0       ?dtor$3@?0??OnInitDialog@CFlatFieldDlg@@MEAAHXZ@4HA 0000000067da3fb0 f   FlatFieldDlg.obj
 0001:00022fc0       ?dtor$4@?0??OnInitDialog@CFlatFieldDlg@@MEAAHXZ@4HA 0000000067da3fc0 f   FlatFieldDlg.obj
 0001:00022fd0       ?dtor$5@?0??OnInitDialog@CFlatFieldDlg@@MEAAHXZ@4HA 0000000067da3fd0 f   FlatFieldDlg.obj
 0001:00022fe0       ?dtor$0@?0??OnSaveAndUpload@CFlatFieldDlg@@IEAAXXZ@4HA 0000000067da3fe0 f   FlatFieldDlg.obj
 0001:00022ff0       ?dtor$1@?0??OnSaveAndUpload@CFlatFieldDlg@@IEAAXXZ@4HA 0000000067da3ff0 f   FlatFieldDlg.obj
 0001:00023000       ?dtor$2@?0??OnSaveAndUpload@CFlatFieldDlg@@IEAAXXZ@4HA 0000000067da4000 f   FlatFieldDlg.obj
 0001:00023010       ?dtor$3@?0??OnSaveAndUpload@CFlatFieldDlg@@IEAAXXZ@4HA 0000000067da4010 f   FlatFieldDlg.obj
 0001:00023020       ?dtor$0@?0??DarkImage@CFlatFieldDlg@@AEAAXXZ@4HA 0000000067da4020 f   FlatFieldDlg.obj
 0001:00023030       ?dtor$1@?0??DarkImage@CFlatFieldDlg@@AEAAXXZ@4HA 0000000067da4030 f   FlatFieldDlg.obj
 0001:00023040       ?dtor$7@?0??DarkImage@CFlatFieldDlg@@AEAAXXZ@4HA 0000000067da4040 f   FlatFieldDlg.obj
 0001:00023050       ?dtor$8@?0??DarkImage@CFlatFieldDlg@@AEAAXXZ@4HA 0000000067da4050 f   FlatFieldDlg.obj
 0001:00023060       ?dtor$9@?0??DarkImage@CFlatFieldDlg@@AEAAXXZ@4HA 0000000067da4060 f   FlatFieldDlg.obj
 0001:00023070       ?dtor$10@?0??DarkImage@CFlatFieldDlg@@AEAAXXZ@4HA 0000000067da4070 f   FlatFieldDlg.obj
 0001:00023080       ?dtor$11@?0??DarkImage@CFlatFieldDlg@@AEAAXXZ@4HA 0000000067da4080 f   FlatFieldDlg.obj
 0001:00023090       ?dtor$0@?0??BrightImage@CFlatFieldDlg@@AEAAXXZ@4HA 0000000067da4090 f   FlatFieldDlg.obj
 0001:000230a0       ?dtor$1@?0??BrightImage@CFlatFieldDlg@@AEAAXXZ@4HA 0000000067da40a0 f   FlatFieldDlg.obj
 0001:000230b0       ?dtor$5@?0??BrightImage@CFlatFieldDlg@@AEAAXXZ@4HA 0000000067da40b0 f   FlatFieldDlg.obj
 0001:000230c0       ?dtor$6@?0??BrightImage@CFlatFieldDlg@@AEAAXXZ@4HA 0000000067da40c0 f   FlatFieldDlg.obj
 0001:000230d0       ?dtor$7@?0??BrightImage@CFlatFieldDlg@@AEAAXXZ@4HA 0000000067da40d0 f   FlatFieldDlg.obj
 0001:000230e0       ?dtor$8@?0??BrightImage@CFlatFieldDlg@@AEAAXXZ@4HA 0000000067da40e0 f   FlatFieldDlg.obj
 0001:000230f0       ?dtor$9@?0??BrightImage@CFlatFieldDlg@@AEAAXXZ@4HA 0000000067da40f0 f   FlatFieldDlg.obj
 0001:00023100       ?dtor$10@?0??BrightImage@CFlatFieldDlg@@AEAAXXZ@4HA 0000000067da4100 f   FlatFieldDlg.obj
 0001:00023110       ?dtor$11@?0??BrightImage@CFlatFieldDlg@@AEAAXXZ@4HA 0000000067da4110 f   FlatFieldDlg.obj
 0001:00023120       ?dtor$12@?0??BrightImage@CFlatFieldDlg@@AEAAXXZ@4HA 0000000067da4120 f   FlatFieldDlg.obj
 0001:00023130       ?dtor$15@?0??BrightImage@CFlatFieldDlg@@AEAAXXZ@4HA 0000000067da4130 f   FlatFieldDlg.obj
 0001:00023140       ?dtor$17@?0??BrightImage@CFlatFieldDlg@@AEAAXXZ@4HA 0000000067da4140 f   FlatFieldDlg.obj
 0001:00023150       ?dtor$19@?0??BrightImage@CFlatFieldDlg@@AEAAXXZ@4HA 0000000067da4150 f   FlatFieldDlg.obj
 0001:00023160       ?dtor$21@?0??BrightImage@CFlatFieldDlg@@AEAAXXZ@4HA 0000000067da4160 f   FlatFieldDlg.obj
 0001:00023170       ?dtor$22@?0??BrightImage@CFlatFieldDlg@@AEAAXXZ@4HA 0000000067da4170 f   FlatFieldDlg.obj
 0001:00023180       ?dtor$24@?0??BrightImage@CFlatFieldDlg@@AEAAXXZ@4HA 0000000067da4180 f   FlatFieldDlg.obj
 0001:00023190       ?dtor$25@?0??BrightImage@CFlatFieldDlg@@AEAAXXZ@4HA 0000000067da4190 f   FlatFieldDlg.obj
 0001:000231a0       ?dtor$0@?0??OnDarkImage@CFlatFieldDlg@@IEAAXXZ@4HA 0000000067da41a0 f   FlatFieldDlg.obj
 0001:000231b0       ?dtor$2@?0??OnDarkImage@CFlatFieldDlg@@IEAAXXZ@4HA 0000000067da41b0 f   FlatFieldDlg.obj
 0001:000231c0       ?dtor$4@?0??OnDarkImage@CFlatFieldDlg@@IEAAXXZ@4HA 0000000067da41c0 f   FlatFieldDlg.obj
 0001:000231d0       ?dtor$5@?0??OnDarkImage@CFlatFieldDlg@@IEAAXXZ@4HA 0000000067da41d0 f   FlatFieldDlg.obj
 0001:000231e0       ?dtor$7@?0??OnDarkImage@CFlatFieldDlg@@IEAAXXZ@4HA 0000000067da41e0 f   FlatFieldDlg.obj
 0001:000231f0       ?dtor$8@?0??OnDarkImage@CFlatFieldDlg@@IEAAXXZ@4HA 0000000067da41f0 f   FlatFieldDlg.obj
 0001:00023200       ?dtor$9@?0??OnDarkImage@CFlatFieldDlg@@IEAAXXZ@4HA 0000000067da4200 f   FlatFieldDlg.obj
 0001:00023210       ?dtor$0@?0??OnBrightImage@CFlatFieldDlg@@IEAAXXZ@4HA 0000000067da4210 f   FlatFieldDlg.obj
 0001:00023220       ?dtor$2@?0??OnBrightImage@CFlatFieldDlg@@IEAAXXZ@4HA 0000000067da4220 f   FlatFieldDlg.obj
 0001:00023230       ?dtor$4@?0??OnBrightImage@CFlatFieldDlg@@IEAAXXZ@4HA 0000000067da4230 f   FlatFieldDlg.obj
 0001:00023240       ?dtor$5@?0??OnBrightImage@CFlatFieldDlg@@IEAAXXZ@4HA 0000000067da4240 f   FlatFieldDlg.obj
 0001:00023250       ?dtor$7@?0??OnBrightImage@CFlatFieldDlg@@IEAAXXZ@4HA 0000000067da4250 f   FlatFieldDlg.obj
 0001:00023260       ?dtor$8@?0??OnBrightImage@CFlatFieldDlg@@IEAAXXZ@4HA 0000000067da4260 f   FlatFieldDlg.obj
 0001:00023270       ?dtor$9@?0??OnBrightImage@CFlatFieldDlg@@IEAAXXZ@4HA 0000000067da4270 f   FlatFieldDlg.obj
 0001:00023280       ?dtor$0@?0??Update@CGioBidirectionalDlg@@QEAAHXZ@4HA 0000000067da4280 f   GioBidirectionalDlg.obj
 0001:00023290       ?dtor$0@?0??ResetInterruptCount@CGioBidirectionalDlg@@IEAAHXZ@4HA 0000000067da4290 f   GioBidirectionalDlg.obj
 0001:000232a0       ?catch$0@?0???1CGdiObject@@UEAA@XZ@4HA 0000000067da42a0 f   GioBidirectionalDlg.obj
 0001:000232ae       __catch$??1CGdiObject@@UEAA@XZ$0 0000000067da42ae f   GioBidirectionalDlg.obj
 0001:00023360       ?dtor$0@?0???1CGdiObject@@UEAA@XZ@4HA 0000000067da4360 f   GioBidirectionalDlg.obj
 0001:00023370       ?dtor$0@?0???1CGioBidirectionalDlg@@UEAA@XZ@4HA 0000000067da4370 f   GioBidirectionalDlg.obj
 0001:00023380       ?dtor$1@?0???1CGioBidirectionalDlg@@UEAA@XZ@4HA 0000000067da4380 f   GioBidirectionalDlg.obj
 0001:000233a0       ?dtor$2@?0???1CGioBidirectionalDlg@@UEAA@XZ@4HA 0000000067da43a0 f   GioBidirectionalDlg.obj
 0001:000233c0       ?dtor$3@?0???1CGioBidirectionalDlg@@UEAA@XZ@4HA 0000000067da43c0 f   GioBidirectionalDlg.obj
 0001:000233e0       ?dtor$0@?0???_GCGioBidirectionalDlg@@UEAAPEAXI@Z@4HA 0000000067da43e0 f   GioBidirectionalDlg.obj
 0001:000233f0       ?dtor$1@?0???_GCGioBidirectionalDlg@@UEAAPEAXI@Z@4HA 0000000067da43f0 f   GioBidirectionalDlg.obj
 0001:00023410       ?dtor$2@?0???_GCGioBidirectionalDlg@@UEAAPEAXI@Z@4HA 0000000067da4410 f   GioBidirectionalDlg.obj
 0001:00023430       ?dtor$3@?0???_GCGioBidirectionalDlg@@UEAAPEAXI@Z@4HA 0000000067da4430 f   GioBidirectionalDlg.obj
 0001:00023450       ?dtor$0@?0???0CGioBidirectionalDlg@@QEAA@PEAVCWnd@@IPEAVSapGio@@@Z@4HA 0000000067da4450 f   GioBidirectionalDlg.obj
 0001:00023460       ?dtor$1@?0???0CGioBidirectionalDlg@@QEAA@PEAVCWnd@@IPEAVSapGio@@@Z@4HA 0000000067da4460 f   GioBidirectionalDlg.obj
 0001:00023480       ?dtor$2@?0???0CGioBidirectionalDlg@@QEAA@PEAVCWnd@@IPEAVSapGio@@@Z@4HA 0000000067da4480 f   GioBidirectionalDlg.obj
 0001:000234a0       ?dtor$0@?0??OnEnableCallback@CGioBidirectionalDlg@@IEAAXXZ@4HA 0000000067da44a0 f   GioBidirectionalDlg.obj
 0001:000234b0       ?dtor$0@?0??ChangePinState@CGioBidirectionalDlg@@IEAAXH@Z@4HA 0000000067da44b0 f   GioBidirectionalDlg.obj
 0001:000234c0       ?dtor$0@?0??OnInitDialog@CGioBidirectionalDlg@@MEAAHXZ@4HA 0000000067da44c0 f   GioBidirectionalDlg.obj
 0001:000234d0       ?dtor$0@?0??Update@CGioInputDlg@@QEAAHXZ@4HA 0000000067da44d0 f   GioInputDlg.obj
 0001:000234e0       ?dtor$0@?0??ResetInterruptCount@CGioInputDlg@@IEAAHXZ@4HA 0000000067da44e0 f   GioInputDlg.obj
 0001:000234f0       ?dtor$0@?0???1CGioInputDlg@@UEAA@XZ@4HA 0000000067da44f0 f   GioInputDlg.obj
 0001:00023500       ?dtor$1@?0???1CGioInputDlg@@UEAA@XZ@4HA 0000000067da4500 f   GioInputDlg.obj
 0001:00023520       ?dtor$2@?0???1CGioInputDlg@@UEAA@XZ@4HA 0000000067da4520 f   GioInputDlg.obj
 0001:00023540       ?dtor$3@?0???1CGioInputDlg@@UEAA@XZ@4HA 0000000067da4540 f   GioInputDlg.obj
 0001:00023560       ?dtor$0@?0???_GCGioInputDlg@@UEAAPEAXI@Z@4HA 0000000067da4560 f   GioInputDlg.obj
 0001:00023570       ?dtor$1@?0???_GCGioInputDlg@@UEAAPEAXI@Z@4HA 0000000067da4570 f   GioInputDlg.obj
 0001:00023590       ?dtor$2@?0???_GCGioInputDlg@@UEAAPEAXI@Z@4HA 0000000067da4590 f   GioInputDlg.obj
 0001:000235b0       ?dtor$3@?0???_GCGioInputDlg@@UEAAPEAXI@Z@4HA 0000000067da45b0 f   GioInputDlg.obj
 0001:000235d0       ?dtor$0@?0???0CGioInputDlg@@QEAA@PEAVCWnd@@IPEAVSapGio@@@Z@4HA 0000000067da45d0 f   GioInputDlg.obj
 0001:000235e0       ?dtor$1@?0???0CGioInputDlg@@QEAA@PEAVCWnd@@IPEAVSapGio@@@Z@4HA 0000000067da45e0 f   GioInputDlg.obj
 0001:00023600       ?dtor$2@?0???0CGioInputDlg@@QEAA@PEAVCWnd@@IPEAVSapGio@@@Z@4HA 0000000067da4600 f   GioInputDlg.obj
 0001:00023620       ?dtor$0@?0??OnInitDialog@CGioInputDlg@@MEAAHXZ@4HA 0000000067da4620 f   GioInputDlg.obj
 0001:00023630       ?dtor$0@?0??UpdateIO@CGioOutputDlg@@IEAAXXZ@4HA 0000000067da4630 f   GioOutputDlg.obj
 0001:00023640       ?dtor$0@?0???1CGioOutputDlg@@UEAA@XZ@4HA 0000000067da4640 f   GioOutputDlg.obj
 0001:00023650       ?dtor$1@?0???1CGioOutputDlg@@UEAA@XZ@4HA 0000000067da4650 f   GioOutputDlg.obj
 0001:00023670       ?dtor$2@?0???1CGioOutputDlg@@UEAA@XZ@4HA 0000000067da4670 f   GioOutputDlg.obj
 0001:00023690       ?dtor$3@?0???1CGioOutputDlg@@UEAA@XZ@4HA 0000000067da4690 f   GioOutputDlg.obj
 0001:000236b0       ?dtor$4@?0???1CGioOutputDlg@@UEAA@XZ@4HA 0000000067da46b0 f   GioOutputDlg.obj
 0001:000236d0       ?dtor$5@?0???1CGioOutputDlg@@UEAA@XZ@4HA 0000000067da46d0 f   GioOutputDlg.obj
 0001:000236f0       ?dtor$0@?0???0CGioOutputDlg@@QEAA@PEAVCWnd@@IPEAVSapGio@@@Z@4HA 0000000067da46f0 f   GioOutputDlg.obj
 0001:00023700       ?dtor$1@?0???0CGioOutputDlg@@QEAA@PEAVCWnd@@IPEAVSapGio@@@Z@4HA 0000000067da4700 f   GioOutputDlg.obj
 0001:00023720       ?dtor$2@?0???0CGioOutputDlg@@QEAA@PEAVCWnd@@IPEAVSapGio@@@Z@4HA 0000000067da4720 f   GioOutputDlg.obj
 0001:00023740       ?dtor$3@?0???0CGioOutputDlg@@QEAA@PEAVCWnd@@IPEAVSapGio@@@Z@4HA 0000000067da4740 f   GioOutputDlg.obj
 0001:00023760       ?dtor$4@?0???0CGioOutputDlg@@QEAA@PEAVCWnd@@IPEAVSapGio@@@Z@4HA 0000000067da4760 f   GioOutputDlg.obj
 0001:00023780       ?dtor$0@?0??ChangePinState@CGioOutputDlg@@QEAAXPEAVCButton@@@Z@4HA 0000000067da4780 f   GioOutputDlg.obj
 0001:00023790       ?dtor$0@?0??OnInitDialog@CGioOutputDlg@@MEAAHXZ@4HA 0000000067da4790 f   GioOutputDlg.obj
 0001:000237a0       ?dtor$0@?0???1CImageExWnd@@UEAA@XZ@4HA 0000000067da47a0 f   ImageExWnd.obj
 0001:000237b0       ?dtor$1@?0???1CImageExWnd@@UEAA@XZ@4HA 0000000067da47b0 f   ImageExWnd.obj
 0001:000237d0       ?dtor$2@?0???1CImageExWnd@@UEAA@XZ@4HA 0000000067da47d0 f   ImageExWnd.obj
 0001:00023810       ?dtor$3@?0???1CImageExWnd@@UEAA@XZ@4HA 0000000067da4810 f   ImageExWnd.obj
 0001:00023830       ?dtor$4@?0???1CImageExWnd@@UEAA@XZ@4HA 0000000067da4830 f   ImageExWnd.obj
 0001:00023850       ?dtor$5@?0???1CImageExWnd@@UEAA@XZ@4HA 0000000067da4850 f   ImageExWnd.obj
 0001:00023870       ?dtor$6@?0???1CImageExWnd@@UEAA@XZ@4HA 0000000067da4870 f   ImageExWnd.obj
 0001:00023890       ?dtor$7@?0???1CImageExWnd@@UEAA@XZ@4HA 0000000067da4890 f   ImageExWnd.obj
 0001:000238b0       ?dtor$8@?0???1CImageExWnd@@UEAA@XZ@4HA 0000000067da48b0 f   ImageExWnd.obj
 0001:000238d0       ?dtor$0@?0??OnPaint@CImageExWnd@@IEAAXXZ@4HA 0000000067da48d0 f   ImageExWnd.obj
 0001:000238e0       ?dtor$1@?0??OnPaint@CImageExWnd@@IEAAXXZ@4HA 0000000067da48e0 f   ImageExWnd.obj
 0001:000238f0       ?dtor$2@?0??OnPaint@CImageExWnd@@IEAAXXZ@4HA 0000000067da48f0 f   ImageExWnd.obj
 0001:00023900       ?dtor$0@?0??UpdateLayout@CImageExWnd@@IEAAXXZ@4HA 0000000067da4900 f   ImageExWnd.obj
 0001:00023910       ?dtor$0@?0???0CImageExWnd@@QEAA@XZ@4HA 0000000067da4910 f   ImageExWnd.obj
 0001:00023920       ?dtor$1@?0???0CImageExWnd@@QEAA@XZ@4HA 0000000067da4920 f   ImageExWnd.obj
 0001:00023940       ?dtor$2@?0???0CImageExWnd@@QEAA@XZ@4HA 0000000067da4940 f   ImageExWnd.obj
 0001:00023980       ?dtor$3@?0???0CImageExWnd@@QEAA@XZ@4HA 0000000067da4980 f   ImageExWnd.obj
 0001:000239a0       ?dtor$4@?0???0CImageExWnd@@QEAA@XZ@4HA 0000000067da49a0 f   ImageExWnd.obj
 0001:000239c0       ?dtor$5@?0???0CImageExWnd@@QEAA@XZ@4HA 0000000067da49c0 f   ImageExWnd.obj
 0001:000239e0       ?dtor$6@?0???0CImageExWnd@@QEAA@XZ@4HA 0000000067da49e0 f   ImageExWnd.obj
 0001:00023a00       ?dtor$7@?0???0CImageExWnd@@QEAA@XZ@4HA 0000000067da4a00 f   ImageExWnd.obj
 0001:00023a20       ?dtor$8@?0???0CImageExWnd@@QEAA@XZ@4HA 0000000067da4a20 f   ImageExWnd.obj
 0001:00023a40       ?dtor$0@?0??ReadCoefficientsFromBuffer@CImageFilterEditorDlg@@IEAA_NAEAVSapBuffer@@@Z@4HA 0000000067da4a40 f   ImageFilterEditorDlg.obj
 0001:00023a50       ?dtor$1@?0??ReadCoefficientsFromBuffer@CImageFilterEditorDlg@@IEAA_NAEAVSapBuffer@@@Z@4HA 0000000067da4a50 f   ImageFilterEditorDlg.obj
 0001:00023a60       ?dtor$2@?0??ReadCoefficientsFromBuffer@CImageFilterEditorDlg@@IEAA_NAEAVSapBuffer@@@Z@4HA 0000000067da4a60 f   ImageFilterEditorDlg.obj
 0001:00023a70       ?dtor$0@?0??OnBnClickedBtnImport@CImageFilterEditorDlg@@IEAAXXZ@4HA 0000000067da4a70 f   ImageFilterEditorDlg.obj
 0001:00023a80       ?dtor$1@?0??OnBnClickedBtnImport@CImageFilterEditorDlg@@IEAAXXZ@4HA 0000000067da4a80 f   ImageFilterEditorDlg.obj
 0001:00023a90       ?dtor$2@?0??OnBnClickedBtnImport@CImageFilterEditorDlg@@IEAAXXZ@4HA 0000000067da4a90 f   ImageFilterEditorDlg.obj
 0001:00023aa0       ?dtor$3@?0??OnBnClickedBtnImport@CImageFilterEditorDlg@@IEAAXXZ@4HA 0000000067da4aa0 f   ImageFilterEditorDlg.obj
 0001:00023ab0       ?dtor$4@?0??OnBnClickedBtnImport@CImageFilterEditorDlg@@IEAAXXZ@4HA 0000000067da4ab0 f   ImageFilterEditorDlg.obj
 0001:00023ac0       ?dtor$5@?0??OnBnClickedBtnImport@CImageFilterEditorDlg@@IEAAXXZ@4HA 0000000067da4ac0 f   ImageFilterEditorDlg.obj
 0001:00023af0       ?dtor$0@?0???0CImageFilterEditorDlg@@QEAA@PEAVSapAcquisition@@PEAVCWnd@@@Z@4HA 0000000067da4af0 f   ImageFilterEditorDlg.obj
 0001:00023b00       ?dtor$1@?0???0CImageFilterEditorDlg@@QEAA@PEAVSapAcquisition@@PEAVCWnd@@@Z@4HA 0000000067da4b00 f   ImageFilterEditorDlg.obj
 0001:00023b20       ?dtor$2@?0???0CImageFilterEditorDlg@@QEAA@PEAVSapAcquisition@@PEAVCWnd@@@Z@4HA 0000000067da4b20 f   ImageFilterEditorDlg.obj
 0001:00023b40       ?dtor$3@?0???0CImageFilterEditorDlg@@QEAA@PEAVSapAcquisition@@PEAVCWnd@@@Z@4HA 0000000067da4b40 f   ImageFilterEditorDlg.obj
 0001:00023b60       ?dtor$4@?0???0CImageFilterEditorDlg@@QEAA@PEAVSapAcquisition@@PEAVCWnd@@@Z@4HA 0000000067da4b60 f   ImageFilterEditorDlg.obj
 0001:00023b80       ?dtor$5@?0???0CImageFilterEditorDlg@@QEAA@PEAVSapAcquisition@@PEAVCWnd@@@Z@4HA 0000000067da4b80 f   ImageFilterEditorDlg.obj
 0001:00023ba0       ?dtor$6@?0???0CImageFilterEditorDlg@@QEAA@PEAVSapAcquisition@@PEAVCWnd@@@Z@4HA 0000000067da4ba0 f   ImageFilterEditorDlg.obj
 0001:00023bc0       ?dtor$0@?0???1CImageFilterEditorDlg@@UEAA@XZ@4HA 0000000067da4bc0 f   ImageFilterEditorDlg.obj
 0001:00023bd0       ?dtor$1@?0???1CImageFilterEditorDlg@@UEAA@XZ@4HA 0000000067da4bd0 f   ImageFilterEditorDlg.obj
 0001:00023bf0       ?dtor$2@?0???1CImageFilterEditorDlg@@UEAA@XZ@4HA 0000000067da4bf0 f   ImageFilterEditorDlg.obj
 0001:00023c10       ?dtor$3@?0???1CImageFilterEditorDlg@@UEAA@XZ@4HA 0000000067da4c10 f   ImageFilterEditorDlg.obj
 0001:00023c30       ?dtor$4@?0???1CImageFilterEditorDlg@@UEAA@XZ@4HA 0000000067da4c30 f   ImageFilterEditorDlg.obj
 0001:00023c50       ?dtor$5@?0???1CImageFilterEditorDlg@@UEAA@XZ@4HA 0000000067da4c50 f   ImageFilterEditorDlg.obj
 0001:00023c70       ?dtor$6@?0???1CImageFilterEditorDlg@@UEAA@XZ@4HA 0000000067da4c70 f   ImageFilterEditorDlg.obj
 0001:00023c90       ?dtor$0@?0??CreateCoeffEditControls@CImageFilterEditorDlg@@IEAA_NH@Z@4HA 0000000067da4c90 f   ImageFilterEditorDlg.obj
 0001:00023ca0       ?dtor$0@?0??InitControls@CImageFilterEditorDlg@@IEAAXXZ@4HA 0000000067da4ca0 f   ImageFilterEditorDlg.obj
 0001:00023cb0       ?dtor$1@?0??ReadCoefficients@CImageFilterEditorDlg@@IEAA_NXZ@4HA 0000000067da4cb0 f   ImageFilterEditorDlg.obj
 0001:00023cc0       ?dtor$0@?0???1?$basic_stringbuf@DU?$char_traits@D@std@@V?$allocator@D@2@@std@@UEAA@XZ@4HA 0000000067da4cc0 f   ImageFilterEditorDlg.obj
 0001:00023cd0       ?catch$1@?0??_Copy@?$basic_string@DU?$char_traits@D@std@@V?$allocator@D@2@@std@@QEAAX_K0@Z@4HA 0000000067da4cd0 f   ImageFilterEditorDlg.obj
 0001:00023cdd       __catch$?_Copy@?$basic_string@DU?$char_traits@D@std@@V?$allocator@D@2@@std@@QEAAX_K0@Z$0 0000000067da4cdd f   ImageFilterEditorDlg.obj
 0001:00023d10       ?catch$0@?0??_Copy@?$basic_string@DU?$char_traits@D@std@@V?$allocator@D@2@@std@@QEAAX_K0@Z@4HA 0000000067da4d10 f   ImageFilterEditorDlg.obj
 0001:00023d1e       __catch$?_Copy@?$basic_string@DU?$char_traits@D@std@@V?$allocator@D@2@@std@@QEAAX_K0@Z$1 0000000067da4d1e f   ImageFilterEditorDlg.obj
 0001:00023d50       ?dtor$0@?0???1?$basic_istringstream@DU?$char_traits@D@std@@V?$allocator@D@2@@std@@UEAA@XZ@4HA 0000000067da4d50 f   ImageFilterEditorDlg.obj
 0001:00023d70       ?dtor$0@?0???0?$basic_stringbuf@DU?$char_traits@D@std@@V?$allocator@D@2@@std@@QEAA@AEBV?$basic_string@DU?$char_traits@D@std@@V?$allocator@D@2@@1@H@Z@4HA 0000000067da4d70 f   ImageFilterEditorDlg.obj
 0001:00023d80       ?dtor$0@?0???_D?$basic_istringstream@DU?$char_traits@D@std@@V?$allocator@D@2@@std@@QEAAXXZ@4HA 0000000067da4d80 f   ImageFilterEditorDlg.obj
 0001:00023da0       ?dtor$0@?0???0?$basic_istringstream@DU?$char_traits@D@std@@V?$allocator@D@2@@std@@QEAA@AEBV?$basic_string@DU?$char_traits@D@std@@V?$allocator@D@2@@1@H@Z@4HA 0000000067da4da0 f   ImageFilterEditorDlg.obj
 0001:00023dd0       ?dtor$1@?0???0?$basic_istringstream@DU?$char_traits@D@std@@V?$allocator@D@2@@std@@QEAA@AEBV?$basic_string@DU?$char_traits@D@std@@V?$allocator@D@2@@1@H@Z@4HA 0000000067da4dd0 f   ImageFilterEditorDlg.obj
 0001:00023df0       ?dtor$0@?0???_G?$basic_istringstream@DU?$char_traits@D@std@@V?$allocator@D@2@@std@@UEAAPEAXI@Z@4HA 0000000067da4df0 f   ImageFilterEditorDlg.obj
 0001:00023e10       ?dtor$0@?0??ConvertToDecimal@CImageFilterEditorDlg@@KA_NV?$CStringT@DV?$StrTraitMFC_DLL@DV?$ChTraitsCRT@D@ATL@@@@@ATL@@AEAN@Z@4HA 0000000067da4e10 f   ImageFilterEditorDlg.obj
 0001:00023e20       ?dtor$1@?0??ConvertToDecimal@CImageFilterEditorDlg@@KA_NV?$CStringT@DV?$StrTraitMFC_DLL@DV?$ChTraitsCRT@D@ATL@@@@@ATL@@AEAN@Z@4HA 0000000067da4e20 f   ImageFilterEditorDlg.obj
 0001:00023e30       ?dtor$3@?0??ConvertToDecimal@CImageFilterEditorDlg@@KA_NV?$CStringT@DV?$StrTraitMFC_DLL@DV?$ChTraitsCRT@D@ATL@@@@@ATL@@AEAN@Z@4HA 0000000067da4e30 f   ImageFilterEditorDlg.obj
 0001:00023e60       ?dtor$4@?0??ConvertToDecimal@CImageFilterEditorDlg@@KA_NV?$CStringT@DV?$StrTraitMFC_DLL@DV?$ChTraitsCRT@D@ATL@@@@@ATL@@AEAN@Z@4HA 0000000067da4e60 f   ImageFilterEditorDlg.obj
 0001:00023e80       ?dtor$6@?0??ConvertToDecimal@CImageFilterEditorDlg@@KA_NV?$CStringT@DV?$StrTraitMFC_DLL@DV?$ChTraitsCRT@D@ATL@@@@@ATL@@AEAN@Z@4HA 0000000067da4e80 f   ImageFilterEditorDlg.obj
 0001:00023e90       ?dtor$2@?0??ConvertToDecimal@CImageFilterEditorDlg@@KA_NV?$CStringT@DV?$StrTraitMFC_DLL@DV?$ChTraitsCRT@D@ATL@@@@@ATL@@AEAN@Z@4HA 0000000067da4e90 f   ImageFilterEditorDlg.obj
 0001:00023ea0       ?dtor$7@?0??ConvertToDecimal@CImageFilterEditorDlg@@KA_NV?$CStringT@DV?$StrTraitMFC_DLL@DV?$ChTraitsCRT@D@ATL@@@@@ATL@@AEAN@Z@4HA 0000000067da4ea0 f   ImageFilterEditorDlg.obj
 0001:00023ec0       ?dtor$0@?0??WriteCoefficientsToBuffer@CImageFilterEditorDlg@@IEAA_NAEAVSapBuffer@@@Z@4HA 0000000067da4ec0 f   ImageFilterEditorDlg.obj
 0001:00023ed0       ?dtor$1@?0??WriteCoefficientsToBuffer@CImageFilterEditorDlg@@IEAA_NAEAVSapBuffer@@@Z@4HA 0000000067da4ed0 f   ImageFilterEditorDlg.obj
 0001:00023ee0       ?dtor$3@?0??WriteCoefficientsToBuffer@CImageFilterEditorDlg@@IEAA_NAEAVSapBuffer@@@Z@4HA 0000000067da4ee0 f   ImageFilterEditorDlg.obj
 0001:00023ef0       ?dtor$4@?0??WriteCoefficientsToBuffer@CImageFilterEditorDlg@@IEAA_NAEAVSapBuffer@@@Z@4HA 0000000067da4ef0 f   ImageFilterEditorDlg.obj
 0001:00023f00       ?dtor$5@?0??WriteCoefficientsToBuffer@CImageFilterEditorDlg@@IEAA_NAEAVSapBuffer@@@Z@4HA 0000000067da4f00 f   ImageFilterEditorDlg.obj
 0001:00023f10       ?dtor$0@?0??OnBnClickedBtnExport@CImageFilterEditorDlg@@IEAAXXZ@4HA 0000000067da4f10 f   ImageFilterEditorDlg.obj
 0001:00023f20       ?dtor$1@?0??OnBnClickedBtnExport@CImageFilterEditorDlg@@IEAAXXZ@4HA 0000000067da4f20 f   ImageFilterEditorDlg.obj
 0001:00023f30       ?dtor$3@?0??OnBnClickedBtnExport@CImageFilterEditorDlg@@IEAAXXZ@4HA 0000000067da4f30 f   ImageFilterEditorDlg.obj
 0001:00023f40       ?dtor$4@?0??OnBnClickedBtnExport@CImageFilterEditorDlg@@IEAAXXZ@4HA 0000000067da4f40 f   ImageFilterEditorDlg.obj
 0001:00023f70       ?dtor$1@?0??WriteCoefficients@CImageFilterEditorDlg@@IEAA_NXZ@4HA 0000000067da4f70 f   ImageFilterEditorDlg.obj
 0001:00023f80       ?dtor$0@?0???1SImageViewportROI@@QEAA@XZ@4HA 0000000067da4f80 f   ImageViewportWnd.obj
 0001:00023fa0       ?dtor$1@?0???1SImageViewportROI@@QEAA@XZ@4HA 0000000067da4fa0 f   ImageViewportWnd.obj
 0001:00023fc0       ?dtor$2@?0???1SImageViewportROI@@QEAA@XZ@4HA 0000000067da4fc0 f   ImageViewportWnd.obj
 0001:00023fe0       ?dtor$0@?0???1CImageViewportWnd@@UEAA@XZ@4HA 0000000067da4fe0 f   ImageViewportWnd.obj
 0001:00023ff0       ?dtor$1@?0???1CImageViewportWnd@@UEAA@XZ@4HA 0000000067da4ff0 f   ImageViewportWnd.obj
 0001:00024010       ?dtor$2@?0???1CImageViewportWnd@@UEAA@XZ@4HA 0000000067da5010 f   ImageViewportWnd.obj
 0001:00024030       ?dtor$0@?0??TranslatePointToNativeView@CImageViewportWnd@@AEBA?AVCPoint@@V2@@Z@4HA 0000000067da5030 f   ImageViewportWnd.obj
 0001:00024040       ?dtor$0@?0??TranslatePointToDestinationView@CImageViewportWnd@@AEBA?AVCPoint@@V2@@Z@4HA 0000000067da5040 f   ImageViewportWnd.obj
 0001:00024050       ?dtor$0@?0??GetDstRectFromCurrentScalingOptions@CImageViewportWnd@@AEBA?AVCRect@@XZ@4HA 0000000067da5050 f   ImageViewportWnd.obj
 0001:00024060       ?dtor$0@?0??PaintROI@CImageViewportWnd@@AEAAXXZ@4HA 0000000067da5060 f   ImageViewportWnd.obj
 0001:00024070       ?dtor$0@?0??UpdateScales@CImageViewportWnd@@AEAAXMM@Z@4HA 0000000067da5070 f   ImageViewportWnd.obj
 0001:00024080       ?dtor$1@?0??UpdateScales@CImageViewportWnd@@AEAAXMM@Z@4HA 0000000067da5080 f   ImageViewportWnd.obj
 0001:00024090       ?dtor$0@?0??MoveInView@CImageViewportWnd@@AEAAXVCPoint@@@Z@4HA 0000000067da5090 f   ImageViewportWnd.obj
 0001:000240a0       ?dtor$0@?0???0CImageViewportWnd@@QEAA@XZ@4HA 0000000067da50a0 f   ImageViewportWnd.obj
 0001:000240b0       ?dtor$1@?0???0CImageViewportWnd@@QEAA@XZ@4HA 0000000067da50b0 f   ImageViewportWnd.obj
 0001:000240d0       ?dtor$2@?0???0CImageViewportWnd@@QEAA@XZ@4HA 0000000067da50d0 f   ImageViewportWnd.obj
 0001:000240f0       ?dtor$0@?0??OnPaint@CImageViewportWnd@@IEAAXXZ@4HA 0000000067da50f0 f   ImageViewportWnd.obj
 0001:00024100       ?dtor$0@?0??GetPixelString@CImageWnd@@SA?AV?$CStringT@DV?$StrTraitMFC_DLL@DV?$ChTraitsCRT@D@ATL@@@@@ATL@@PEAVSapBuffer@@VCPoint@@HH@Z@4HA 0000000067da5100 f   ImageWnd.obj
 0001:00024130       ?dtor$1@?0??GetPixelString@CImageWnd@@SA?AV?$CStringT@DV?$StrTraitMFC_DLL@DV?$ChTraitsCRT@D@ATL@@@@@ATL@@PEAVSapBuffer@@VCPoint@@HH@Z@4HA 0000000067da5130 f   ImageWnd.obj
 0001:00024140       ?dtor$2@?0??GetPixelString@CImageWnd@@SA?AV?$CStringT@DV?$StrTraitMFC_DLL@DV?$ChTraitsCRT@D@ATL@@@@@ATL@@PEAVSapBuffer@@VCPoint@@HH@Z@4HA 0000000067da5140 f   ImageWnd.obj
 0001:00024150       ?dtor$3@?0??GetPixelString@CImageWnd@@SA?AV?$CStringT@DV?$StrTraitMFC_DLL@DV?$ChTraitsCRT@D@ATL@@@@@ATL@@PEAVSapBuffer@@VCPoint@@HH@Z@4HA 0000000067da5150 f   ImageWnd.obj
 0001:00024160       ?dtor$4@?0??GetPixelString@CImageWnd@@SA?AV?$CStringT@DV?$StrTraitMFC_DLL@DV?$ChTraitsCRT@D@ATL@@@@@ATL@@PEAVSapBuffer@@VCPoint@@HH@Z@4HA 0000000067da5160 f   ImageWnd.obj
 0001:00024170       ?dtor$5@?0??GetPixelString@CImageWnd@@SA?AV?$CStringT@DV?$StrTraitMFC_DLL@DV?$ChTraitsCRT@D@ATL@@@@@ATL@@PEAVSapBuffer@@VCPoint@@HH@Z@4HA 0000000067da5170 f   ImageWnd.obj
 0001:00024180       ?dtor$6@?0??GetPixelString@CImageWnd@@SA?AV?$CStringT@DV?$StrTraitMFC_DLL@DV?$ChTraitsCRT@D@ATL@@@@@ATL@@PEAVSapBuffer@@VCPoint@@HH@Z@4HA 0000000067da5180 f   ImageWnd.obj
 0001:00024190       ?dtor$7@?0??GetPixelString@CImageWnd@@SA?AV?$CStringT@DV?$StrTraitMFC_DLL@DV?$ChTraitsCRT@D@ATL@@@@@ATL@@PEAVSapBuffer@@VCPoint@@HH@Z@4HA 0000000067da5190 f   ImageWnd.obj
 0001:000241a0       ?dtor$8@?0??GetPixelString@CImageWnd@@SA?AV?$CStringT@DV?$StrTraitMFC_DLL@DV?$ChTraitsCRT@D@ATL@@@@@ATL@@PEAVSapBuffer@@VCPoint@@HH@Z@4HA 0000000067da51a0 f   ImageWnd.obj
 0001:000241b0       ?dtor$9@?0??GetPixelString@CImageWnd@@SA?AV?$CStringT@DV?$StrTraitMFC_DLL@DV?$ChTraitsCRT@D@ATL@@@@@ATL@@PEAVSapBuffer@@VCPoint@@HH@Z@4HA 0000000067da51b0 f   ImageWnd.obj
 0001:000241c0       ?dtor$10@?0??GetPixelString@CImageWnd@@SA?AV?$CStringT@DV?$StrTraitMFC_DLL@DV?$ChTraitsCRT@D@ATL@@@@@ATL@@PEAVSapBuffer@@VCPoint@@HH@Z@4HA 0000000067da51c0 f   ImageWnd.obj
 0001:000241d0       ?dtor$11@?0??GetPixelString@CImageWnd@@SA?AV?$CStringT@DV?$StrTraitMFC_DLL@DV?$ChTraitsCRT@D@ATL@@@@@ATL@@PEAVSapBuffer@@VCPoint@@HH@Z@4HA 0000000067da51d0 f   ImageWnd.obj
 0001:000241e0       ?dtor$12@?0??GetPixelString@CImageWnd@@SA?AV?$CStringT@DV?$StrTraitMFC_DLL@DV?$ChTraitsCRT@D@ATL@@@@@ATL@@PEAVSapBuffer@@VCPoint@@HH@Z@4HA 0000000067da51e0 f   ImageWnd.obj
 0001:000241f0       ?dtor$13@?0??GetPixelString@CImageWnd@@SA?AV?$CStringT@DV?$StrTraitMFC_DLL@DV?$ChTraitsCRT@D@ATL@@@@@ATL@@PEAVSapBuffer@@VCPoint@@HH@Z@4HA 0000000067da51f0 f   ImageWnd.obj
 0001:00024200       ?dtor$14@?0??GetPixelString@CImageWnd@@SA?AV?$CStringT@DV?$StrTraitMFC_DLL@DV?$ChTraitsCRT@D@ATL@@@@@ATL@@PEAVSapBuffer@@VCPoint@@HH@Z@4HA 0000000067da5200 f   ImageWnd.obj
 0001:00024210       ?dtor$15@?0??GetPixelString@CImageWnd@@SA?AV?$CStringT@DV?$StrTraitMFC_DLL@DV?$ChTraitsCRT@D@ATL@@@@@ATL@@PEAVSapBuffer@@VCPoint@@HH@Z@4HA 0000000067da5210 f   ImageWnd.obj
 0001:00024220       ?dtor$0@?0??DisplayRoiTracker@CImageWnd@@QEAAXXZ@4HA 0000000067da5220 f   ImageWnd.obj
 0001:00024230       ?dtor$1@?0??DisplayRoiTracker@CImageWnd@@QEAAXXZ@4HA 0000000067da5230 f   ImageWnd.obj
 0001:00024240       ?dtor$0@?0???0CImageWnd@@QEAA@PEAVSapView@@PEAVCWnd@@PEAVCScrollBar@@21@Z@4HA 0000000067da5240 f   ImageWnd.obj
 0001:00024250       ?dtor$0@?0???0CImageWnd@@QEAA@PEAVSapView@@PEAVCWnd@@@Z@4HA 0000000067da5250 f   ImageWnd.obj
 0001:00024260       ?dtor$0@?0???0CJpegFileDlg@@QEAA@PEAVCWnd@@H@Z@4HA 0000000067da5260 f   JpegFileDlg.obj
 0001:00024270       ?dtor$0@?0??SaveSettings@CLoadSaveDlg@@IEAAXXZ@4HA 0000000067da5270 f   LoadSaveDlg.obj
 0001:00024280       ?dtor$0@?0???1CRawFileDlg@@UEAA@XZ@4HA 0000000067da5280 f   LoadSaveDlg.obj
 0001:00024290       ?dtor$0@?0??AddTiffOptions@CLoadSaveDlg@@IEAAHXZ@4HA 0000000067da5290 f   LoadSaveDlg.obj
 0001:000242a0       ?dtor$1@?0??AddTiffOptions@CLoadSaveDlg@@IEAAHXZ@4HA 0000000067da52a0 f   LoadSaveDlg.obj
 0001:000242b0       ?dtor$2@?0??AddTiffOptions@CLoadSaveDlg@@IEAAHXZ@4HA 0000000067da52b0 f   LoadSaveDlg.obj
 0001:000242c0       ?dtor$0@?0??AddRawOptions@CLoadSaveDlg@@IEAAHXZ@4HA 0000000067da52c0 f   LoadSaveDlg.obj
 0001:000242d0       ?dtor$2@?0??AddRawOptions@CLoadSaveDlg@@IEAAHXZ@4HA 0000000067da52d0 f   LoadSaveDlg.obj
 0001:000242e0       ?dtor$1@?0??AddRawOptions@CLoadSaveDlg@@IEAAHXZ@4HA 0000000067da52e0 f   LoadSaveDlg.obj
 0001:000242f0       ?dtor$4@?0??AddRawOptions@CLoadSaveDlg@@IEAAHXZ@4HA 0000000067da52f0 f   LoadSaveDlg.obj
 0001:00024300       ?dtor$0@?0??AddJpegOptions@CLoadSaveDlg@@IEAAHXZ@4HA 0000000067da5300 f   LoadSaveDlg.obj
 0001:00024310       ?dtor$1@?0??AddJpegOptions@CLoadSaveDlg@@IEAAHXZ@4HA 0000000067da5310 f   LoadSaveDlg.obj
 0001:00024320       ?dtor$0@?0??AddAviOptions@CLoadSaveDlg@@IEAAHXZ@4HA 0000000067da5320 f   LoadSaveDlg.obj
 0001:00024330       ?dtor$0@?0??OnTypeChange@CLoadSaveDlg@@MEAAXXZ@4HA 0000000067da5330 f   LoadSaveDlg.obj
 0001:00024340       ?dtor$0@?0??LoadSettings@CLoadSaveDlg@@IEAAXXZ@4HA 0000000067da5340 f   LoadSaveDlg.obj
 0001:00024350       ?dtor$0@?0???0CLoadSaveDlg@@QEAA@PEAVCWnd@@PEAVSapBuffer@@HH@Z@4HA 0000000067da5350 f   LoadSaveDlg.obj
 0001:00024360       ?dtor$1@?0???0CLoadSaveDlg@@QEAA@PEAVCWnd@@PEAVSapBuffer@@HH@Z@4HA 0000000067da5360 f   LoadSaveDlg.obj
 0001:00024380       ?dtor$0@?0??UpdateBuffer@CLoadSaveDlg@@IEAAHXZ@4HA 0000000067da5380 f   LoadSaveDlg.obj
 0001:00024390       ?dtor$1@?0??UpdateBuffer@CLoadSaveDlg@@IEAAHXZ@4HA 0000000067da5390 f   LoadSaveDlg.obj
 0001:000243a0       ?dtor$2@?0??UpdateBuffer@CLoadSaveDlg@@IEAAHXZ@4HA 0000000067da53a0 f   LoadSaveDlg.obj
 0001:000243b0       ?dtor$3@?0??UpdateBuffer@CLoadSaveDlg@@IEAAHXZ@4HA 0000000067da53b0 f   LoadSaveDlg.obj
 0001:000243c0       ?dtor$4@?0??UpdateBuffer@CLoadSaveDlg@@IEAAHXZ@4HA 0000000067da53c0 f   LoadSaveDlg.obj
 0001:000243d0       ?dtor$5@?0??UpdateBuffer@CLoadSaveDlg@@IEAAHXZ@4HA 0000000067da53d0 f   LoadSaveDlg.obj
 0001:000243e0       ?dtor$0@?0???1CLScanDlg@@UEAA@XZ@4HA 0000000067da53e0 f   LScanDlg.obj
 0001:000243f0       ?dtor$1@?0???1CLScanDlg@@UEAA@XZ@4HA 0000000067da53f0 f   LScanDlg.obj
 0001:00024410       ?dtor$2@?0???1CLScanDlg@@UEAA@XZ@4HA 0000000067da5410 f   LScanDlg.obj
 0001:00024430       ?dtor$0@?0???_GCLScanDlg@@UEAAPEAXI@Z@4HA 0000000067da5430 f   LScanDlg.obj
 0001:00024440       ?dtor$1@?0???_GCLScanDlg@@UEAAPEAXI@Z@4HA 0000000067da5440 f   LScanDlg.obj
 0001:00024460       ?dtor$2@?0???_GCLScanDlg@@UEAAPEAXI@Z@4HA 0000000067da5460 f   LScanDlg.obj
 0001:00024480       ?dtor$0@?0???_ECLScanDlg@@UEAAPEAXI@Z@4HA 0000000067da5480 f   LScanDlg.obj
 0001:00024490       ?dtor$1@?0???_ECLScanDlg@@UEAAPEAXI@Z@4HA 0000000067da5490 f   LScanDlg.obj
 0001:000244b0       ?dtor$2@?0???_ECLScanDlg@@UEAAPEAXI@Z@4HA 0000000067da54b0 f   LScanDlg.obj
 0001:000244d0       ?dtor$0@?0???0CLScanDlg@@QEAA@PEAVCWnd@@PEAVSapAcquisition@@@Z@4HA 0000000067da54d0 f   LScanDlg.obj
 0001:000244e0       ?dtor$1@?0???0CLScanDlg@@QEAA@PEAVCWnd@@PEAVSapAcquisition@@@Z@4HA 0000000067da54e0 f   LScanDlg.obj
 0001:00024500       ?dtor$2@?0???0CLScanDlg@@QEAA@PEAVCWnd@@PEAVSapAcquisition@@@Z@4HA 0000000067da5500 f   LScanDlg.obj
 0001:00024520       ?dtor$0@?0??VerifyLineIntegrateDuration@CLScanDlg@@IEAAXXZ@4HA 0000000067da5520 f   LScanDlg.obj
 0001:00024530       ?dtor$0@?0???0CRawFileDlg@@QEAA@PEAVCWnd@@HHHH@Z@4HA 0000000067da5530 f   RawFileDlg.obj
 0001:00024540       ?dtor$1@?0???0CRawFileDlg@@QEAA@PEAVCWnd@@HHHH@Z@4HA 0000000067da5540 f   RawFileDlg.obj
 0001:00024560       ?dtor$0@?0???_GCRawFileDlg@@UEAAPEAXI@Z@4HA 0000000067da5560 f   RawFileDlg.obj
 0001:00024570       ?dtor$0@?0???1CViewDlg@@UEAA@XZ@4HA 0000000067da5570 f   SapClassGui.obj
 0001:00024580       ?dtor$1@?0???1CViewDlg@@UEAA@XZ@4HA 0000000067da5580 f   SapClassGui.obj
 0001:000245a0       ?dtor$2@?0???1CViewDlg@@UEAA@XZ@4HA 0000000067da55a0 f   SapClassGui.obj
 0001:000245c0       ?dtor$3@?0???1CViewDlg@@UEAA@XZ@4HA 0000000067da55c0 f   SapClassGui.obj
 0001:000245e0       ?dtor$4@?0???1CViewDlg@@UEAA@XZ@4HA 0000000067da55e0 f   SapClassGui.obj
 0001:00024600       ?dtor$0@?0??SapClassGuiInitModule@@YAXXZ@4HA 0000000067da5600 f   SapClassGui.obj
 0001:00024610       ?dtor$0@?0???0CTiffFileDlg@@QEAA@PEAVCWnd@@HH@Z@4HA 0000000067da5610 f   TiffFileDlg.obj
 0001:00024620       ?dtor$0@?0???_GCViewDlg@@UEAAPEAXI@Z@4HA 0000000067da5620 f   ViewDlg.obj
 0001:00024630       ?dtor$1@?0???_GCViewDlg@@UEAAPEAXI@Z@4HA 0000000067da5630 f   ViewDlg.obj
 0001:00024650       ?dtor$2@?0???_GCViewDlg@@UEAAPEAXI@Z@4HA 0000000067da5650 f   ViewDlg.obj
 0001:00024670       ?dtor$3@?0???_GCViewDlg@@UEAAPEAXI@Z@4HA 0000000067da5670 f   ViewDlg.obj
 0001:00024690       ?dtor$4@?0???_GCViewDlg@@UEAAPEAXI@Z@4HA 0000000067da5690 f   ViewDlg.obj
 0001:000246b0       ?dtor$0@?0???0CViewDlg@@QEAA@PEAVCWnd@@PEAVSapView@@@Z@4HA 0000000067da56b0 f   ViewDlg.obj
 0001:000246c0       ?dtor$1@?0???0CViewDlg@@QEAA@PEAVCWnd@@PEAVSapView@@@Z@4HA 0000000067da56c0 f   ViewDlg.obj
 0001:000246e0       ?dtor$2@?0???0CViewDlg@@QEAA@PEAVCWnd@@PEAVSapView@@@Z@4HA 0000000067da56e0 f   ViewDlg.obj
 0001:00024700       ?dtor$3@?0???0CViewDlg@@QEAA@PEAVCWnd@@PEAVSapView@@@Z@4HA 0000000067da5700 f   ViewDlg.obj
 0001:00024720       ?dtor$4@?0???0CViewDlg@@QEAA@PEAVCWnd@@PEAVSapView@@@Z@4HA 0000000067da5720 f   ViewDlg.obj
 0001:00024740       ?dtor$5@?0???0CViewDlg@@QEAA@PEAVCWnd@@PEAVSapView@@@Z@4HA 0000000067da5740 f   ViewDlg.obj
 0001:00024760       ?dtor$6@?0???0CViewDlg@@QEAA@PEAVCWnd@@PEAVSapView@@@Z@4HA 0000000067da5760 f   ViewDlg.obj
 0001:00024770       ?dtor$0@?0??OnInitDialog@CViewDlg@@MEAAHXZ@4HA 0000000067da5770 f   ViewDlg.obj
 0001:00024780       ?dtor$1@?0??OnInitDialog@CViewDlg@@MEAAHXZ@4HA 0000000067da5780 f   ViewDlg.obj
 0001:0002478e       ?filt$0@?0??__ArrayUnwind@@YAXPEAX_KHP6AX0@Z@Z@4HA 0000000067da578e f   msvcrt:ehvecdtr.obj
 0001:000247cf       ?fin$0@?0???_M@YAXPEAX_KHP6AX0@Z@Z@4HA 0000000067da57cf f   msvcrt:ehvecdtr.obj
 0001:000247fb       _onexit$fin$0              0000000067da57fb f   msvcrt:atonexit.obj
 0001:00024816       ?fin$0@?0???_L@YAXPEAX_KHP6AX0@Z2@Z@4HA 0000000067da5816 f   msvcrt:ehvecctr.obj
 0001:00024842       __DllMainCRTStartup$filt$0 0000000067da5842 f   msvcrt:crtdll.obj
 0001:00024872       __DllMainCRTStartup$fin$1  0000000067da5872 f   msvcrt:crtdll.obj
 0001:00024890       _IsNonwritableInCurrentImage$filt$0 0000000067da5890 f   msvcrt:pesect.obj
 0001:000248c0       ??__E?m_Methods@CColorConversionOptionsDlg@@0PAUSapColorConversionMethodDictionary@@A@@YAXXZ 0000000067da58c0 f   ColorConversionDlg.obj
 0001:000249d0       ??__F?m_Methods@CColorConversionOptionsDlg@@0PAUSapColorConversionMethodDictionary@@A@@YAXXZ 0000000067da59d0 f   ColorConversionDlg.obj
