 SapClassGui82.NET_2010

 Timestamp is 5ac495cf (Wed Apr 04 17:07:27 2018)

 Preferred load address is 67d80000

 Start         Length     Name                   Class
 0001:00000000 000249b8H .text                   CODE
 0001:000249c0 00003320H .text$x                 CODE
 0001:00027ce0 00000123H .text$yc                CODE
 0001:00027e10 00000014H .text$yd                CODE
 0002:00000000 00000c70H .idata$5                DATA
 0002:00000c70 00000004H .CRT$XCA                DATA
 0002:00000c74 00000004H .CRT$XCU                DATA
 0002:00000c78 00000004H .CRT$XCZ                DATA
 0002:00000c7c 00000004H .CRT$XIA                DATA
 0002:00000c80 00000004H .CRT$XIAA               DATA
 0002:00000c84 00000004H .CRT$XIC                DATA
 0002:00000c88 00000004H .CRT$XIZ                DATA
 0002:00000c90 00008190H .rdata                  DATA
 0002:00008e20 000016f4H .rdata$r                DATA
 0002:0000a520 000002b0H .rdata$sxdata           DATA
 0002:0000a7d0 00000004H .rtc$IAA                DATA
 0002:0000a7d4 00000004H .rtc$IZZ                DATA
 0002:0000a7d8 00000004H .rtc$TAA                DATA
 0002:0000a7dc 00000004H .rtc$TZZ                DATA
 0002:0000a7e0 00002b94H .xdata$x                DATA
 0002:0000d374 00000004H ATL$__a                 DATA
 0002:0000d378 00000004H ATL$__z                 DATA
 0002:0000d37c 000000c8H .idata$2                DATA
 0002:0000d444 00000014H .idata$3                DATA
 0002:0000d458 00000c70H .idata$4                DATA
 0002:0000e0c8 000046d2H .idata$6                DATA
 0002:000127a0 000083c8H .edata                  DATA
 0003:00000000 00001098H .data                   DATA
 0003:00001098 000003ecH .bss                    DATA
 0004:00000000 000008e0H .rsrc$01                DATA
 0004:000008e0 00019a80H .rsrc$02                DATA

  Address         Publics by Value              Rva+Base       Lib:Object

 0000:00000000       __except_list              00000000     <absolute>
 0000:000000ac       ___safe_se_handler_count   000000ac     <absolute>
 0000:00009876       __fltused                  00009876     <absolute>
 0000:00009876       __ldused                   00009876     <absolute>
 0000:00000000       ___ImageBase               67d80000     <linker-defined>
 0001:00000000       ??0CRect@@QAE@XZ           67d81000 f i AbortDlg.obj
 0001:00000010       ??3CObject@@SGXPAX@Z       67d81010 f i AbortDlg.obj
 0001:00000030       ?GetWindowRect@CWnd@@QBEXPAUtagRECT@@@Z 67d81030 f i AbortDlg.obj
 0001:00000050       ?SetTimer@CWnd@@QAEIIIP6GXPAUHWND__@@IIK@Z@Z 67d81050 f i AbortDlg.obj
 0001:00000070       ?KillTimer@CWnd@@QAEHI@Z   67d81070 f i AbortDlg.obj
 0001:00000090       ?OnTimer@CWnd@@IAEXI@Z     67d81090 f i AbortDlg.obj
 0001:000000a0       ?DoDataExchange@CWnd@@MAEXPAVCDataExchange@@@Z 67d810a0 f i AbortDlg.obj
 0001:000000b0       ??1CAbortDlg@@UAE@XZ       67d810b0 f i AbortDlg.obj
 0001:000000c0       ??_GCAbortDlg@@UAEPAXI@Z   67d810c0 f i AbortDlg.obj
 0001:000000f0       ??_ECAbortDlg@@UAEPAXI@Z   67d810f0 f i AbortDlg.obj
 0001:00000150       ??0CAbortDlg@@QAE@PAVCWnd@@PAVSapTransfer@@H@Z 67d81150 f   AbortDlg.obj
 0001:000001a0       ?Serialize@CObject@@UAEXAAVCArchive@@@Z 67d811a0 f i AbortDlg.obj
 0001:000001b0       ?AssertValid@CObject@@UBEXXZ 67d811b0 f i AbortDlg.obj
 0001:000001c0       ?Dump@CObject@@UBEXAAVCDumpContext@@@Z 67d811c0 f i AbortDlg.obj
 0001:000001d0       ?BeginModalState@CWnd@@UAEXXZ 67d811d0 f i AbortDlg.obj
 0001:000001e0       ?EndModalState@CWnd@@UAEXXZ 67d811e0 f i AbortDlg.obj
 0001:000001f0       ?Create@CDialog@@UAEHIPAVCWnd@@@Z 67d811f0 f i AbortDlg.obj
 0001:00000210       ?DoDataExchange@CAbortDlg@@MAEXPAVCDataExchange@@@Z 67d81210 f   AbortDlg.obj
 0001:00000220       ?OnInitDialog@CAbortDlg@@MAEHXZ 67d81220 f   AbortDlg.obj
 0001:000002b0       ?OnAbort@CAbortDlg@@IAEXXZ 67d812b0 f   AbortDlg.obj
 0001:000002d0       ?OnTimer@CAbortDlg@@IAEXI@Z 67d812d0 f   AbortDlg.obj
 0001:00000360       ?GetThisMessageMap@CAbortDlg@@KGPBUAFX_MSGMAP@@XZ 67d81360 f   AbortDlg.obj
 0001:00000370       ?GetMessageMap@CAbortDlg@@MBEPBUAFX_MSGMAP@@XZ 67d81370 f   AbortDlg.obj
 0001:00000380       ?strrchr@@YAPADPADH@Z      67d81380 f i AcqConfigDlg.obj
 0001:00000390       ?strstr@@YAPADPADPBD@Z     67d81390 f i AcqConfigDlg.obj
 0001:000003a0       ?GetLocation@CAcqConfigDlg@@QAE?AVSapLocation@@XZ 67d813a0 f   AcqConfigDlg.obj
 0001:00000420       ?UpdateAcquisition@CAcqConfigDlg@@IAEHXZ 67d81420 f   AcqConfigDlg.obj
 0001:00000510       ?SaveSettings@CAcqConfigDlg@@IAEXXZ 67d81510 f   AcqConfigDlg.obj
 0001:00000640       ?UpdateDescription@CAcqConfigDlg@@IAEXXZ 67d81640 f   AcqConfigDlg.obj
 0001:00000960       ?ValidateCCFAgainstServerName@CAcqConfigDlg@@IAE_N_N@Z 67d81960 f   AcqConfigDlg.obj
 0001:00000ac0       ?GetConfigFile@CAcqConfigDlg@@QAEPBDXZ 67d81ac0 f   AcqConfigDlg.obj
 0001:00000ae0       ??HATL@@YA?AV?$CStringT@DV?$StrTraitMFC_DLL@DV?$ChTraitsCRT@D@ATL@@@@@0@ABV10@0@Z 67d81ae0 f i AcqConfigDlg.obj
 0001:00000b80       ?AfxGetApp@@YGPAVCWinApp@@XZ 67d81b80 f i AcqConfigDlg.obj
 0001:00000b90       ?BringWindowToTop@CWnd@@QAEXXZ 67d81b90 f i AcqConfigDlg.obj
 0001:00000ba0       ??0CListBox@@QAE@XZ        67d81ba0 f i AcqConfigDlg.obj
 0001:00000bc0       ??_GCListBox@@UAEPAXI@Z    67d81bc0 f i AcqConfigDlg.obj
 0001:00000bc0       ??_ECListBox@@UAEPAXI@Z    67d81bc0 f i AcqConfigDlg.obj
 0001:00000bf0       ??0CComboBox@@QAE@XZ       67d81bf0 f i AcqConfigDlg.obj
 0001:00000c10       ??_GCComboBox@@UAEPAXI@Z   67d81c10 f i AcqConfigDlg.obj
 0001:00000c10       ??_ECComboBox@@UAEPAXI@Z   67d81c10 f i AcqConfigDlg.obj
 0001:00000c40       ?GetCount@CComboBox@@QBEHXZ 67d81c40 f i AcqConfigDlg.obj
 0001:00000c60       ?GetCurSel@CComboBox@@QBEHXZ 67d81c60 f i AcqConfigDlg.obj
 0001:00000c80       ?SetCurSel@CComboBox@@QAEHH@Z 67d81c80 f i AcqConfigDlg.obj
 0001:00000ca0       ?GetItemData@CComboBox@@QBEKH@Z 67d81ca0 f i AcqConfigDlg.obj
 0001:00000cc0       ?SetItemData@CComboBox@@QAEHHK@Z 67d81cc0 f i AcqConfigDlg.obj
 0001:00000ce0       ?AddString@CComboBox@@QAEHPBD@Z 67d81ce0 f i AcqConfigDlg.obj
 0001:00000d00       ?ResetContent@CComboBox@@QAEXXZ 67d81d00 f i AcqConfigDlg.obj
 0001:00000d20       ?SelectString@CComboBox@@QAEHHPBD@Z 67d81d20 f i AcqConfigDlg.obj
 0001:00000d40       ??0CEdit@@QAE@XZ           67d81d40 f i AcqConfigDlg.obj
 0001:00000d60       ??_GCEdit@@UAEPAXI@Z       67d81d60 f i AcqConfigDlg.obj
 0001:00000e50       ??1CAcqConfigDlg@@UAE@XZ   67d81e50 f i AcqConfigDlg.obj
 0001:00000f20       ??_GCAcqConfigDlg@@UAEPAXI@Z 67d81f20 f i AcqConfigDlg.obj
 0001:00000f50       ??_ECAcqConfigDlg@@UAEPAXI@Z 67d81f50 f i AcqConfigDlg.obj
 0001:00000fb0       ?DoDataExchange@CAcqConfigDlg@@MAEXPAVCDataExchange@@@Z 67d81fb0 f   AcqConfigDlg.obj
 0001:00001030       ?InitServerCombo@CAcqConfigDlg@@IAEXXZ 67d82030 f   AcqConfigDlg.obj
 0001:00001280       ?UpdateMenu@CAcqConfigDlg@@IAEXXZ 67d82280 f   AcqConfigDlg.obj
 0001:00001360       ?OnOK@CAcqConfigDlg@@MAEXXZ 67d82360 f   AcqConfigDlg.obj
 0001:00001440       ?OnSelchangeComboResource@CAcqConfigDlg@@IAEXXZ 67d82440 f   AcqConfigDlg.obj
 0001:00001460       ?OnBnClickedConfigFileCheck@CAcqConfigDlg@@IAEXXZ 67d82460 f   AcqConfigDlg.obj
 0001:00001480       ?StringCbCopyA@@YGJPADIPBD@Z 67d82480 f i AcqConfigDlg.obj
 0001:000014f0       ?StringCbPrintfA@@YAJPADIPBDZZ 67d824f0 f i AcqConfigDlg.obj
 0001:00001550       ?LoadSettings@CAcqConfigDlg@@IAEXXZ 67d82550 f   AcqConfigDlg.obj
 0001:00001790       ?InitResourceCombo@CAcqConfigDlg@@IAEXXZ 67d82790 f   AcqConfigDlg.obj
 0001:00001bc0       ?SplitConfigFilePath@CAcqConfigDlg@@IAEXXZ 67d82bc0 f   AcqConfigDlg.obj
 0001:00001c90       ?OnSelchangeComboServer@CAcqConfigDlg@@IAEXXZ 67d82c90 f   AcqConfigDlg.obj
 0001:00001cb0       ??0CAcqConfigDlg@@QAE@PAVCWnd@@W4ServerCategory@0@@Z 67d82cb0 f   AcqConfigDlg.obj
 0001:00001e00       ??_ECAcqConfigDlg@@WJE@AEPAXI@Z 67d82e00 f i AcqConfigDlg.obj
 0001:00001e10       ??0CAcqConfigDlg@@QAE@PAVCWnd@@VSapLocation@@PBDW4ServerCategory@0@@Z 67d82e10 f   AcqConfigDlg.obj
 0001:00001ff0       ??0CAcqConfigDlg@@QAE@PAVCWnd@@PAVSapAcquisition@@PBD@Z 67d82ff0 f   AcqConfigDlg.obj
 0001:00002210       ?OnInitDialog@CAcqConfigDlg@@MAEHXZ 67d83210 f   AcqConfigDlg.obj
 0001:000022e0       ?OnConfigBrowse@CAcqConfigDlg@@IAEXXZ 67d832e0 f   AcqConfigDlg.obj
 0001:00002460       ?GetThisMessageMap@CAcqConfigDlg@@KGPBUAFX_MSGMAP@@XZ 67d83460 f   AcqConfigDlg.obj
 0001:00002470       ?GetMessageMap@CAcqConfigDlg@@MBEPBUAFX_MSGMAP@@XZ 67d83470 f   AcqConfigDlg.obj
 0001:00002480       ??0CAcqDlg@@QAE@PAVCWnd@@PAVSapAcquisition@@@Z 67d83480 f   AcqDlg.obj
 0001:00002510       ?UpdateWindow@CAcqDlg@@IAEXXZ 67d83510 f   AcqDlg.obj
 0001:000025e0       ?OnExternalTriggerEnable@CAcqDlg@@IAEXXZ 67d835e0 f   AcqDlg.obj
 0001:00002600       ?GetCheck@CButton@@QBEHXZ  67d83600 f i AcqDlg.obj
 0001:00002620       ?SetCheck@CButton@@QAEXH@Z 67d83620 f i AcqDlg.obj
 0001:000026b0       ??1CAcqDlg@@UAE@XZ         67d836b0 f i AcqDlg.obj
 0001:00002710       ??_GCAcqDlg@@UAEPAXI@Z     67d83710 f i AcqDlg.obj
 0001:00002780       ??_ECAcqDlg@@UAEPAXI@Z     67d83780 f i AcqDlg.obj
 0001:00002840       ?DoDataExchange@CAcqDlg@@MAEXPAVCDataExchange@@@Z 67d83840 f   AcqDlg.obj
 0001:00002880       ?GetThisMessageMap@CAcqDlg@@KGPBUAFX_MSGMAP@@XZ 67d83880 f   AcqDlg.obj
 0001:00002890       ?OnOK@CAcqDlg@@MAEXXZ      67d83890 f   AcqDlg.obj
 0001:00002a60       ??_ECAcqDlg@@WJE@AEPAXI@Z  67d83a60 f i AcqDlg.obj
 0001:00002a70       ?GetMessageMap@CAcqDlg@@MBEPBUAFX_MSGMAP@@XZ 67d83a70 f   AcqDlg.obj
 0001:00002a80       ?OnInitDialog@CAcqDlg@@MAEHXZ 67d83a80 f   AcqDlg.obj
 0001:00003040       ??0CScrollBar@@QAE@XZ      67d84040 f i AScanDlg.obj
 0001:00003060       ??_ECScrollBar@@UAEPAXI@Z  67d84060 f i AScanDlg.obj
 0001:00003060       ??_GCScrollBar@@UAEPAXI@Z  67d84060 f i AScanDlg.obj
 0001:00003100       ??1CAScanDlg@@UAE@XZ       67d84100 f i AScanDlg.obj
 0001:00003180       ??_GCAScanDlg@@UAEPAXI@Z   67d84180 f i AScanDlg.obj
 0001:00003210       ??_ECAScanDlg@@UAEPAXI@Z   67d84210 f i AScanDlg.obj
 0001:000032f0       ??0CAScanDlg@@QAE@PAVCWnd@@PAVSapAcquisition@@@Z 67d842f0 f   AScanDlg.obj
 0001:000033b0       ?DoDataExchange@CAScanDlg@@MAEXPAVCDataExchange@@@Z 67d843b0 f   AScanDlg.obj
 0001:00003410       ?UpdateWindow@CAScanDlg@@IAEXXZ 67d84410 f   AScanDlg.obj
 0001:00003510       ?OnCamTriggerEnable@CAScanDlg@@IAEXXZ 67d84510 f   AScanDlg.obj
 0001:00003520       ?OnCamResetEnable@CAScanDlg@@IAEXXZ 67d84520 f   AScanDlg.obj
 0001:00003530       ?OnTimeIntegrate@CAScanDlg@@IAEXXZ 67d84530 f   AScanDlg.obj
 0001:00003540       ?OnFrameIntegrate@CAScanDlg@@IAEXXZ 67d84540 f   AScanDlg.obj
 0001:00003550       ??_ECAScanDlg@@WJE@AEPAXI@Z 67d84550 f i AScanDlg.obj
 0001:00003560       ?VerifyTimeIntegrateDuration@CAScanDlg@@IAEXH@Z 67d84560 f   AScanDlg.obj
 0001:00003680       ?VerifyFrameIntegrateCount@CAScanDlg@@IAEXXZ 67d84680 f   AScanDlg.obj
 0001:00003760       ?OnOK@CAScanDlg@@MAEXXZ    67d84760 f   AScanDlg.obj
 0001:00003a60       ?OnInitDialog@CAScanDlg@@MAEHXZ 67d84a60 f   AScanDlg.obj
 0001:00004010       ?OnKillfocusEditTime@CAScanDlg@@IAEXXZ 67d85010 f   AScanDlg.obj
 0001:00004030       ?OnKillfocusEditFrame@CAScanDlg@@IAEXXZ 67d85030 f   AScanDlg.obj
 0001:00004050       ?OnVScroll@CAScanDlg@@IAEXIIPAVCScrollBar@@@Z 67d85050 f   AScanDlg.obj
 0001:00004130       ?GetThisMessageMap@CAScanDlg@@KGPBUAFX_MSGMAP@@XZ 67d85130 f   AScanDlg.obj
 0001:00004140       ?GetMessageMap@CAScanDlg@@MBEPBUAFX_MSGMAP@@XZ 67d85140 f   AScanDlg.obj
 0001:00004150       ?OnVScroll@CAviFileDlg@@IAEXIIPAVCScrollBar@@@Z 67d85150 f   AviFileDlg.obj
 0001:000041f0       ?OnUpdateAviEditFirstFrame@CAviFileDlg@@IAEXXZ 67d851f0 f   AviFileDlg.obj
 0001:00004200       ?OnUpdateAviEditCompressionLevel@CAviFileDlg@@IAEXXZ 67d85200 f   AviFileDlg.obj
 0001:00004210       ?OnInitDialog@CAviFileDlg@@MAEHXZ 67d85210 f   AviFileDlg.obj
 0001:000042b0       ?OnOK@CAviFileDlg@@MAEXXZ  67d852b0 f   AviFileDlg.obj
 0001:00004320       ??0CAviFileDlg@@QAE@PAVCWnd@@HHHH@Z 67d85320 f   AviFileDlg.obj
 0001:00004400       ??1CAviFileDlg@@UAE@XZ     67d85400 f i AviFileDlg.obj
 0001:00004410       ??_GCAviFileDlg@@UAEPAXI@Z 67d85410 f i AviFileDlg.obj
 0001:00004410       ??_ECAviFileDlg@@UAEPAXI@Z 67d85410 f i AviFileDlg.obj
 0001:00004440       ?DoDataExchange@CAviFileDlg@@MAEXPAVCDataExchange@@@Z 67d85440 f   AviFileDlg.obj
 0001:000044a0       ?GetThisMessageMap@CAviFileDlg@@KGPBUAFX_MSGMAP@@XZ 67d854a0 f   AviFileDlg.obj
 0001:000044b0       ?GetMessageMap@CAviFileDlg@@MBEPBUAFX_MSGMAP@@XZ 67d854b0 f   AviFileDlg.obj
 0001:000044c0       ??0CBayerOptionsDlg@@QAE@PAVCWnd@@PAVSapBayer@@PAVSapTransfer@@PAVCImageWnd@@PAVSapProcessing@@@Z 67d854c0 f   BayerDlg.obj
 0001:00004580       ??1CBayerOptionsDlg@@UAE@XZ 67d85580 f   BayerDlg.obj
 0001:000045f0       ?UpdateInterface@CBayerOptionsDlg@@QAEXXZ 67d855f0 f   BayerDlg.obj
 0001:000048c0       ?OnChange@CBayerOptionsDlg@@IAEXXZ 67d858c0 f   BayerDlg.obj
 0001:000048f0       ?OnGammaEnable@CBayerOptionsDlg@@IAEXXZ 67d858f0 f   BayerDlg.obj
 0001:00004950       ?OnChangeRange@CBayerOptionsDlg@@IAEXI@Z 67d85950 f   BayerDlg.obj
 0001:00004960       ?UpdateView@CBayerOptionsDlg@@IAEXXZ 67d85960 f   BayerDlg.obj
 0001:00004a00       ?OnClose@CBayerOptionsDlg@@IAEXXZ 67d85a00 f   BayerDlg.obj
 0001:00004a40       ?Width@CRect@@QBEHXZ       67d85a40 f i BayerDlg.obj
 0001:00004a50       ?Height@CRect@@QBEHXZ      67d85a50 f i BayerDlg.obj
 0001:00004a60       ?OnShowWindow@CWnd@@IAEXHI@Z 67d85a60 f i BayerDlg.obj
 0001:00004a70       ?IsRoiTrackerActive@CImageWnd@@QAEHXZ 67d85a70 f i BayerDlg.obj
 0001:00004a80       ??_GCBayerOptionsDlg@@UAEPAXI@Z 67d85a80 f i BayerDlg.obj
 0001:00004ab0       ??_ECBayerOptionsDlg@@UAEPAXI@Z 67d85ab0 f i BayerDlg.obj
 0001:00004b10       ?DoDataExchange@CBayerOptionsDlg@@MAEXPAVCDataExchange@@@Z 67d85b10 f   BayerDlg.obj
 0001:00004ba0       ?OnInitDialog@CBayerOptionsDlg@@MAEHXZ 67d85ba0 f   BayerDlg.obj
 0001:00004be0       ?OnAutoWhiteBalance@CBayerOptionsDlg@@IAEXXZ 67d85be0 f   BayerDlg.obj
 0001:00004cc0       ?OnApply@CBayerOptionsDlg@@IAEXXZ 67d85cc0 f   BayerDlg.obj
 0001:00004e30       ?OnShowWindow@CBayerOptionsDlg@@IAEXHI@Z 67d85e30 f   BayerDlg.obj
 0001:00004e70       ??_ECBayerOptionsDlg@@WJE@AEPAXI@Z 67d85e70 f i BayerDlg.obj
 0001:00004e80       ?GetThisMessageMap@CBayerOptionsDlg@@KGPBUAFX_MSGMAP@@XZ 67d85e80 f   BayerDlg.obj
 0001:00004e90       ?GetMessageMap@CBayerOptionsDlg@@MBEPBUAFX_MSGMAP@@XZ 67d85e90 f   BayerDlg.obj
 0001:00004ea0       ??0CBrowseDirDlg@@QAE@PBD@Z 67d85ea0 f   BrowseDirDlg.obj
 0001:00004f00       ?BrowseHookProc@CBrowseDirDlg@@KGIPAUHWND__@@IIJ@Z 67d85f00 f   BrowseDirDlg.obj
 0001:00004f40       ??HATL@@YA?AV?$CStringT@DV?$StrTraitMFC_DLL@DV?$ChTraitsCRT@D@ATL@@@@@0@ABV10@D@Z 67d85f40 f i BrowseDirDlg.obj
 0001:00005040       ?DoModal@CBrowseDirDlg@@QAEHXZ 67d86040 f   BrowseDirDlg.obj
 0001:00005300       ?UpdateBuffer@CBufDlg@@IAEHXZ 67d86300 f   BufDlg.obj
 0001:000053b0       ?OnOK@CBufDlg@@MAEXXZ      67d863b0 f   BufDlg.obj
 0001:000053d0       ?EnableControls@CBufDlg@@IAEXXZ 67d863d0 f   BufDlg.obj
 0001:00005480       ??1CBufDlg@@UAE@XZ         67d86480 f i BufDlg.obj
 0001:00005500       ??_GCBufDlg@@UAEPAXI@Z     67d86500 f i BufDlg.obj
 0001:00005590       ??_ECBufDlg@@UAEPAXI@Z     67d86590 f i BufDlg.obj
 0001:00005670       ??0CBufDlg@@QAE@PAVCWnd@@PAVSapBuffer@@PAVSapDisplay@@@Z 67d86670 f   BufDlg.obj
 0001:00005870       ?DoDataExchange@CBufDlg@@MAEXPAVCDataExchange@@@Z 67d86870 f   BufDlg.obj
 0001:000058f0       ?OnInitDialog@CBufDlg@@MAEHXZ 67d868f0 f   BufDlg.obj
 0001:000059a0       ?OnSelchangeComboFormat@CBufDlg@@IAEXXZ 67d869a0 f   BufDlg.obj
 0001:00005a10       ?GetThisMessageMap@CBufDlg@@KGPBUAFX_MSGMAP@@XZ 67d86a10 f   BufDlg.obj
 0001:00005a20       ?GetMessageMap@CBufDlg@@MBEPBUAFX_MSGMAP@@XZ 67d86a20 f   BufDlg.obj
 0001:00005a30       ??1CCabDlg@@UAE@XZ         67d86a30 f   CabDlg.obj
 0001:00005ad0       ?DestroyWindow@CCabDlg@@UAEHXZ 67d86ad0 f   CabDlg.obj
 0001:00005b00       ?InsertItem@CTabCtrl@@QAEJHPBD@Z 67d86b00 f i CabDlg.obj
 0001:00005b20       ?GetCurSel@CTabCtrl@@QBEHXZ 67d86b20 f i CabDlg.obj
 0001:00005b40       ??_GCCabDlg@@UAEPAXI@Z     67d86b40 f i CabDlg.obj
 0001:00005b70       ??_ECCabDlg@@UAEPAXI@Z     67d86b70 f i CabDlg.obj
 0001:00005bd0       ??0CCabDlg@@QAE@PAVCWnd@@PAVSapCab@@PAVSapXferNode@@H@Z 67d86bd0 f   CabDlg.obj
 0001:00005d50       ??_GSapCab@@UAEPAXI@Z      67d86d50 f i CabDlg.obj
 0001:00005d50       ??_ESapCab@@UAEPAXI@Z      67d86d50 f i CabDlg.obj
 0001:00005d80       ?DoDataExchange@CCabDlg@@MAEXPAVCDataExchange@@@Z 67d86d80 f   CabDlg.obj
 0001:00005df0       ?EnableControls@CCabDlg@@QAEXXZ 67d86df0 f   CabDlg.obj
 0001:00006100       ?OnInitDialog@CCabDlg@@MAEHXZ 67d87100 f   CabDlg.obj
 0001:000064d0       ?OnOK@CCabDlg@@MAEXXZ      67d874d0 f   CabDlg.obj
 0001:000066e0       ?OnCabTransmitter@CCabDlg@@IAEXXZ 67d876e0 f   CabDlg.obj
 0001:000066f0       ?OnCabReceiver@CCabDlg@@IAEXXZ 67d876f0 f   CabDlg.obj
 0001:00006700       ?OnSelchangeCabTransferMode@CCabDlg@@IAEXXZ 67d87700 f   CabDlg.obj
 0001:00006710       ?OnSelchangeCabChannelTable@CCabDlg@@IAEXPAUtagNMHDR@@PAJ@Z 67d87710 f   CabDlg.obj
 0001:00006750       ?ToggleCabChannel@CCabDlg@@IAEXH@Z 67d87750 f   CabDlg.obj
 0001:00006780       ??_ECCabDlg@@WJE@AEPAXI@Z  67d87780 f i CabDlg.obj
 0001:00006790       ?OnCabChannel0@CCabDlg@@IAEXXZ 67d87790 f   CabDlg.obj
 0001:000067a0       ?OnCabChannel1@CCabDlg@@IAEXXZ 67d877a0 f   CabDlg.obj
 0001:000067b0       ?OnCabChannel2@CCabDlg@@IAEXXZ 67d877b0 f   CabDlg.obj
 0001:000067c0       ?OnCabChannel3@CCabDlg@@IAEXXZ 67d877c0 f   CabDlg.obj
 0001:000067d0       ?OnCabChannel4@CCabDlg@@IAEXXZ 67d877d0 f   CabDlg.obj
 0001:000067e0       ?OnCabChannel5@CCabDlg@@IAEXXZ 67d877e0 f   CabDlg.obj
 0001:000067f0       ?OnCabChannel6@CCabDlg@@IAEXXZ 67d877f0 f   CabDlg.obj
 0001:00006800       ?OnCabChannel7@CCabDlg@@IAEXXZ 67d87800 f   CabDlg.obj
 0001:00006810       ?OnCabChannel8@CCabDlg@@IAEXXZ 67d87810 f   CabDlg.obj
 0001:00006820       ?OnCabChannel9@CCabDlg@@IAEXXZ 67d87820 f   CabDlg.obj
 0001:00006830       ?OnCabChannel10@CCabDlg@@IAEXXZ 67d87830 f   CabDlg.obj
 0001:00006840       ?OnCabChannel11@CCabDlg@@IAEXXZ 67d87840 f   CabDlg.obj
 0001:00006850       ?OnCabChannel12@CCabDlg@@IAEXXZ 67d87850 f   CabDlg.obj
 0001:00006860       ?OnCabChannel13@CCabDlg@@IAEXXZ 67d87860 f   CabDlg.obj
 0001:00006870       ?OnCabChannel14@CCabDlg@@IAEXXZ 67d87870 f   CabDlg.obj
 0001:00006880       ?OnCabChannel15@CCabDlg@@IAEXXZ 67d87880 f   CabDlg.obj
 0001:00006890       ?GetThisMessageMap@CCabDlg@@KGPBUAFX_MSGMAP@@XZ 67d87890 f   CabDlg.obj
 0001:000068a0       ?GetMessageMap@CCabDlg@@MBEPBUAFX_MSGMAP@@XZ 67d878a0 f   CabDlg.obj
 0001:000068b0       ?GetDir@CBrowseDirDlg@@QAE?AV?$CStringT@DV?$StrTraitMFC_DLL@DV?$ChTraitsCRT@D@ATL@@@@@ATL@@XZ 67d878b0 f i CamVicDlg.obj
 0001:000068e0       ?UpdateAcquisition@CCamVicDlg@@IAEHXZ 67d878e0 f   CamVicDlg.obj
 0001:00006a00       ?SaveSettings@CCamVicDlg@@IAEXXZ 67d87a00 f   CamVicDlg.obj
 0001:00006aa0       ??1CBrowseDirDlg@@QAE@XZ   67d87aa0 f i CamVicDlg.obj
 0001:00006ab0       ?MakeVicAvailable@CCamVicDlg@@IAEHXZ 67d87ab0 f   CamVicDlg.obj
 0001:00006bc0       ?OnSelchangeComboResource@CCamVicDlg@@IAEXXZ 67d87bc0 f   CamVicDlg.obj
 0001:00006bd0       ??HATL@@YA?AV?$CStringT@DV?$StrTraitMFC_DLL@DV?$ChTraitsCRT@D@ATL@@@@@0@ABV10@PBD@Z 67d87bd0 f i CamVicDlg.obj
 0001:00006c60       ?GetCount@CListBox@@QBEHXZ 67d87c60 f i CamVicDlg.obj
 0001:00006c80       ?GetText@CListBox@@QBEHHPAD@Z 67d87c80 f i CamVicDlg.obj
 0001:00006ca0       ?ResetContent@CListBox@@QAEXXZ 67d87ca0 f i CamVicDlg.obj
 0001:00006cc0       ?Dir@CListBox@@QAEHIPBD@Z  67d87cc0 f i CamVicDlg.obj
 0001:00006ce0       ?SetDroppedWidth@CComboBox@@QAEHI@Z 67d87ce0 f i CamVicDlg.obj
 0001:00006e60       ??1CCamVicDlg@@UAE@XZ      67d87e60 f i CamVicDlg.obj
 0001:00006f40       ??_GCCamVicDlg@@UAEPAXI@Z  67d87f40 f i CamVicDlg.obj
 0001:00006f70       ??_ECCamVicDlg@@UAEPAXI@Z  67d87f70 f i CamVicDlg.obj
 0001:00006fd0       ?DoDataExchange@CCamVicDlg@@MAEXPAVCDataExchange@@@Z 67d87fd0 f   CamVicDlg.obj
 0001:00007070       ?InitResourceCombo@CCamVicDlg@@IAEXXZ 67d88070 f   CamVicDlg.obj
 0001:00007250       ?UpdateBoxAvailability@CCamVicDlg@@IAEXXZ 67d88250 f   CamVicDlg.obj
 0001:000072e0       ?OnSelchangeComboCamera@CCamVicDlg@@IAEXXZ 67d882e0 f   CamVicDlg.obj
 0001:00007340       ?OnSelchangeComboVic@CCamVicDlg@@IAEXXZ 67d88340 f   CamVicDlg.obj
 0001:000073a0       ?OnSelchangeComboServer@CCamVicDlg@@IAEXXZ 67d883a0 f   CamVicDlg.obj
 0001:000073c0       ?StringCbCatA@@YGJPADIPBD@Z 67d883c0 f i CamVicDlg.obj
 0001:00007440       ?LoadSettings@CCamVicDlg@@IAEXXZ 67d88440 f   CamVicDlg.obj
 0001:000075f0       ?SetDirectories@CCamVicDlg@@IAEXXZ 67d885f0 f   CamVicDlg.obj
 0001:00007b00       ?InitServerCombo@CCamVicDlg@@IAEXXZ 67d88b00 f   CamVicDlg.obj
 0001:00007c30       ?UpdateCurrentDir@CCamVicDlg@@IAEXPADH@Z 67d88c30 f   CamVicDlg.obj
 0001:00007ce0       ?UpdateNames@CCamVicDlg@@IAEXH@Z 67d88ce0 f   CamVicDlg.obj
 0001:000082a0       ?OnGenerateVic@CCamVicDlg@@IAEXXZ 67d892a0 f   CamVicDlg.obj
 0001:000085e0       ?OnOK@CCamVicDlg@@MAEXXZ   67d895e0 f   CamVicDlg.obj
 0001:00008650       ??0CCamVicDlg@@QAE@PAVCWnd@@PAVSapAcquisition@@PBD@Z 67d89650 f   CamVicDlg.obj
 0001:00008920       ??_ECCamVicDlg@@WJE@AEPAXI@Z 67d89920 f i CamVicDlg.obj
 0001:00008930       ?OnInitDialog@CCamVicDlg@@MAEHXZ 67d89930 f   CamVicDlg.obj
 0001:00008990       ?OnCamBrowse@CCamVicDlg@@IAEXXZ 67d89990 f   CamVicDlg.obj
 0001:00008a50       ?OnVicBrowse@CCamVicDlg@@IAEXXZ 67d89a50 f   CamVicDlg.obj
 0001:00008b10       ?OnKillfocusEditCamPath@CCamVicDlg@@IAEXXZ 67d89b10 f   CamVicDlg.obj
 0001:00008b70       ?OnKillfocusEditVicPath@CCamVicDlg@@IAEXXZ 67d89b70 f   CamVicDlg.obj
 0001:00008bd0       ?GetThisMessageMap@CCamVicDlg@@KGPBUAFX_MSGMAP@@XZ 67d89bd0 f   CamVicDlg.obj
 0001:00008be0       ?GetMessageMap@CCamVicDlg@@MBEPBUAFX_MSGMAP@@XZ 67d89be0 f   CamVicDlg.obj
 0001:00008bf0       ??1SapColorConversionMethodDictionary@@QAE@XZ 67d89bf0 f i ColorConversionDlg.obj
 0001:00008c00       ??0CColorConversionOptionsDlg@@QAE@PAVCWnd@@PAVSapColorConversion@@PAVSapTransfer@@PAVCImageWnd@@PAVSapProcessing@@@Z 67d89c00 f   ColorConversionDlg.obj
 0001:00008cd0       ??1CColorConversionOptionsDlg@@UAE@XZ 67d89cd0 f   ColorConversionDlg.obj
 0001:00008d50       ?OnChangeNumber@CColorConversionOptionsDlg@@IAEXXZ 67d89d50 f   ColorConversionDlg.obj
 0001:00008d70       ?OnGammaEnable@CColorConversionOptionsDlg@@IAEXXZ 67d89d70 f   ColorConversionDlg.obj
 0001:00008dd0       ?UpdateView@CColorConversionOptionsDlg@@IAEXXZ 67d89dd0 f   ColorConversionDlg.obj
 0001:00008e70       ?OnClose@CColorConversionOptionsDlg@@IAEXXZ 67d89e70 f   ColorConversionDlg.obj
 0001:00008eb0       ??_GCColorConversionOptionsDlg@@UAEPAXI@Z 67d89eb0 f i ColorConversionDlg.obj
 0001:00008ee0       ??_ECColorConversionOptionsDlg@@UAEPAXI@Z 67d89ee0 f i ColorConversionDlg.obj
 0001:00008f40       ?DoDataExchange@CColorConversionOptionsDlg@@MAEXPAVCDataExchange@@@Z 67d89f40 f   ColorConversionDlg.obj
 0001:00008fe0       ?SetSelectedMethodDescription@CColorConversionOptionsDlg@@IAEXXZ 67d89fe0 f   ColorConversionDlg.obj
 0001:00009070       ?OnApply@CColorConversionOptionsDlg@@IAEXXZ 67d8a070 f   ColorConversionDlg.obj
 0001:00009200       ??_ECColorConversionOptionsDlg@@WJE@AEPAXI@Z 67d8a200 f i ColorConversionDlg.obj
 0001:00009210       ?UpdateInterface@CColorConversionOptionsDlg@@QAEXXZ 67d8a210 f   ColorConversionDlg.obj
 0001:00009550       ?OnChange@CColorConversionOptionsDlg@@IAEXXZ 67d8a550 f   ColorConversionDlg.obj
 0001:00009580       ?OnChangeRange@CColorConversionOptionsDlg@@IAEXI@Z 67d8a580 f   ColorConversionDlg.obj
 0001:00009590       ?OnAutoWhiteBalance@CColorConversionOptionsDlg@@IAEXXZ 67d8a590 f   ColorConversionDlg.obj
 0001:00009630       ?OnShowWindow@CColorConversionOptionsDlg@@IAEXHI@Z 67d8a630 f   ColorConversionDlg.obj
 0001:00009670       ?GetThisMessageMap@CColorConversionOptionsDlg@@KGPBUAFX_MSGMAP@@XZ 67d8a670 f   ColorConversionDlg.obj
 0001:00009680       ?OnInitDialog@CColorConversionOptionsDlg@@MAEHXZ 67d8a680 f   ColorConversionDlg.obj
 0001:000096c0       ?GetMessageMap@CColorConversionOptionsDlg@@MBEPBUAFX_MSGMAP@@XZ 67d8a6c0 f   ColorConversionDlg.obj
 0001:000096d0       ?OnOK@CCompDlg@@MAEXXZ     67d8a6d0 f   CompDlg.obj
 0001:000096e0       ?SetBrightness@CCompDlg@@IAEXXZ 67d8a6e0 f   CompDlg.obj
 0001:00009750       ?SetContrast@CCompDlg@@IAEXXZ 67d8a750 f   CompDlg.obj
 0001:000097c0       ?SetHue@CCompDlg@@IAEXXZ   67d8a7c0 f   CompDlg.obj
 0001:00009820       ?SetSaturation@CCompDlg@@IAEXXZ 67d8a820 f   CompDlg.obj
 0001:00009880       ?SetSharpness@CCompDlg@@IAEXXZ 67d8a880 f   CompDlg.obj
 0001:000098d0       ??0CSliderCtrl@@QAE@XZ     67d8a8d0 f i CompDlg.obj
 0001:000098f0       ??_ECSliderCtrl@@UAEPAXI@Z 67d8a8f0 f i CompDlg.obj
 0001:000098f0       ??_GCSliderCtrl@@UAEPAXI@Z 67d8a8f0 f i CompDlg.obj
 0001:00009920       ?SetPageSize@CSliderCtrl@@QAEHH@Z 67d8a920 f i CompDlg.obj
 0001:00009940       ?SetPos@CSliderCtrl@@QAEXH@Z 67d8a940 f i CompDlg.obj
 0001:00009960       ?SetTicFreq@CSliderCtrl@@QAEXH@Z 67d8a960 f i CompDlg.obj
 0001:00009980       ??1CCompDlg@@UAE@XZ        67d8a980 f i CompDlg.obj
 0001:00009a30       ??_GCCompDlg@@UAEPAXI@Z    67d8aa30 f i CompDlg.obj
 0001:00009a60       ??_ECCompDlg@@UAEPAXI@Z    67d8aa60 f i CompDlg.obj
 0001:00009ac0       ??0CCompDlg@@QAE@PAVCWnd@@PAVSapAcquisition@@PAVSapTransfer@@@Z 67d8aac0 f   CompDlg.obj
 0001:00009be0       ?DoDataExchange@CCompDlg@@MAEXPAVCDataExchange@@@Z 67d8abe0 f   CompDlg.obj
 0001:00009cb0       ?Snap@CCompDlg@@IAEXXZ     67d8acb0 f   CompDlg.obj
 0001:00009d90       ?OnCancel@CCompDlg@@MAEXXZ 67d8ad90 f   CompDlg.obj
 0001:00009ea0       ?UpdateWindow@CCompDlg@@IAEXXZ 67d8aea0 f   CompDlg.obj
 0001:00009fe0       ?OnHScroll@CCompDlg@@IAEXIIPAVCScrollBar@@@Z 67d8afe0 f   CompDlg.obj
 0001:0000a1b0       ?OnRed@CCompDlg@@IAEXXZ    67d8b1b0 f   CompDlg.obj
 0001:0000a1f0       ?OnGreen@CCompDlg@@IAEXXZ  67d8b1f0 f   CompDlg.obj
 0001:0000a230       ?OnBlue@CCompDlg@@IAEXXZ   67d8b230 f   CompDlg.obj
 0001:0000a270       ?OnKillfocusEditContrast@CCompDlg@@IAEXXZ 67d8b270 f   CompDlg.obj
 0001:0000a2b0       ?OnKillfocusEditBrightness@CCompDlg@@IAEXXZ 67d8b2b0 f   CompDlg.obj
 0001:0000a2f0       ?OnKillfocusEditHue@CCompDlg@@IAEXXZ 67d8b2f0 f   CompDlg.obj
 0001:0000a330       ?OnKillfocusEditSaturation@CCompDlg@@IAEXXZ 67d8b330 f   CompDlg.obj
 0001:0000a370       ?OnKillfocusEditSharpness@CCompDlg@@IAEXXZ 67d8b370 f   CompDlg.obj
 0001:0000a3b0       ?OnDefault@CCompDlg@@IAEXXZ 67d8b3b0 f   CompDlg.obj
 0001:0000a4b0       ??_ECCompDlg@@WJE@AEPAXI@Z 67d8b4b0 f i CompDlg.obj
 0001:0000a4c0       ?GetThisMessageMap@CCompDlg@@KGPBUAFX_MSGMAP@@XZ 67d8b4c0 f   CompDlg.obj
 0001:0000a4d0       ?OnInitDialog@CCompDlg@@MAEHXZ 67d8b4d0 f   CompDlg.obj
 0001:0000afc0       ?GetMessageMap@CCompDlg@@MBEPBUAFX_MSGMAP@@XZ 67d8bfc0 f   CompDlg.obj
 0001:0000afd0       ??1CFlatFieldDlg@@UAE@XZ   67d8bfd0 f   FlatFieldDlg.obj
 0001:0000b0c0       ?OnDestroy@CFlatFieldDlg@@IAEXXZ 67d8c0c0 f   FlatFieldDlg.obj
 0001:0000b0d0       ?OnOK@CFlatFieldDlg@@MAEXXZ 67d8c0d0 f   FlatFieldDlg.obj
 0001:0000b120       ?OnCancel@CFlatFieldDlg@@MAEXXZ 67d8c120 f   FlatFieldDlg.obj
 0001:0000b190       ?OnBnClickedScgFfLoadClusterMap@CFlatFieldDlg@@IAEXXZ 67d8c190 f   FlatFieldDlg.obj
 0001:0000b310       ?GetAverageStr@CFlatFieldDlg@@ABE?AV?$CStringT@DV?$StrTraitMFC_DLL@DV?$ChTraitsCRT@D@ATL@@@@@ATL@@AAVSapFlatFieldStats@@@Z 67d8c310 f   FlatFieldDlg.obj
 0001:0000b430       ?GetStdDeviationStr@CFlatFieldDlg@@ABE?AV?$CStringT@DV?$StrTraitMFC_DLL@DV?$ChTraitsCRT@D@ATL@@@@@ATL@@AAVSapFlatFieldStats@@@Z 67d8c430 f   FlatFieldDlg.obj
 0001:0000b550       ?GetLowStr@CFlatFieldDlg@@ABE?AV?$CStringT@DV?$StrTraitMFC_DLL@DV?$ChTraitsCRT@D@ATL@@@@@ATL@@AAVSapFlatFieldStats@@@Z 67d8c550 f   FlatFieldDlg.obj
 0001:0000b670       ?GetHighStr@CFlatFieldDlg@@ABE?AV?$CStringT@DV?$StrTraitMFC_DLL@DV?$ChTraitsCRT@D@ATL@@@@@ATL@@AAVSapFlatFieldStats@@@Z 67d8c670 f   FlatFieldDlg.obj
 0001:0000b790       ?GetPeakPositionStr@CFlatFieldDlg@@ABE?AV?$CStringT@DV?$StrTraitMFC_DLL@DV?$ChTraitsCRT@D@ATL@@@@@ATL@@AAVSapFlatFieldStats@@@Z 67d8c790 f   FlatFieldDlg.obj
 0001:0000b8b0       ?GetPixelRatioStr@CFlatFieldDlg@@ABE?AV?$CStringT@DV?$StrTraitMFC_DLL@DV?$ChTraitsCRT@D@ATL@@@@@ATL@@AAVSapFlatFieldStats@@@Z 67d8c8b0 f   FlatFieldDlg.obj
 0001:0000b9e0       ?GetNumPixelsStr@CFlatFieldDlg@@ABE?AV?$CStringT@DV?$StrTraitMFC_DLL@DV?$ChTraitsCRT@D@ATL@@@@@ATL@@AAVSapFlatFieldStats@@@Z 67d8c9e0 f   FlatFieldDlg.obj
 0001:0000bb00       ??0CSize@@QAE@UtagSIZE@@@Z 67d8cb00 f i FlatFieldDlg.obj
 0001:0000bb20       ?GetTextExtent@CDC@@QBE?AVCSize@@ABV?$CStringT@DV?$StrTraitMFC_DLL@DV?$ChTraitsCRT@D@ATL@@@@@ATL@@@Z 67d8cb20 f i FlatFieldDlg.obj
 0001:0000bb70       ?GetDC@CWnd@@QAEPAVCDC@@XZ 67d8cb70 f i FlatFieldDlg.obj
 0001:0000bb90       ?ReleaseDC@CWnd@@QAEHPAVCDC@@@Z 67d8cb90 f i FlatFieldDlg.obj
 0001:0000bbb0       ?GetParent@CWnd@@QBEPAV1@XZ 67d8cbb0 f i FlatFieldDlg.obj
 0001:0000bbd0       ??0CStatic@@QAE@XZ         67d8cbd0 f i FlatFieldDlg.obj
 0001:0000bbf0       ??_GCStatic@@UAEPAXI@Z     67d8cbf0 f i FlatFieldDlg.obj
 0001:0000bbf0       ??_ECStatic@@UAEPAXI@Z     67d8cbf0 f i FlatFieldDlg.obj
 0001:0000bc20       ??0CButton@@QAE@XZ         67d8cc20 f i FlatFieldDlg.obj
 0001:0000bc40       ??_GCButton@@UAEPAXI@Z     67d8cc40 f i FlatFieldDlg.obj
 0001:0000bc40       ??_ECButton@@UAEPAXI@Z     67d8cc40 f i FlatFieldDlg.obj
 0001:0000bc70       ?SetCurSel@CListBox@@QAEHH@Z 67d8cc70 f i FlatFieldDlg.obj
 0001:0000bc90       ?GetHorizontalExtent@CListBox@@QBEHXZ 67d8cc90 f i FlatFieldDlg.obj
 0001:0000bcb0       ?SetHorizontalExtent@CListBox@@QAEXH@Z 67d8ccb0 f i FlatFieldDlg.obj
 0001:0000bcd0       ?AddString@CListBox@@QAEHPBD@Z 67d8ccd0 f i FlatFieldDlg.obj
 0001:0000bcf0       ??0CWaitCursor@@QAE@XZ     67d8ccf0 f i FlatFieldDlg.obj
 0001:0000bd10       ??1CWaitCursor@@QAE@XZ     67d8cd10 f i FlatFieldDlg.obj
 0001:0000be30       ?GetPathName@CLoadSaveDlg@@QAE?AV?$CStringT@DV?$StrTraitMFC_DLL@DV?$ChTraitsCRT@D@ATL@@@@@ATL@@XZ 67d8ce30 f i FlatFieldDlg.obj
 0001:0000be60       ??1CLoadSaveDlg@@UAE@XZ    67d8ce60 f i FlatFieldDlg.obj
 0001:0000be80       ??_GCFlatFieldDlg@@UAEPAXI@Z 67d8ce80 f i FlatFieldDlg.obj
 0001:0000beb0       ??_ECFlatFieldDlg@@UAEPAXI@Z 67d8ceb0 f i FlatFieldDlg.obj
 0001:0000bf10       ??$_Pow_int@N@@YANNH@Z     67d8cf10 f i FlatFieldDlg.obj
 0001:0000bf50       ??0CFlatFieldDlg@@QAE@PAVCWnd@@PAVSapFlatField@@PAVSapTransfer@@PAVSapBuffer@@@Z 67d8cf50 f   FlatFieldDlg.obj
 0001:0000c0f0       ?DoDataExchange@CFlatFieldDlg@@MAEXPAVCDataExchange@@@Z 67d8d0f0 f   FlatFieldDlg.obj
 0001:0000c260       ?OnSelchangeCorrectionType@CFlatFieldDlg@@IAEXXZ 67d8d260 f   FlatFieldDlg.obj
 0001:0000c2f0       ?OnSelchangeVideoType@CFlatFieldDlg@@IAEXXZ 67d8d2f0 f   FlatFieldDlg.obj
 0001:0000c340       ?OnSelchangeCalibrationIndex@CFlatFieldDlg@@IAEXXZ 67d8d340 f   FlatFieldDlg.obj
 0001:0000c370       ?Snap@CFlatFieldDlg@@QAEHXZ 67d8d370 f   FlatFieldDlg.obj
 0001:0000c4c0       ?LogMessage@CFlatFieldDlg@@AAEXHV?$CStringT@DV?$StrTraitMFC_DLL@DV?$ChTraitsCRT@D@ATL@@@@@ATL@@@Z 67d8d4c0 f   FlatFieldDlg.obj
 0001:0000c620       ??_ECFlatFieldDlg@@WJE@AEPAXI@Z 67d8d620 f i FlatFieldDlg.obj
 0001:0000c630       ?pow@@YANNH@Z              67d8d630 f i FlatFieldDlg.obj
 0001:0000c670       ?OnInitDialog@CFlatFieldDlg@@MAEHXZ 67d8d670 f   FlatFieldDlg.obj
 0001:0000d0d0       ?LogMessage@CFlatFieldDlg@@AAEXHPBD@Z 67d8e0d0 f   FlatFieldDlg.obj
 0001:0000d100       ?OnSaveAndUpload@CFlatFieldDlg@@IAEXXZ 67d8e100 f   FlatFieldDlg.obj
 0001:0000d2e0       ?DarkImage@CFlatFieldDlg@@AAEXXZ 67d8e2e0 f   FlatFieldDlg.obj
 0001:0000d7a0       ?BrightImage@CFlatFieldDlg@@AAEXXZ 67d8e7a0 f   FlatFieldDlg.obj
 0001:0000e010       ?OnDarkImage@CFlatFieldDlg@@IAEXXZ 67d8f010 f   FlatFieldDlg.obj
 0001:0000e4e0       ??_GSapBuffer@@UAEPAXI@Z   67d8f4e0 f i FlatFieldDlg.obj
 0001:0000e4e0       ??_ESapBuffer@@UAEPAXI@Z   67d8f4e0 f i FlatFieldDlg.obj
 0001:0000e510       ?OnBrightImage@CFlatFieldDlg@@IAEXXZ 67d8f510 f   FlatFieldDlg.obj
 0001:0000e980       ?GetThisMessageMap@CFlatFieldDlg@@KGPBUAFX_MSGMAP@@XZ 67d8f980 f   FlatFieldDlg.obj
 0001:0000e990       ?GetMessageMap@CFlatFieldDlg@@MBEPBUAFX_MSGMAP@@XZ 67d8f990 f   FlatFieldDlg.obj
 0001:0000e9a0       ?PreTranslateMessage@CGioBidirectionalDlg@@UAEHPAUtagMSG@@@Z 67d8f9a0 f   GioBidirectionalDlg.obj
 0001:0000e9d0       ?GioCallbackInfo@CGioBidirectionalDlg@@SAXPAVSapGioCallbackInfo@@@Z 67d8f9d0 f   GioBidirectionalDlg.obj
 0001:0000ea00       ?Update@CGioBidirectionalDlg@@QAEHXZ 67d8fa00 f   GioBidirectionalDlg.obj
 0001:0000eba0       ?ResetInterruptCount@CGioBidirectionalDlg@@IAEHXZ 67d8fba0 f   GioBidirectionalDlg.obj
 0001:0000ec90       ?OnBtReset@CGioBidirectionalDlg@@IAEXXZ 67d8fc90 f   GioBidirectionalDlg.obj
 0001:0000eca0       ??0CObject@@IAE@XZ         67d8fca0 f i GioBidirectionalDlg.obj
 0001:0000ecb0       ??1CObject@@UAE@XZ         67d8fcb0 f i GioBidirectionalDlg.obj
 0001:0000ecc0       ?GetSafeHandle@CGdiObject@@QBEPAXXZ 67d8fcc0 f i GioBidirectionalDlg.obj
 0001:0000ecd0       ??0CGdiObject@@QAE@XZ      67d8fcd0 f i GioBidirectionalDlg.obj
 0001:0000ece0       ??1CGdiObject@@UAE@XZ      67d8fce0 f i GioBidirectionalDlg.obj
 0001:0000ee00       ??0CBrush@@QAE@XZ          67d8fe00 f i GioBidirectionalDlg.obj
 0001:0000ee10       ??1CBrush@@UAE@XZ          67d8fe10 f i GioBidirectionalDlg.obj
 0001:0000ee20       ?MoveWindow@CWnd@@QAEXPBUtagRECT@@H@Z 67d8fe20 f i GioBidirectionalDlg.obj
 0001:0000ee50       ?GetClientRect@CWnd@@QBEXPAUtagRECT@@@Z 67d8fe50 f i GioBidirectionalDlg.obj
 0001:0000ee70       ?SetButtonStyle@CButton@@QAEXIH@Z 67d8fe70 f i GioBidirectionalDlg.obj
 0001:0000efa0       ??1CGioBidirectionalDlg@@UAE@XZ 67d8ffa0 f i GioBidirectionalDlg.obj
 0001:0000f030       ??_GCGioBidirectionalDlg@@UAEPAXI@Z 67d90030 f i GioBidirectionalDlg.obj
 0001:0000f060       ??_ECGioBidirectionalDlg@@UAEPAXI@Z 67d90060 f i GioBidirectionalDlg.obj
 0001:0000f0c0       ??0CGioBidirectionalDlg@@QAE@PAVCWnd@@IPAVSapGio@@@Z 67d900c0 f   GioBidirectionalDlg.obj
 0001:0000f1c0       ?DoDataExchange@CGioBidirectionalDlg@@MAEXPAVCDataExchange@@@Z 67d901c0 f   GioBidirectionalDlg.obj
 0001:0000f210       ?MoveWindow@CGioBidirectionalDlg@@QAEII@Z 67d90210 f   GioBidirectionalDlg.obj
 0001:0000f280       ?Create@CGioBidirectionalDlg@@QAEHXZ 67d90280 f   GioBidirectionalDlg.obj
 0001:0000f2a0       ?ChangePinDirection@CGioBidirectionalDlg@@IAEXIH@Z 67d902a0 f   GioBidirectionalDlg.obj
 0001:0000f360       ?OnSelchangeComboDir1@CGioBidirectionalDlg@@IAEXXZ 67d90360 f   GioBidirectionalDlg.obj
 0001:0000f390       ?OnSelchangeComboDir2@CGioBidirectionalDlg@@IAEXXZ 67d90390 f   GioBidirectionalDlg.obj
 0001:0000f3c0       ?OnSelchangeComboDir3@CGioBidirectionalDlg@@IAEXXZ 67d903c0 f   GioBidirectionalDlg.obj
 0001:0000f3f0       ?OnSelchangeComboDir4@CGioBidirectionalDlg@@IAEXXZ 67d903f0 f   GioBidirectionalDlg.obj
 0001:0000f420       ?OnSelchangeComboDir5@CGioBidirectionalDlg@@IAEXXZ 67d90420 f   GioBidirectionalDlg.obj
 0001:0000f450       ?OnSelchangeComboDir6@CGioBidirectionalDlg@@IAEXXZ 67d90450 f   GioBidirectionalDlg.obj
 0001:0000f480       ?OnSelchangeComboDir7@CGioBidirectionalDlg@@IAEXXZ 67d90480 f   GioBidirectionalDlg.obj
 0001:0000f4b0       ?OnSelchangeComboDir8@CGioBidirectionalDlg@@IAEXXZ 67d904b0 f   GioBidirectionalDlg.obj
 0001:0000f4e0       ?OnSelchangeComboDir9@CGioBidirectionalDlg@@IAEXXZ 67d904e0 f   GioBidirectionalDlg.obj
 0001:0000f510       ?OnSelchangeComboDir10@CGioBidirectionalDlg@@IAEXXZ 67d90510 f   GioBidirectionalDlg.obj
 0001:0000f540       ?OnSelchangeComboDir11@CGioBidirectionalDlg@@IAEXXZ 67d90540 f   GioBidirectionalDlg.obj
 0001:0000f570       ?OnSelchangeComboDir12@CGioBidirectionalDlg@@IAEXXZ 67d90570 f   GioBidirectionalDlg.obj
 0001:0000f5a0       ?OnEnableCallback@CGioBidirectionalDlg@@IAEXXZ 67d905a0 f   GioBidirectionalDlg.obj
 0001:0000f750       ?OnSelchangeComboInputLevel@CGioBidirectionalDlg@@IAEXXZ 67d90750 f   GioBidirectionalDlg.obj
 0001:0000f7d0       ?OnCtlColor@CGioBidirectionalDlg@@IAEPAUHBRUSH__@@PAVCDC@@PAVCWnd@@I@Z 67d907d0 f   GioBidirectionalDlg.obj
 0001:0000f810       ?ChangePinState@CGioBidirectionalDlg@@IAEXH@Z 67d90810 f   GioBidirectionalDlg.obj
 0001:0000f920       ?OnPin1@CGioBidirectionalDlg@@IAEXXZ 67d90920 f   GioBidirectionalDlg.obj
 0001:0000f930       ?OnPin2@CGioBidirectionalDlg@@IAEXXZ 67d90930 f   GioBidirectionalDlg.obj
 0001:0000f940       ?OnPin3@CGioBidirectionalDlg@@IAEXXZ 67d90940 f   GioBidirectionalDlg.obj
 0001:0000f950       ?OnPin4@CGioBidirectionalDlg@@IAEXXZ 67d90950 f   GioBidirectionalDlg.obj
 0001:0000f960       ?OnPin5@CGioBidirectionalDlg@@IAEXXZ 67d90960 f   GioBidirectionalDlg.obj
 0001:0000f970       ?OnPin6@CGioBidirectionalDlg@@IAEXXZ 67d90970 f   GioBidirectionalDlg.obj
 0001:0000f980       ?OnPin7@CGioBidirectionalDlg@@IAEXXZ 67d90980 f   GioBidirectionalDlg.obj
 0001:0000f990       ?OnPin8@CGioBidirectionalDlg@@IAEXXZ 67d90990 f   GioBidirectionalDlg.obj
 0001:0000f9a0       ?OnPin9@CGioBidirectionalDlg@@IAEXXZ 67d909a0 f   GioBidirectionalDlg.obj
 0001:0000f9b0       ?OnPin10@CGioBidirectionalDlg@@IAEXXZ 67d909b0 f   GioBidirectionalDlg.obj
 0001:0000f9c0       ?OnPin11@CGioBidirectionalDlg@@IAEXXZ 67d909c0 f   GioBidirectionalDlg.obj
 0001:0000f9d0       ?OnPin12@CGioBidirectionalDlg@@IAEXXZ 67d909d0 f   GioBidirectionalDlg.obj
 0001:0000f9e0       ??_ECGdiObject@@UAEPAXI@Z  67d909e0 f i GioBidirectionalDlg.obj
 0001:0000f9e0       ??_GCGdiObject@@UAEPAXI@Z  67d909e0 f i GioBidirectionalDlg.obj
 0001:0000fa10       ??_GCBrush@@UAEPAXI@Z      67d90a10 f i GioBidirectionalDlg.obj
 0001:0000fa10       ??_ECBrush@@UAEPAXI@Z      67d90a10 f i GioBidirectionalDlg.obj
 0001:0000fa40       ?OnInitDialog@CGioBidirectionalDlg@@MAEHXZ 67d90a40 f   GioBidirectionalDlg.obj
 0001:000102a0       ?OnSelchangeComboSignalEvent@CGioBidirectionalDlg@@IAEXXZ 67d912a0 f   GioBidirectionalDlg.obj
 0001:000102d0       ?GetThisMessageMap@CGioBidirectionalDlg@@KGPBUAFX_MSGMAP@@XZ 67d912d0 f   GioBidirectionalDlg.obj
 0001:000102e0       ?GetMessageMap@CGioBidirectionalDlg@@MBEPBUAFX_MSGMAP@@XZ 67d912e0 f   GioBidirectionalDlg.obj
 0001:000102f0       ?PreTranslateMessage@CGioInputDlg@@UAEHPAUtagMSG@@@Z 67d912f0 f   GioInputDlg.obj
 0001:00010320       ?GioCallbackInfo@CGioInputDlg@@SAXPAVSapGioCallbackInfo@@@Z 67d91320 f   GioInputDlg.obj
 0001:00010350       ?Update@CGioInputDlg@@QAEHXZ 67d91350 f   GioInputDlg.obj
 0001:000104f0       ?ResetInterruptCount@CGioInputDlg@@IAEHXZ 67d914f0 f   GioInputDlg.obj
 0001:000105e0       ?OnBtReset@CGioInputDlg@@IAEXXZ 67d915e0 f   GioInputDlg.obj
 0001:00010700       ??1CGioInputDlg@@UAE@XZ    67d91700 f i GioInputDlg.obj
 0001:00010790       ??_GCGioInputDlg@@UAEPAXI@Z 67d91790 f i GioInputDlg.obj
 0001:000107c0       ??_ECGioInputDlg@@UAEPAXI@Z 67d917c0 f i GioInputDlg.obj
 0001:00010820       ??0CGioInputDlg@@QAE@PAVCWnd@@IPAVSapGio@@@Z 67d91820 f   GioInputDlg.obj
 0001:00010920       ?DoDataExchange@CGioInputDlg@@MAEXPAVCDataExchange@@@Z 67d91920 f   GioInputDlg.obj
 0001:00010970       ?MoveWindow@CGioInputDlg@@QAEII@Z 67d91970 f   GioInputDlg.obj
 0001:000109e0       ?Create@CGioInputDlg@@QAEHXZ 67d919e0 f   GioInputDlg.obj
 0001:00010a00       ?OnEnableCallback@CGioInputDlg@@IAEXXZ 67d91a00 f   GioInputDlg.obj
 0001:00010ad0       ?OnSelchangeComboInputLevel@CGioInputDlg@@IAEXXZ 67d91ad0 f   GioInputDlg.obj
 0001:00010b50       ?OnCtlColor@CGioInputDlg@@IAEPAUHBRUSH__@@PAVCDC@@PAVCWnd@@I@Z 67d91b50 f   GioInputDlg.obj
 0001:00010b90       ?OnInitDialog@CGioInputDlg@@MAEHXZ 67d91b90 f   GioInputDlg.obj
 0001:00011300       ?OnSelchangeComboSignalEvent@CGioInputDlg@@IAEXXZ 67d92300 f   GioInputDlg.obj
 0001:00011330       ?GetThisMessageMap@CGioInputDlg@@KGPBUAFX_MSGMAP@@XZ 67d92330 f   GioInputDlg.obj
 0001:00011340       ?GetMessageMap@CGioInputDlg@@MBEPBUAFX_MSGMAP@@XZ 67d92340 f   GioInputDlg.obj
 0001:00011350       ?PreTranslateMessage@CGioOutputDlg@@UAEHPAUtagMSG@@@Z 67d92350 f   GioOutputDlg.obj
 0001:00011380       ?UpdateIO@CGioOutputDlg@@IAEXXZ 67d92380 f   GioOutputDlg.obj
 0001:000114b0       ?RedrawWindow@CWnd@@QAEHPBUtagRECT@@PAVCRgn@@I@Z 67d924b0 f i GioOutputDlg.obj
 0001:000115f0       ??1CGioOutputDlg@@UAE@XZ   67d925f0 f i GioOutputDlg.obj
 0001:000116a0       ??_GCGioOutputDlg@@UAEPAXI@Z 67d926a0 f i GioOutputDlg.obj
 0001:000116d0       ??_ECGioOutputDlg@@UAEPAXI@Z 67d926d0 f i GioOutputDlg.obj
 0001:00011730       ??0CGioOutputDlg@@QAE@PAVCWnd@@IPAVSapGio@@@Z 67d92730 f   GioOutputDlg.obj
 0001:00011860       ?DoDataExchange@CGioOutputDlg@@MAEXPAVCDataExchange@@@Z 67d92860 f   GioOutputDlg.obj
 0001:000118c0       ?MoveWindow@CGioOutputDlg@@QAEII@Z 67d928c0 f   GioOutputDlg.obj
 0001:00011930       ?Update@CGioOutputDlg@@QAEHXZ 67d92930 f   GioOutputDlg.obj
 0001:00011ab0       ?Create@CGioOutputDlg@@QAEHXZ 67d92ab0 f   GioOutputDlg.obj
 0001:00011ad0       ?InitComboOutputState@CGioOutputDlg@@QAEXXZ 67d92ad0 f   GioOutputDlg.obj
 0001:00011c30       ?OnSelchangeComboOutputState@CGioOutputDlg@@IAEXXZ 67d92c30 f   GioOutputDlg.obj
 0001:00011c40       ?OnCtlColor@CGioOutputDlg@@IAEPAUHBRUSH__@@PAVCDC@@PAVCWnd@@I@Z 67d92c40 f   GioOutputDlg.obj
 0001:00011c80       ?ChangePinState@CGioOutputDlg@@QAEXPAVCButton@@@Z 67d92c80 f   GioOutputDlg.obj
 0001:00011d60       ?OnPin1@CGioOutputDlg@@IAEXXZ 67d92d60 f   GioOutputDlg.obj
 0001:00011d80       ?OnPin2@CGioOutputDlg@@IAEXXZ 67d92d80 f   GioOutputDlg.obj
 0001:00011da0       ?OnPin3@CGioOutputDlg@@IAEXXZ 67d92da0 f   GioOutputDlg.obj
 0001:00011dc0       ?OnPin4@CGioOutputDlg@@IAEXXZ 67d92dc0 f   GioOutputDlg.obj
 0001:00011de0       ?OnPin5@CGioOutputDlg@@IAEXXZ 67d92de0 f   GioOutputDlg.obj
 0001:00011e00       ?OnPin6@CGioOutputDlg@@IAEXXZ 67d92e00 f   GioOutputDlg.obj
 0001:00011e20       ?OnPin7@CGioOutputDlg@@IAEXXZ 67d92e20 f   GioOutputDlg.obj
 0001:00011e40       ?OnPin8@CGioOutputDlg@@IAEXXZ 67d92e40 f   GioOutputDlg.obj
 0001:00011e60       ?OnPin9@CGioOutputDlg@@IAEXXZ 67d92e60 f   GioOutputDlg.obj
 0001:00011e80       ?OnPin10@CGioOutputDlg@@IAEXXZ 67d92e80 f   GioOutputDlg.obj
 0001:00011ea0       ?OnPin11@CGioOutputDlg@@IAEXXZ 67d92ea0 f   GioOutputDlg.obj
 0001:00011ec0       ?OnPin12@CGioOutputDlg@@IAEXXZ 67d92ec0 f   GioOutputDlg.obj
 0001:00011ee0       ?GetThisMessageMap@CGioOutputDlg@@KGPBUAFX_MSGMAP@@XZ 67d92ee0 f   GioOutputDlg.obj
 0001:00011ef0       ?InitOutputDlg@CGioOutputDlg@@QAEHXZ 67d92ef0 f   GioOutputDlg.obj
 0001:00012000       ?GetMessageMap@CGioOutputDlg@@MBEPBUAFX_MSGMAP@@XZ 67d93000 f   GioOutputDlg.obj
 0001:00012010       ?OnInitDialog@CGioOutputDlg@@MAEHXZ 67d93010 f   GioOutputDlg.obj
 0001:00012740       ?_GetBaseClass@CImageExWnd@@KGPAUCRuntimeClass@@XZ 67d93740 f   ImageExWnd.obj
 0001:00012750       ?GetThisClass@CImageExWnd@@SGPAUCRuntimeClass@@XZ 67d93750 f   ImageExWnd.obj
 0001:00012760       ?GetRuntimeClass@CImageExWnd@@UBEPAUCRuntimeClass@@XZ 67d93760 f   ImageExWnd.obj
 0001:00012770       ?AttachSapView@CImageExWnd@@QAE_NPAVSapView@@@Z 67d93770 f   ImageExWnd.obj
 0001:00012790       ?AttachEventHandler@CImageExWnd@@QAEXPAVCImageExWndEventHandler@@@Z 67d93790 f   ImageExWnd.obj
 0001:000127a0       ?CenterImage@CImageExWnd@@QAEX_N@Z 67d937a0 f   ImageExWnd.obj
 0001:000127b0       ?IsImageCentered@CImageExWnd@@QBE_NXZ 67d937b0 f   ImageExWnd.obj
 0001:000127c0       ?SupportROI@CImageExWnd@@QAEX_N@Z 67d937c0 f   ImageExWnd.obj
 0001:000127d0       ?ActivateROI@CImageExWnd@@QAEX_N@Z 67d937d0 f   ImageExWnd.obj
 0001:000127e0       ?SetROI@CImageExWnd@@QAEXHHII@Z 67d937e0 f   ImageExWnd.obj
 0001:000127f0       ?SetROI@CImageExWnd@@QAEXVCPoint@@0@Z 67d937f0 f   ImageExWnd.obj
 0001:00012810       ?SetROI@CImageExWnd@@QAEXVCRect@@@Z 67d93810 f   ImageExWnd.obj
 0001:00012840       ?IsRoiSupported@CImageExWnd@@QBE_NXZ 67d93840 f   ImageExWnd.obj
 0001:00012850       ?IsRoiActive@CImageExWnd@@QBE_NXZ 67d93850 f   ImageExWnd.obj
 0001:00012860       ?GetROI@CImageExWnd@@QBEXAAI000@Z 67d93860 f   ImageExWnd.obj
 0001:00012870       ?GetROI@CImageExWnd@@QBEXAAVCPoint@@0@Z 67d93870 f   ImageExWnd.obj
 0001:00012880       ?GetROI@CImageExWnd@@QBEXAAVCRect@@@Z 67d93880 f   ImageExWnd.obj
 0001:00012890       ?SetPixelStringFormatDecimal@CImageExWnd@@QAEX_N@Z 67d93890 f   ImageExWnd.obj
 0001:000128a0       ?IsPixelStringFormatDecimal@CImageExWnd@@QBE_NXZ 67d938a0 f   ImageExWnd.obj
 0001:000128b0       ?GetPixelString@CImageExWnd@@QBE?AV?$CStringT@DV?$StrTraitMFC_DLL@DV?$ChTraitsCRT@D@ATL@@@@@ATL@@VCPoint@@@Z 67d938b0 f   ImageExWnd.obj
 0001:000128e0       ?NotifyMarkerChanged@CImageExWnd@@IAEXXZ 67d938e0 f   ImageExWnd.obj
 0001:00012900       ?NotifyInteractiveMarkerChanged@CImageExWnd@@IAEXH@Z 67d93900 f   ImageExWnd.obj
 0001:00012920       ?PixelChanged@CImageExWnd@@MAEXHH@Z 67d93920 f   ImageExWnd.obj
 0001:00012940       ?RoiChanged@CImageExWnd@@MAEXXZ 67d93940 f   ImageExWnd.obj
 0001:00012960       ?IsMarkerEnabled@CImageExWnd@@QBE_NXZ 67d93960 f   ImageExWnd.obj
 0001:00012970       ?GetMarkerLine@CImageExWnd@@QBEIXZ 67d93970 f   ImageExWnd.obj
 0001:00012980       ?ValidateMarkerLineIndex@CImageExWnd@@IAEHH@Z 67d93980 f   ImageExWnd.obj
 0001:000129a0       ?PreCreateWindow@CImageExWnd@@MAEHAAUtagCREATESTRUCTA@@@Z 67d939a0 f   ImageExWnd.obj
 0001:000129b0       ?OnDestroy@CImageExWnd@@IAEXXZ 67d939b0 f   ImageExWnd.obj
 0001:000129f0       ?OnEraseBkgnd@CImageExWnd@@IAEHPAVCDC@@@Z 67d939f0 f   ImageExWnd.obj
 0001:00012a00       ?OnSetFocus@CImageExWnd@@IAEXPAVCWnd@@@Z 67d93a00 f   ImageExWnd.obj
 0001:00012a10       ??0CPoint@@QAE@XZ          67d93a10 f i ImageExWnd.obj
 0001:00012a20       ?SetPoint@CPoint@@QAEXHH@Z 67d93a20 f i ImageExWnd.obj
 0001:00012a40       ??0CRect@@QAE@HHHH@Z       67d93a40 f i ImageExWnd.obj
 0001:00012a60       ??BCRect@@QAEPAUtagRECT@@XZ 67d93a60 f i ImageExWnd.obj
 0001:00012a70       ?OffsetRect@CRect@@QAEXHH@Z 67d93a70 f i ImageExWnd.obj
 0001:00012a90       ??0CPen@@QAE@XZ            67d93a90 f i ImageExWnd.obj
 0001:00012aa0       ??1CPen@@UAE@XZ            67d93aa0 f i ImageExWnd.obj
 0001:00012ab0       ?CreatePen@CPen@@QAEHHHK@Z 67d93ab0 f i ImageExWnd.obj
 0001:00012ae0       ?CreateSolidBrush@CBrush@@QAEHK@Z 67d93ae0 f i ImageExWnd.obj
 0001:00012b00       ??0CBitmap@@QAE@XZ         67d93b00 f i ImageExWnd.obj
 0001:00012b10       ??1CBitmap@@UAE@XZ         67d93b10 f i ImageExWnd.obj
 0001:00012b20       ?CreateCompatibleBitmap@CBitmap@@QAEHPAVCDC@@HH@Z 67d93b20 f i ImageExWnd.obj
 0001:00012b50       ??0CRgn@@QAE@XZ            67d93b50 f i ImageExWnd.obj
 0001:00012b60       ??1CRgn@@UAE@XZ            67d93b60 f i ImageExWnd.obj
 0001:00012b70       ?CreateRectRgnIndirect@CRgn@@QAEHPBUtagRECT@@@Z 67d93b70 f i ImageExWnd.obj
 0001:00012b90       ?SetRectRgn@CRgn@@QAEXPBUtagRECT@@@Z 67d93b90 f i ImageExWnd.obj
 0001:00012bc0       ?CombineRgn@CRgn@@QAEHPBV1@0H@Z 67d93bc0 f i ImageExWnd.obj
 0001:00012c00       ?GetRgnBox@CRgn@@QBEHPAUtagRECT@@@Z 67d93c00 f i ImageExWnd.obj
 0001:00012c20       ?GetSafeHdc@CDC@@QBEPAUHDC__@@XZ 67d93c20 f i ImageExWnd.obj
 0001:00012c30       ?CreateCompatibleDC@CDC@@QAEHPAV1@@Z 67d93c30 f i ImageExWnd.obj
 0001:00012c70       ?SelectObject@CDC@@QAEPAVCBitmap@@PAV2@@Z 67d93c70 f i ImageExWnd.obj
 0001:00012ca0       ?FillRgn@CDC@@QAEHPAVCRgn@@PAVCBrush@@@Z 67d93ca0 f i ImageExWnd.obj
 0001:00012ce0       ?FillRect@CDC@@QAEXPBUtagRECT@@PAVCBrush@@@Z 67d93ce0 f i ImageExWnd.obj
 0001:00012d20       ?Rectangle@CDC@@QAEHPBUtagRECT@@@Z 67d93d20 f i ImageExWnd.obj
 0001:00012d50       ?BitBlt@CDC@@QAEHHHHHPAV1@HHK@Z 67d93d50 f i ImageExWnd.obj
 0001:00012d90       ?GetSafeHwnd@CWnd@@QBEPAUHWND__@@XZ 67d93d90 f i ImageExWnd.obj
 0001:00012da0       ?Invalidate@CWnd@@QAEXH@Z  67d93da0 f i ImageExWnd.obj
 0001:00012dc0       ?OnCreate@CWnd@@IAEHPAUtagCREATESTRUCTA@@@Z 67d93dc0 f i ImageExWnd.obj
 0001:00012dd0       ?OnSize@CWnd@@IAEXIHH@Z    67d93dd0 f i ImageExWnd.obj
 0001:00012de0       ?OnLButtonDown@CWnd@@IAEXIVCPoint@@@Z 67d93de0 f i ImageExWnd.obj
 0001:00012df0       ?OnMouseMove@CWnd@@IAEXIVCPoint@@@Z 67d93df0 f i ImageExWnd.obj
 0001:00012e00       ?SetScrollInfo@CScrollBar@@QAEHPAUtagSCROLLINFO@@H@Z 67d93e00 f i ImageExWnd.obj
 0001:00012e20       ?GetScrollInfo@CScrollBar@@QAEHPAUtagSCROLLINFO@@I@Z 67d93e20 f i ImageExWnd.obj
 0001:00012e40       ??0CImageViewportWndEventHandler@@QAE@XZ 67d93e40 f i ImageExWnd.obj
 0001:00012e50       ?PixelChanged@CImageViewportWndEventHandler@@UAEXHH@Z 67d93e50 f i ImageExWnd.obj
 0001:00012e60       ?ScaleChanged@CImageViewportWndEventHandler@@UAEXXZ 67d93e60 f i ImageExWnd.obj
 0001:00012e70       ?RoiChanged@CImageViewportWndEventHandler@@UAEXXZ 67d93e70 f i ImageExWnd.obj
 0001:00012e80       ?ViewChanged@CImageViewportWndEventHandler@@UAEXXZ 67d93e80 f i ImageExWnd.obj
 0001:00012e90       ??1CImageExWnd@@UAE@XZ     67d93e90 f   ImageExWnd.obj
 0001:00012fe0       ?SetMarkerLine@CImageExWnd@@QAEXI@Z 67d93fe0 f   ImageExWnd.obj
 0001:00013040       ?CreateChildControls@CImageExWnd@@IAEHXZ 67d94040 f   ImageExWnd.obj
 0001:00013110       ?OnCreate@CImageExWnd@@IAEHPAUtagCREATESTRUCTA@@@Z 67d94110 f   ImageExWnd.obj
 0001:00013140       ?PreSubclassWindow@CImageExWnd@@MAEXXZ 67d94140 f   ImageExWnd.obj
 0001:00013170       ?PreTranslateMessage@CImageExWnd@@MAEHPAUtagMSG@@@Z 67d94170 f   ImageExWnd.obj
 0001:000131e0       ?PaintMarker@CImageExWnd@@IAEXAAVCDC@@H@Z 67d941e0 f   ImageExWnd.obj
 0001:000132f0       ?OnMouseMove@CImageExWnd@@IAEXIVCPoint@@@Z 67d942f0 f   ImageExWnd.obj
 0001:00013400       ?OnMouseLeave@CImageExWnd@@IAEJIJ@Z 67d94400 f   ImageExWnd.obj
 0001:00013440       ?OnLButtonDown@CImageExWnd@@IAEXIVCPoint@@@Z 67d94440 f   ImageExWnd.obj
 0001:00013480       ?UpdateScrollBars@CImageExWnd@@IAEXXZ 67d94480 f   ImageExWnd.obj
 0001:00013620       ?OnHScroll@CImageExWnd@@IAEXIIPAVCScrollBar@@@Z 67d94620 f   ImageExWnd.obj
 0001:00013750       ?OnVScroll@CImageExWnd@@IAEXIIPAVCScrollBar@@@Z 67d94750 f   ImageExWnd.obj
 0001:00013880       ??_ECPen@@UAEPAXI@Z        67d94880 f i ImageExWnd.obj
 0001:00013880       ??_GCPen@@UAEPAXI@Z        67d94880 f i ImageExWnd.obj
 0001:000138b0       ??_GCBitmap@@UAEPAXI@Z     67d948b0 f i ImageExWnd.obj
 0001:000138b0       ??_ECBitmap@@UAEPAXI@Z     67d948b0 f i ImageExWnd.obj
 0001:000138e0       ??_GCRgn@@UAEPAXI@Z        67d948e0 f i ImageExWnd.obj
 0001:000138e0       ??_ECRgn@@UAEPAXI@Z        67d948e0 f i ImageExWnd.obj
 0001:00013910       ??_GCImageExWnd@@UAEPAXI@Z 67d94910 f i ImageExWnd.obj
 0001:00013940       ??_ECImageExWnd@@UAEPAXI@Z 67d94940 f i ImageExWnd.obj
 0001:000139a0       ?ScaleChanged@CImageExWnd@@MAEXXZ 67d949a0 f   ImageExWnd.obj
 0001:000139f0       ?ViewChanged@CImageExWnd@@MAEXXZ 67d949f0 f   ImageExWnd.obj
 0001:00013a40       ?OnPaint@CImageExWnd@@IAEXXZ 67d94a40 f   ImageExWnd.obj
 0001:00013ce0       ?UpdateLayout@CImageExWnd@@IAEXXZ 67d94ce0 f   ImageExWnd.obj
 0001:00013fa0       ?OnSize@CImageExWnd@@IAEXIHH@Z 67d94fa0 f   ImageExWnd.obj
 0001:00013fc0       ?Refresh@CImageExWnd@@QAEXXZ 67d94fc0 f   ImageExWnd.obj
 0001:00013fe0       ?Reset@CImageExWnd@@QAEXXZ 67d94fe0 f   ImageExWnd.obj
 0001:00014000       ?EnableMarker@CImageExWnd@@QAEX_N@Z 67d95000 f   ImageExWnd.obj
 0001:00014070       ?GetThisMessageMap@CImageExWnd@@KGPBUAFX_MSGMAP@@XZ 67d95070 f   ImageExWnd.obj
 0001:00014080       ??0CImageExWnd@@QAE@XZ     67d95080 f   ImageExWnd.obj
 0001:00014250       ?GetMessageMap@CImageExWnd@@MBEPBUAFX_MSGMAP@@XZ 67d95250 f   ImageExWnd.obj
 0001:00014280       ?_GetBaseClass@CImageFilterEditorDlg@@KGPAUCRuntimeClass@@XZ 67d95280 f   ImageFilterEditorDlg.obj
 0001:00014290       ?GetThisClass@CImageFilterEditorDlg@@SGPAUCRuntimeClass@@XZ 67d95290 f   ImageFilterEditorDlg.obj
 0001:000142a0       ?GetRuntimeClass@CImageFilterEditorDlg@@UBEPAUCRuntimeClass@@XZ 67d952a0 f   ImageFilterEditorDlg.obj
 0001:000142b0       ?DestroyCoeffEditControls@CImageFilterEditorDlg@@IAEXXZ 67d952b0 f   ImageFilterEditorDlg.obj
 0001:00014340       ?ReadCoefficientsFromBuffer@CImageFilterEditorDlg@@IAE_NAAVSapBuffer@@@Z 67d95340 f   ImageFilterEditorDlg.obj
 0001:00014550       ?OnBnClickedBtnImport@CImageFilterEditorDlg@@IAEXXZ 67d95550 f   ImageFilterEditorDlg.obj
 0001:00014730       ?PreTranslateMessage@CImageFilterEditorDlg@@MAEHPAUtagMSG@@@Z 67d95730 f   ImageFilterEditorDlg.obj
 0001:00014760       ?_Getstate@?$basic_stringbuf@DU?$char_traits@D@std@@V?$allocator@D@2@@std@@AAEHH@Z 67d95760 f i ImageFilterEditorDlg.obj
 0001:00014790       ?FromHandle@CFont@@SGPAV1@PAUHFONT__@@@Z 67d95790 f i ImageFilterEditorDlg.obj
 0001:000147a0       ?SetFont@CWnd@@QAEXPAVCFont@@H@Z 67d957a0 f i ImageFilterEditorDlg.obj
 0001:000147d0       ?GetFont@CWnd@@QBEPAVCFont@@XZ 67d957d0 f i ImageFilterEditorDlg.obj
 0001:000147f0       ?InsertString@CComboBox@@QAEHHPBD@Z 67d957f0 f i ImageFilterEditorDlg.obj
 0001:00014810       ??0bad_alloc@std@@QAE@PBD@Z 67d95810 f i ImageFilterEditorDlg.obj
 0001:00014830       ??1bad_alloc@std@@UAE@XZ   67d95830 f i ImageFilterEditorDlg.obj
 0001:00014840       ??_Gbad_alloc@std@@UAEPAXI@Z 67d95840 f i ImageFilterEditorDlg.obj
 0001:00014840       ??_Ebad_alloc@std@@UAEPAXI@Z 67d95840 f i ImageFilterEditorDlg.obj
 0001:00014870       ?length@?$char_traits@D@std@@SAIPBD@Z 67d95870 f i ImageFilterEditorDlg.obj
 0001:00014890       ?copy@?$char_traits@D@std@@SAPADPADPBDI@Z 67d95890 f i ImageFilterEditorDlg.obj
 0001:000148a0       ?move@?$char_traits@D@std@@SAPADPADPBDI@Z 67d958a0 f i ImageFilterEditorDlg.obj
 0001:000148b0       ?assign@?$char_traits@D@std@@SAXAADABD@Z 67d958b0 f i ImageFilterEditorDlg.obj
 0001:000148c0       ?size@?$basic_string@DU?$char_traits@D@std@@V?$allocator@D@2@@std@@QBEIXZ 67d958c0 f i ImageFilterEditorDlg.obj
 0001:000148d0       ?_Myptr@?$basic_string@DU?$char_traits@D@std@@V?$allocator@D@2@@std@@QBEPBDXZ 67d958d0 f i ImageFilterEditorDlg.obj
 0001:000148e0       ??1?$_String_val@DV?$allocator@D@std@@@std@@QAE@XZ 67d958e0 f i ImageFilterEditorDlg.obj
 0001:000148f0       ??0?$allocator@D@std@@QAE@XZ 67d958f0 f i ImageFilterEditorDlg.obj
 0001:00014900       ??0?$allocator@D@std@@QAE@ABV01@@Z 67d95900 f i ImageFilterEditorDlg.obj
 0001:00014910       ?_Myptr@?$basic_string@DU?$char_traits@D@std@@V?$allocator@D@2@@std@@QAEPADXZ 67d95910 f i ImageFilterEditorDlg.obj
 0001:00014920       ?_Xran@?$basic_string@DU?$char_traits@D@std@@V?$allocator@D@2@@std@@QBEXXZ 67d95920 f i ImageFilterEditorDlg.obj
 0001:00014930       ?deallocate@?$allocator@D@std@@QAEXPADI@Z 67d95930 f i ImageFilterEditorDlg.obj
 0001:00014950       ?_Inside@?$basic_string@DU?$char_traits@D@std@@V?$allocator@D@2@@std@@QAE_NPBD@Z 67d95950 f i ImageFilterEditorDlg.obj
 0001:00014990       ?_Xlen@?$basic_string@DU?$char_traits@D@std@@V?$allocator@D@2@@std@@QBEXXZ 67d95990 f i ImageFilterEditorDlg.obj
 0001:000149a0       ?max_size@?$allocator@D@std@@QBEIXZ 67d959a0 f i ImageFilterEditorDlg.obj
 0001:000149b0       ??$_Allocate@D@std@@YAPADIPAD@Z 67d959b0 f i ImageFilterEditorDlg.obj
 0001:00014a00       ??0bad_alloc@std@@QAE@ABV01@@Z 67d95a00 f i ImageFilterEditorDlg.obj
 0001:00014a20       ??0CImageFilterEditorDlg@@QAE@PAVSapAcquisition@@PAVCWnd@@@Z 67d95a20 f   ImageFilterEditorDlg.obj
 0001:00014b50       ??1CImageFilterEditorDlg@@UAE@XZ 67d95b50 f   ImageFilterEditorDlg.obj
 0001:00014c00       ?CreateCoeffEditControls@CImageFilterEditorDlg@@IAE_NH@Z 67d95c00 f   ImageFilterEditorDlg.obj
 0001:00014d40       ??_ECEdit@@UAEPAXI@Z       67d95d40 f i ImageFilterEditorDlg.obj
 0001:00014da0       ?InitControls@CImageFilterEditorDlg@@IAEXXZ 67d95da0 f   ImageFilterEditorDlg.obj
 0001:00014f90       ?UpdateKernelSizeCombo@CImageFilterEditorDlg@@IAEXXZ 67d95f90 f   ImageFilterEditorDlg.obj
 0001:00015040       ?ArrangeCoeffEditControls@CImageFilterEditorDlg@@IAEXXZ 67d96040 f   ImageFilterEditorDlg.obj
 0001:00015230       ?ReadCoefficients@CImageFilterEditorDlg@@IAE_NXZ 67d96230 f   ImageFilterEditorDlg.obj
 0001:00015400       ?DoDataExchange@CImageFilterEditorDlg@@MAEXPAVCDataExchange@@@Z 67d96400 f   ImageFilterEditorDlg.obj
 0001:00015480       ?OnCheckImageFilterEnable@CImageFilterEditorDlg@@IAEXXZ 67d96480 f   ImageFilterEditorDlg.obj
 0001:000154d0       ?_Tidy@?$basic_stringbuf@DU?$char_traits@D@std@@V?$allocator@D@2@@std@@IAEXXZ 67d964d0 f i ImageFilterEditorDlg.obj
 0001:00015530       ??_GCImageFilterEditorDlg@@UAEPAXI@Z 67d96530 f i ImageFilterEditorDlg.obj
 0001:00015560       ??_ECImageFilterEditorDlg@@UAEPAXI@Z 67d96560 f i ImageFilterEditorDlg.obj
 0001:000155c0       ?c_str@?$basic_string@DU?$char_traits@D@std@@V?$allocator@D@2@@std@@QBEPBDXZ 67d965c0 f i ImageFilterEditorDlg.obj
 0001:000155d0       ??0?$_String_val@DV?$allocator@D@std@@@std@@QAE@V?$allocator@D@1@@Z 67d965d0 f i ImageFilterEditorDlg.obj
 0001:000155e0       ?_Eos@?$basic_string@DU?$char_traits@D@std@@V?$allocator@D@2@@std@@QAEXI@Z 67d965e0 f i ImageFilterEditorDlg.obj
 0001:00015600       ?erase@?$basic_string@DU?$char_traits@D@std@@V?$allocator@D@2@@std@@QAEAAV12@II@Z 67d96600 f i ImageFilterEditorDlg.obj
 0001:00015690       ?max_size@?$basic_string@DU?$char_traits@D@std@@V?$allocator@D@2@@std@@QBEIXZ 67d96690 f i ImageFilterEditorDlg.obj
 0001:000156a0       ?allocate@?$allocator@D@std@@QAEPADI@Z 67d966a0 f i ImageFilterEditorDlg.obj
 0001:000156f0       ?UpdateState@CImageFilterEditorDlg@@IAE_NXZ 67d966f0 f   ImageFilterEditorDlg.obj
 0001:00015750       ?OnChangeImageFilterIndex@CImageFilterEditorDlg@@IAEXXZ 67d96750 f   ImageFilterEditorDlg.obj
 0001:00015760       ?OnChangeImageFilterSize@CImageFilterEditorDlg@@IAEXXZ 67d96760 f   ImageFilterEditorDlg.obj
 0001:00015770       ??1?$basic_stringbuf@DU?$char_traits@D@std@@V?$allocator@D@2@@std@@UAE@XZ 67d96770 f i ImageFilterEditorDlg.obj
 0001:000157d0       ??B?$fpos@H@std@@QBE_JXZ   67d967d0 f i ImageFilterEditorDlg.obj
 0001:000157e0       ?eq@?$char_traits@D@std@@SA_NABD0@Z 67d967e0 f i ImageFilterEditorDlg.obj
 0001:00015800       ?to_char_type@?$char_traits@D@std@@SADABH@Z 67d96800 f i ImageFilterEditorDlg.obj
 0001:00015810       ?to_int_type@?$char_traits@D@std@@SAHABD@Z 67d96810 f i ImageFilterEditorDlg.obj
 0001:00015820       ?eq_int_type@?$char_traits@D@std@@SA_NABH0@Z 67d96820 f i ImageFilterEditorDlg.obj
 0001:00015840       ?eof@?$char_traits@D@std@@SAHXZ 67d96840 f i ImageFilterEditorDlg.obj
 0001:00015850       ??0?$fpos@H@std@@QAE@_J@Z  67d96850 f i ImageFilterEditorDlg.obj
 0001:00015870       ?underflow@?$basic_stringbuf@DU?$char_traits@D@std@@V?$allocator@D@2@@std@@MAEHXZ 67d96870 f i ImageFilterEditorDlg.obj
 0001:00015930       ?seekoff@?$basic_stringbuf@DU?$char_traits@D@std@@V?$allocator@D@2@@std@@MAE?AV?$fpos@H@2@_JHH@Z 67d96930 f i ImageFilterEditorDlg.obj
 0001:00015b50       ?seekpos@?$basic_stringbuf@DU?$char_traits@D@std@@V?$allocator@D@2@@std@@MAE?AV?$fpos@H@2@V32@H@Z 67d96b50 f i ImageFilterEditorDlg.obj
 0001:00015ce0       ?not_eof@?$char_traits@D@std@@SAHABH@Z 67d96ce0 f i ImageFilterEditorDlg.obj
 0001:00015d00       ?overflow@?$basic_stringbuf@DU?$char_traits@D@std@@V?$allocator@D@2@@std@@MAEHH@Z 67d96d00 f i ImageFilterEditorDlg.obj
 0001:00015f10       ?pbackfail@?$basic_stringbuf@DU?$char_traits@D@std@@V?$allocator@D@2@@std@@MAEHH@Z 67d96f10 f i ImageFilterEditorDlg.obj
 0001:00015f90       ??_E?$basic_stringbuf@DU?$char_traits@D@std@@V?$allocator@D@2@@std@@UAEPAXI@Z 67d96f90 f i ImageFilterEditorDlg.obj
 0001:00015f90       ??_G?$basic_stringbuf@DU?$char_traits@D@std@@V?$allocator@D@2@@std@@UAEPAXI@Z 67d96f90 f i ImageFilterEditorDlg.obj
 0001:00016000       ?_Init@?$basic_stringbuf@DU?$char_traits@D@std@@V?$allocator@D@2@@std@@IAEXPBDIH@Z 67d97000 f i ImageFilterEditorDlg.obj
 0001:000160b0       ?_Tidy@?$basic_string@DU?$char_traits@D@std@@V?$allocator@D@2@@std@@QAEX_NI@Z 67d970b0 f i ImageFilterEditorDlg.obj
 0001:00016100       ?_Copy@?$basic_string@DU?$char_traits@D@std@@V?$allocator@D@2@@std@@QAEXII@Z 67d97100 f i ImageFilterEditorDlg.obj
 0001:00016270       ?OnInitDialog@CImageFilterEditorDlg@@MAEHXZ 67d97270 f   ImageFilterEditorDlg.obj
 0001:000163e0       ??1?$basic_istringstream@DU?$char_traits@D@std@@V?$allocator@D@2@@std@@UAE@XZ 67d973e0 f i ImageFilterEditorDlg.obj
 0001:00016460       ??0?$basic_stringbuf@DU?$char_traits@D@std@@V?$allocator@D@2@@std@@QAE@ABV?$basic_string@DU?$char_traits@D@std@@V?$allocator@D@2@@1@H@Z 67d97460 f i ImageFilterEditorDlg.obj
 0001:000164f0       ??1?$basic_string@DU?$char_traits@D@std@@V?$allocator@D@2@@std@@QAE@XZ 67d974f0 f i ImageFilterEditorDlg.obj
 0001:00016520       ?_Grow@?$basic_string@DU?$char_traits@D@std@@V?$allocator@D@2@@std@@QAE_NI_N@Z 67d97520 f i ImageFilterEditorDlg.obj
 0001:000165d0       ??_D?$basic_istringstream@DU?$char_traits@D@std@@V?$allocator@D@2@@std@@QAEXXZ 67d975d0 f i ImageFilterEditorDlg.obj
 0001:00016660       ??0?$basic_istringstream@DU?$char_traits@D@std@@V?$allocator@D@2@@std@@QAE@ABV?$basic_string@DU?$char_traits@D@std@@V?$allocator@D@2@@1@H@Z 67d97660 f i ImageFilterEditorDlg.obj
 0001:00016740       ??_E?$basic_istringstream@DU?$char_traits@D@std@@V?$allocator@D@2@@std@@UAEPAXI@Z 67d97740 f i ImageFilterEditorDlg.obj
 0001:00016740       ??_G?$basic_istringstream@DU?$char_traits@D@std@@V?$allocator@D@2@@std@@UAEPAXI@Z 67d97740 f i ImageFilterEditorDlg.obj
 0001:00016770       ?assign@?$basic_string@DU?$char_traits@D@std@@V?$allocator@D@2@@std@@QAEAAV12@ABV12@II@Z 67d97770 f i ImageFilterEditorDlg.obj
 0001:00016860       ?assign@?$basic_string@DU?$char_traits@D@std@@V?$allocator@D@2@@std@@QAEAAV12@PBDI@Z 67d97860 f i ImageFilterEditorDlg.obj
 0001:00016960       ?assign@?$basic_string@DU?$char_traits@D@std@@V?$allocator@D@2@@std@@QAEAAV12@PBD@Z 67d97960 f i ImageFilterEditorDlg.obj
 0001:00016990       ??0?$basic_string@DU?$char_traits@D@std@@V?$allocator@D@2@@std@@QAE@PBD@Z 67d97990 f i ImageFilterEditorDlg.obj
 0001:000169d0       ?ConvertToDecimal@CImageFilterEditorDlg@@KA_NV?$CStringT@DV?$StrTraitMFC_DLL@DV?$ChTraitsCRT@D@ATL@@@@@ATL@@AAN@Z 67d979d0 f   ImageFilterEditorDlg.obj
 0001:00016be0       ?WriteCoefficientsToBuffer@CImageFilterEditorDlg@@IAE_NAAVSapBuffer@@@Z 67d97be0 f   ImageFilterEditorDlg.obj
 0001:00016f00       ?OnBnClickedBtnExport@CImageFilterEditorDlg@@IAEXXZ 67d97f00 f   ImageFilterEditorDlg.obj
 0001:00017140       ?WriteCoefficients@CImageFilterEditorDlg@@IAE_NXZ 67d98140 f   ImageFilterEditorDlg.obj
 0001:00017300       ?GetThisMessageMap@CImageFilterEditorDlg@@KGPBUAFX_MSGMAP@@XZ 67d98300 f   ImageFilterEditorDlg.obj
 0001:00017310       ?OnOK@CImageFilterEditorDlg@@MAEXXZ 67d98310 f   ImageFilterEditorDlg.obj
 0001:00017350       ?GetMessageMap@CImageFilterEditorDlg@@MBEPBUAFX_MSGMAP@@XZ 67d98350 f   ImageFilterEditorDlg.obj
 0001:00017360       ?_GetBaseClass@CImageViewportWnd@@KGPAUCRuntimeClass@@XZ 67d98360 f   ImageViewportWnd.obj
 0001:00017370       ?GetThisClass@CImageViewportWnd@@SGPAUCRuntimeClass@@XZ 67d98370 f   ImageViewportWnd.obj
 0001:00017380       ?GetRuntimeClass@CImageViewportWnd@@UBEPAUCRuntimeClass@@XZ 67d98380 f   ImageViewportWnd.obj
 0001:00017390       ??_H@YGXPAXIHP6EPAX0@Z@Z   67d98390 f i ImageViewportWnd.obj
 0001:000173c0       ?AttachEventHandler@CImageViewportWnd@@QAEXPAVCImageViewportWndEventHandler@@@Z 67d983c0 f   ImageViewportWnd.obj
 0001:000173d0       ?IsImageCentered@CImageViewportWnd@@QBE_NXZ 67d983d0 f   ImageViewportWnd.obj
 0001:000173e0       ?OnEraseBkgnd@CImageViewportWnd@@IAEHPAVCDC@@@Z 67d983e0 f   ImageViewportWnd.obj
 0001:000173f0       ?NotifyPixelChanged@CImageViewportWnd@@AAEXHH@Z 67d983f0 f   ImageViewportWnd.obj
 0001:00017410       ?NotifyScaleChanged@CImageViewportWnd@@AAEXXZ 67d98410 f   ImageViewportWnd.obj
 0001:00017430       ?NotifyRoiChanged@CImageViewportWnd@@AAEXXZ 67d98430 f   ImageViewportWnd.obj
 0001:00017450       ?NotifyViewChanged@CImageViewportWnd@@AAEXXZ 67d98450 f   ImageViewportWnd.obj
 0001:00017470       ?SupportROI@CImageViewportWnd@@QAEX_N@Z 67d98470 f   ImageViewportWnd.obj
 0001:00017480       ?IsRoiSupported@CImageViewportWnd@@QBE_NXZ 67d98480 f   ImageViewportWnd.obj
 0001:00017490       ?IsRoiActive@CImageViewportWnd@@QBE_NXZ 67d98490 f   ImageViewportWnd.obj
 0001:000174b0       ?GetROI@CImageViewportWnd@@QBEXAAVCRect@@@Z 67d984b0 f   ImageViewportWnd.obj
 0001:000174e0       ?SetPixelStringFormatDecimal@CImageViewportWnd@@QAEX_N@Z 67d984e0 f   ImageViewportWnd.obj
 0001:000174f0       ?IsPixelStringFormatDecimal@CImageViewportWnd@@QBE_NXZ 67d984f0 f   ImageViewportWnd.obj
 0001:00017500       ??0CSize@@QAE@HH@Z         67d98500 f i ImageViewportWnd.obj
 0001:00017520       ??0CPoint@@QAE@HH@Z        67d98520 f i ImageViewportWnd.obj
 0001:00017540       ??0CPoint@@QAE@UtagSIZE@@@Z 67d98540 f i ImageViewportWnd.obj
 0001:00017560       ?Offset@CPoint@@QAEXHH@Z   67d98560 f i ImageViewportWnd.obj
 0001:00017580       ??HCPoint@@QBE?AV0@UtagPOINT@@@Z 67d98580 f i ImageViewportWnd.obj
 0001:000175a0       ??GCPoint@@QBE?AVCSize@@UtagPOINT@@@Z 67d985a0 f i ImageViewportWnd.obj
 0001:000175c0       ?TopLeft@CRect@@QAEAAVCPoint@@XZ 67d985c0 f i ImageViewportWnd.obj
 0001:000175d0       ?BottomRight@CRect@@QAEAAVCPoint@@XZ 67d985d0 f i ImageViewportWnd.obj
 0001:000175e0       ?TopLeft@CRect@@QBEABVCPoint@@XZ 67d985e0 f i ImageViewportWnd.obj
 0001:000175f0       ?BottomRight@CRect@@QBEABVCPoint@@XZ 67d985f0 f i ImageViewportWnd.obj
 0001:00017600       ?PtInRect@CRect@@QBEHUtagPOINT@@@Z 67d98600 f i ImageViewportWnd.obj
 0001:00017620       ?SetRect@CRect@@QAEXHHHH@Z 67d98620 f i ImageViewportWnd.obj
 0001:00017640       ?SetRect@CRect@@QAEXUtagPOINT@@0@Z 67d98640 f i ImageViewportWnd.obj
 0001:00017660       ?OffsetRect@CRect@@QAEXUtagPOINT@@@Z 67d98660 f i ImageViewportWnd.obj
 0001:00017680       ?MoveToY@CRect@@QAEXH@Z    67d98680 f i ImageViewportWnd.obj
 0001:000176a0       ?MoveToX@CRect@@QAEXH@Z    67d986a0 f i ImageViewportWnd.obj
 0001:000176c0       ?MoveToXY@CRect@@QAEXHH@Z  67d986c0 f i ImageViewportWnd.obj
 0001:000176f0       ??YCRect@@QAEXUtagPOINT@@@Z 67d986f0 f i ImageViewportWnd.obj
 0001:00017710       ?NormalizeRect@CRect@@QAEXXZ 67d98710 f i ImageViewportWnd.obj
 0001:00017730       ?CreateStockObject@CGdiObject@@QAEHH@Z 67d98730 f i ImageViewportWnd.obj
 0001:00017760       ?ScreenToClient@CWnd@@QBEXPAUtagPOINT@@@Z 67d98760 f i ImageViewportWnd.obj
 0001:00017780       ?OnSetCursor@CWnd@@IAEHPAV1@II@Z 67d98780 f i ImageViewportWnd.obj
 0001:00017790       ?OnSysKeyDown@CWnd@@IAEXIII@Z 67d98790 f i ImageViewportWnd.obj
 0001:000177a0       ?OnKeyDown@CWnd@@IAEXIII@Z 67d987a0 f i ImageViewportWnd.obj
 0001:000177b0       ?OnKeyUp@CWnd@@IAEXIII@Z   67d987b0 f i ImageViewportWnd.obj
 0001:000177c0       ?OnLButtonDblClk@CWnd@@IAEXIVCPoint@@@Z 67d987c0 f i ImageViewportWnd.obj
 0001:000177d0       ?OnLButtonUp@CWnd@@IAEXIVCPoint@@@Z 67d987d0 f i ImageViewportWnd.obj
 0001:000177e0       ?OnMouseWheel@CWnd@@IAEHIFVCPoint@@@Z 67d987e0 f i ImageViewportWnd.obj
 0001:000177f0       ?LoadStandardCursor@CWinApp@@QBEPAUHICON__@@PBD@Z 67d987f0 f i ImageViewportWnd.obj
 0001:00017810       ??0SImageViewportROI@@QAE@XZ 67d98810 f i ImageViewportWnd.obj
 0001:000178d0       ??1SImageViewportROI@@QAE@XZ 67d988d0 f i ImageViewportWnd.obj
 0001:00017970       ??1CImageViewportWnd@@UAE@XZ 67d98970 f   ImageViewportWnd.obj
 0001:00017a30       ?PreSubclassWindow@CImageViewportWnd@@MAEXXZ 67d98a30 f   ImageViewportWnd.obj
 0001:00017ad0       ?OnKeyUp@CImageViewportWnd@@IAEXIII@Z 67d98ad0 f   ImageViewportWnd.obj
 0001:00017b00       ?OnMouseLeave@CImageViewportWnd@@IAEJIJ@Z 67d98b00 f   ImageViewportWnd.obj
 0001:00017b30       ?TranslatePointToNativeView@CImageViewportWnd@@ABE?AVCPoint@@V2@@Z 67d98b30 f   ImageViewportWnd.obj
 0001:00017ca0       ?TranslatePointToDestinationView@CImageViewportWnd@@ABE?AVCPoint@@V2@@Z 67d98ca0 f   ImageViewportWnd.obj
 0001:00017da0       ?GetDstRectFromCurrentScalingOptions@CImageViewportWnd@@ABE?AVCRect@@XZ 67d98da0 f   ImageViewportWnd.obj
 0001:00017e80       ?GetROI@CImageViewportWnd@@QBEXAAI000@Z 67d98e80 f   ImageViewportWnd.obj
 0001:00017ec0       ?GetROI@CImageViewportWnd@@QBEXAAVCPoint@@0@Z 67d98ec0 f   ImageViewportWnd.obj
 0001:00017ef0       ?ValidateRoi@CImageViewportWnd@@AAEXXZ 67d98ef0 f   ImageViewportWnd.obj
 0001:00017fe0       ?MoveMouseCursor@CImageViewportWnd@@ABEXHH@Z 67d98fe0 f   ImageViewportWnd.obj
 0001:00018070       ?GetPixelString@CImageViewportWnd@@QBE?AV?$CStringT@DV?$StrTraitMFC_DLL@DV?$ChTraitsCRT@D@ATL@@@@@ATL@@VCPoint@@@Z 67d99070 f   ImageViewportWnd.obj
 0001:00018110       ??_GCImageViewportWnd@@UAEPAXI@Z 67d99110 f i ImageViewportWnd.obj
 0001:00018140       ??_ECImageViewportWnd@@UAEPAXI@Z 67d99140 f i ImageViewportWnd.obj
 0001:000181a0       ?PaintROI@CImageViewportWnd@@AAEXXZ 67d991a0 f   ImageViewportWnd.obj
 0001:00018540       ?OnLButtonDown@CImageViewportWnd@@IAEXIVCPoint@@@Z 67d99540 f   ImageViewportWnd.obj
 0001:00018670       ?OnLButtonUp@CImageViewportWnd@@IAEXIVCPoint@@@Z 67d99670 f   ImageViewportWnd.obj
 0001:000186e0       ?OnSysKeyDown@CImageViewportWnd@@IAEXIII@Z 67d996e0 f   ImageViewportWnd.obj
 0001:00018770       ?OnSetCursor@CImageViewportWnd@@IAEHPAVCWnd@@II@Z 67d99770 f   ImageViewportWnd.obj
 0001:000188f0       ?UpdateScales@CImageViewportWnd@@AAEXMM@Z 67d998f0 f   ImageViewportWnd.obj
 0001:00018db0       ?MoveInView@CImageViewportWnd@@AAEXVCPoint@@@Z 67d99db0 f   ImageViewportWnd.obj
 0001:00018fe0       ?MoveRoi@CImageViewportWnd@@AAEXVCPoint@@@Z 67d99fe0 f   ImageViewportWnd.obj
 0001:00019090       ?MoveRoiAnchor@CImageViewportWnd@@AAEXVCPoint@@@Z 67d9a090 f   ImageViewportWnd.obj
 0001:00019190       ?ChangeZoom@CImageViewportWnd@@AAEX_N0VCPoint@@00@Z 67d9a190 f   ImageViewportWnd.obj
 0001:00019290       ?ActivateROI@CImageViewportWnd@@QAEX_N@Z 67d9a290 f   ImageViewportWnd.obj
 0001:000192d0       ?SetROI@CImageViewportWnd@@QAEXHHII@Z 67d9a2d0 f   ImageViewportWnd.obj
 0001:00019340       ?SetROI@CImageViewportWnd@@QAEXVCPoint@@0@Z 67d9a340 f   ImageViewportWnd.obj
 0001:00019370       ?SetROI@CImageViewportWnd@@QAEXVCRect@@@Z 67d9a370 f   ImageViewportWnd.obj
 0001:00019390       ?Refresh@CImageViewportWnd@@QAEXXZ 67d9a390 f   ImageViewportWnd.obj
 0001:00019410       ?Reset@CImageViewportWnd@@QAEXXZ 67d9a410 f   ImageViewportWnd.obj
 0001:000194b0       ??0CImageViewportWnd@@QAE@XZ 67d9a4b0 f   ImageViewportWnd.obj
 0001:000195d0       ?ViewCallback@CImageViewportWnd@@CAXPAVSapViewCallbackInfo@@@Z 67d9a5d0 f   ImageViewportWnd.obj
 0001:000195f0       ?CenterImage@CImageViewportWnd@@QAEX_N@Z 67d9a5f0 f   ImageViewportWnd.obj
 0001:00019620       ?OnPaint@CImageViewportWnd@@IAEXXZ 67d9a620 f   ImageViewportWnd.obj
 0001:000197e0       ?PreTranslateMessage@CImageViewportWnd@@MAEHPAUtagMSG@@@Z 67d9a7e0 f   ImageViewportWnd.obj
 0001:00019810       ?OnSize@CImageViewportWnd@@IAEXIHH@Z 67d9a810 f   ImageViewportWnd.obj
 0001:00019850       ?OnLButtonDblClk@CImageViewportWnd@@IAEXIVCPoint@@@Z 67d9a850 f   ImageViewportWnd.obj
 0001:000199c0       ?OnKeyDown@CImageViewportWnd@@IAEXIII@Z 67d9a9c0 f   ImageViewportWnd.obj
 0001:00019b40       ?OnMouseMove@CImageViewportWnd@@IAEXIVCPoint@@@Z 67d9ab40 f   ImageViewportWnd.obj
 0001:00019c40       ?OnMouseWheel@CImageViewportWnd@@IAEHIFVCPoint@@@Z 67d9ac40 f   ImageViewportWnd.obj
 0001:00019d00       ?AttachSapView@CImageViewportWnd@@QAE_NPAVSapView@@@Z 67d9ad00 f   ImageViewportWnd.obj
 0001:00019d40       ?GetThisMessageMap@CImageViewportWnd@@KGPBUAFX_MSGMAP@@XZ 67d9ad40 f   ImageViewportWnd.obj
 0001:00019d50       ?GetMessageMap@CImageViewportWnd@@MBEPBUAFX_MSGMAP@@XZ 67d9ad50 f   ImageViewportWnd.obj
 0001:00019d60       ?OnMove@CImageWnd@@QAEXXZ  67d9ad60 f   ImageWnd.obj
 0001:00019d90       ?OnPaint@CImageWnd@@QAEXXZ 67d9ad90 f   ImageWnd.obj
 0001:00019dc0       ?GetSelectedRoi@CImageWnd@@QAE?AVCRect@@XZ 67d9adc0 f   ImageWnd.obj
 0001:00019df0       ?SetPixelStringFormatDecimal@CImageWnd@@QAEXH@Z 67d9adf0 f   ImageWnd.obj
 0001:00019e00       ?GetPixelString@CImageWnd@@SA?AV?$CStringT@DV?$StrTraitMFC_DLL@DV?$ChTraitsCRT@D@ATL@@@@@ATL@@PAVSapBuffer@@VCPoint@@HH@Z 67d9ae00 f   ImageWnd.obj
 0001:0001a660       ?AdjustRect@CSapRectTracker@@UAEXHPAUtagRECT@@@Z 67d9b660 f   ImageWnd.obj
 0001:0001a6c0       ?SetLimitRect@CSapRectTracker@@QAEXPAVCRect@@@Z 67d9b6c0 f   ImageWnd.obj
 0001:0001a6f0       ??0CSize@@QAE@XZ           67d9b6f0 f i ImageWnd.obj
 0001:0001a700       ?GetBkColor@CDC@@QBEKXZ    67d9b700 f i ImageWnd.obj
 0001:0001a710       ?InvalidateRect@CWnd@@QAEXPBUtagRECT@@H@Z 67d9b710 f i ImageWnd.obj
 0001:0001a730       ?ShowScrollBar@CScrollBar@@QAEXH@Z 67d9b730 f i ImageWnd.obj
 0001:0001a750       ??0CRectTracker@@QAE@XZ    67d9b750 f i ImageWnd.obj
 0001:0001a790       ??_ECRectTracker@@UAEPAXI@Z 67d9b790 f i ImageWnd.obj
 0001:0001a790       ??_GCRectTracker@@UAEPAXI@Z 67d9b790 f i ImageWnd.obj
 0001:0001a7c0       ??1CSapRectTracker@@UAE@XZ 67d9b7c0 f i ImageWnd.obj
 0001:0001a7d0       ??0CSapRectTracker@@QAE@XZ 67d9b7d0 f i ImageWnd.obj
 0001:0001a820       ??_GCSapRectTracker@@UAEPAXI@Z 67d9b820 f i ImageWnd.obj
 0001:0001a820       ??_ECSapRectTracker@@UAEPAXI@Z 67d9b820 f i ImageWnd.obj
 0001:0001a850       ??1CImageWnd@@UAE@XZ       67d9b850 f   ImageWnd.obj
 0001:0001a860       ?GetScrollInfo@CImageWnd@@IAEHHPAUtagSCROLLINFO@@@Z 67d9b860 f   ImageWnd.obj
 0001:0001a8e0       ?SetScrollInfo@CImageWnd@@IAEHHPAUtagSCROLLINFO@@H@Z 67d9b8e0 f   ImageWnd.obj
 0001:0001a950       ?IsPointInside@CImageWnd@@QAEHVCPoint@@@Z 67d9b950 f   ImageWnd.obj
 0001:0001a970       ?UpdateClientArea@CImageWnd@@QAEXK@Z 67d9b970 f   ImageWnd.obj
 0001:0001aa80       ?UpdateClientArea@CImageWnd@@QAEXXZ 67d9ba80 f   ImageWnd.obj
 0001:0001aad0       ?Invalidate@CImageWnd@@QAEXH@Z 67d9bad0 f   ImageWnd.obj
 0001:0001aaf0       ?HideRoiTracker@CImageWnd@@QAEXXZ 67d9baf0 f   ImageWnd.obj
 0001:0001ab30       ?ValidateRoi@CImageWnd@@IAE?AVCRect@@V2@@Z 67d9bb30 f   ImageWnd.obj
 0001:0001abe0       ?OnSetCursor@CImageWnd@@QAEHI@Z 67d9bbe0 f   ImageWnd.obj
 0001:0001acb0       ??_ECImageWnd@@UAEPAXI@Z   67d9bcb0 f i ImageWnd.obj
 0001:0001ad10       ?GetScrollPos@CImageWnd@@IAEHH@Z 67d9bd10 f   ImageWnd.obj
 0001:0001ad70       ?GetScrollRange@CImageWnd@@IAEXHPAH0@Z 67d9bd70 f   ImageWnd.obj
 0001:0001ade0       ?SetScrollPos@CImageWnd@@IAEHHHH@Z 67d9bde0 f   ImageWnd.obj
 0001:0001ae60       ?TranslatePos@CImageWnd@@QAE?AVCPoint@@V2@@Z 67d9be60 f   ImageWnd.obj
 0001:0001afa0       ?UntranslatePos@CImageWnd@@QAE?AVCPoint@@V2@@Z 67d9bfa0 f   ImageWnd.obj
 0001:0001b0b0       ?DisplayRoiTracker@CImageWnd@@QAEXXZ 67d9c0b0 f   ImageWnd.obj
 0001:0001b1c0       ?UpdateRectTracker@CImageWnd@@IAEXXZ 67d9c1c0 f   ImageWnd.obj
 0001:0001b220       ?SelectRoi@CImageWnd@@QAEXVCRect@@@Z 67d9c220 f   ImageWnd.obj
 0001:0001b290       ?OnLButtonDown@CImageWnd@@QAEHVCPoint@@@Z 67d9c290 f   ImageWnd.obj
 0001:0001b390       ?TranslateMousePos@CImageWnd@@QAE?AVCPoint@@V2@@Z 67d9c390 f   ImageWnd.obj
 0001:0001b3e0       ?UpdateScrollBars@CImageWnd@@IAEXXZ 67d9c3e0 f   ImageWnd.obj
 0001:0001b620       ?OnHScroll@CImageWnd@@QAEXII@Z 67d9c620 f   ImageWnd.obj
 0001:0001b700       ?OnVScroll@CImageWnd@@QAEXII@Z 67d9c700 f   ImageWnd.obj
 0001:0001b7e0       ?GetPixelString@CImageWnd@@QAE?AV?$CStringT@DV?$StrTraitMFC_DLL@DV?$ChTraitsCRT@D@ATL@@@@@ATL@@VCPoint@@@Z 67d9c7e0 f   ImageWnd.obj
 0001:0001b8b0       ?OnSize@CImageWnd@@QAEXH@Z 67d9c8b0 f   ImageWnd.obj
 0001:0001bbb0       ??0CImageWnd@@QAE@PAVSapView@@PAVCWnd@@PAVCScrollBar@@21@Z 67d9cbb0 f   ImageWnd.obj
 0001:0001bce0       ??0CImageWnd@@QAE@PAVSapView@@PAVCWnd@@@Z 67d9cce0 f   ImageWnd.obj
 0001:0001bde0       ?OnFinalRelease@CJpegFileDlg@@UAEXXZ 67d9cde0 f   JpegFileDlg.obj
 0001:0001bdf0       ?GetThisDispatchMap@CJpegFileDlg@@KGPBUAFX_DISPMAP@@XZ 67d9cdf0 f   JpegFileDlg.obj
 0001:0001be00       ?GetDispatchMap@CJpegFileDlg@@MBEPBUAFX_DISPMAP@@XZ 67d9ce00 f   JpegFileDlg.obj
 0001:0001be10       ?GetThisInterfaceMap@CJpegFileDlg@@KGPBUAFX_INTERFACEMAP@@XZ 67d9ce10 f   JpegFileDlg.obj
 0001:0001be20       ?GetInterfaceMap@CJpegFileDlg@@MBEPBUAFX_INTERFACEMAP@@XZ 67d9ce20 f   JpegFileDlg.obj
 0001:0001be30       ?OnVScroll@CJpegFileDlg@@IAEXIIPAVCScrollBar@@@Z 67d9ce30 f   JpegFileDlg.obj
 0001:0001bee0       ?OnOK@CJpegFileDlg@@MAEXXZ 67d9cee0 f   JpegFileDlg.obj
 0001:0001bf10       ?OnUpdateJpgEditQuality@CJpegFileDlg@@IAEXXZ 67d9cf10 f   JpegFileDlg.obj
 0001:0001bf20       ??0CJpegFileDlg@@QAE@PAVCWnd@@H@Z 67d9cf20 f   JpegFileDlg.obj
 0001:0001bfb0       ??1CJpegFileDlg@@UAE@XZ    67d9cfb0 f i JpegFileDlg.obj
 0001:0001bfc0       ??_GCJpegFileDlg@@UAEPAXI@Z 67d9cfc0 f i JpegFileDlg.obj
 0001:0001bfc0       ??_ECJpegFileDlg@@UAEPAXI@Z 67d9cfc0 f i JpegFileDlg.obj
 0001:0001bff0       ?DoDataExchange@CJpegFileDlg@@MAEXPAVCDataExchange@@@Z 67d9cff0 f   JpegFileDlg.obj
 0001:0001c020       ?GetThisMessageMap@CJpegFileDlg@@KGPBUAFX_MSGMAP@@XZ 67d9d020 f   JpegFileDlg.obj
 0001:0001c030       ?GetMessageMap@CJpegFileDlg@@MBEPBUAFX_MSGMAP@@XZ 67d9d030 f   JpegFileDlg.obj
 0001:0001c040       ?GetRawFileWidth@CRawFileDlg@@QAEHXZ 67d9d040 f i LoadSaveDlg.obj
 0001:0001c050       ?GetRawFileHeight@CRawFileDlg@@QAEHXZ 67d9d050 f i LoadSaveDlg.obj
 0001:0001c060       ?GetRawFileOffset@CRawFileDlg@@QAEHXZ 67d9d060 f i LoadSaveDlg.obj
 0001:0001c070       ?GetRawFileFormat@CRawFileDlg@@QAEHXZ 67d9d070 f i LoadSaveDlg.obj
 0001:0001c080       ?GetJpegFileQuality@CJpegFileDlg@@QAEHXZ 67d9d080 f i LoadSaveDlg.obj
 0001:0001c090       ?GetFirstFrame@CAviFileDlg@@QAEHXZ 67d9d090 f i LoadSaveDlg.obj
 0001:0001c0a0       ?GetCompressionLevel@CTiffFileDlg@@QAEHXZ 67d9d0a0 f i LoadSaveDlg.obj
 0001:0001c0b0       ?GetCompressionType@CTiffFileDlg@@QAEHXZ 67d9d0b0 f i LoadSaveDlg.obj
 0001:0001c0c0       ?_GetBaseClass@CLoadSaveDlg@@KGPAUCRuntimeClass@@XZ 67d9d0c0 f   LoadSaveDlg.obj
 0001:0001c0d0       ?GetThisClass@CLoadSaveDlg@@SGPAUCRuntimeClass@@XZ 67d9d0d0 f   LoadSaveDlg.obj
 0001:0001c0e0       ?GetRuntimeClass@CLoadSaveDlg@@UBEPAUCRuntimeClass@@XZ 67d9d0e0 f   LoadSaveDlg.obj
 0001:0001c0f0       ?SaveSettings@CLoadSaveDlg@@IAEXXZ 67d9d0f0 f   LoadSaveDlg.obj
 0001:0001c1a0       ??1CTiffFileDlg@@UAE@XZ    67d9d1a0 f i LoadSaveDlg.obj
 0001:0001c1b0       ??1CRawFileDlg@@UAE@XZ     67d9d1b0 f i LoadSaveDlg.obj
 0001:0001c210       ?SetFilterIndex@CLoadSaveDlg@@IAEXXZ 67d9d210 f   LoadSaveDlg.obj
 0001:0001c270       ?GetThisMessageMap@CLoadSaveDlg@@KGPBUAFX_MSGMAP@@XZ 67d9d270 f   LoadSaveDlg.obj
 0001:0001c280       ?GetForegroundWindow@CWnd@@SGPAV1@XZ 67d9d280 f i LoadSaveDlg.obj
 0001:0001c300       ??_GCLoadSaveDlg@@UAEPAXI@Z 67d9d300 f i LoadSaveDlg.obj
 0001:0001c330       ??_ECLoadSaveDlg@@UAEPAXI@Z 67d9d330 f i LoadSaveDlg.obj
 0001:0001c3a0       ?AddTiffOptions@CLoadSaveDlg@@IAEHXZ 67d9d3a0 f   LoadSaveDlg.obj
 0001:0001c4d0       ?AddRawOptions@CLoadSaveDlg@@IAEHXZ 67d9d4d0 f   LoadSaveDlg.obj
 0001:0001c670       ?AddJpegOptions@CLoadSaveDlg@@IAEHXZ 67d9d670 f   LoadSaveDlg.obj
 0001:0001c750       ?AddAviOptions@CLoadSaveDlg@@IAEHXZ 67d9d750 f   LoadSaveDlg.obj
 0001:0001c800       ?OnTypeChange@CLoadSaveDlg@@MAEXXZ 67d9d800 f   LoadSaveDlg.obj
 0001:0001c8a0       ?GetMessageMap@CLoadSaveDlg@@MBEPBUAFX_MSGMAP@@XZ 67d9d8a0 f   LoadSaveDlg.obj
 0001:0001c8b0       ?LoadSettings@CLoadSaveDlg@@IAEXXZ 67d9d8b0 f   LoadSaveDlg.obj
 0001:0001c980       ?SetOptions@CLoadSaveDlg@@IAEHXZ 67d9d980 f   LoadSaveDlg.obj
 0001:0001ca90       ??0CLoadSaveDlg@@QAE@PAVCWnd@@PAVSapBuffer@@HH@Z 67d9da90 f   LoadSaveDlg.obj
 0001:0001cb70       ?UpdateBuffer@CLoadSaveDlg@@IAEHXZ 67d9db70 f   LoadSaveDlg.obj
 0001:0001ce50       ?DoModal@CLoadSaveDlg@@UAEHXZ 67d9de50 f   LoadSaveDlg.obj
 0001:0001ced0       ?UpdateWindow@CLScanDlg@@IAEXXZ 67d9ded0 f   LScanDlg.obj
 0001:0001d180       ?OnLineIntegrate@CLScanDlg@@IAEXXZ 67d9e180 f   LScanDlg.obj
 0001:0001d200       ??1CLScanDlg@@UAE@XZ       67d9e200 f i LScanDlg.obj
 0001:0001d280       ??_GCLScanDlg@@UAEPAXI@Z   67d9e280 f i LScanDlg.obj
 0001:0001d310       ??_ECLScanDlg@@UAEPAXI@Z   67d9e310 f i LScanDlg.obj
 0001:0001d3f0       ??0CLScanDlg@@QAE@PAVCWnd@@PAVSapAcquisition@@@Z 67d9e3f0 f   LScanDlg.obj
 0001:0001d4e0       ?DoDataExchange@CLScanDlg@@MAEXPAVCDataExchange@@@Z 67d9e4e0 f   LScanDlg.obj
 0001:0001d5b0       ?OnInitDialog@CLScanDlg@@MAEHXZ 67d9e5b0 f   LScanDlg.obj
 0001:0001de70       ?OnExternalFrameTriggerEnable@CLScanDlg@@IAEXXZ 67d9ee70 f   LScanDlg.obj
 0001:0001df00       ?OnExternalLineTriggerEnable@CLScanDlg@@IAEXXZ 67d9ef00 f   LScanDlg.obj
 0001:0001dfb0       ?OnInternalLineTriggerEnable@CLScanDlg@@IAEXXZ 67d9efb0 f   LScanDlg.obj
 0001:0001e020       ?OnLineIntegrateEnable@CLScanDlg@@IAEXXZ 67d9f020 f   LScanDlg.obj
 0001:0001e070       ?OnShaftEncoderEnable@CLScanDlg@@IAEXXZ 67d9f070 f   LScanDlg.obj
 0001:0001e0d0       ??_ECLScanDlg@@WJE@AEPAXI@Z 67d9f0d0 f i LScanDlg.obj
 0001:0001e0e0       ?VerifyLineIntegrateDuration@CLScanDlg@@IAEXXZ 67d9f0e0 f   LScanDlg.obj
 0001:0001e1d0       ?OnOK@CLScanDlg@@MAEXXZ    67d9f1d0 f   LScanDlg.obj
 0001:0001e680       ?OnKillfocusEditLineIntegration@CLScanDlg@@IAEXXZ 67d9f680 f   LScanDlg.obj
 0001:0001e6a0       ?OnVScroll@CLScanDlg@@IAEXIIPAVCScrollBar@@@Z 67d9f6a0 f   LScanDlg.obj
 0001:0001e790       ?GetThisMessageMap@CLScanDlg@@KGPBUAFX_MSGMAP@@XZ 67d9f790 f   LScanDlg.obj
 0001:0001e7a0       ?GetMessageMap@CLScanDlg@@MBEPBUAFX_MSGMAP@@XZ 67d9f7a0 f   LScanDlg.obj
 0001:0001e7b0       ??0CPixProAbsSubDlg@@QAE@PAVCWnd@@PAUCORPPL_FCT_PROP@@PAVSapPixProParams@@@Z 67d9f7b0 f   PixProAbsSubDlg.obj
 0001:0001e820       ??1CPixProAbsSubDlg@@UAE@XZ 67d9f820 f i PixProAbsSubDlg.obj
 0001:0001e830       ?OnPixproSdramBank0@CPixProAbsSubDlg@@IAEXXZ 67d9f830 f   PixProAbsSubDlg.obj
 0001:0001e840       ?OnPixproSdramBank1@CPixProAbsSubDlg@@IAEXXZ 67d9f840 f   PixProAbsSubDlg.obj
 0001:0001e850       ?OnPixproAbsSub@CPixProAbsSubDlg@@IAEXXZ 67d9f850 f   PixProAbsSubDlg.obj
 0001:0001e860       ?OnPixproRefImage@CPixProAbsSubDlg@@IAEXXZ 67d9f860 f   PixProAbsSubDlg.obj
 0001:0001e870       ?OnOK@CPixProAbsSubDlg@@MAEXXZ 67d9f870 f   PixProAbsSubDlg.obj
 0001:0001e8a0       ??_GCPixProAbsSubDlg@@UAEPAXI@Z 67d9f8a0 f i PixProAbsSubDlg.obj
 0001:0001e8a0       ??_ECPixProAbsSubDlg@@UAEPAXI@Z 67d9f8a0 f i PixProAbsSubDlg.obj
 0001:0001e8d0       ?DoDataExchange@CPixProAbsSubDlg@@MAEXPAVCDataExchange@@@Z 67d9f8d0 f   PixProAbsSubDlg.obj
 0001:0001e8e0       ?GetThisMessageMap@CPixProAbsSubDlg@@KGPBUAFX_MSGMAP@@XZ 67d9f8e0 f   PixProAbsSubDlg.obj
 0001:0001e8f0       ?OnInitDialog@CPixProAbsSubDlg@@MAEHXZ 67d9f8f0 f   PixProAbsSubDlg.obj
 0001:0001e9a0       ?GetMessageMap@CPixProAbsSubDlg@@MBEPBUAFX_MSGMAP@@XZ 67d9f9a0 f   PixProAbsSubDlg.obj
 0001:0001e9b0       ?LoadSettings@CPixProDlg@@IAEXXZ 67d9f9b0 f   PixProDlg.obj
 0001:0001eaf0       ?SaveSettings@CPixProDlg@@IAEXXZ 67d9faf0 f   PixProDlg.obj
 0001:0001ebf0       ??1CPixProRefImageDlg@@UAE@XZ 67d9fbf0 f i PixProDlg.obj
 0001:0001ec00       ??1CPixProUflowSubDlg@@UAE@XZ 67d9fc00 f i PixProDlg.obj
 0001:0001ec10       ??1CPixProWAvgDlg@@UAE@XZ  67d9fc10 f i PixProDlg.obj
 0001:0001ec70       ??1CPixProIntScaleDlg@@UAE@XZ 67d9fc70 f i PixProDlg.obj
 0001:0001ecd0       ?UpdateBoxAvailability@CPixProDlg@@IAEXXZ 67d9fcd0 f   PixProDlg.obj
 0001:0001ed50       ?OnSelchangeFunction@CPixProDlg@@IAEXXZ 67d9fd50 f   PixProDlg.obj
 0001:0001eed0       ??1CPixProDlg@@UAE@XZ      67d9fed0 f i PixProDlg.obj
 0001:0001ef70       ??_GCPixProDlg@@UAEPAXI@Z  67d9ff70 f i PixProDlg.obj
 0001:0001efa0       ??_ECPixProDlg@@UAEPAXI@Z  67d9ffa0 f i PixProDlg.obj
 0001:0001f000       ??0CPixProDlg@@QAE@PAVCWnd@@PAVSapPixPro@@PAVSapXferNode@@@Z 67da0000 f   PixProDlg.obj
 0001:0001f1e0       ?DoDataExchange@CPixProDlg@@MAEXPAVCDataExchange@@@Z 67da01e0 f   PixProDlg.obj
 0001:0001f260       ?FillFunctionCombo@CPixProDlg@@IAEXXZ 67da0260 f   PixProDlg.obj
 0001:0001f560       ?SetDirectories@CPixProDlg@@IAEXXZ 67da0560 f   PixProDlg.obj
 0001:0001f740       ?OnOK@CPixProDlg@@MAEXXZ   67da0740 f   PixProDlg.obj
 0001:0001fa10       ?UpdateCurrentDir@CPixProDlg@@IAEXPAD@Z 67da0a10 f   PixProDlg.obj
 0001:0001fab0       ?UpdateNames@CPixProDlg@@IAEXXZ 67da0ab0 f   PixProDlg.obj
 0001:0001fd20       ?OnSelchangeCombo@CPixProDlg@@IAEXXZ 67da0d20 f   PixProDlg.obj
 0001:0001fd90       ?OnInitDialog@CPixProDlg@@MAEHXZ 67da0d90 f   PixProDlg.obj
 0001:0001fdc0       ?OnBrowse@CPixProDlg@@IAEXXZ 67da0dc0 f   PixProDlg.obj
 0001:0001fe80       ?OnKillfocusEditPath@CPixProDlg@@IAEXXZ 67da0e80 f   PixProDlg.obj
 0001:0001fed0       ?GetThisMessageMap@CPixProDlg@@KGPBUAFX_MSGMAP@@XZ 67da0ed0 f   PixProDlg.obj
 0001:0001fee0       ?GetMessageMap@CPixProDlg@@MBEPBUAFX_MSGMAP@@XZ 67da0ee0 f   PixProDlg.obj
 0001:0001fef0       ?OnPixproSdramBank0@CPixProIntScaleDlg@@IAEXXZ 67da0ef0 f   PixProIntScaleDlg.obj
 0001:0001ff00       ?OnPixproSdramBank1@CPixProIntScaleDlg@@IAEXXZ 67da0f00 f   PixProIntScaleDlg.obj
 0001:0001ff10       ?OnOK@CPixProIntScaleDlg@@MAEXXZ 67da0f10 f   PixProIntScaleDlg.obj
 0001:0001ff60       ??0CPixProIntScaleDlg@@QAE@PAVCWnd@@PAUCORPPL_FCT_PROP@@PAVSapPixProParams@@@Z 67da0f60 f   PixProIntScaleDlg.obj
 0001:00020020       ??_GCPixProIntScaleDlg@@UAEPAXI@Z 67da1020 f i PixProIntScaleDlg.obj
 0001:00020020       ??_ECPixProIntScaleDlg@@UAEPAXI@Z 67da1020 f i PixProIntScaleDlg.obj
 0001:00020090       ?DoDataExchange@CPixProIntScaleDlg@@MAEXPAVCDataExchange@@@Z 67da1090 f   PixProIntScaleDlg.obj
 0001:000200d0       ?OnSelchangeCount@CPixProIntScaleDlg@@IAEXXZ 67da10d0 f   PixProIntScaleDlg.obj
 0001:00020110       ?GetThisMessageMap@CPixProIntScaleDlg@@KGPBUAFX_MSGMAP@@XZ 67da1110 f   PixProIntScaleDlg.obj
 0001:00020120       ?OnInitDialog@CPixProIntScaleDlg@@MAEHXZ 67da1120 f   PixProIntScaleDlg.obj
 0001:00020220       ?GetMessageMap@CPixProIntScaleDlg@@MBEPBUAFX_MSGMAP@@XZ 67da1220 f   PixProIntScaleDlg.obj
 0001:00020230       ??0CPixProRefImageDlg@@QAE@PAVCWnd@@PAUCORPPL_FCT_PROP@@PAVSapPixProParams@@@Z 67da1230 f   PixProRefImageDlg.obj
 0001:00020290       ?OnPixproSdramBank0@CPixProRefImageDlg@@IAEXXZ 67da1290 f   PixProRefImageDlg.obj
 0001:000202a0       ?OnPixproSdramBank1@CPixProRefImageDlg@@IAEXXZ 67da12a0 f   PixProRefImageDlg.obj
 0001:000202b0       ?OnOK@CPixProRefImageDlg@@MAEXXZ 67da12b0 f   PixProRefImageDlg.obj
 0001:000202d0       ??_GCPixProRefImageDlg@@UAEPAXI@Z 67da12d0 f i PixProRefImageDlg.obj
 0001:000202d0       ??_ECPixProRefImageDlg@@UAEPAXI@Z 67da12d0 f i PixProRefImageDlg.obj
 0001:00020300       ?DoDataExchange@CPixProRefImageDlg@@MAEXPAVCDataExchange@@@Z 67da1300 f   PixProRefImageDlg.obj
 0001:00020310       ?GetThisMessageMap@CPixProRefImageDlg@@KGPBUAFX_MSGMAP@@XZ 67da1310 f   PixProRefImageDlg.obj
 0001:00020320       ?OnInitDialog@CPixProRefImageDlg@@MAEHXZ 67da1320 f   PixProRefImageDlg.obj
 0001:000203c0       ?GetMessageMap@CPixProRefImageDlg@@MBEPBUAFX_MSGMAP@@XZ 67da13c0 f   PixProRefImageDlg.obj
 0001:000203d0       ??0CPixProUflowSubDlg@@QAE@PAVCWnd@@PAUCORPPL_FCT_PROP@@PAVSapPixProParams@@@Z 67da13d0 f   PixProUflowSubDlg.obj
 0001:00020440       ?OnPixproSdramBank0@CPixProUflowSubDlg@@IAEXXZ 67da1440 f   PixProUflowSubDlg.obj
 0001:00020450       ?OnPixproSdramBank1@CPixProUflowSubDlg@@IAEXXZ 67da1450 f   PixProUflowSubDlg.obj
 0001:00020460       ?OnPixproUflowSub@CPixProUflowSubDlg@@IAEXXZ 67da1460 f   PixProUflowSubDlg.obj
 0001:00020470       ?OnPixproRefImage@CPixProUflowSubDlg@@IAEXXZ 67da1470 f   PixProUflowSubDlg.obj
 0001:00020480       ?OnOK@CPixProUflowSubDlg@@MAEXXZ 67da1480 f   PixProUflowSubDlg.obj
 0001:000204b0       ??_GCPixProUflowSubDlg@@UAEPAXI@Z 67da14b0 f i PixProUflowSubDlg.obj
 0001:000204b0       ??_ECPixProUflowSubDlg@@UAEPAXI@Z 67da14b0 f i PixProUflowSubDlg.obj
 0001:000204e0       ?DoDataExchange@CPixProUflowSubDlg@@MAEXPAVCDataExchange@@@Z 67da14e0 f   PixProUflowSubDlg.obj
 0001:000204f0       ?GetThisMessageMap@CPixProUflowSubDlg@@KGPBUAFX_MSGMAP@@XZ 67da14f0 f   PixProUflowSubDlg.obj
 0001:00020500       ?OnInitDialog@CPixProUflowSubDlg@@MAEHXZ 67da1500 f   PixProUflowSubDlg.obj
 0001:000205b0       ?GetMessageMap@CPixProUflowSubDlg@@MBEPBUAFX_MSGMAP@@XZ 67da15b0 f   PixProUflowSubDlg.obj
 0001:000205c0       ?OnPixproSdramBank0@CPixProWAvgDlg@@IAEXXZ 67da15c0 f   PixProWAvgDlg.obj
 0001:000205d0       ?OnPixproSdramBank1@CPixProWAvgDlg@@IAEXXZ 67da15d0 f   PixProWAvgDlg.obj
 0001:000205e0       ?OnPixproWeightedAvg@CPixProWAvgDlg@@IAEXXZ 67da15e0 f   PixProWAvgDlg.obj
 0001:000205f0       ?OnPixproRefImage@CPixProWAvgDlg@@IAEXXZ 67da15f0 f   PixProWAvgDlg.obj
 0001:00020600       ?OnOK@CPixProWAvgDlg@@MAEXXZ 67da1600 f   PixProWAvgDlg.obj
 0001:00020650       ??0CPixProWAvgDlg@@QAE@PAVCWnd@@PAUCORPPL_FCT_PROP@@PAVSapPixProParams@@@Z 67da1650 f   PixProWAvgDlg.obj
 0001:00020710       ??_ECPixProWAvgDlg@@UAEPAXI@Z 67da1710 f i PixProWAvgDlg.obj
 0001:00020710       ??_GCPixProWAvgDlg@@UAEPAXI@Z 67da1710 f i PixProWAvgDlg.obj
 0001:00020780       ?DoDataExchange@CPixProWAvgDlg@@MAEXPAVCDataExchange@@@Z 67da1780 f   PixProWAvgDlg.obj
 0001:000207a0       ?OnSelchangeFactor@CPixProWAvgDlg@@IAEXXZ 67da17a0 f   PixProWAvgDlg.obj
 0001:000207e0       ?GetThisMessageMap@CPixProWAvgDlg@@KGPBUAFX_MSGMAP@@XZ 67da17e0 f   PixProWAvgDlg.obj
 0001:000207f0       ?OnInitDialog@CPixProWAvgDlg@@MAEHXZ 67da17f0 f   PixProWAvgDlg.obj
 0001:00020920       ?GetMessageMap@CPixProWAvgDlg@@MBEPBUAFX_MSGMAP@@XZ 67da1920 f   PixProWAvgDlg.obj
 0001:00020930       ??0CRawFileDlg@@QAE@PAVCWnd@@HHHH@Z 67da1930 f   RawFileDlg.obj
 0001:00020a30       ??_ECRawFileDlg@@UAEPAXI@Z 67da1a30 f i RawFileDlg.obj
 0001:00020a30       ??_GCRawFileDlg@@UAEPAXI@Z 67da1a30 f i RawFileDlg.obj
 0001:00020aa0       ?DoDataExchange@CRawFileDlg@@MAEXPAVCDataExchange@@@Z 67da1aa0 f   RawFileDlg.obj
 0001:00020b00       ?OnOK@CRawFileDlg@@MAEXXZ  67da1b00 f   RawFileDlg.obj
 0001:00020bc0       ?OnInitDialog@CRawFileDlg@@MAEHXZ 67da1bc0 f   RawFileDlg.obj
 0001:00020c90       ?OnSelchangeComboFormat@CRawFileDlg@@IAEXXZ 67da1c90 f   RawFileDlg.obj
 0001:00020cd0       ?GetThisMessageMap@CRawFileDlg@@KGPBUAFX_MSGMAP@@XZ 67da1cd0 f   RawFileDlg.obj
 0001:00020ce0       ?GetMessageMap@CRawFileDlg@@MBEPBUAFX_MSGMAP@@XZ 67da1ce0 f   RawFileDlg.obj
 0001:00020cf0       ??0Thank_you@Define_the_symbol__ATL_MIXED@@QAE@XZ 67da1cf0 f i SapClassGui.obj
 0001:00020d00       ?one@Thank_you@Define_the_symbol__ATL_MIXED@@UAEXXZ 67da1d00 f i SapClassGui.obj
 0001:00020d10       ?GetHead@CSimpleList@@QBEPAXXZ 67da1d10 f i SapClassGui.obj
 0001:00020d20       ?_AfxInitManaged@@YAHXZ    67da1d20 f i SapClassGui.obj
 0001:00020d30       ??2CObject@@SGPAXI@Z       67da1d30 f i SapClassGui.obj
 0001:00020d50       ??_GCImageWnd@@UAEPAXI@Z   67da1d50 f i SapClassGui.obj
 0001:00020d80       ??0CRectTracker@@QAE@ABV0@@Z 67da1d80 f i SapClassGui.obj
 0001:00020e00       ??4CRectTracker@@QAEAAV0@ABV0@@Z 67da1e00 f i SapClassGui.obj
 0001:00020e80       ??0CImageViewportWndEventHandler@@QAE@ABV0@@Z 67da1e80 f i SapClassGui.obj
 0001:00020e90       ??4CImageViewportWndEventHandler@@QAEAAV0@ABV0@@Z 67da1e90 f i SapClassGui.obj
 0001:00020ea0       ?MarkerChanged@CImageExWndEventHandler@@UAEXXZ 67da1ea0 f i SapClassGui.obj
 0001:00020eb0       ?InteractiveMarkerChanged@CImageExWndEventHandler@@UAEXH@Z 67da1eb0 f i SapClassGui.obj
 0001:00020ec0       ??0CImageExWndEventHandler@@QAE@XZ 67da1ec0 f i SapClassGui.obj
 0001:00020ed0       ??0CImageExWndEventHandler@@QAE@ABV0@@Z 67da1ed0 f i SapClassGui.obj
 0001:00020ee0       ??4CImageExWndEventHandler@@QAEAAV0@ABV0@@Z 67da1ee0 f i SapClassGui.obj
 0001:00020ef0       ?GetBuffer@CBufDlg@@QAEAAVSapBuffer@@XZ 67da1ef0 f i SapClassGui.obj
 0001:00020f00       ?GetServerCategory@CAcqConfigDlg@@QAE?AW4ServerCategory@1@XZ 67da1f00 f i SapClassGui.obj
 0001:00020f10       ?SetCameraLinkServerFlag@CAcqConfigDlg@@QAEX_N@Z 67da1f10 f i SapClassGui.obj
 0001:00020f20       ?GetAcquisition@CAcqConfigDlg@@QAEAAVSapAcquisition@@XZ 67da1f20 f i SapClassGui.obj
 0001:00020f30       ??1CViewDlg@@UAE@XZ        67da1f30 f i SapClassGui.obj
 0001:00020fd0       ??_FCViewDlg@@QAEXXZ       67da1fd0 f i SapClassGui.obj
 0001:00020fe0       ?GetType@CLoadSaveDlg@@QAEHXZ 67da1fe0 f i SapClassGui.obj
 0001:00020ff0       ?GetOptions@CLoadSaveDlg@@QAE?AV?$CStringT@DV?$StrTraitMFC_DLL@DV?$ChTraitsCRT@D@ATL@@@@@ATL@@XZ 67da1ff0 f i SapClassGui.obj
 0001:00021020       ?GetStartFrame@CLoadSaveDlg@@QAEHXZ 67da2020 f i SapClassGui.obj
 0001:00021030       ?GetRawFileWidth@CLoadSaveDlg@@QAEHXZ 67da2030 f i SapClassGui.obj
 0001:00021040       ?GetRawFileHeight@CLoadSaveDlg@@QAEHXZ 67da2040 f i SapClassGui.obj
 0001:00021050       ?GetRawFileOffset@CLoadSaveDlg@@QAEHXZ 67da2050 f i SapClassGui.obj
 0001:00021060       ?GetRawFileFormat@CLoadSaveDlg@@QAEHXZ 67da2060 f i SapClassGui.obj
 0001:00021070       ?GetCab@CCabDlg@@QAEAAVSapCab@@XZ 67da2070 f i SapClassGui.obj
 0001:00021080       ?GetAcquisition@CCamVicDlg@@QAEAAVSapAcquisition@@XZ 67da2080 f i SapClassGui.obj
 0001:00021090       ?GetPixPro@CPixProDlg@@QAEAAVSapPixPro@@XZ 67da2090 f i SapClassGui.obj
 0001:000210a0       ?SapClassGuiInitModule@@YAXXZ 67da20a0 f   SapClassGui.obj
 0001:00021100       _DllMain@12                67da2100 f   SapClassGui.obj
 0001:00021160       ??B?$CTypedSimpleList@PAUCRuntimeClass@@@@QAEPAUCRuntimeClass@@XZ 67da2160 f i SapClassGui.obj
 0001:00021170       ??B?$CTypedSimpleList@PAVCOleObjectFactory@@@@QAEPAVCOleObjectFactory@@XZ 67da2170 f i SapClassGui.obj
 0001:00021180       ??0CSapRectTracker@@QAE@ABV0@@Z 67da2180 f i SapClassGui.obj
 0001:000211c0       ??4CSapRectTracker@@QAEAAV0@ABV0@@Z 67da21c0 f i SapClassGui.obj
 0001:000211f0       _ExtRawDllMain@12          67da21f0 f   SapClassGui.obj
 0001:00021220       ??0CImageWnd@@QAE@ABV0@@Z  67da2220 f i SapClassGui.obj
 0001:000212f0       ??4CImageWnd@@QAEAAV0@ABV0@@Z 67da22f0 f i SapClassGui.obj
 0001:000213c0       ?OnVScroll@CTiffFileDlg@@IAEXIIPAVCScrollBar@@@Z 67da23c0 f   TiffFileDlg.obj
 0001:00021430       ?OnUpdateTiffEditCompressionLevel@CTiffFileDlg@@IAEXXZ 67da2430 f   TiffFileDlg.obj
 0001:00021440       ?OnOK@CTiffFileDlg@@MAEXXZ 67da2440 f   TiffFileDlg.obj
 0001:00021490       ??0CTiffFileDlg@@QAE@PAVCWnd@@HH@Z 67da2490 f   TiffFileDlg.obj
 0001:00021540       ??_GCTiffFileDlg@@UAEPAXI@Z 67da2540 f i TiffFileDlg.obj
 0001:00021540       ??_ECTiffFileDlg@@UAEPAXI@Z 67da2540 f i TiffFileDlg.obj
 0001:00021570       ?DoDataExchange@CTiffFileDlg@@MAEXPAVCDataExchange@@@Z 67da2570 f   TiffFileDlg.obj
 0001:000215c0       ?GetThisMessageMap@CTiffFileDlg@@KGPBUAFX_MSGMAP@@XZ 67da25c0 f   TiffFileDlg.obj
 0001:000215d0       ?GetMessageMap@CTiffFileDlg@@MBEPBUAFX_MSGMAP@@XZ 67da25d0 f   TiffFileDlg.obj
 0001:000215e0       ?LoadSettings@CViewDlg@@IAEXXZ 67da25e0 f   ViewDlg.obj
 0001:00021610       ?SaveSettings@CViewDlg@@IAEXXZ 67da2610 f   ViewDlg.obj
 0001:00021640       ?SetRange@CViewDlg@@IAEXXZ 67da2640 f   ViewDlg.obj
 0001:00021680       ?OnOK@CViewDlg@@MAEXXZ     67da2680 f   ViewDlg.obj
 0001:000216e0       ?OnCancel@CViewDlg@@MAEXXZ 67da26e0 f   ViewDlg.obj
 0001:00021700       _floorf                    67da2700 f i ViewDlg.obj
 0001:00021720       ?floor@@YAMM@Z             67da2720 f i ViewDlg.obj
 0001:00021740       ??0CSpinButtonCtrl@@QAE@XZ 67da2740 f i ViewDlg.obj
 0001:00021760       ??_GCSpinButtonCtrl@@UAEPAXI@Z 67da2760 f i ViewDlg.obj
 0001:00021760       ??_ECSpinButtonCtrl@@UAEPAXI@Z 67da2760 f i ViewDlg.obj
 0001:00021790       ??_GCViewDlg@@UAEPAXI@Z    67da2790 f i ViewDlg.obj
 0001:000217c0       ??_ECViewDlg@@UAEPAXI@Z    67da27c0 f i ViewDlg.obj
 0001:00021820       ?DoDataExchange@CViewDlg@@MAEXPAVCDataExchange@@@Z 67da2820 f   ViewDlg.obj
 0001:00021980       ??0CViewDlg@@QAE@PAVCWnd@@PAVSapView@@@Z 67da2980 f   ViewDlg.obj
 0001:00021c00       ?OnInitDialog@CViewDlg@@MAEHXZ 67da2c00 f   ViewDlg.obj
 0001:00021e90       ?OnUpdateEditViewRange@CViewDlg@@IAEXXZ 67da2e90 f   ViewDlg.obj
 0001:00021ef0       ?OnHScroll@CViewDlg@@IAEXIIPAVCScrollBar@@@Z 67da2ef0 f   ViewDlg.obj
 0001:00021fa0       ?OnUpdateScaleHeight@CViewDlg@@IAEXXZ 67da2fa0 f   ViewDlg.obj
 0001:00022090       ?OnUpdateScaleHeightFactor@CViewDlg@@IAEXXZ 67da3090 f   ViewDlg.obj
 0001:000221a0       ?OnUpdateScaleWidth@CViewDlg@@IAEXXZ 67da31a0 f   ViewDlg.obj
 0001:00022290       ?OnUpdateScaleWidthFactor@CViewDlg@@IAEXXZ 67da3290 f   ViewDlg.obj
 0001:000223a0       ?OnDeltaposSpinScaleHeight@CViewDlg@@IAEXPAUtagNMHDR@@PAJ@Z 67da33a0 f   ViewDlg.obj
 0001:000224b0       ?OnDeltaposSpinScaleHeightFactor@CViewDlg@@IAEXPAUtagNMHDR@@PAJ@Z 67da34b0 f   ViewDlg.obj
 0001:00022600       ?OnDeltaposSpinScaleWidth@CViewDlg@@IAEXPAUtagNMHDR@@PAJ@Z 67da3600 f   ViewDlg.obj
 0001:00022710       ?OnDeltaposSpinScaleWidthFactor@CViewDlg@@IAEXPAUtagNMHDR@@PAJ@Z 67da3710 f   ViewDlg.obj
 0001:00022860       ?OnLockAspectRatio@CViewDlg@@IAEXXZ 67da3860 f   ViewDlg.obj
 0001:00022900       ?OnScalingNone@CViewDlg@@IAEXXZ 67da3900 f   ViewDlg.obj
 0001:00022a00       ?OnScalingFitToWindow@CViewDlg@@IAEXXZ 67da3a00 f   ViewDlg.obj
 0001:00022c20       ?OnSelchangeViewFormat@CViewDlg@@IAEXXZ 67da3c20 f   ViewDlg.obj
 0001:00022c60       ?GetThisMessageMap@CViewDlg@@KGPBUAFX_MSGMAP@@XZ 67da3c60 f   ViewDlg.obj
 0001:00022c70       ?GetMessageMap@CViewDlg@@MBEPBUAFX_MSGMAP@@XZ 67da3c70 f   ViewDlg.obj
 0001:00022c76       _CorAcqGetCap@12           67da3c76 f   Corapi:CORAPI.dll
 0001:00022c7c       _CorCabSetPrm@12           67da3c7c f   Corapi:CORAPI.dll
 0001:00022c82       ??0SapLocation@@QAE@PBDH@Z 67da3c82 f   SapClassBasic:SapClassBasic82.dll
 0001:00022c88       ??1SapLocation@@UAE@XZ     67da3c88 f   SapClassBasic:SapClassBasic82.dll
 0001:00022c8e       ?SetLocation@SapXferNode@@QAEHVSapLocation@@@Z 67da3c8e f   SapClassBasic:SapClassBasic82.dll
 0001:00022c94       ??0SapLocation@@QAE@ABV0@@Z 67da3c94 f   SapClassBasic:SapClassBasic82.dll
 0001:00022c9a       ??1SapManager@@UAE@XZ      67da3c9a f   SapClassBasic:SapClassBasic82.dll
 0001:00022ca0       ??1SapAcquisition@@UAE@XZ  67da3ca0 f   SapClassBasic:SapClassBasic82.dll
 0001:00022ca6       ?GetServerName@SapManager@@SAHHPADH@Z 67da3ca6 f   SapClassBasic:SapClassBasic82.dll
 0001:00022cac       ?GetResourceCount@SapManager@@SAHHH@Z 67da3cac f   SapClassBasic:SapClassBasic82.dll
 0001:00022cb2       ?GetServerCount@SapManager@@SAHXZ 67da3cb2 f   SapClassBasic:SapClassBasic82.dll
 0001:00022cb8       ?GetResourceCount@SapManager@@SAHVSapLocation@@H@Z 67da3cb8 f   SapClassBasic:SapClassBasic82.dll
 0001:00022cbe       ?GetLocation@SapXferNode@@QBE?AVSapLocation@@XZ 67da3cbe f   SapClassBasic:SapClassBasic82.dll
 0001:00022cc4       ?IsResourceAvailable@SapManager@@SAHPBDHH@Z 67da3cc4 f   SapClassBasic:SapClassBasic82.dll
 0001:00022cca       ?GetResourceName@SapManager@@SAHPBDHHPADH@Z 67da3cca f   SapClassBasic:SapClassBasic82.dll
 0001:00022cd0       ?GetResourceCount@SapManager@@SAHPBDH@Z 67da3cd0 f   SapClassBasic:SapClassBasic82.dll
 0001:00022cd6       ?GetServerIndex@SapManager@@SAHPBD@Z 67da3cd6 f   SapClassBasic:SapClassBasic82.dll
 0001:00022cdc       ??0SapAcquisition@@QAE@VSapLocation@@@Z 67da3cdc f   SapClassBasic:SapClassBasic82.dll
 0001:00022ce2       ??0SapLocation@@QAE@HH@Z   67da3ce2 f   SapClassBasic:SapClassBasic82.dll
 0001:00022ce8       ??0SapManager@@QAE@XZ      67da3ce8 f   SapClassBasic:SapClassBasic82.dll
 0001:00022cee       ?GetResourceIndex@SapLocation@@QBEHXZ 67da3cee f   SapClassBasic:SapClassBasic82.dll
 0001:00022cf4       ?GetServerName@SapManager@@SAHVSapLocation@@PADH@Z 67da3cf4 f   SapClassBasic:SapClassBasic82.dll
 0001:00022cfa       ?GetConfigFile@SapAcquisition@@QBEPBDXZ 67da3cfa f   SapClassBasic:SapClassBasic82.dll
 0001:00022d00       ??4SapAcquisition@@QAEAAV0@ABV0@@Z 67da3d00 f   SapClassBasic:SapClassBasic82.dll
 0001:00022d06       ?DisplayStatus@SapManager@@SAIPBDI@Z 67da3d06 f   SapClassBasic:SapClassBasic82.dll
 0001:00022d0c       ??1SapDataFRGB@@UAE@XZ     67da3d0c f   SapClassBasic:SapClassBasic82.dll
 0001:00022d12       ?IsEnabled@SapBayer@@QBEHXZ 67da3d12 f   SapClassBasic:SapClassBasic82.dll
 0001:00022d18       ?IsLutEnabled@SapBayer@@QBEHXZ 67da3d18 f   SapClassBasic:SapClassBasic82.dll
 0001:00022d1e       ?GetGamma@SapBayer@@QBEMXZ 67da3d1e f   SapClassBasic:SapClassBasic82.dll
 0001:00022d24       ?Blue@SapDataFRGB@@QAEMXZ  67da3d24 f   SapClassBasic:SapClassBasic82.dll
 0001:00022d2a       ?Green@SapDataFRGB@@QAEMXZ 67da3d2a f   SapClassBasic:SapClassBasic82.dll
 0001:00022d30       ?Red@SapDataFRGB@@QAEMXZ   67da3d30 f   SapClassBasic:SapClassBasic82.dll
 0001:00022d36       ?GetWBGain@SapBayer@@QBE?AVSapDataFRGB@@XZ 67da3d36 f   SapClassBasic:SapClassBasic82.dll
 0001:00022d3c       ?GetMethod@SapBayer@@QBEHXZ 67da3d3c f   SapClassBasic:SapClassBasic82.dll
 0001:00022d42       ?GetAlign@SapBayer@@QBEHXZ 67da3d42 f   SapClassBasic:SapClassBasic82.dll
 0001:00022d48       ?GetAvailMethod@SapBayer@@QBEHXZ 67da3d48 f   SapClassBasic:SapClassBasic82.dll
 0001:00022d4e       ?GetAvailAlign@SapBayer@@QBEHXZ 67da3d4e f   SapClassBasic:SapClassBasic82.dll
 0001:00022d54       ?IsSoftware@SapBayer@@QBEHXZ 67da3d54 f   SapClassBasic:SapClassBasic82.dll
 0001:00022d5a       ??BSapManager@@QBEHXZ      67da3d5a f   SapClassBasic:SapClassBasic82.dll
 0001:00022d60       ??0SapDataFRGB@@QAE@MMM@Z  67da3d60 f   SapClassBasic:SapClassBasic82.dll
 0001:00022d66       ?GetPixelDepthMin@SapManager@@SAHH@Z 67da3d66 f   SapClassBasic:SapClassBasic82.dll
 0001:00022d6c       ?GetPixelDepthMax@SapManager@@SAHH@Z 67da3d6c f   SapClassBasic:SapClassBasic82.dll
 0001:00022d72       ??1SapBuffer@@UAE@XZ       67da3d72 f   SapClassBasic:SapClassBasic82.dll
 0001:00022d78       ?IsBufferTypeSupported@SapBuffer@@SAHVSapLocation@@H@Z 67da3d78 f   SapClassBasic:SapClassBasic82.dll
 0001:00022d7e       ??4SapLocation@@QAEAAV0@ABV0@@Z 67da3d7e f   SapClassBasic:SapClassBasic82.dll
 0001:00022d84       ?GetSrcNode@SapXferNode@@QBEPAV1@XZ 67da3d84 f   SapClassBasic:SapClassBasic82.dll
 0001:00022d8a       ?GetPixelDepth@SapBuffer@@QBEHXZ 67da3d8a f   SapClassBasic:SapClassBasic82.dll
 0001:00022d90       ?GetType@SapBuffer@@QBEHXZ 67da3d90 f   SapClassBasic:SapClassBasic82.dll
 0001:00022d96       ?GetFormat@SapBuffer@@QBEHXZ 67da3d96 f   SapClassBasic:SapClassBasic82.dll
 0001:00022d9c       ?GetHeight@SapBuffer@@QBEHXZ 67da3d9c f   SapClassBasic:SapClassBasic82.dll
 0001:00022da2       ?GetWidth@SapBuffer@@QBEHXZ 67da3da2 f   SapClassBasic:SapClassBasic82.dll
 0001:00022da8       ??0SapLocation@@QAE@XZ     67da3da8 f   SapClassBasic:SapClassBasic82.dll
 0001:00022dae       ??0SapBuffer@@QAE@HHHHHVSapLocation@@@Z 67da3dae f   SapClassBasic:SapClassBasic82.dll
 0001:00022db4       ??0SapCab@@QAE@VSapLocation@@PAVSapXferNode@@@Z 67da3db4 f   SapClassBasic:SapClassBasic82.dll
 0001:00022dba       ??0SapLocation@@QAE@ABV0@H@Z 67da3dba f   SapClassBasic:SapClassBasic82.dll
 0001:00022dc0       ?Create@SapCab@@UAEHXZ     67da3dc0 f   SapClassBasic:SapClassBasic82.dll
 0001:00022dc6       ?Destroy@SapCab@@UAEHXZ    67da3dc6 f   SapClassBasic:SapClassBasic82.dll
 0001:00022dcc       ?GetXferParams@SapCab@@UBE?AVSapXferParams@@H@Z 67da3dcc f   SapClassBasic:SapClassBasic82.dll
 0001:00022dd2       ?GetInputXferParams@SapCab@@UBE?AVSapXferParams@@H@Z 67da3dd2 f   SapClassBasic:SapClassBasic82.dll
 0001:00022dd8       ?GetOutputXferParams@SapCab@@UBE?AVSapXferParams@@H@Z 67da3dd8 f   SapClassBasic:SapClassBasic82.dll
 0001:00022dde       ?SetSrcNode@SapXferNode@@UAEHPAV1@H@Z 67da3dde f   SapClassBasic:SapClassBasic82.dll
 0001:00022de4       ?SetXferParams@SapCab@@UAEHVSapXferParams@@H@Z 67da3de4 f   SapClassBasic:SapClassBasic82.dll
 0001:00022dea       ?SetInputXferParams@SapCab@@UAEHVSapXferParams@@H@Z 67da3dea f   SapClassBasic:SapClassBasic82.dll
 0001:00022df0       ?SetOutputXferParams@SapCab@@UAEHVSapXferParams@@H@Z 67da3df0 f   SapClassBasic:SapClassBasic82.dll
 0001:00022df6       ?GetHandle@SapXferNode@@UBEPAU__CORHANDLE@@H@Z 67da3df6 f   SapClassBasic:SapClassBasic82.dll
 0001:00022dfc       ?GetHandle@SapXferNode@@UBEPAU__CORHANDLE@@XZ 67da3dfc f   SapClassBasic:SapClassBasic82.dll
 0001:00022e02       ?GetXferParamsFromSrcNode@SapXferNode@@UAEXXZ 67da3e02 f   SapClassBasic:SapClassBasic82.dll
 0001:00022e08       ?GetXferNodeType@SapCab@@UAE?AW4XferNodeType@SapXferNode@@XZ 67da3e08 f   SapClassBasic:SapClassBasic82.dll
 0001:00022e0e       ?IsBuffer@SapXferNode@@UAEHXZ 67da3e0e f   SapClassBasic:SapClassBasic82.dll
 0001:00022e14       ??ASapXferNode@@UBEPAU__CORHANDLE@@H@Z 67da3e14 f   SapClassBasic:SapClassBasic82.dll
 0001:00022e1a       ?GetCount@SapXferNode@@UBEHXZ 67da3e1a f   SapClassBasic:SapClassBasic82.dll
 0001:00022e20       ?GetIndex@SapXferNode@@UBEHXZ 67da3e20 f   SapClassBasic:SapClassBasic82.dll
 0001:00022e26       ?SetIndex@SapXferNode@@UAEHH@Z 67da3e26 f   SapClassBasic:SapClassBasic82.dll
 0001:00022e2c       ?ResetIndex@SapXferNode@@UAEXXZ 67da3e2c f   SapClassBasic:SapClassBasic82.dll
 0001:00022e32       ?Next@SapXferNode@@UAEXXZ  67da3e32 f   SapClassBasic:SapClassBasic82.dll
 0001:00022e38       ?GetTrash@SapXferNode@@UBEPAU__CORHANDLE@@XZ 67da3e38 f   SapClassBasic:SapClassBasic82.dll
 0001:00022e3e       ?Empty@SapXferNode@@UAEHH@Z 67da3e3e f   SapClassBasic:SapClassBasic82.dll
 0001:00022e44       ?Empty@SapXferNode@@UAEHXZ 67da3e44 f   SapClassBasic:SapClassBasic82.dll
 0001:00022e4a       ?EmptyAll@SapXferNode@@UAEHXZ 67da3e4a f   SapClassBasic:SapClassBasic82.dll
 0001:00022e50       ?GetCapability@SapCab@@UAEHHPAX@Z 67da3e50 f   SapClassBasic:SapClassBasic82.dll
 0001:00022e56       ?GetParameter@SapCab@@UAEHHPAX@Z 67da3e56 f   SapClassBasic:SapClassBasic82.dll
 0001:00022e5c       ?SetParameter@SapCab@@UAEHHPAX@Z 67da3e5c f   SapClassBasic:SapClassBasic82.dll
 0001:00022e62       ?SetParameter@SapCab@@UAEHHH@Z 67da3e62 f   SapClassBasic:SapClassBasic82.dll
 0001:00022e68       ?Construct@SapCab@@MAEXHHPBH@Z 67da3e68 f   SapClassBasic:SapClassBasic82.dll
 0001:00022e6e       ??1SapCab@@UAE@XZ          67da3e6e f   SapClassBasic:SapClassBasic82.dll
 0001:00022e74       ?GetVicFile@SapAcquisition@@QBEPBDXZ 67da3e74 f   SapClassBasic:SapClassBasic82.dll
 0001:00022e7a       ?GetCamFile@SapAcquisition@@QBEPBDXZ 67da3e7a f   SapClassBasic:SapClassBasic82.dll
 0001:00022e80       ?IsEnabled@SapColorConversion@@QBEHXZ 67da3e80 f   SapClassBasic:SapClassBasic82.dll
 0001:00022e86       ?IsHardwareEnabled@SapColorConversion@@QBEHXZ 67da3e86 f   SapClassBasic:SapClassBasic82.dll
 0001:00022e8c       ?GetWBGain@SapColorConversion@@QBE?AVSapDataFRGB@@XZ 67da3e8c f   SapClassBasic:SapClassBasic82.dll
 0001:00022e92       ?GetAvailMethod@SapColorConversion@@QBEHXZ 67da3e92 f   SapClassBasic:SapClassBasic82.dll
 0001:00022e98       ?GetAvailAlign@SapColorConversion@@QBEHXZ 67da3e98 f   SapClassBasic:SapClassBasic82.dll
 0001:00022e9e       ?IsLutEnabled@SapColorConversion@@QBEHXZ 67da3e9e f   SapClassBasic:SapClassBasic82.dll
 0001:00022ea4       ?GetGamma@SapColorConversion@@QBEMXZ 67da3ea4 f   SapClassBasic:SapClassBasic82.dll
 0001:00022eaa       ?GetMethod@SapColorConversion@@QBEHXZ 67da3eaa f   SapClassBasic:SapClassBasic82.dll
 0001:00022eb0       ?GetAlign@SapColorConversion@@QBEHXZ 67da3eb0 f   SapClassBasic:SapClassBasic82.dll
 0001:00022eb6       ?GetClusterMapPixelCount@SapFlatField@@QBEHXZ 67da3eb6 f   SapClassBasic:SapClassBasic82.dll
 0001:00022ebc       ?SetClusterMap@SapFlatField@@QAEHPBD@Z 67da3ebc f   SapClassBasic:SapClassBasic82.dll
 0001:00022ec2       ?GetAverage@SapFlatFieldStats@@QBEHH@Z 67da3ec2 f   SapClassBasic:SapClassBasic82.dll
 0001:00022ec8       ?GetNumComponents@SapFlatFieldStats@@QBEHXZ 67da3ec8 f   SapClassBasic:SapClassBasic82.dll
 0001:00022ece       ?GetStdDeviation@SapFlatFieldStats@@QBEHH@Z 67da3ece f   SapClassBasic:SapClassBasic82.dll
 0001:00022ed4       ?GetLow@SapFlatFieldStats@@QBEHH@Z 67da3ed4 f   SapClassBasic:SapClassBasic82.dll
 0001:00022eda       ?GetHigh@SapFlatFieldStats@@QBEHH@Z 67da3eda f   SapClassBasic:SapClassBasic82.dll
 0001:00022ee0       ?GetPeakPosition@SapFlatFieldStats@@QBEHH@Z 67da3ee0 f   SapClassBasic:SapClassBasic82.dll
 0001:00022ee6       ?GetPixelRatio@SapFlatFieldStats@@QBEMH@Z 67da3ee6 f   SapClassBasic:SapClassBasic82.dll
 0001:00022eec       ?GetNumPixels@SapFlatFieldStats@@QBEHH@Z 67da3eec f   SapClassBasic:SapClassBasic82.dll
 0001:00022ef2       ?Destroy@SapFeature@@UAEHXZ 67da3ef2 f   SapClassBasic:SapClassBasic82.dll
 0001:00022ef8       ?GetDisplayName@SapFeature@@QAEHPADH@Z 67da3ef8 f   SapClassBasic:SapClassBasic82.dll
 0001:00022efe       ?GetFeatureInfo@SapAcqDevice@@QAEHPBDPAVSapFeature@@@Z 67da3efe f   SapClassBasic:SapClassBasic82.dll
 0001:00022f04       ?GetFileNameByIndex@SapAcqDevice@@QAEHHPADH@Z 67da3f04 f   SapClassBasic:SapClassBasic82.dll
 0001:00022f0a       ?GetFileCount@SapAcqDevice@@QAEHPAH@Z 67da3f0a f   SapClassBasic:SapClassBasic82.dll
 0001:00022f10       ??1SapFeature@@UAE@XZ      67da3f10 f   SapClassBasic:SapClassBasic82.dll
 0001:00022f16       ?GetFeatureValue@SapAcqDevice@@QAEHPBDPADH@Z 67da3f16 f   SapClassBasic:SapClassBasic82.dll
 0001:00022f1c       ?IsFeatureAvailable@SapAcqDevice@@QAEHPBDPAH@Z 67da3f1c f   SapClassBasic:SapClassBasic82.dll
 0001:00022f22       ?Create@SapFeature@@UAEHXZ 67da3f22 f   SapClassBasic:SapClassBasic82.dll
 0001:00022f28       ??0SapFeature@@QAE@VSapLocation@@@Z 67da3f28 f   SapClassBasic:SapClassBasic82.dll
 0001:00022f2e       ?GetAcqDevice@SapFlatField@@QBEPAVSapAcqDevice@@XZ 67da3f2e f   SapClassBasic:SapClassBasic82.dll
 0001:00022f34       ?GetNumFlatField@SapFlatField@@QBEHXZ 67da3f34 f   SapClassBasic:SapClassBasic82.dll
 0001:00022f3a       ?GetBlackPixelPercentage@SapFlatField@@QBEMXZ 67da3f3a f   SapClassBasic:SapClassBasic82.dll
 0001:00022f40       ?IsClippedGainOffsetDefects@SapFlatField@@QBEHXZ 67da3f40 f   SapClassBasic:SapClassBasic82.dll
 0001:00022f46       ?GetIndex@SapFlatField@@QBEHXZ 67da3f46 f   SapClassBasic:SapClassBasic82.dll
 0001:00022f4c       ?GetDeviationMaxWhite@SapFlatField@@QBEHXZ 67da3f4c f   SapClassBasic:SapClassBasic82.dll
 0001:00022f52       ?GetDeviationMaxBlack@SapFlatField@@QBEHXZ 67da3f52 f   SapClassBasic:SapClassBasic82.dll
 0001:00022f58       ?GetGainDivisor@SapFlatField@@QBEHXZ 67da3f58 f   SapClassBasic:SapClassBasic82.dll
 0001:00022f5e       ?GetVerticalOffset@SapFlatField@@QBEHXZ 67da3f5e f   SapClassBasic:SapClassBasic82.dll
 0001:00022f64       ?GetNumFramesAverage@SapFlatField@@QBEHXZ 67da3f64 f   SapClassBasic:SapClassBasic82.dll
 0001:00022f6a       ?GetNumLinesAverage@SapFlatField@@QBEHXZ 67da3f6a f   SapClassBasic:SapClassBasic82.dll
 0001:00022f70       ?GetVideoType@SapFlatField@@QBE?AW4VideoType@SapAcquisition@@XZ 67da3f70 f   SapClassBasic:SapClassBasic82.dll
 0001:00022f76       ?GetCorrectionType@SapFlatField@@QBE?AW4CorrectionType@1@XZ 67da3f76 f   SapClassBasic:SapClassBasic82.dll
 0001:00022f7c       ?GetOffsetMinMax@SapFlatField@@QAEXPAH0@Z 67da3f7c f   SapClassBasic:SapClassBasic82.dll
 0001:00022f82       ?WriteFile@SapAcqDevice@@QAEHPBDH@Z 67da3f82 f   SapClassBasic:SapClassBasic82.dll
 0001:00022f88       ?SetCommandTimeout@SapManager@@SAXH@Z 67da3f88 f   SapClassBasic:SapClassBasic82.dll
 0001:00022f8e       ?GetCommandTimeout@SapManager@@SAHXZ 67da3f8e f   SapClassBasic:SapClassBasic82.dll
 0001:00022f94       ??1SapFlatFieldStats@@QAE@XZ 67da3f94 f   SapClassBasic:SapClassBasic82.dll
 0001:00022f9a       ?GetLastStatus@SapManager@@SAPBDXZ 67da3f9a f   SapClassBasic:SapClassBasic82.dll
 0001:00022fa0       ??0SapFlatFieldStats@@QAE@XZ 67da3fa0 f   SapClassBasic:SapClassBasic82.dll
 0001:00022fa6       ??1SapFlatFieldDefects@@QAE@XZ 67da3fa6 f   SapClassBasic:SapClassBasic82.dll
 0001:00022fac       ?GetNumDefects@SapFlatFieldDefects@@QBEHXZ 67da3fac f   SapClassBasic:SapClassBasic82.dll
 0001:00022fb2       ?GetDefectRatio@SapFlatFieldDefects@@QBEMXZ 67da3fb2 f   SapClassBasic:SapClassBasic82.dll
 0001:00022fb8       ?GetNumClusters@SapFlatFieldDefects@@QBEHXZ 67da3fb8 f   SapClassBasic:SapClassBasic82.dll
 0001:00022fbe       ??0SapFlatFieldDefects@@QAE@XZ 67da3fbe f   SapClassBasic:SapClassBasic82.dll
 0001:00022fc4       ?Load@SapBuffer@@UAEHPBD0HH@Z 67da3fc4 f   SapClassBasic:SapClassBasic82.dll
 0001:00022fca       ?Create@SapBuffer@@UAEHXZ  67da3fca f   SapClassBasic:SapClassBasic82.dll
 0001:00022fd0       ??0SapBuffer@@QAE@PBDHVSapLocation@@@Z 67da3fd0 f   SapClassBasic:SapClassBasic82.dll
 0001:00022fd6       ??0SapBuffer@@QAE@HPAVSapXferNode@@HVSapLocation@@@Z 67da3fd6 f   SapClassBasic:SapClassBasic82.dll
 0001:00022fdc       ?Destroy@SapBuffer@@UAEHXZ 67da3fdc f   SapClassBasic:SapClassBasic82.dll
 0001:00022fe2       ?GetXferParams@SapXferNode@@UBE?AVSapXferParams@@H@Z 67da3fe2 f   SapClassBasic:SapClassBasic82.dll
 0001:00022fe8       ?GetInputXferParams@SapXferNode@@UBE?AVSapXferParams@@H@Z 67da3fe8 f   SapClassBasic:SapClassBasic82.dll
 0001:00022fee       ?GetOutputXferParams@SapXferNode@@UBE?AVSapXferParams@@H@Z 67da3fee f   SapClassBasic:SapClassBasic82.dll
 0001:00022ff4       ?SetXferParams@SapXferNode@@UAEHVSapXferParams@@H@Z 67da3ff4 f   SapClassBasic:SapClassBasic82.dll
 0001:00022ffa       ?SetInputXferParams@SapXferNode@@UAEHVSapXferParams@@H@Z 67da3ffa f   SapClassBasic:SapClassBasic82.dll
 0001:00023000       ?SetOutputXferParams@SapXferNode@@UAEHVSapXferParams@@H@Z 67da4000 f   SapClassBasic:SapClassBasic82.dll
 0001:00023006       ?GetHandle@SapBuffer@@UBEPAU__CORHANDLE@@H@Z 67da4006 f   SapClassBasic:SapClassBasic82.dll
 0001:0002300c       ?GetHandle@SapBuffer@@UBEPAU__CORHANDLE@@XZ 67da400c f   SapClassBasic:SapClassBasic82.dll
 0001:00023012       ?GetXferNodeType@SapBuffer@@UAE?AW4XferNodeType@SapXferNode@@XZ 67da4012 f   SapClassBasic:SapClassBasic82.dll
 0001:00023018       ??ASapBuffer@@UBEPAU__CORHANDLE@@H@Z 67da4018 f   SapClassBasic:SapClassBasic82.dll
 0001:0002301e       ?GetCount@SapBuffer@@UBEHXZ 67da401e f   SapClassBasic:SapClassBasic82.dll
 0001:00023024       ?GetIndex@SapBuffer@@UBEHXZ 67da4024 f   SapClassBasic:SapClassBasic82.dll
 0001:0002302a       ?SetIndex@SapBuffer@@UAEHH@Z 67da402a f   SapClassBasic:SapClassBasic82.dll
 0001:00023030       ?ResetIndex@SapBuffer@@UAEXXZ 67da4030 f   SapClassBasic:SapClassBasic82.dll
 0001:00023036       ?Next@SapBuffer@@UAEXXZ    67da4036 f   SapClassBasic:SapClassBasic82.dll
 0001:0002303c       ?GetTrash@SapBuffer@@UBEPAU__CORHANDLE@@XZ 67da403c f   SapClassBasic:SapClassBasic82.dll
 0001:00023042       ?Empty@SapBuffer@@UAEHH@Z  67da4042 f   SapClassBasic:SapClassBasic82.dll
 0001:00023048       ?Empty@SapBuffer@@UAEHXZ   67da4048 f   SapClassBasic:SapClassBasic82.dll
 0001:0002304e       ?EmptyAll@SapBuffer@@UAEHXZ 67da404e f   SapClassBasic:SapClassBasic82.dll
 0001:00023054       ?SetCount@SapBuffer@@UAEHH@Z 67da4054 f   SapClassBasic:SapClassBasic82.dll
 0001:0002305a       ?SetWidth@SapBuffer@@UAEHH@Z 67da405a f   SapClassBasic:SapClassBasic82.dll
 0001:00023060       ?SetHeight@SapBuffer@@UAEHH@Z 67da4060 f   SapClassBasic:SapClassBasic82.dll
 0001:00023066       ?SetFormat@SapBuffer@@UAEHH@Z 67da4066 f   SapClassBasic:SapClassBasic82.dll
 0001:0002306c       ?SetType@SapBuffer@@UAEHH@Z 67da406c f   SapClassBasic:SapClassBasic82.dll
 0001:00023072       ?SetPixelDepth@SapBuffer@@UAEHH@Z 67da4072 f   SapClassBasic:SapClassBasic82.dll
 0001:00023078       ?SetVirtualAddress@SapBuffer@@UAEHQAPAX@Z 67da4078 f   SapClassBasic:SapClassBasic82.dll
 0001:0002307e       ?SetPhysicalAddress@SapBuffer@@UAEHQAK@Z 67da407e f   SapClassBasic:SapClassBasic82.dll
 0001:00023084       ?SetParameters@SapBuffer@@UAEHHQAKHHHH@Z 67da4084 f   SapClassBasic:SapClassBasic82.dll
 0001:0002308a       ?SetParameters@SapBuffer@@UAEHHQAPAXHHHH@Z 67da408a f   SapClassBasic:SapClassBasic82.dll
 0001:00023090       ?SetParameters@SapBuffer@@UAEHHHHHH@Z 67da4090 f   SapClassBasic:SapClassBasic82.dll
 0001:00023096       ?SetParametersFromFile@SapBuffer@@UAEHPBDH@Z 67da4096 f   SapClassBasic:SapClassBasic82.dll
 0001:0002309c       ?SetFrameRate@SapBuffer@@UAEXM@Z 67da409c f   SapClassBasic:SapClassBasic82.dll
 0001:000230a2       ?GetAddress@SapBuffer@@UAEHH_KIPAXPAPAX@Z 67da40a2 f   SapClassBasic:SapClassBasic82.dll
 0001:000230a8       ?GetAddress@SapBuffer@@UAEHH_KIPAPAX@Z 67da40a8 f   SapClassBasic:SapClassBasic82.dll
 0001:000230ae       ?GetAddress@SapBuffer@@UAEH_KIPAXPAPAX@Z 67da40ae f   SapClassBasic:SapClassBasic82.dll
 0001:000230b4       ?GetAddress@SapBuffer@@UAEH_KIPAPAX@Z 67da40b4 f   SapClassBasic:SapClassBasic82.dll
 0001:000230ba       ?GetAddress@SapBuffer@@UAEHHPAXPAPAX@Z 67da40ba f   SapClassBasic:SapClassBasic82.dll
 0001:000230c0       ?GetAddress@SapBuffer@@UAEHHPAPAX@Z 67da40c0 f   SapClassBasic:SapClassBasic82.dll
 0001:000230c6       ?GetAddress@SapBuffer@@UAEHPAXPAPAX@Z 67da40c6 f   SapClassBasic:SapClassBasic82.dll
 0001:000230cc       ?GetAddress@SapBuffer@@UAEHPAPAX@Z 67da40cc f   SapClassBasic:SapClassBasic82.dll
 0001:000230d2       ?ReleaseAddress@SapBuffer@@UAEHHPAX@Z 67da40d2 f   SapClassBasic:SapClassBasic82.dll
 0001:000230d8       ?ReleaseAddress@SapBuffer@@UAEHPAX@Z 67da40d8 f   SapClassBasic:SapClassBasic82.dll
 0001:000230de       ?IsMapped@SapBuffer@@UAEHXZ 67da40de f   SapClassBasic:SapClassBasic82.dll
 0001:000230e4       ?IsMapped@SapBuffer@@UAEHH@Z 67da40e4 f   SapClassBasic:SapClassBasic82.dll
 0001:000230ea       ?GetCounterStamp@SapBuffer@@UAEHHPAH@Z 67da40ea f   SapClassBasic:SapClassBasic82.dll
 0001:000230f0       ?GetCounterStamp@SapBuffer@@UAEHPAH@Z 67da40f0 f   SapClassBasic:SapClassBasic82.dll
 0001:000230f6       ?GetHostCounterStamp@SapBuffer@@UAEHHPA_K@Z 67da40f6 f   SapClassBasic:SapClassBasic82.dll
 0001:000230fc       ?GetHostCounterStamp@SapBuffer@@UAEHPA_K@Z 67da40fc f   SapClassBasic:SapClassBasic82.dll
 0001:00023102       ?GetDeviceTimeStamp@SapBuffer@@UAEHHPA_K@Z 67da4102 f   SapClassBasic:SapClassBasic82.dll
 0001:00023108       ?GetDeviceTimeStamp@SapBuffer@@UAEHPA_K@Z 67da4108 f   SapClassBasic:SapClassBasic82.dll
 0001:0002310e       ?GetSpaceUsed@SapBuffer@@UAEHHPAH@Z 67da410e f   SapClassBasic:SapClassBasic82.dll
 0001:00023114       ?GetSpaceUsed@SapBuffer@@UAEHPAH@Z 67da4114 f   SapClassBasic:SapClassBasic82.dll
 0001:0002311a       ?GetHandles@SapBuffer@@UBEPAPAU__CORHANDLE@@XZ 67da411a f   SapClassBasic:SapClassBasic82.dll
 0001:00023120       ?IsCapabilityValid@SapBuffer@@UAEHH@Z 67da4120 f   SapClassBasic:SapClassBasic82.dll
 0001:00023126       ?GetCapability@SapBuffer@@UAEHHHPAX@Z 67da4126 f   SapClassBasic:SapClassBasic82.dll
 0001:0002312c       ?GetCapability@SapBuffer@@UAEHHPAX@Z 67da412c f   SapClassBasic:SapClassBasic82.dll
 0001:00023132       ?IsParameterValid@SapBuffer@@UAEHHH@Z 67da4132 f   SapClassBasic:SapClassBasic82.dll
 0001:00023138       ?IsParameterValid@SapBuffer@@UAEHH@Z 67da4138 f   SapClassBasic:SapClassBasic82.dll
 0001:0002313e       ?GetParameter@SapBuffer@@UAEHHHPAX@Z 67da413e f   SapClassBasic:SapClassBasic82.dll
 0001:00023144       ?GetParameter@SapBuffer@@UAEHHPAX@Z 67da4144 f   SapClassBasic:SapClassBasic82.dll
 0001:0002314a       ?SetParameter@SapBuffer@@UAEHHHPAX@Z 67da414a f   SapClassBasic:SapClassBasic82.dll
 0001:00023150       ?SetParameter@SapBuffer@@UAEHHPAX@Z 67da4150 f   SapClassBasic:SapClassBasic82.dll
 0001:00023156       ?SetParameter@SapBuffer@@UAEHHHH@Z 67da4156 f   SapClassBasic:SapClassBasic82.dll
 0001:0002315c       ?SetParameter@SapBuffer@@UAEHHH@Z 67da415c f   SapClassBasic:SapClassBasic82.dll
 0001:00023162       ?GetParent@SapBuffer@@UAEPAV1@XZ 67da4162 f   SapClassBasic:SapClassBasic82.dll
 0001:00023168       ?GetRoot@SapBuffer@@UAEPAV1@XZ 67da4168 f   SapClassBasic:SapClassBasic82.dll
 0001:0002316e       ?SetState@SapBuffer@@UAEHHH@Z 67da416e f   SapClassBasic:SapClassBasic82.dll
 0001:00023174       ?SetState@SapBuffer@@UAEHH@Z 67da4174 f   SapClassBasic:SapClassBasic82.dll
 0001:0002317a       ?SetAllState@SapBuffer@@UAEHH@Z 67da417a f   SapClassBasic:SapClassBasic82.dll
 0001:00023180       ?GetState@SapBuffer@@UAEHHPAH@Z 67da4180 f   SapClassBasic:SapClassBasic82.dll
 0001:00023186       ?GetState@SapBuffer@@UAEHPAH@Z 67da4186 f   SapClassBasic:SapClassBasic82.dll
 0001:0002318c       ?GetNumPages@SapBuffer@@UAEHPAH@Z 67da418c f   SapClassBasic:SapClassBasic82.dll
 0001:00023192       ?SetPage@SapBuffer@@UAEHHH@Z 67da4192 f   SapClassBasic:SapClassBasic82.dll
 0001:00023198       ?SetPage@SapBuffer@@UAEHH@Z 67da4198 f   SapClassBasic:SapClassBasic82.dll
 0001:0002319e       ?SetAllPage@SapBuffer@@UAEHH@Z 67da419e f   SapClassBasic:SapClassBasic82.dll
 0001:000231a4       ?GetPage@SapBuffer@@UAEHHPAH@Z 67da41a4 f   SapClassBasic:SapClassBasic82.dll
 0001:000231aa       ?GetPage@SapBuffer@@UAEHPAH@Z 67da41aa f   SapClassBasic:SapClassBasic82.dll
 0001:000231b0       ?IsMultiFormat@SapBuffer@@UAEHXZ 67da41b0 f   SapClassBasic:SapClassBasic82.dll
 0001:000231b6       ?GetPageFormat@SapBuffer@@UAEHPAH@Z 67da41b6 f   SapClassBasic:SapClassBasic82.dll
 0001:000231bc       ?Clear@SapBuffer@@UAEHHVSapData@@@Z 67da41bc f   SapClassBasic:SapClassBasic82.dll
 0001:000231c2       ?Clear@SapBuffer@@UAEHVSapData@@@Z 67da41c2 f   SapClassBasic:SapClassBasic82.dll
 0001:000231c8       ?Clear@SapBuffer@@UAEHH@Z  67da41c8 f   SapClassBasic:SapClassBasic82.dll
 0001:000231ce       ?Clear@SapBuffer@@UAEHXZ   67da41ce f   SapClassBasic:SapClassBasic82.dll
 0001:000231d4       ?Load@SapBuffer@@UAEHPBDHHH0@Z 67da41d4 f   SapClassBasic:SapClassBasic82.dll
 0001:000231da       ?Save@SapBuffer@@UAEHPBD0HH@Z 67da41da f   SapClassBasic:SapClassBasic82.dll
 0001:000231e0       ?Read@SapBuffer@@UAEHH_KHPAX@Z 67da41e0 f   SapClassBasic:SapClassBasic82.dll
 0001:000231e6       ?Read@SapBuffer@@UAEH_KHPAX@Z 67da41e6 f   SapClassBasic:SapClassBasic82.dll
 0001:000231ec       ?ReadElement@SapBuffer@@UAEHHHPAH00@Z 67da41ec f   SapClassBasic:SapClassBasic82.dll
 0001:000231f2       ?ReadElement@SapBuffer@@UAEHHHHPAVSapData@@@Z 67da41f2 f   SapClassBasic:SapClassBasic82.dll
 0001:000231f8       ?ReadElement@SapBuffer@@UAEHHHPAVSapData@@@Z 67da41f8 f   SapClassBasic:SapClassBasic82.dll
 0001:000231fe       ?ReadElement@SapBuffer@@UAEHHHHPAX@Z 67da41fe f   SapClassBasic:SapClassBasic82.dll
 0001:00023204       ?ReadElement@SapBuffer@@UAEHHHPAX@Z 67da4204 f   SapClassBasic:SapClassBasic82.dll
 0001:0002320a       ?ReadLine@SapBuffer@@UAEHHHHHHPAXPAH@Z 67da420a f   SapClassBasic:SapClassBasic82.dll
 0001:00023210       ?ReadLine@SapBuffer@@UAEHHHHHPAXPAH@Z 67da4210 f   SapClassBasic:SapClassBasic82.dll
 0001:00023216       ?ReadRect@SapBuffer@@UAEHHHHHHPAX@Z 67da4216 f   SapClassBasic:SapClassBasic82.dll
 0001:0002321c       ?ReadRect@SapBuffer@@UAEHHHHHPAX@Z 67da421c f   SapClassBasic:SapClassBasic82.dll
 0001:00023222       ?Write@SapBuffer@@UAEHH_KHPBX@Z 67da4222 f   SapClassBasic:SapClassBasic82.dll
 0001:00023228       ?Write@SapBuffer@@UAEH_KHPBX@Z 67da4228 f   SapClassBasic:SapClassBasic82.dll
 0001:0002322e       ?WriteElement@SapBuffer@@UAEHHHHVSapData@@@Z 67da422e f   SapClassBasic:SapClassBasic82.dll
 0001:00023234       ?WriteElement@SapBuffer@@UAEHHHVSapData@@@Z 67da4234 f   SapClassBasic:SapClassBasic82.dll
 0001:0002323a       ?WriteElement@SapBuffer@@UAEHHHHPBX@Z 67da423a f   SapClassBasic:SapClassBasic82.dll
 0001:00023240       ?WriteElement@SapBuffer@@UAEHHHPBX@Z 67da4240 f   SapClassBasic:SapClassBasic82.dll
 0001:00023246       ?WriteLine@SapBuffer@@UAEHHHHHHPBXPAH@Z 67da4246 f   SapClassBasic:SapClassBasic82.dll
 0001:0002324c       ?WriteLine@SapBuffer@@UAEHHHHHPBXPAH@Z 67da424c f   SapClassBasic:SapClassBasic82.dll
 0001:00023252       ?WriteRect@SapBuffer@@UAEHHHHHHPBX@Z 67da4252 f   SapClassBasic:SapClassBasic82.dll
 0001:00023258       ?WriteRect@SapBuffer@@UAEHHHHHPBX@Z 67da4258 f   SapClassBasic:SapClassBasic82.dll
 0001:0002325e       ?Copy@SapBuffer@@UAEHPAV1@HH@Z 67da425e f   SapClassBasic:SapClassBasic82.dll
 0001:00023264       ?Copy@SapBuffer@@UAEHPAV1@@Z 67da4264 f   SapClassBasic:SapClassBasic82.dll
 0001:0002326a       ?CopyAll@SapBuffer@@UAEHPAV1@@Z 67da426a f   SapClassBasic:SapClassBasic82.dll
 0001:00023270       ?CopyRect@SapBuffer@@UAEHPAV1@HHHHHHHH@Z 67da4270 f   SapClassBasic:SapClassBasic82.dll
 0001:00023276       ?ColorConvert@SapBuffer@@UAEHPAV1@HHHHVSapDataFRGB@@PAVSapLut@@@Z 67da4276 f   SapClassBasic:SapClassBasic82.dll
 0001:0002327c       ?ColorConvert@SapBuffer@@UAEHPAV1@HHVSapDataFRGB@@PAVSapLut@@@Z 67da427c f   SapClassBasic:SapClassBasic82.dll
 0001:00023282       ?ColorWhiteBalance@SapBuffer@@UAEHHHPAVSapDataFRGB@@@Z 67da4282 f   SapClassBasic:SapClassBasic82.dll
 0001:00023288       ?ColorWhiteBalance@SapBuffer@@UAEHHPAVSapDataFRGB@@@Z 67da4288 f   SapClassBasic:SapClassBasic82.dll
 0001:0002328e       ?SplitComponents@SapBuffer@@UAEHPAV1@00H@Z 67da428e f   SapClassBasic:SapClassBasic82.dll
 0001:00023294       ?SplitComponents@SapBuffer@@UAEHPAV1@00@Z 67da4294 f   SapClassBasic:SapClassBasic82.dll
 0001:0002329a       ?SplitComponents@SapBuffer@@UAEHPAV1@H@Z 67da429a f   SapClassBasic:SapClassBasic82.dll
 0001:000232a0       ?SplitComponents@SapBuffer@@UAEHPAV1@@Z 67da42a0 f   SapClassBasic:SapClassBasic82.dll
 0001:000232a6       ?MergeComponents@SapBuffer@@UAEHPAV1@00H@Z 67da42a6 f   SapClassBasic:SapClassBasic82.dll
 0001:000232ac       ?MergeComponents@SapBuffer@@UAEHPAV1@00@Z 67da42ac f   SapClassBasic:SapClassBasic82.dll
 0001:000232b2       ?MergeComponents@SapBuffer@@UAEHPAV1@H@Z 67da42b2 f   SapClassBasic:SapClassBasic82.dll
 0001:000232b8       ?MergeComponents@SapBuffer@@UAEHPAV1@@Z 67da42b8 f   SapClassBasic:SapClassBasic82.dll
 0001:000232be       ?Register@SapBuffer@@UAEHPBD@Z 67da42be f   SapClassBasic:SapClassBasic82.dll
 0001:000232c4       ?Unregister@SapBuffer@@UAEHXZ 67da42c4 f   SapClassBasic:SapClassBasic82.dll
 0001:000232ca       ?GetNumRoi@SapBuffer@@UBEHXZ 67da42ca f   SapClassBasic:SapClassBasic82.dll
 0001:000232d0       ?GetRoi@SapBuffer@@UBEQAUtagRECT@@H@Z 67da42d0 f   SapClassBasic:SapClassBasic82.dll
 0001:000232d6       ?AddRoi@SapBuffer@@UAEHUtagRECT@@@Z 67da42d6 f   SapClassBasic:SapClassBasic82.dll
 0001:000232dc       ?RemoveAllRoi@SapBuffer@@UAEHXZ 67da42dc f   SapClassBasic:SapClassBasic82.dll
 0001:000232e2       ?GetChild@SapBuffer@@UBEPAU__CORHANDLE@@HH@Z 67da42e2 f   SapClassBasic:SapClassBasic82.dll
 0001:000232e8       ?BayerConvert@SapBuffer@@UAEHPAV1@HHHHVSapDataFRGB@@PAVSapLut@@@Z 67da42e8 f   SapClassBasic:SapClassBasic82.dll
 0001:000232ee       ?BayerConvert@SapBuffer@@UAEHPAV1@HHVSapDataFRGB@@PAVSapLut@@@Z 67da42ee f   SapClassBasic:SapClassBasic82.dll
 0001:000232f4       ?BayerWhiteBalance@SapBuffer@@UAEHHHPAVSapDataFRGB@@@Z 67da42f4 f   SapClassBasic:SapClassBasic82.dll
 0001:000232fa       ?BayerWhiteBalance@SapBuffer@@UAEHHPAVSapDataFRGB@@@Z 67da42fa f   SapClassBasic:SapClassBasic82.dll
 0001:00023300       ?Construct@SapBuffer@@MAEXPBDPAVSapDisplay@@@Z 67da4300 f   SapClassBasic:SapClassBasic82.dll
 0001:00023306       ?GetPinNumber@SapGioCallbackInfo@@QBEHXZ 67da4306 f   SapClassBasic:SapClassBasic82.dll
 0001:0002330c       ?GetContext@SapGioCallbackInfo@@QBEPAXXZ 67da430c f   SapClassBasic:SapClassBasic82.dll
 0001:00023312       ?SetDisplayStatusMode@SapManager@@SAHHP6AXPAVSapManCallbackInfo@@@ZPAX@Z 67da4312 f   SapClassBasic:SapClassBasic82.dll
 0001:00023318       ?GetNumPins@SapGio@@QBEHXZ 67da4318 f   SapClassBasic:SapClassBasic82.dll
 0001:0002331e       ?Top@SapViewScaleParams@@QBEHXZ 67da431e f   SapClassBasic:SapClassBasic82.dll
 0001:00023324       ?Left@SapViewScaleParams@@QBEHXZ 67da4324 f   SapClassBasic:SapClassBasic82.dll
 0001:0002332a       ?Height@SapViewScaleParams@@QBEHXZ 67da432a f   SapClassBasic:SapClassBasic82.dll
 0001:00023330       ?Width@SapViewScaleParams@@QBEHXZ 67da4330 f   SapClassBasic:SapClassBasic82.dll
 0001:00023336       ?GetScaleParamsSrc@SapView@@QAEABVSapViewScaleParams@@XZ 67da4336 f   SapClassBasic:SapClassBasic82.dll
 0001:0002333c       ?GetBuffer@SapView@@QBEPAVSapBuffer@@XZ 67da433c f   SapClassBasic:SapClassBasic82.dll
 0001:00023342       ?Mono@SapDataMono@@QAEHXZ  67da4342 f   SapClassBasic:SapClassBasic82.dll
 0001:00023348       ??1SapDataMono@@UAE@XZ     67da4348 f   SapClassBasic:SapClassBasic82.dll
 0001:0002334e       ??0SapDataMono@@QAE@XZ     67da434e f   SapClassBasic:SapClassBasic82.dll
 0001:00023354       ?GetImageFilterKernelSize@SapAcquisition@@QAEHIPAW4ImageFilterKernelSize@1@@Z 67da4354 f   SapClassBasic:SapClassBasic82.dll
 0001:0002335a       ?GetImageFilter@SapAcquisition@@QAEHIPAVSapBuffer@@@Z 67da435a f   SapClassBasic:SapClassBasic82.dll
 0001:00023360       ?EnableImageFilter@SapAcquisition@@QAEHH@Z 67da4360 f   SapClassBasic:SapClassBasic82.dll
 0001:00023366       ?IsImageFilterEnabled@SapAcquisition@@QAEHXZ 67da4366 f   SapClassBasic:SapClassBasic82.dll
 0001:0002336c       ?IsImageFilterAvailable@SapAcquisition@@QBEHXZ 67da436c f   SapClassBasic:SapClassBasic82.dll
 0001:00023372       ??0SapData@@QAE@ABV0@@Z    67da4372 f   SapClassBasic:SapClassBasic82.dll
 0001:00023378       ?Set@SapDataMono@@QAEXH@Z  67da4378 f   SapClassBasic:SapClassBasic82.dll
 0001:0002337e       ?SetImageFilter@SapAcquisition@@QAEHIPAVSapBuffer@@@Z 67da437e f   SapClassBasic:SapClassBasic82.dll
 0001:00023384       ??1SapViewScaleParams@@QAE@XZ 67da4384 f   SapClassBasic:SapClassBasic82.dll
 0001:0002338a       ?ZoomVert@SapViewScaleParams@@QBEMXZ 67da438a f   SapClassBasic:SapClassBasic82.dll
 0001:00023390       ?ZoomHorz@SapViewScaleParams@@QBEMXZ 67da4390 f   SapClassBasic:SapClassBasic82.dll
 0001:00023396       ?GetScaleParamsDst@SapView@@QAEABVSapViewScaleParams@@XZ 67da4396 f   SapClassBasic:SapClassBasic82.dll
 0001:0002339c       ?SetHeight@SapViewScaleParams@@QAEXH@Z 67da439c f   SapClassBasic:SapClassBasic82.dll
 0001:000233a2       ?SetWidth@SapViewScaleParams@@QAEXH@Z 67da43a2 f   SapClassBasic:SapClassBasic82.dll
 0001:000233a8       ?SetLeft@SapViewScaleParams@@QAEXH@Z 67da43a8 f   SapClassBasic:SapClassBasic82.dll
 0001:000233ae       ?SetTop@SapViewScaleParams@@QAEXH@Z 67da43ae f   SapClassBasic:SapClassBasic82.dll
 0001:000233b4       ??0SapViewScaleParams@@QAE@XZ 67da43b4 f   SapClassBasic:SapClassBasic82.dll
 0001:000233ba       ?GetContext@SapViewCallbackInfo@@QBEPAXXZ 67da43ba f   SapClassBasic:SapClassBasic82.dll
 0001:000233c0       ??1SapDataHSI@@UAE@XZ      67da43c0 f   SapClassBasic:SapClassBasic82.dll
 0001:000233c6       ?H@SapDataHSI@@QAEHXZ      67da43c6 f   SapClassBasic:SapClassBasic82.dll
 0001:000233cc       ?S@SapDataHSI@@QAEHXZ      67da43cc f   SapClassBasic:SapClassBasic82.dll
 0001:000233d2       ?I@SapDataHSI@@QAEHXZ      67da43d2 f   SapClassBasic:SapClassBasic82.dll
 0001:000233d8       ??0SapDataHSI@@QAE@XZ      67da43d8 f   SapClassBasic:SapClassBasic82.dll
 0001:000233de       ??1SapDataLAB@@UAE@XZ      67da43de f   SapClassBasic:SapClassBasic82.dll
 0001:000233e4       ?L@SapDataLAB@@QAEHXZ      67da43e4 f   SapClassBasic:SapClassBasic82.dll
 0001:000233ea       ?A@SapDataLAB@@QAEHXZ      67da43ea f   SapClassBasic:SapClassBasic82.dll
 0001:000233f0       ?B@SapDataLAB@@QAEHXZ      67da43f0 f   SapClassBasic:SapClassBasic82.dll
 0001:000233f6       ??0SapDataLAB@@QAE@XZ      67da43f6 f   SapClassBasic:SapClassBasic82.dll
 0001:000233fc       ??1SapDataYUV@@UAE@XZ      67da43fc f   SapClassBasic:SapClassBasic82.dll
 0001:00023402       ?Y@SapDataYUV@@QAEHXZ      67da4402 f   SapClassBasic:SapClassBasic82.dll
 0001:00023408       ?U@SapDataYUV@@QAEHXZ      67da4408 f   SapClassBasic:SapClassBasic82.dll
 0001:0002340e       ?V@SapDataYUV@@QAEHXZ      67da440e f   SapClassBasic:SapClassBasic82.dll
 0001:00023414       ??0SapDataYUV@@QAE@XZ      67da4414 f   SapClassBasic:SapClassBasic82.dll
 0001:0002341a       ??0SapDataRGB@@QAE@XZ      67da441a f   SapClassBasic:SapClassBasic82.dll
 0001:00023420       ??1SapData@@UAE@XZ         67da4420 f   SapClassBasic:SapClassBasic82.dll
 0001:00023426       ??1SapDataRGB@@UAE@XZ      67da4426 f   SapClassBasic:SapClassBasic82.dll
 0001:0002342c       ?Blue@SapDataRGB@@QAEHXZ   67da442c f   SapClassBasic:SapClassBasic82.dll
 0001:00023432       ?Green@SapDataRGB@@QAEHXZ  67da4432 f   SapClassBasic:SapClassBasic82.dll
 0001:00023438       ?Red@SapDataRGB@@QAEHXZ    67da4438 f   SapClassBasic:SapClassBasic82.dll
 0001:0002343e       ??0SapDataRGB@@QAE@ABVSapData@@@Z 67da443e f   SapClassBasic:SapClassBasic82.dll
 0001:00023444       ??0SapData@@QAE@XZ         67da4444 f   SapClassBasic:SapClassBasic82.dll
 0001:0002344a       ?Alpha@SapDataRGBA@@QAEHXZ 67da444a f   SapClassBasic:SapClassBasic82.dll
 0001:00023450       ??1SapDataRGBA@@UAE@XZ     67da4450 f   SapClassBasic:SapClassBasic82.dll
 0001:00023456       ?Red@SapDataRGBA@@QAEHXZ   67da4456 f   SapClassBasic:SapClassBasic82.dll
 0001:0002345c       ?Green@SapDataRGBA@@QAEHXZ 67da445c f   SapClassBasic:SapClassBasic82.dll
 0001:00023462       ?Blue@SapDataRGBA@@QAEHXZ  67da4462 f   SapClassBasic:SapClassBasic82.dll
 0001:00023468       ??0SapDataRGBA@@QAE@XZ     67da4468 f   SapClassBasic:SapClassBasic82.dll
 0001:0002346e       ??1SapDataHSV@@UAE@XZ      67da446e f   SapClassBasic:SapClassBasic82.dll
 0001:00023474       ?H@SapDataHSV@@QAEHXZ      67da4474 f   SapClassBasic:SapClassBasic82.dll
 0001:0002347a       ?S@SapDataHSV@@QAEHXZ      67da447a f   SapClassBasic:SapClassBasic82.dll
 0001:00023480       ?V@SapDataHSV@@QAEHXZ      67da4480 f   SapClassBasic:SapClassBasic82.dll
 0001:00023486       ??0SapDataHSV@@QAE@XZ      67da4486 f   SapClassBasic:SapClassBasic82.dll
 0001:0002348c       ??1SapDataLABA@@UAE@XZ     67da448c f   SapClassBasic:SapClassBasic82.dll
 0001:00023492       ?L@SapDataLABA@@QAEHXZ     67da4492 f   SapClassBasic:SapClassBasic82.dll
 0001:00023498       ?A@SapDataLABA@@QAEHXZ     67da4498 f   SapClassBasic:SapClassBasic82.dll
 0001:0002349e       ?B@SapDataLABA@@QAEHXZ     67da449e f   SapClassBasic:SapClassBasic82.dll
 0001:000234a4       ??0SapDataLABA@@QAE@XZ     67da44a4 f   SapClassBasic:SapClassBasic82.dll
 0001:000234aa       ?GetScrollRange@SapView@@QBE?AUtagSIZE@@XZ 67da44aa f   SapClassBasic:SapClassBasic82.dll
 0001:000234b0       ?GetScrollPos@SapView@@QBE?AUtagPOINT@@XZ 67da44b0 f   SapClassBasic:SapClassBasic82.dll
 0001:000234b6       ?GetScalingMode@SapView@@QBE?AW4ScalingMode@1@XZ 67da44b6 f   SapClassBasic:SapClassBasic82.dll
 0001:000234bc       ?SetRefImage@SapPixProParams@@QAEXH@Z 67da44bc f   SapClassBasic:SapClassBasic82.dll
 0001:000234c2       ?SetBankId@SapPixProParams@@QAEXH@Z 67da44c2 f   SapClassBasic:SapClassBasic82.dll
 0001:000234c8       ??1SapPixProParams@@QAE@XZ 67da44c8 f   SapClassBasic:SapClassBasic82.dll
 0001:000234ce       ?SetConfigIndex@SapPixProParams@@QAEXH@Z 67da44ce f   SapClassBasic:SapClassBasic82.dll
 0001:000234d4       ?SetFunctionIndex@SapPixProParams@@QAEXH@Z 67da44d4 f   SapClassBasic:SapClassBasic82.dll
 0001:000234da       ?GetParams@SapPixPro@@QBEPBVSapPixProParams@@XZ 67da44da f   SapClassBasic:SapClassBasic82.dll
 0001:000234e0       ?GetConfigIndex@SapPixProParams@@QBEHXZ 67da44e0 f   SapClassBasic:SapClassBasic82.dll
 0001:000234e6       ?GetFunctionIndex@SapPixProParams@@QBEHXZ 67da44e6 f   SapClassBasic:SapClassBasic82.dll
 0001:000234ec       ?GetFile@SapPixPro@@QBEPBDXZ 67da44ec f   SapClassBasic:SapClassBasic82.dll
 0001:000234f2       ??1SapPixPro@@UAE@XZ       67da44f2 f   SapClassBasic:SapClassBasic82.dll
 0001:000234f8       ??4SapPixPro@@QAEAAV0@ABV0@@Z 67da44f8 f   SapClassBasic:SapClassBasic82.dll
 0001:000234fe       ??0SapPixPro@@QAE@VSapLocation@@PBDPAVSapXferNode@@PAVSapPixProParams@@@Z 67da44fe f   SapClassBasic:SapClassBasic82.dll
 0001:00023504       ?GetConfigInfo@SapPixPro@@QAEHHPADH@Z 67da4504 f   SapClassBasic:SapClassBasic82.dll
 0001:0002350a       ?GetNumConfigs@SapPixPro@@QAEHXZ 67da450a f   SapClassBasic:SapClassBasic82.dll
 0001:00023510       ?GetFunctionInfo@SapPixPro@@QAEHHPAUCORPPL_FCT_PROP@@PADH@Z 67da4510 f   SapClassBasic:SapClassBasic82.dll
 0001:00023516       ?GetNumFunctions@SapPixPro@@QAEHXZ 67da4516 f   SapClassBasic:SapClassBasic82.dll
 0001:0002351c       ?ReadDesign@SapPixPro@@QAEHPAD@Z 67da451c f   SapClassBasic:SapClassBasic82.dll
 0001:00023522       ?SetIntegrateFactor@SapPixProParams@@QAEXH@Z 67da4522 f   SapClassBasic:SapClassBasic82.dll
 0001:00023528       ?SetIntegrateCount@SapPixProParams@@QAEXH@Z 67da4528 f   SapClassBasic:SapClassBasic82.dll
 0001:0002352e       ?SetWeightingFactor@SapPixProParams@@QAEXH@Z 67da452e f   SapClassBasic:SapClassBasic82.dll
 0001:00023534       ?GetStringFromFormat@SapManager@@SAHHPAD@Z 67da4534 f   SapClassBasic:SapClassBasic82.dll
 0001:0002353a       ??3@YAXPAX@Z               67da453a f   mfc100:mfc100.dll
 0001:00023540       ?Default@CWnd@@IAEJXZ      67da4540 f   mfc100:mfc100.dll
 0001:00023546       ??1CDialog@@UAE@XZ         67da4546 f   mfc100:mfc100.dll
 0001:0002354c       ??_V@YAXPAX@Z              67da454c f   mfc100:mfc100.dll
 0001:00023552       ??0CDialog@@QAE@IPAVCWnd@@@Z 67da4552 f   mfc100:mfc100.dll
 0001:00023558       ?GetRuntimeClass@CDialog@@UBEPAUCRuntimeClass@@XZ 67da4558 f   mfc100:mfc100.dll
 0001:0002355e       ?OnCmdMsg@CDialog@@UAEHIHPAXPAUAFX_CMDHANDLERINFO@@@Z 67da455e f   mfc100:mfc100.dll
 0001:00023564       ?OnFinalRelease@CWnd@@UAEXXZ 67da4564 f   mfc100:mfc100.dll
 0001:0002356a       ?IsInvokeAllowed@CCmdTarget@@UAEHJ@Z 67da456a f   mfc100:mfc100.dll
 0001:00023570       ?GetDispatchIID@CCmdTarget@@UAEHPAU_GUID@@@Z 67da4570 f   mfc100:mfc100.dll
 0001:00023576       ?GetTypeInfoCount@CCmdTarget@@UAEIXZ 67da4576 f   mfc100:mfc100.dll
 0001:0002357c       ?GetTypeLibCache@CCmdTarget@@UAEPAVCTypeLibCache@@XZ 67da457c f   mfc100:mfc100.dll
 0001:00023582       ?GetTypeLib@CCmdTarget@@UAEJKPAPAUITypeLib@@@Z 67da4582 f   mfc100:mfc100.dll
 0001:00023588       ?GetCommandMap@CCmdTarget@@MBEPBUAFX_OLECMDMAP@@XZ 67da4588 f   mfc100:mfc100.dll
 0001:0002358e       ?GetDispatchMap@CCmdTarget@@MBEPBUAFX_DISPMAP@@XZ 67da458e f   mfc100:mfc100.dll
 0001:00023594       ?GetConnectionMap@CCmdTarget@@MBEPBUAFX_CONNECTIONMAP@@XZ 67da4594 f   mfc100:mfc100.dll
 0001:0002359a       ?GetInterfaceMap@CWnd@@MBEPBUAFX_INTERFACEMAP@@XZ 67da459a f   mfc100:mfc100.dll
 0001:000235a0       ?GetEventSinkMap@CCmdTarget@@MBEPBUAFX_EVENTSINKMAP@@XZ 67da45a0 f   mfc100:mfc100.dll
 0001:000235a6       ?OnCreateAggregates@CCmdTarget@@UAEHXZ 67da45a6 f   mfc100:mfc100.dll
 0001:000235ac       ?GetInterfaceHook@CCmdTarget@@UAEPAUIUnknown@@PBX@Z 67da45ac f   mfc100:mfc100.dll
 0001:000235b2       ?GetExtraConnectionPoints@CCmdTarget@@MAEHPAVCPtrArray@@@Z 67da45b2 f   mfc100:mfc100.dll
 0001:000235b8       ?GetConnectionHook@CCmdTarget@@MAEPAUIConnectionPoint@@ABU_GUID@@@Z 67da45b8 f   mfc100:mfc100.dll
 0001:000235be       ?PreSubclassWindow@CWnd@@UAEXXZ 67da45be f   mfc100:mfc100.dll
 0001:000235c4       ?Create@CWnd@@UAEHPBD0KABUtagRECT@@PAV1@IPAUCCreateContext@@@Z 67da45c4 f   mfc100:mfc100.dll
 0001:000235ca       ?CreateEx@CWnd@@UAEHKPBD0KABUtagRECT@@PAV1@IPAX@Z 67da45ca f   mfc100:mfc100.dll
 0001:000235d0       ?CreateEx@CWnd@@UAEHKPBD0KHHHHPAUHWND__@@PAUHMENU__@@PAX@Z 67da45d0 f   mfc100:mfc100.dll
 0001:000235d6       ?DestroyWindow@CWnd@@UAEHXZ 67da45d6 f   mfc100:mfc100.dll
 0001:000235dc       ?PreCreateWindow@CWnd@@UAEHAAUtagCREATESTRUCTA@@@Z 67da45dc f   mfc100:mfc100.dll
 0001:000235e2       ?CalcWindowRect@CWnd@@UAEXPAUtagRECT@@I@Z 67da45e2 f   mfc100:mfc100.dll
 0001:000235e8       ?GetMenu@CWnd@@UBEPAVCMenu@@XZ 67da45e8 f   mfc100:mfc100.dll
 0001:000235ee       ?SetMenu@CWnd@@UAEHPAVCMenu@@@Z 67da45ee f   mfc100:mfc100.dll
 0001:000235f4       ?OnToolHitTest@CWnd@@UBEHVCPoint@@PAUtagTOOLINFOA@@@Z 67da45f4 f   mfc100:mfc100.dll
 0001:000235fa       ?GetScrollBarCtrl@CWnd@@UBEPAVCScrollBar@@H@Z 67da45fa f   mfc100:mfc100.dll
 0001:00023600       ?WinHelpA@CWnd@@UAEXKI@Z   67da4600 f   mfc100:mfc100.dll
 0001:00023606       ?HtmlHelpA@CWnd@@UAEXKI@Z  67da4606 f   mfc100:mfc100.dll
 0001:0002360c       ?WinHelpInternal@CWnd@@UAEXKI@Z 67da460c f   mfc100:mfc100.dll
 0001:00023612       ?ContinueModal@CWnd@@UAEHXZ 67da4612 f   mfc100:mfc100.dll
 0001:00023618       ?EndModalLoop@CWnd@@UAEXH@Z 67da4618 f   mfc100:mfc100.dll
 0001:0002361e       ?OnDrawIconicThumbnailOrLivePreview@CWnd@@UAEXAAVCDC@@VCRect@@VCSize@@HAAH@Z 67da461e f   mfc100:mfc100.dll
 0001:00023624       ?EnsureStdObj@CWnd@@UAEJXZ 67da4624 f   mfc100:mfc100.dll
 0001:0002362a       ?get_accParent@CWnd@@UAEJPAPAUIDispatch@@@Z 67da462a f   mfc100:mfc100.dll
 0001:00023630       ?get_accChildCount@CWnd@@UAEJPAJ@Z 67da4630 f   mfc100:mfc100.dll
 0001:00023636       ?get_accChild@CWnd@@UAEJUtagVARIANT@@PAPAUIDispatch@@@Z 67da4636 f   mfc100:mfc100.dll
 0001:0002363c       ?get_accName@CWnd@@UAEJUtagVARIANT@@PAPA_W@Z 67da463c f   mfc100:mfc100.dll
 0001:00023642       ?get_accValue@CWnd@@UAEJUtagVARIANT@@PAPA_W@Z 67da4642 f   mfc100:mfc100.dll
 0001:00023648       ?get_accDescription@CWnd@@UAEJUtagVARIANT@@PAPA_W@Z 67da4648 f   mfc100:mfc100.dll
 0001:0002364e       ?get_accRole@CWnd@@UAEJUtagVARIANT@@PAU2@@Z 67da464e f   mfc100:mfc100.dll
 0001:00023654       ?get_accState@CWnd@@UAEJUtagVARIANT@@PAU2@@Z 67da4654 f   mfc100:mfc100.dll
 0001:0002365a       ?get_accHelp@CWnd@@UAEJUtagVARIANT@@PAPA_W@Z 67da465a f   mfc100:mfc100.dll
 0001:00023660       ?get_accHelpTopic@CWnd@@UAEJPAPA_WUtagVARIANT@@PAJ@Z 67da4660 f   mfc100:mfc100.dll
 0001:00023666       ?get_accKeyboardShortcut@CWnd@@UAEJUtagVARIANT@@PAPA_W@Z 67da4666 f   mfc100:mfc100.dll
 0001:0002366c       ?get_accFocus@CWnd@@UAEJPAUtagVARIANT@@@Z 67da466c f   mfc100:mfc100.dll
 0001:00023672       ?get_accSelection@CWnd@@UAEJPAUtagVARIANT@@@Z 67da4672 f   mfc100:mfc100.dll
 0001:00023678       ?get_accDefaultAction@CWnd@@UAEJUtagVARIANT@@PAPA_W@Z 67da4678 f   mfc100:mfc100.dll
 0001:0002367e       ?accSelect@CWnd@@UAEJJUtagVARIANT@@@Z 67da467e f   mfc100:mfc100.dll
 0001:00023684       ?accLocation@CWnd@@UAEJPAJ000UtagVARIANT@@@Z 67da4684 f   mfc100:mfc100.dll
 0001:0002368a       ?accNavigate@CWnd@@UAEJJUtagVARIANT@@PAU2@@Z 67da468a f   mfc100:mfc100.dll
 0001:00023690       ?accHitTest@CWnd@@UAEJJJPAUtagVARIANT@@@Z 67da4690 f   mfc100:mfc100.dll
 0001:00023696       ?accDoDefaultAction@CWnd@@UAEJUtagVARIANT@@@Z 67da4696 f   mfc100:mfc100.dll
 0001:0002369c       ?put_accName@CWnd@@UAEJUtagVARIANT@@PA_W@Z 67da469c f   mfc100:mfc100.dll
 0001:000236a2       ?put_accValue@CWnd@@UAEJUtagVARIANT@@PA_W@Z 67da46a2 f   mfc100:mfc100.dll
 0001:000236a8       ?SetProxy@CWnd@@UAEJPAUIAccessibleProxy@@@Z 67da46a8 f   mfc100:mfc100.dll
 0001:000236ae       ?CreateAccessibleProxy@CWnd@@UAEJIJPAJ@Z 67da46ae f   mfc100:mfc100.dll
 0001:000236b4       ?OnCommand@CWnd@@MAEHIJ@Z  67da46b4 f   mfc100:mfc100.dll
 0001:000236ba       ?OnNotify@CWnd@@MAEHIJPAJ@Z 67da46ba f   mfc100:mfc100.dll
 0001:000236c0       ?GetSuperWndProcAddr@CWnd@@MAEPAP6GJPAUHWND__@@IIJ@ZXZ 67da46c0 f   mfc100:mfc100.dll
 0001:000236c6       ?PreTranslateMessage@CDialog@@UAEHPAUtagMSG@@@Z 67da46c6 f   mfc100:mfc100.dll
 0001:000236cc       ?OnAmbientProperty@CWnd@@UAEHPAVCOleControlSite@@JPAUtagVARIANT@@@Z 67da46cc f   mfc100:mfc100.dll
 0001:000236d2       ?WindowProc@CWnd@@MAEJIIJ@Z 67da46d2 f   mfc100:mfc100.dll
 0001:000236d8       ?OnWndMsg@CWnd@@MAEHIIJPAJ@Z 67da46d8 f   mfc100:mfc100.dll
 0001:000236de       ?DefWindowProcA@CWnd@@MAEJIIJ@Z 67da46de f   mfc100:mfc100.dll
 0001:000236e4       ?PostNcDestroy@CWnd@@MAEXXZ 67da46e4 f   mfc100:mfc100.dll
 0001:000236ea       ?OnChildNotify@CWnd@@MAEHIIJPAJ@Z 67da46ea f   mfc100:mfc100.dll
 0001:000236f0       ?OnTouchInputs@CWnd@@MAEHIPAUtagTOUCHINPUT@@@Z 67da46f0 f   mfc100:mfc100.dll
 0001:000236f6       ?OnTouchInput@CWnd@@MAEHVCPoint@@HHPAUtagTOUCHINPUT@@@Z 67da46f6 f   mfc100:mfc100.dll
 0001:000236fc       ?GetGestureStatus@CWnd@@MAEKVCPoint@@@Z 67da46fc f   mfc100:mfc100.dll
 0001:00023702       ?OnGestureZoom@CWnd@@MAEHVCPoint@@J@Z 67da4702 f   mfc100:mfc100.dll
 0001:00023708       ?OnGesturePan@CWnd@@MAEHVCPoint@@0@Z 67da4708 f   mfc100:mfc100.dll
 0001:0002370e       ?OnGestureRotate@CWnd@@MAEHVCPoint@@N@Z 67da470e f   mfc100:mfc100.dll
 0001:00023714       ?OnGestureTwoFingerTap@CWnd@@MAEHVCPoint@@@Z 67da4714 f   mfc100:mfc100.dll
 0001:0002371a       ?OnGesturePressAndTap@CWnd@@MAEHVCPoint@@J@Z 67da471a f   mfc100:mfc100.dll
 0001:00023720       ?CheckAutoCenter@CDialog@@UAEHXZ 67da4720 f   mfc100:mfc100.dll
 0001:00023726       ?IsFrameWnd@CWnd@@UBEHXZ   67da4726 f   mfc100:mfc100.dll
 0001:0002372c       ?CreateControlContainer@CWnd@@MAEHPAPAVCOleControlContainer@@@Z 67da472c f   mfc100:mfc100.dll
 0001:00023732       ?CreateControlSite@CWnd@@MAEHPAVCOleControlContainer@@PAPAVCOleControlSite@@IABU_GUID@@@Z 67da4732 f   mfc100:mfc100.dll
 0001:00023738       ?SetOccDialogInfo@CDialog@@MAEHPAU_AFX_OCC_DIALOG_INFO@@@Z 67da4738 f   mfc100:mfc100.dll
 0001:0002373e       ?GetOccDialogInfo@CDialog@@MAEPAU_AFX_OCC_DIALOG_INFO@@XZ 67da473e f   mfc100:mfc100.dll
 0001:00023744       ?Create@CDialog@@UAEHPBDPAVCWnd@@@Z 67da4744 f   mfc100:mfc100.dll
 0001:0002374a       ?CreateIndirect@CDialog@@UAEHPAXPAVCWnd@@@Z 67da474a f   mfc100:mfc100.dll
 0001:00023750       ?CreateIndirect@CDialog@@UAEHPBUDLGTEMPLATE@@PAVCWnd@@PAX@Z 67da4750 f   mfc100:mfc100.dll
 0001:00023756       ?DoModal@CDialog@@UAEHXZ   67da4756 f   mfc100:mfc100.dll
 0001:0002375c       ?OnSetFont@CDialog@@UAEXPAVCFont@@@Z 67da475c f   mfc100:mfc100.dll
 0001:00023762       ?OnOK@CDialog@@MAEXXZ      67da4762 f   mfc100:mfc100.dll
 0001:00023768       ?OnCancel@CDialog@@MAEXXZ  67da4768 f   mfc100:mfc100.dll
 0001:0002376e       ?PreInitDialog@CDialog@@MAEXXZ 67da476e f   mfc100:mfc100.dll
 0001:00023774       ?SetWindowPos@CWnd@@QAEHPBV1@HHHHI@Z 67da4774 f   mfc100:mfc100.dll
 0001:0002377a       ?OnInitDialog@CDialog@@UAEHXZ 67da477a f   mfc100:mfc100.dll
 0001:00023780       ?GetThisMessageMap@CDialog@@KGPBUAFX_MSGMAP@@XZ 67da4780 f   mfc100:mfc100.dll
 0001:00023786       ??1?$CStringT@DV?$StrTraitMFC_DLL@DV?$ChTraitsCRT@D@ATL@@@@@ATL@@QAE@XZ 67da4786 f   mfc100:mfc100.dll
 0001:0002378c       ??B?$CSimpleStringT@D$00@ATL@@QBEPBDXZ 67da478c f   mfc100:mfc100.dll
 0001:00023792       ??0?$CStringT@DV?$StrTraitMFC_DLL@DV?$ChTraitsCRT@D@ATL@@@@@ATL@@QAE@ABV01@@Z 67da4792 f   mfc100:mfc100.dll
 0001:00023798       ??0?$CStringT@DV?$StrTraitMFC_DLL@DV?$ChTraitsCRT@D@ATL@@@@@ATL@@QAE@PBD@Z 67da4798 f   mfc100:mfc100.dll
 0001:0002379e       ?SetDlgItemTextA@CWnd@@QAEXHPBD@Z 67da479e f   mfc100:mfc100.dll
 0001:000237a4       ?MessageBoxA@CWnd@@QAEHPBD0I@Z 67da47a4 f   mfc100:mfc100.dll
 0001:000237aa       ?CompareNoCase@?$CStringT@DV?$StrTraitMFC_DLL@DV?$ChTraitsCRT@D@ATL@@@@@ATL@@QBEHPBD@Z 67da47aa f   mfc100:mfc100.dll
 0001:000237b0       ?ReleaseBuffer@?$CSimpleStringT@D$00@ATL@@QAEXH@Z 67da47b0 f   mfc100:mfc100.dll
 0001:000237b6       ?GetBuffer@?$CSimpleStringT@D$00@ATL@@QAEPADH@Z 67da47b6 f   mfc100:mfc100.dll
 0001:000237bc       ?Concatenate@?$CSimpleStringT@D$00@ATL@@KAXAAV12@PBDH1H@Z 67da47bc f   mfc100:mfc100.dll
 0001:000237c2       ?GetLength@?$CSimpleStringT@D$00@ATL@@QBEHXZ 67da47c2 f   mfc100:mfc100.dll
 0001:000237c8       ??0?$CStringT@DV?$StrTraitMFC_DLL@DV?$ChTraitsCRT@D@ATL@@@@@ATL@@QAE@PAUIAtlStringMgr@1@@Z 67da47c8 f   mfc100:mfc100.dll
 0001:000237ce       ?GetManager@?$CStringT@DV?$StrTraitMFC_DLL@DV?$ChTraitsCRT@D@ATL@@@@@ATL@@QBEPAUIAtlStringMgr@2@XZ 67da47ce f   mfc100:mfc100.dll
 0001:000237d4       ?AfxGetModuleState@@YGPAVAFX_MODULE_STATE@@XZ 67da47d4 f   mfc100:mfc100.dll
 0001:000237da       ??0CWnd@@QAE@XZ            67da47da f   mfc100:mfc100.dll
 0001:000237e0       ?GetRuntimeClass@CListBox@@UBEPAUCRuntimeClass@@XZ 67da47e0 f   mfc100:mfc100.dll
 0001:000237e6       ?OnCmdMsg@CCmdTarget@@UAEHIHPAXPAUAFX_CMDHANDLERINFO@@@Z 67da47e6 f   mfc100:mfc100.dll
 0001:000237ec       ?GetMessageMap@CWnd@@MBEPBUAFX_MSGMAP@@XZ 67da47ec f   mfc100:mfc100.dll
 0001:000237f2       ?PreTranslateMessage@CWnd@@UAEHPAUtagMSG@@@Z 67da47f2 f   mfc100:mfc100.dll
 0001:000237f8       ?OnChildNotify@CListBox@@MAEHIIJPAJ@Z 67da47f8 f   mfc100:mfc100.dll
 0001:000237fe       ?CheckAutoCenter@CWnd@@UAEHXZ 67da47fe f   mfc100:mfc100.dll
 0001:00023804       ?SetOccDialogInfo@CWnd@@MAEHPAU_AFX_OCC_DIALOG_INFO@@@Z 67da4804 f   mfc100:mfc100.dll
 0001:0002380a       ?GetOccDialogInfo@CWnd@@MAEPAU_AFX_OCC_DIALOG_INFO@@XZ 67da480a f   mfc100:mfc100.dll
 0001:00023810       ?Create@CListBox@@UAEHKABUtagRECT@@PAVCWnd@@I@Z 67da4810 f   mfc100:mfc100.dll
 0001:00023816       ?DrawItem@CListBox@@UAEXPAUtagDRAWITEMSTRUCT@@@Z 67da4816 f   mfc100:mfc100.dll
 0001:0002381c       ?MeasureItem@CListBox@@UAEXPAUtagMEASUREITEMSTRUCT@@@Z 67da481c f   mfc100:mfc100.dll
 0001:00023822       ?CompareItem@CListBox@@UAEHPAUtagCOMPAREITEMSTRUCT@@@Z 67da4822 f   mfc100:mfc100.dll
 0001:00023828       ?DeleteItem@CListBox@@UAEXPAUtagDELETEITEMSTRUCT@@@Z 67da4828 f   mfc100:mfc100.dll
 0001:0002382e       ?VKeyToItem@CListBox@@UAEHII@Z 67da482e f   mfc100:mfc100.dll
 0001:00023834       ?CharToItem@CListBox@@UAEHII@Z 67da4834 f   mfc100:mfc100.dll
 0001:0002383a       ??1CListBox@@UAE@XZ        67da483a f   mfc100:mfc100.dll
 0001:00023840       ?GetRuntimeClass@CComboBox@@UBEPAUCRuntimeClass@@XZ 67da4840 f   mfc100:mfc100.dll
 0001:00023846       ?OnChildNotify@CComboBox@@MAEHIIJPAJ@Z 67da4846 f   mfc100:mfc100.dll
 0001:0002384c       ?Create@CComboBox@@UAEHKABUtagRECT@@PAVCWnd@@I@Z 67da484c f   mfc100:mfc100.dll
 0001:00023852       ?DrawItem@CComboBox@@UAEXPAUtagDRAWITEMSTRUCT@@@Z 67da4852 f   mfc100:mfc100.dll
 0001:00023858       ?MeasureItem@CComboBox@@UAEXPAUtagMEASUREITEMSTRUCT@@@Z 67da4858 f   mfc100:mfc100.dll
 0001:0002385e       ?CompareItem@CComboBox@@UAEHPAUtagCOMPAREITEMSTRUCT@@@Z 67da485e f   mfc100:mfc100.dll
 0001:00023864       ?DeleteItem@CComboBox@@UAEXPAUtagDELETEITEMSTRUCT@@@Z 67da4864 f   mfc100:mfc100.dll
 0001:0002386a       ??1CComboBox@@UAE@XZ       67da486a f   mfc100:mfc100.dll
 0001:00023870       ?GetRuntimeClass@CEdit@@UBEPAUCRuntimeClass@@XZ 67da4870 f   mfc100:mfc100.dll
 0001:00023876       ??1CEdit@@UAE@XZ           67da4876 f   mfc100:mfc100.dll
 0001:0002387c       ?DDX_Check@@YGXPAVCDataExchange@@HAAH@Z 67da487c f   mfc100:mfc100.dll
 0001:00023882       ?DDX_CBIndex@@YGXPAVCDataExchange@@HAAH@Z 67da4882 f   mfc100:mfc100.dll
 0001:00023888       ?DDX_CBString@@YGXPAVCDataExchange@@HAAV?$CStringT@DV?$StrTraitMFC_DLL@DV?$ChTraitsCRT@D@ATL@@@@@ATL@@@Z 67da4888 f   mfc100:mfc100.dll
 0001:0002388e       ?DDX_Control@@YGXPAVCDataExchange@@HAAVCWnd@@@Z 67da488e f   mfc100:mfc100.dll
 0001:00023894       ?GetLBText@CComboBox@@QBEXHAAV?$CStringT@DV?$StrTraitMFC_DLL@DV?$ChTraitsCRT@D@ATL@@@@@ATL@@@Z 67da4894 f   mfc100:mfc100.dll
 0001:0002389a       ?IsEmpty@?$CSimpleStringT@D$00@ATL@@QBE_NXZ 67da489a f   mfc100:mfc100.dll
 0001:000238a0       ?UpdateData@CWnd@@QAEHH@Z  67da48a0 f   mfc100:mfc100.dll
 0001:000238a6       ?EnableWindow@CWnd@@QAEHH@Z 67da48a6 f   mfc100:mfc100.dll
 0001:000238ac       ?GetDlgItem@CWnd@@QBEPAV1@H@Z 67da48ac f   mfc100:mfc100.dll
 0001:000238b2       ??4?$CStringT@DV?$StrTraitMFC_DLL@DV?$ChTraitsCRT@D@ATL@@@@@ATL@@QAEAAV01@ABV01@@Z 67da48b2 f   mfc100:mfc100.dll
 0001:000238b8       ??0?$CStringT@DV?$StrTraitMFC_DLL@DV?$ChTraitsCRT@D@ATL@@@@@ATL@@QAE@XZ 67da48b8 f   mfc100:mfc100.dll
 0001:000238be       ??4?$CStringT@DV?$StrTraitMFC_DLL@DV?$ChTraitsCRT@D@ATL@@@@@ATL@@QAEAAV01@PBD@Z 67da48be f   mfc100:mfc100.dll
 0001:000238c4       ??1CFileDialog@@UAE@XZ     67da48c4 f   mfc100:mfc100.dll
 0001:000238ca       ?GetPathName@CFileDialog@@QBE?AV?$CStringT@DV?$StrTraitMFC_DLL@DV?$ChTraitsCRT@D@ATL@@@@@ATL@@XZ 67da48ca f   mfc100:mfc100.dll
 0001:000238d0       ?DoModal@CFileDialog@@UAEHXZ 67da48d0 f   mfc100:mfc100.dll
 0001:000238d6       ?GetOFN@CFileDialog@@QAEAAUtagOFNA@@XZ 67da48d6 f   mfc100:mfc100.dll
 0001:000238dc       ??0CFileDialog@@QAE@HPBD0K0PAVCWnd@@KH@Z 67da48dc f   mfc100:mfc100.dll
 0001:000238e2       ?OnVScroll@CWnd@@IAEXIIPAVCScrollBar@@@Z 67da48e2 f   mfc100:mfc100.dll
 0001:000238e8       ?AfxMessageBox@@YGHPBDII@Z 67da48e8 f   mfc100:mfc100.dll
 0001:000238ee       ?GetRuntimeClass@CScrollBar@@UBEPAUCRuntimeClass@@XZ 67da48ee f   mfc100:mfc100.dll
 0001:000238f4       ?Create@CScrollBar@@UAEHKABUtagRECT@@PAVCWnd@@I@Z 67da48f4 f   mfc100:mfc100.dll
 0001:000238fa       ??1CScrollBar@@UAE@XZ      67da48fa f   mfc100:mfc100.dll
 0001:00023900       ?DDX_Text@@YGXPAVCDataExchange@@HAAH@Z 67da4900 f   mfc100:mfc100.dll
 0001:00023906       ?GetDlgCtrlID@CWnd@@QBEHXZ 67da4906 f   mfc100:mfc100.dll
 0001:0002390c       ?DDV_MinMaxInt@@YGXPAVCDataExchange@@HHH@Z 67da490c f   mfc100:mfc100.dll
 0001:00023912       ?DDX_Radio@@YGXPAVCDataExchange@@HAAH@Z 67da4912 f   mfc100:mfc100.dll
 0001:00023918       ?DDX_Text@@YGXPAVCDataExchange@@HAAM@Z 67da4918 f   mfc100:mfc100.dll
 0001:0002391e       ?AfxFindResourceHandle@@YGPAUHINSTANCE__@@PBD0@Z 67da491e f   mfc100:mfc100.dll
 0001:00023924       ?DDV_MinMaxUInt@@YGXPAVCDataExchange@@III@Z 67da4924 f   mfc100:mfc100.dll
 0001:0002392a       ?InsertItem@CTabCtrl@@QAEJIHPBDHJ@Z 67da492a f   mfc100:mfc100.dll
 0001:00023930       ??2@YAPAXI@Z               67da4930 f   mfc100:mfc100.dll
 0001:00023936       ?DDV_MinMaxDWord@@YGXPAVCDataExchange@@KKK@Z 67da4936 f   mfc100:mfc100.dll
 0001:0002393c       ?IsWindowEnabled@CWnd@@QBEHXZ 67da493c f   mfc100:mfc100.dll
 0001:00023942       ?Format@?$CStringT@DV?$StrTraitMFC_DLL@DV?$ChTraitsCRT@D@ATL@@@@@ATL@@QAAXPBDZZ 67da4942 f   mfc100:mfc100.dll
 0001:00023948       ?StringLength@?$CSimpleStringT@D$00@ATL@@SAHPBD@Z 67da4948 f   mfc100:mfc100.dll
 0001:0002394e       ??_U@YAPAXI@Z              67da494e f   mfc100:mfc100.dll
 0001:00023954       ?EndWaitCursor@CCmdTarget@@QAEXXZ 67da4954 f   mfc100:mfc100.dll
 0001:0002395a       ?BeginWaitCursor@CCmdTarget@@QAEXXZ 67da495a f   mfc100:mfc100.dll
 0001:00023960       ??Y?$CStringT@DV?$StrTraitMFC_DLL@DV?$ChTraitsCRT@D@ATL@@@@@ATL@@QAEAAV01@PBD@Z 67da4960 f   mfc100:mfc100.dll
 0001:00023966       ?Replace@?$CStringT@DV?$StrTraitMFC_DLL@DV?$ChTraitsCRT@D@ATL@@@@@ATL@@QAEHPBD0@Z 67da4966 f   mfc100:mfc100.dll
 0001:0002396c       ?GetDlgItemTextA@CWnd@@QBEHHPADH@Z 67da496c f   mfc100:mfc100.dll
 0001:00023972       ?DDX_Text@@YGXPAVCDataExchange@@HAAV?$CStringT@DV?$StrTraitMFC_DLL@DV?$ChTraitsCRT@D@ATL@@@@@ATL@@@Z 67da4972 f   mfc100:mfc100.dll
 0001:00023978       ?GetRuntimeClass@CSliderCtrl@@UBEPAUCRuntimeClass@@XZ 67da4978 f   mfc100:mfc100.dll
 0001:0002397e       ?Create@CSliderCtrl@@UAEHKABUtagRECT@@PAVCWnd@@I@Z 67da497e f   mfc100:mfc100.dll
 0001:00023984       ?CreateEx@CSliderCtrl@@UAEHKKABUtagRECT@@PAVCWnd@@I@Z 67da4984 f   mfc100:mfc100.dll
 0001:0002398a       ??1CSliderCtrl@@UAE@XZ     67da498a f   mfc100:mfc100.dll
 0001:00023990       ?DDX_Text@@YGXPAVCDataExchange@@HAAJ@Z 67da4990 f   mfc100:mfc100.dll
 0001:00023996       ?SetRange@CSliderCtrl@@QAEXHHH@Z 67da4996 f   mfc100:mfc100.dll
 0001:0002399c       ?OnHScroll@CWnd@@IAEXIIPAVCScrollBar@@@Z 67da499c f   mfc100:mfc100.dll
 0001:000239a2       ?CheckRadioButton@CWnd@@QAEXHHH@Z 67da49a2 f   mfc100:mfc100.dll
 0001:000239a8       ??1CButton@@UAE@XZ         67da49a8 f   mfc100:mfc100.dll
 0001:000239ae       ??1CStatic@@UAE@XZ         67da49ae f   mfc100:mfc100.dll
 0001:000239b4       ?OnDestroy@CWnd@@IAEXXZ    67da49b4 f   mfc100:mfc100.dll
 0001:000239ba       ?SetWindowTextA@CWnd@@QAEXPBD@Z 67da49ba f   mfc100:mfc100.dll
 0001:000239c0       ??Y?$CStringT@DV?$StrTraitMFC_DLL@DV?$ChTraitsCRT@D@ATL@@@@@ATL@@QAEAAV01@ABV?$CSimpleStringT@D$00@1@@Z 67da49c0 f   mfc100:mfc100.dll
 0001:000239c6       ?FromHandle@CDC@@SGPAV1@PAUHDC__@@@Z 67da49c6 f   mfc100:mfc100.dll
 0001:000239cc       ?FromHandle@CWnd@@SGPAV1@PAUHWND__@@@Z 67da49cc f   mfc100:mfc100.dll
 0001:000239d2       ?GetRuntimeClass@CStatic@@UBEPAUCRuntimeClass@@XZ 67da49d2 f   mfc100:mfc100.dll
 0001:000239d8       ?OnChildNotify@CStatic@@MAEHIIJPAJ@Z 67da49d8 f   mfc100:mfc100.dll
 0001:000239de       ?Create@CStatic@@UAEHPBDKABUtagRECT@@PAVCWnd@@I@Z 67da49de f   mfc100:mfc100.dll
 0001:000239e4       ?DrawItem@CStatic@@UAEXPAUtagDRAWITEMSTRUCT@@@Z 67da49e4 f   mfc100:mfc100.dll
 0001:000239ea       ?GetRuntimeClass@CButton@@UBEPAUCRuntimeClass@@XZ 67da49ea f   mfc100:mfc100.dll
 0001:000239f0       ?OnChildNotify@CButton@@MAEHIIJPAJ@Z 67da49f0 f   mfc100:mfc100.dll
 0001:000239f6       ?Create@CButton@@UAEHPBDKABUtagRECT@@PAVCWnd@@I@Z 67da49f6 f   mfc100:mfc100.dll
 0001:000239fc       ?DrawItem@CButton@@UAEXPAUtagDRAWITEMSTRUCT@@@Z 67da49fc f   mfc100:mfc100.dll
 0001:00023a02       ?Find@?$CStringT@DV?$StrTraitMFC_DLL@DV?$ChTraitsCRT@D@ATL@@@@@ATL@@QBEHPBDH@Z 67da4a02 f   mfc100:mfc100.dll
 0001:00023a08       ?ShowWindow@CWnd@@QAEHH@Z  67da4a08 f   mfc100:mfc100.dll
 0001:00023a0e       ?GetRuntimeClass@CGdiObject@@UBEPAUCRuntimeClass@@XZ 67da4a0e f   mfc100:mfc100.dll
 0001:00023a14       ?DeleteObject@CGdiObject@@QAEHXZ 67da4a14 f   mfc100:mfc100.dll
 0001:00023a1a       ?GetRuntimeClass@CBrush@@UBEPAUCRuntimeClass@@XZ 67da4a1a f   mfc100:mfc100.dll
 0001:00023a20       ?MoveWindow@CWnd@@QAEXHHHHH@Z 67da4a20 f   mfc100:mfc100.dll
 0001:00023a26       ?OnCtlColor@CWnd@@IAEPAUHBRUSH__@@PAVCDC@@PAV1@I@Z 67da4a26 f   mfc100:mfc100.dll
 0001:00023a2c       ?GetWindowTextA@CWnd@@QBEXAAV?$CStringT@DV?$StrTraitMFC_DLL@DV?$ChTraitsCRT@D@ATL@@@@@ATL@@@Z 67da4a2c f   mfc100:mfc100.dll
 0001:00023a32       ?ModifyStyle@CWnd@@QAEHKKI@Z 67da4a32 f   mfc100:mfc100.dll
 0001:00023a38       ?GetThisClass@CStatic@@SGPAUCRuntimeClass@@XZ 67da4a38 f   mfc100:mfc100.dll
 0001:00023a3e       ?SetFocus@CWnd@@QAEPAV1@XZ 67da4a3e f   mfc100:mfc100.dll
 0001:00023a44       ?GetRuntimeClass@CPen@@UBEPAUCRuntimeClass@@XZ 67da4a44 f   mfc100:mfc100.dll
 0001:00023a4a       ?Attach@CGdiObject@@QAEHPAX@Z 67da4a4a f   mfc100:mfc100.dll
 0001:00023a50       ?GetRuntimeClass@CBitmap@@UBEPAUCRuntimeClass@@XZ 67da4a50 f   mfc100:mfc100.dll
 0001:00023a56       ?GetRuntimeClass@CRgn@@UBEPAUCRuntimeClass@@XZ 67da4a56 f   mfc100:mfc100.dll
 0001:00023a5c       ?Attach@CDC@@QAEHPAUHDC__@@@Z 67da4a5c f   mfc100:mfc100.dll
 0001:00023a62       ?SelectGdiObject@CDC@@KGPAVCGdiObject@@PAUHDC__@@PAX@Z 67da4a62 f   mfc100:mfc100.dll
 0001:00023a68       ?SetScrollInfo@CWnd@@QAEHHPAUtagSCROLLINFO@@H@Z 67da4a68 f   mfc100:mfc100.dll
 0001:00023a6e       ?GetScrollInfo@CWnd@@QAEHHPAUtagSCROLLINFO@@I@Z 67da4a6e f   mfc100:mfc100.dll
 0001:00023a74       ??1CPaintDC@@UAE@XZ        67da4a74 f   mfc100:mfc100.dll
 0001:00023a7a       ??1CDC@@UAE@XZ             67da4a7a f   mfc100:mfc100.dll
 0001:00023a80       ?DeleteDC@CDC@@QAEHXZ      67da4a80 f   mfc100:mfc100.dll
 0001:00023a86       ?SelectObject@CDC@@QAEPAVCBrush@@PAV2@@Z 67da4a86 f   mfc100:mfc100.dll
 0001:00023a8c       ?SelectObject@CDC@@QAEPAVCPen@@PAV2@@Z 67da4a8c f   mfc100:mfc100.dll
 0001:00023a92       ?SelectClipRgn@CDC@@QAEHPAVCRgn@@@Z 67da4a92 f   mfc100:mfc100.dll
 0001:00023a98       ??0CDC@@QAE@XZ             67da4a98 f   mfc100:mfc100.dll
 0001:00023a9e       ??0CPaintDC@@QAE@PAVCWnd@@@Z 67da4a9e f   mfc100:mfc100.dll
 0001:00023aa4       ?GetThisMessageMap@CWnd@@KGPBUAFX_MSGMAP@@XZ 67da4aa4 f   mfc100:mfc100.dll
 0001:00023aaa       ?GetThisClass@CDialog@@SGPAUCRuntimeClass@@XZ 67da4aaa f   mfc100:mfc100.dll
 0001:00023ab0       ?FromHandle@CGdiObject@@SGPAV1@PAX@Z 67da4ab0 f   mfc100:mfc100.dll
 0001:00023ab6       ?Create@CEdit@@QAEHKABUtagRECT@@PAVCWnd@@I@Z 67da4ab6 f   mfc100:mfc100.dll
 0001:00023abc       ?ScreenToClient@CWnd@@QBEXPAUtagRECT@@@Z 67da4abc f   mfc100:mfc100.dll
 0001:00023ac2       ?EndDialog@CDialog@@QAEXH@Z 67da4ac2 f   mfc100:mfc100.dll
 0001:00023ac8       ?ClientToScreen@CWnd@@QBEXPAUtagRECT@@@Z 67da4ac8 f   mfc100:mfc100.dll
 0001:00023ace       ?Construct@CRectTracker@@IAEXXZ 67da4ace f   mfc100:mfc100.dll
 0001:00023ad4       ?DrawTrackerRect@CRectTracker@@UAEXPBUtagRECT@@PAVCWnd@@PAVCDC@@1@Z 67da4ad4 f   mfc100:mfc100.dll
 0001:00023ada       ?AdjustRect@CRectTracker@@UAEXHPAUtagRECT@@@Z 67da4ada f   mfc100:mfc100.dll
 0001:00023ae0       ?OnChangedRect@CRectTracker@@UAEXABVCRect@@@Z 67da4ae0 f   mfc100:mfc100.dll
 0001:00023ae6       ?GetHandleMask@CRectTracker@@UBEIXZ 67da4ae6 f   mfc100:mfc100.dll
 0001:00023aec       ?GetHandleSize@CRectTracker@@MBEHPBUtagRECT@@@Z 67da4aec f   mfc100:mfc100.dll
 0001:00023af2       ??1CRectTracker@@UAE@XZ    67da4af2 f   mfc100:mfc100.dll
 0001:00023af8       ?FillSolidRect@CDC@@QAEXPBUtagRECT@@K@Z 67da4af8 f   mfc100:mfc100.dll
 0001:00023afe       ?SetCursor@CRectTracker@@QBEHPAVCWnd@@I@Z 67da4afe f   mfc100:mfc100.dll
 0001:00023b04       ??1CClientDC@@UAE@XZ       67da4b04 f   mfc100:mfc100.dll
 0001:00023b0a       ?Draw@CRectTracker@@QBEXPAVCDC@@@Z 67da4b0a f   mfc100:mfc100.dll
 0001:00023b10       ?SetWindowOrg@CDC@@QAE?AVCPoint@@HH@Z 67da4b10 f   mfc100:mfc100.dll
 0001:00023b16       ??0CClientDC@@QAE@PAVCWnd@@@Z 67da4b16 f   mfc100:mfc100.dll
 0001:00023b1c       ?Track@CRectTracker@@QAEHPAVCWnd@@VCPoint@@H0@Z 67da4b1c f   mfc100:mfc100.dll
 0001:00023b22       ?TrackRubberBand@CRectTracker@@QAEHPAVCWnd@@VCPoint@@H@Z 67da4b22 f   mfc100:mfc100.dll
 0001:00023b28       ?HitTest@CRectTracker@@QBEHVCPoint@@@Z 67da4b28 f   mfc100:mfc100.dll
 0001:00023b2e       ?GetThisInterfaceMap@CWnd@@KGPBUAFX_INTERFACEMAP@@XZ 67da4b2e f   mfc100:mfc100.dll
 0001:00023b34       ?GetThisDispatchMap@CCmdTarget@@KGPBUAFX_DISPMAP@@XZ 67da4b34 f   mfc100:mfc100.dll
 0001:00023b3a       ?DDX_Text@@YGXPAVCDataExchange@@HAAI@Z 67da4b3a f   mfc100:mfc100.dll
 0001:00023b40       ?GetThisClass@CFileDialog@@SGPAUCRuntimeClass@@XZ 67da4b40 f   mfc100:mfc100.dll
 0001:00023b46       ?GetThisMessageMap@CCommonDialog@@KGPBUAFX_MSGMAP@@XZ 67da4b46 f   mfc100:mfc100.dll
 0001:00023b4c       ?GetFileTitle@CFileDialog@@QBE?AV?$CStringT@DV?$StrTraitMFC_DLL@DV?$ChTraitsCRT@D@ATL@@@@@ATL@@XZ 67da4b4c f   mfc100:mfc100.dll
 0001:00023b52       ?GetInterfaceMap@CFileDialog@@MBEPBUAFX_INTERFACEMAP@@XZ 67da4b52 f   mfc100:mfc100.dll
 0001:00023b58       ?OnNotify@CFileDialog@@MAEHIJPAJ@Z 67da4b58 f   mfc100:mfc100.dll
 0001:00023b5e       ?OnOK@CCommonDialog@@MAEXXZ 67da4b5e f   mfc100:mfc100.dll
 0001:00023b64       ?OnCancel@CCommonDialog@@MAEXXZ 67da4b64 f   mfc100:mfc100.dll
 0001:00023b6a       ?UpdateOFNFromShellDialog@CFileDialog@@UAEXXZ 67da4b6a f   mfc100:mfc100.dll
 0001:00023b70       ?OnShareViolation@CFileDialog@@MAEIPBD@Z 67da4b70 f   mfc100:mfc100.dll
 0001:00023b76       ?OnFileNameOK@CFileDialog@@MAEHXZ 67da4b76 f   mfc100:mfc100.dll
 0001:00023b7c       ?OnLBSelChangedNotify@CFileDialog@@MAEXIII@Z 67da4b7c f   mfc100:mfc100.dll
 0001:00023b82       ?OnInitDone@CFileDialog@@MAEXXZ 67da4b82 f   mfc100:mfc100.dll
 0001:00023b88       ?OnFileNameChange@CFileDialog@@MAEXXZ 67da4b88 f   mfc100:mfc100.dll
 0001:00023b8e       ?OnFolderChange@CFileDialog@@MAEXXZ 67da4b8e f   mfc100:mfc100.dll
 0001:00023b94       ?OnItemSelected@CFileDialog@@MAEXKK@Z 67da4b94 f   mfc100:mfc100.dll
 0001:00023b9a       ?OnButtonClicked@CFileDialog@@MAEXK@Z 67da4b9a f   mfc100:mfc100.dll
 0001:00023ba0       ?OnCheckButtonToggled@CFileDialog@@MAEXKH@Z 67da4ba0 f   mfc100:mfc100.dll
 0001:00023ba6       ?OnControlActivating@CFileDialog@@MAEXK@Z 67da4ba6 f   mfc100:mfc100.dll
 0001:00023bac       ??1CSpinButtonCtrl@@UAE@XZ 67da4bac f   mfc100:mfc100.dll
 0001:00023bb2       ??0CDynLinkLibrary@@QAE@AAUAFX_EXTENSION_MODULE@@H@Z 67da4bb2 f   mfc100:mfc100.dll
 0001:00023bb8       ?AfxTermExtensionModule@@YGXAAUAFX_EXTENSION_MODULE@@H@Z 67da4bb8 f   mfc100:mfc100.dll
 0001:00023bbe       ?AfxInitExtensionModule@@YGHAAUAFX_EXTENSION_MODULE@@PAUHINSTANCE__@@@Z 67da4bbe f   mfc100:mfc100.dll
 0001:00023bc4       ?GetRuntimeClass@CSpinButtonCtrl@@UBEPAUCRuntimeClass@@XZ 67da4bc4 f   mfc100:mfc100.dll
 0001:00023bca       ?Create@CSpinButtonCtrl@@UAEHKABUtagRECT@@PAVCWnd@@I@Z 67da4bca f   mfc100:mfc100.dll
 0001:00023bd0       ?CreateEx@CSpinButtonCtrl@@UAEHKKABUtagRECT@@PAVCWnd@@I@Z 67da4bd0 f   mfc100:mfc100.dll
 0001:00023bd6       ?DDV_MinMaxFloat@@YGXPAVCDataExchange@@ABMMM@Z 67da4bd6 f   mfc100:mfc100.dll
 0001:00023bdc       ?DDX_Text@@YGXPAVCDataExchange@@HAAK@Z 67da4bdc f   mfc100:mfc100.dll
 0001:00023be2       ??1CComBSTR@ATL@@QAE@XZ    67da4be2 f i mfcs100:nolib.obj
 0001:00023beb       ??1stringdispid@CComTypeInfoHolder@ATL@@QAE@XZ 67da4beb f i mfcs100:nolib.obj
 0001:00023bf4       ??_Estringdispid@CComTypeInfoHolder@ATL@@QAEPAXI@Z 67da4bf4 f i mfcs100:nolib.obj
 0001:00023c55       ?__ArrayUnwind@@YGXPAXIHP6EX0@Z@Z 67da4c55 f   msvcrt:ehvecdtr.obj
 0001:00023cb3       ??_M@YGXPAXIHP6EX0@Z@Z     67da4cb3 f   msvcrt:ehvecdtr.obj
 0001:00023d16       ??0type_info@@AAE@ABV0@@Z  67da4d16 f   msvcrt:ti_inst.obj
 0001:00023d21       ??_Etype_info@@UAEPAXI@Z   67da4d21 f i msvcrt:ti_inst.obj
 0001:00023d6d       ??4type_info@@AAEAAV0@ABV0@@Z 67da4d6d f   msvcrt:ti_inst.obj
 0001:00023d72       _strrchr                   67da4d72 f   msvcrt:MSVCR100.dll
 0001:00023d78       _strstr                    67da4d78 f   msvcrt:MSVCR100.dll
 0001:00023d7e       ___CxxFrameHandler3        67da4d7e f   msvcrt:MSVCR100.dll
 0001:00023d84       @__security_check_cookie@4 67da4d84 f   msvcrt:secchk.obj
 0001:00023d94       _memset                    67da4d94 f   msvcrt:MSVCR100.dll
 0001:00023d9a       __vsnprintf                67da4d9a f   msvcrt:MSVCR100.dll
 0001:00023da0       __splitpath_s              67da4da0 f   msvcrt:MSVCR100.dll
 0001:00023db0       __stricmp                  67da4db0 f   msvcrt:MSVCR100.dll
 0001:00023db6       __onexit                   67da4db6 f   msvcrt:atonexit.obj
 0001:00023e57       _atexit                    67da4e57 f   msvcrt:atonexit.obj
 0001:00023e70       __ftol2_sse                67da4e70 f   msvcrt:ftol2.obj
 0001:00023e79       __ftol2_pentium4           67da4e79 f   msvcrt:ftol2.obj
 0001:00023e8c       __ftol2_sse_excpt          67da4e8c f   msvcrt:ftol2.obj
 0001:00023ea6       __ftol2                    67da4ea6 f   msvcrt:ftol2.obj
 0001:00023f1b       ??_L@YGXPAXIHP6EX0@Z1@Z    67da4f1b f   msvcrt:ehvecctr.obj
 0001:00023f80       ??0exception@std@@QAE@ABQBD@Z 67da4f80 f   msvcrt:MSVCR100.dll
 0001:00023f86       ?what@exception@std@@UBEPBDXZ 67da4f86 f   msvcrt:MSVCR100.dll
 0001:00023f8c       ??1exception@std@@UAE@XZ   67da4f8c f   msvcrt:MSVCR100.dll
 0001:00023f92       _memcpy                    67da4f92 f   msvcrt:MSVCR100.dll
 0001:00023f98       _memmove                   67da4f98 f   msvcrt:MSVCR100.dll
 0001:00023f9e       __CxxThrowException@8      67da4f9e f   msvcrt:MSVCR100.dll
 0001:00023fa4       ??0exception@std@@QAE@ABV01@@Z 67da4fa4 f   msvcrt:MSVCR100.dll
 0001:00023faa       _floor                     67da4faa f   msvcrt:MSVCR100.dll
 0001:00023fb0       _NtCurrentTeb              67da4fb0 f i msvcrt:crtdll.obj
 0001:00024005       __CRT_INIT@12              67da5005 f   msvcrt:crtdll.obj
 0001:00024325       __DllMainCRTStartup@12     67da5325 f   msvcrt:crtdll.obj
 0001:00024348       ?terminate@@YAXXZ          67da5348 f   msvcrt:MSVCR100.dll
 0001:00024350       __SEH_prolog4              67da5350 f   msvcrt:sehprolg4.obj
 0001:00024395       __SEH_epilog4              67da5395 f   msvcrt:sehprolg4.obj
 0001:000243a9       __except_handler4          67da53a9 f   msvcrt:chandler4gs.obj
 0001:000243ce       ___report_gsfailure        67da53ce f   msvcrt:gs_report.obj
 0001:000244d4       __unlock                   67da54d4 f   msvcrt:MSVCR100.dll
 0001:000244da       ___dllonexit               67da54da f   msvcrt:MSVCR100.dll
 0001:000244e0       __lock                     67da54e0 f   msvcrt:MSVCR100.dll
 0001:000244e6       ___sse2_available_init     67da54e6 f   msvcrt:cpu_disp.obj
 0001:000244f6       ___clean_type_info_names   67da54f6 f   msvcrt:tncleanup.obj
 0001:00024502       __RTC_Initialize           67da5502 f   msvcrt:_initsect_.obj
 0001:00024528       __RTC_Terminate            67da5528 f   msvcrt:_initsect_.obj
 0001:0002454e       __malloc_crt               67da554e f   msvcrt:MSVCR100.dll
 0001:00024554       _free                      67da5554 f   msvcrt:MSVCR100.dll
 0001:0002455a       __encoded_null             67da555a f   msvcrt:MSVCR100.dll
 0001:00024560       __ValidateImageBase        67da5560 f   msvcrt:pesect.obj
 0001:000245a0       __FindPESection            67da55a0 f   msvcrt:pesect.obj
 0001:000245f0       __IsNonwritableInCurrentImage 67da55f0 f   msvcrt:pesect.obj
 0001:000246ac       __initterm                 67da56ac f   msvcrt:MSVCR100.dll
 0001:000246b2       __initterm_e               67da56b2 f   msvcrt:MSVCR100.dll
 0001:000246b8       __amsg_exit                67da56b8 f   msvcrt:MSVCR100.dll
 0001:000246be       ___CppXcptFilter           67da56be f   msvcrt:MSVCR100.dll
 0001:000246c4       ___security_init_cookie    67da56c4 f   msvcrt:gs_support.obj
 0001:00024760       __except_handler4_common   67da5760 f   msvcrt:MSVCR100.dll
 0001:00024766       ??1type_info@@UAE@XZ       67da5766 f   msvcrt:MSVCR100.dll
 0001:00024766       ?_type_info_dtor_internal_method@type_info@@QAEXXZ 67da5766 f   msvcrt:MSVCR100.dll
 0001:0002476c       __crt_debugger_hook        67da576c f   msvcrt:MSVCR100.dll
 0001:00024772       ___clean_type_info_names_internal 67da5772 f   msvcrt:MSVCR100.dll
 0001:00024778       _GetTickCount@0            67da5778 f   kernel32:KERNEL32.dll
 0001:0002477e       _GetPrivateProfileStringA@24 67da577e f   kernel32:KERNEL32.dll
 0001:00024784       _IsBadReadPtr@8            67da5784 f   kernel32:KERNEL32.dll
 0001:0002478a       _OpenFile@12               67da578a f   kernel32:KERNEL32.dll
 0001:00024790       _GetCurrentDirectoryA@8    67da5790 f   kernel32:KERNEL32.dll
 0001:00024796       _GetEnvironmentVariableA@12 67da5796 f   kernel32:KERNEL32.dll
 0001:0002479c       _WaitForSingleObject@8     67da579c f   kernel32:KERNEL32.dll
 0001:000247a2       _CreateProcessA@40         67da57a2 f   kernel32:KERNEL32.dll
 0001:000247a8       _GetStartupInfoA@4         67da57a8 f   kernel32:KERNEL32.dll
 0001:000247ae       _Sleep@4                   67da57ae f   kernel32:KERNEL32.dll
 0001:000247b4       _EncodePointer@4           67da57b4 f   kernel32:KERNEL32.dll
 0001:000247ba       _DecodePointer@4           67da57ba f   kernel32:KERNEL32.dll
 0001:000247c0       _InterlockedExchange@8     67da57c0 f   kernel32:KERNEL32.dll
 0001:000247c6       _InterlockedCompareExchange@12 67da57c6 f   kernel32:KERNEL32.dll
 0001:000247cc       _TerminateProcess@8        67da57cc f   kernel32:KERNEL32.dll
 0001:000247d2       _GetCurrentProcess@0       67da57d2 f   kernel32:KERNEL32.dll
 0001:000247d8       _UnhandledExceptionFilter@4 67da57d8 f   kernel32:KERNEL32.dll
 0001:000247de       _SetUnhandledExceptionFilter@4 67da57de f   kernel32:KERNEL32.dll
 0001:000247e4       _IsDebuggerPresent@0       67da57e4 f   kernel32:KERNEL32.dll
 0001:000247ea       _IsProcessorFeaturePresent@4 67da57ea f   kernel32:KERNEL32.dll
 0001:000247f0       _QueryPerformanceCounter@4 67da57f0 f   kernel32:KERNEL32.dll
 0001:000247f6       _GetCurrentThreadId@0      67da57f6 f   kernel32:KERNEL32.dll
 0001:000247fc       _GetCurrentProcessId@0     67da57fc f   kernel32:KERNEL32.dll
 0001:00024802       _GetSystemTimeAsFileTime@4 67da5802 f   kernel32:KERNEL32.dll
 0001:00024808       _GetWindowRect@8           67da5808 f   user32:USER32.dll
 0001:0002480e       _SetTimer@16               67da580e f   user32:USER32.dll
 0001:00024814       _KillTimer@8               67da5814 f   user32:USER32.dll
 0001:0002481a       _EnableWindow@8            67da581a f   user32:USER32.dll
 0001:00024820       _BringWindowToTop@4        67da5820 f   user32:USER32.dll
 0001:00024826       _SendMessageA@16           67da5826 f   user32:USER32.dll
 0001:0002482c       _SetDlgItemTextA@12        67da582c f   user32:USER32.dll
 0001:00024832       _SetForegroundWindow@4     67da5832 f   user32:USER32.dll
 0001:00024838       _GetFocus@0                67da5838 f   user32:USER32.dll
 0001:0002483e       _GetDC@4                   67da583e f   user32:USER32.dll
 0001:00024844       _ReleaseDC@8               67da5844 f   user32:USER32.dll
 0001:0002484a       _GetParent@4               67da584a f   user32:USER32.dll
 0001:00024850       _GetClientRect@8           67da5850 f   user32:USER32.dll
 0001:00024856       _RedrawWindow@16           67da5856 f   user32:USER32.dll
 0001:0002485c       _OffsetRect@12             67da585c f   user32:USER32.dll
 0001:00024862       _FillRect@12               67da5862 f   user32:USER32.dll
 0001:00024868       _InvalidateRect@12         67da5868 f   user32:USER32.dll
 0001:0002486e       _TrackMouseEvent@4         67da586e f   user32:USER32.dll
 0001:00024874       _GetSystemMetrics@4        67da5874 f   user32:USER32.dll
 0001:0002487a       _PtInRect@12               67da587a f   user32:USER32.dll
 0001:00024880       _SetRect@20                67da5880 f   user32:USER32.dll
 0001:00024886       _ScreenToClient@8          67da5886 f   user32:USER32.dll
 0001:0002488c       _LoadCursorA@8             67da588c f   user32:USER32.dll
 0001:00024892       _SetCursorPos@8            67da5892 f   user32:USER32.dll
 0001:00024898       _GetCursorPos@4            67da5898 f   user32:USER32.dll
 0001:0002489e       _SetCursor@4               67da589e f   user32:USER32.dll
 0001:000248a4       _IsIconic@4                67da58a4 f   user32:USER32.dll
 0001:000248aa       _ShowScrollBar@12          67da58aa f   user32:USER32.dll
 0001:000248b0       _GetForegroundWindow@0     67da58b0 f   user32:USER32.dll
 0001:000248b6       _GetTextExtentPoint32A@16  67da58b6 f   gdi32:GDI32.dll
 0001:000248bc       _CreatePen@12              67da58bc f   gdi32:GDI32.dll
 0001:000248c2       _CreateSolidBrush@4        67da58c2 f   gdi32:GDI32.dll
 0001:000248c8       _CreateCompatibleBitmap@12 67da58c8 f   gdi32:GDI32.dll
 0001:000248ce       _CreateRectRgnIndirect@4   67da58ce f   gdi32:GDI32.dll
 0001:000248d4       _SetRectRgn@20             67da58d4 f   gdi32:GDI32.dll
 0001:000248da       _CombineRgn@16             67da58da f   gdi32:GDI32.dll
 0001:000248e0       _GetRgnBox@8               67da58e0 f   gdi32:GDI32.dll
 0001:000248e6       _CreateCompatibleDC@4      67da58e6 f   gdi32:GDI32.dll
 0001:000248ec       _FillRgn@12                67da58ec f   gdi32:GDI32.dll
 0001:000248f2       _Rectangle@20              67da58f2 f   gdi32:GDI32.dll
 0001:000248f8       _BitBlt@36                 67da58f8 f   gdi32:GDI32.dll
 0001:000248fe       _GetStockObject@4          67da58fe f   gdi32:GDI32.dll
 0001:00024904       _GetBkColor@4              67da5904 f   gdi32:GDI32.dll
 0001:0002490a       _GetSaveFileNameA@4        67da590a f   comdlg32:COMDLG32.dll
 0001:00024910       _SysFreeString@4           67da5910 f   oleaut32:OLEAUT32.dll
 0001:00024916       ?_Xout_of_range@std@@YAXPBD@Z 67da5916 f   msvcprt:MSVCP100.dll
 0001:0002491c       ?_Xlength_error@std@@YAXPBD@Z 67da591c f   msvcprt:MSVCP100.dll
 0001:00024922       ?pptr@?$basic_streambuf@DU?$char_traits@D@std@@@std@@IBEPADXZ 67da5922 f   msvcprt:MSVCP100.dll
 0001:00024928       ??1?$basic_streambuf@DU?$char_traits@D@std@@@std@@UAE@XZ 67da5928 f   msvcprt:MSVCP100.dll
 0001:0002492e       ?_Lock@?$basic_streambuf@DU?$char_traits@D@std@@@std@@UAEXXZ 67da592e f   msvcprt:MSVCP100.dll
 0001:00024934       ?_Unlock@?$basic_streambuf@DU?$char_traits@D@std@@@std@@UAEXXZ 67da5934 f   msvcprt:MSVCP100.dll
 0001:0002493a       ?showmanyc@?$basic_streambuf@DU?$char_traits@D@std@@@std@@MAE_JXZ 67da593a f   msvcprt:MSVCP100.dll
 0001:00024940       ?uflow@?$basic_streambuf@DU?$char_traits@D@std@@@std@@MAEHXZ 67da5940 f   msvcprt:MSVCP100.dll
 0001:00024946       ?xsgetn@?$basic_streambuf@DU?$char_traits@D@std@@@std@@MAE_JPAD_J@Z 67da5946 f   msvcprt:MSVCP100.dll
 0001:0002494c       ?xsputn@?$basic_streambuf@DU?$char_traits@D@std@@@std@@MAE_JPBD_J@Z 67da594c f   msvcprt:MSVCP100.dll
 0001:00024952       ?setbuf@?$basic_streambuf@DU?$char_traits@D@std@@@std@@MAEPAV12@PAD_J@Z 67da5952 f   msvcprt:MSVCP100.dll
 0001:00024958       ?sync@?$basic_streambuf@DU?$char_traits@D@std@@@std@@MAEHXZ 67da5958 f   msvcprt:MSVCP100.dll
 0001:0002495e       ?imbue@?$basic_streambuf@DU?$char_traits@D@std@@@std@@MAEXABVlocale@2@@Z 67da595e f   msvcprt:MSVCP100.dll
 0001:00024964       ?gptr@?$basic_streambuf@DU?$char_traits@D@std@@@std@@IBEPADXZ 67da5964 f   msvcprt:MSVCP100.dll
 0001:0002496a       ?pbump@?$basic_streambuf@DU?$char_traits@D@std@@@std@@IAEXH@Z 67da596a f   msvcprt:MSVCP100.dll
 0001:00024970       ?gbump@?$basic_streambuf@DU?$char_traits@D@std@@@std@@IAEXH@Z 67da5970 f   msvcprt:MSVCP100.dll
 0001:00024976       ?_Pninc@?$basic_streambuf@DU?$char_traits@D@std@@@std@@IAEPADXZ 67da5976 f   msvcprt:MSVCP100.dll
 0001:0002497c       ??1?$basic_istream@DU?$char_traits@D@std@@@std@@UAE@XZ 67da597c f   msvcprt:MSVCP100.dll
 0001:00024982       ??0?$basic_streambuf@DU?$char_traits@D@std@@@std@@IAE@XZ 67da5982 f   msvcprt:MSVCP100.dll
 0001:00024988       ??1?$basic_ios@DU?$char_traits@D@std@@@std@@UAE@XZ 67da5988 f   msvcprt:MSVCP100.dll
 0001:0002498e       ??0?$basic_istream@DU?$char_traits@D@std@@@std@@QAE@PAV?$basic_streambuf@DU?$char_traits@D@std@@@1@_N@Z 67da598e f   msvcprt:MSVCP100.dll
 0001:00024994       ??0?$basic_ios@DU?$char_traits@D@std@@@std@@IAE@XZ 67da5994 f   msvcprt:MSVCP100.dll
 0001:0002499a       ?eof@ios_base@std@@QBE_NXZ 67da599a f   msvcprt:MSVCP100.dll
 0001:000249a0       ?fail@ios_base@std@@QBE_NXZ 67da59a0 f   msvcprt:MSVCP100.dll
 0001:000249a6       ??5?$basic_istream@DU?$char_traits@D@std@@@std@@QAEAAV01@P6AAAV01@AAV01@@Z@Z 67da59a6 f   msvcprt:MSVCP100.dll
 0001:000249ac       ?ws@std@@YAAAV?$basic_istream@DU?$char_traits@D@std@@@1@AAV21@@Z 67da59ac f   msvcprt:MSVCP100.dll
 0001:000249b2       ??5?$basic_istream@DU?$char_traits@D@std@@@std@@QAEAAV01@AAN@Z 67da59b2 f   msvcprt:MSVCP100.dll
 0002:00000000       __imp__GetSaveFileNameA@4  67da9000     comdlg32:COMDLG32.dll
 0002:00000004       \177COMDLG32_NULL_THUNK_DATA 67da9004     comdlg32:COMDLG32.dll
 0002:00000008       __imp__CorCabSetPrm@12     67da9008     Corapi:CORAPI.dll
 0002:0000000c       __imp__CorAcqGetCap@12     67da900c     Corapi:CORAPI.dll
 0002:00000010       \177CORAPI_NULL_THUNK_DATA 67da9010     Corapi:CORAPI.dll
 0002:00000014       __imp__CreateSolidBrush@4  67da9014     gdi32:GDI32.dll
 0002:00000018       __imp__CreateCompatibleBitmap@12 67da9018     gdi32:GDI32.dll
 0002:0000001c       __imp__CreateRectRgnIndirect@4 67da901c     gdi32:GDI32.dll
 0002:00000020       __imp__SetRectRgn@20       67da9020     gdi32:GDI32.dll
 0002:00000024       __imp__CombineRgn@16       67da9024     gdi32:GDI32.dll
 0002:00000028       __imp__CreatePen@12        67da9028     gdi32:GDI32.dll
 0002:0000002c       __imp__CreateCompatibleDC@4 67da902c     gdi32:GDI32.dll
 0002:00000030       __imp__FillRgn@12          67da9030     gdi32:GDI32.dll
 0002:00000034       __imp__Rectangle@20        67da9034     gdi32:GDI32.dll
 0002:00000038       __imp__BitBlt@36           67da9038     gdi32:GDI32.dll
 0002:0000003c       __imp__GetStockObject@4    67da903c     gdi32:GDI32.dll
 0002:00000040       __imp__GetBkColor@4        67da9040     gdi32:GDI32.dll
 0002:00000044       __imp__GetTextExtentPoint32A@16 67da9044     gdi32:GDI32.dll
 0002:00000048       __imp__GetRgnBox@8         67da9048     gdi32:GDI32.dll
 0002:0000004c       \177GDI32_NULL_THUNK_DATA  67da904c     gdi32:GDI32.dll
 0002:00000050       __imp__GetTickCount@0      67da9050     kernel32:KERNEL32.dll
 0002:00000054       __imp__IsBadReadPtr@8      67da9054     kernel32:KERNEL32.dll
 0002:00000058       __imp__OpenFile@12         67da9058     kernel32:KERNEL32.dll
 0002:0000005c       __imp__GetCurrentDirectoryA@8 67da905c     kernel32:KERNEL32.dll
 0002:00000060       __imp__GetEnvironmentVariableA@12 67da9060     kernel32:KERNEL32.dll
 0002:00000064       __imp__WaitForSingleObject@8 67da9064     kernel32:KERNEL32.dll
 0002:00000068       __imp__CreateProcessA@40   67da9068     kernel32:KERNEL32.dll
 0002:0000006c       __imp__GetStartupInfoA@4   67da906c     kernel32:KERNEL32.dll
 0002:00000070       __imp__Sleep@4             67da9070     kernel32:KERNEL32.dll
 0002:00000074       __imp__EncodePointer@4     67da9074     kernel32:KERNEL32.dll
 0002:00000078       __imp__DecodePointer@4     67da9078     kernel32:KERNEL32.dll
 0002:0000007c       __imp__InterlockedExchange@8 67da907c     kernel32:KERNEL32.dll
 0002:00000080       __imp__InterlockedCompareExchange@12 67da9080     kernel32:KERNEL32.dll
 0002:00000084       __imp__TerminateProcess@8  67da9084     kernel32:KERNEL32.dll
 0002:00000088       __imp__GetCurrentProcess@0 67da9088     kernel32:KERNEL32.dll
 0002:0000008c       __imp__UnhandledExceptionFilter@4 67da908c     kernel32:KERNEL32.dll
 0002:00000090       __imp__SetUnhandledExceptionFilter@4 67da9090     kernel32:KERNEL32.dll
 0002:00000094       __imp__IsDebuggerPresent@0 67da9094     kernel32:KERNEL32.dll
 0002:00000098       __imp__IsProcessorFeaturePresent@4 67da9098     kernel32:KERNEL32.dll
 0002:0000009c       __imp__QueryPerformanceCounter@4 67da909c     kernel32:KERNEL32.dll
 0002:000000a0       __imp__GetCurrentThreadId@0 67da90a0     kernel32:KERNEL32.dll
 0002:000000a4       __imp__GetCurrentProcessId@0 67da90a4     kernel32:KERNEL32.dll
 0002:000000a8       __imp__GetSystemTimeAsFileTime@4 67da90a8     kernel32:KERNEL32.dll
 0002:000000ac       __imp__GetPrivateProfileStringA@24 67da90ac     kernel32:KERNEL32.dll
 0002:000000b0       \177KERNEL32_NULL_THUNK_DATA 67da90b0     kernel32:KERNEL32.dll
 0002:000000b4       __imp_??5?$basic_istream@DU?$char_traits@D@std@@@std@@QAEAAV01@P6AAAV01@AAV01@@Z@Z 67da90b4     msvcprt:MSVCP100.dll
 0002:000000b8       __imp_?fail@ios_base@std@@QBE_NXZ 67da90b8     msvcprt:MSVCP100.dll
 0002:000000bc       __imp_??5?$basic_istream@DU?$char_traits@D@std@@@std@@QAEAAV01@AAN@Z 67da90bc     msvcprt:MSVCP100.dll
 0002:000000c0       __imp_?eof@ios_base@std@@QBE_NXZ 67da90c0     msvcprt:MSVCP100.dll
 0002:000000c4       __imp_??0?$basic_ios@DU?$char_traits@D@std@@@std@@IAE@XZ 67da90c4     msvcprt:MSVCP100.dll
 0002:000000c8       __imp_??0?$basic_istream@DU?$char_traits@D@std@@@std@@QAE@PAV?$basic_streambuf@DU?$char_traits@D@std@@@1@_N@Z 67da90c8     msvcprt:MSVCP100.dll
 0002:000000cc       __imp_??1?$basic_ios@DU?$char_traits@D@std@@@std@@UAE@XZ 67da90cc     msvcprt:MSVCP100.dll
 0002:000000d0       __imp_??0?$basic_streambuf@DU?$char_traits@D@std@@@std@@IAE@XZ 67da90d0     msvcprt:MSVCP100.dll
 0002:000000d4       __imp_??1?$basic_istream@DU?$char_traits@D@std@@@std@@UAE@XZ 67da90d4     msvcprt:MSVCP100.dll
 0002:000000d8       __imp_?_Pninc@?$basic_streambuf@DU?$char_traits@D@std@@@std@@IAEPADXZ 67da90d8     msvcprt:MSVCP100.dll
 0002:000000dc       __imp_?_BADOFF@std@@3_JB   67da90dc     msvcprt:MSVCP100.dll
 0002:000000e0       __imp_?gbump@?$basic_streambuf@DU?$char_traits@D@std@@@std@@IAEXH@Z 67da90e0     msvcprt:MSVCP100.dll
 0002:000000e4       __imp_?pbump@?$basic_streambuf@DU?$char_traits@D@std@@@std@@IAEXH@Z 67da90e4     msvcprt:MSVCP100.dll
 0002:000000e8       __imp_?gptr@?$basic_streambuf@DU?$char_traits@D@std@@@std@@IBEPADXZ 67da90e8     msvcprt:MSVCP100.dll
 0002:000000ec       __imp_?imbue@?$basic_streambuf@DU?$char_traits@D@std@@@std@@MAEXABVlocale@2@@Z 67da90ec     msvcprt:MSVCP100.dll
 0002:000000f0       __imp_?sync@?$basic_streambuf@DU?$char_traits@D@std@@@std@@MAEHXZ 67da90f0     msvcprt:MSVCP100.dll
 0002:000000f4       __imp_?_Xout_of_range@std@@YAXPBD@Z 67da90f4     msvcprt:MSVCP100.dll
 0002:000000f8       __imp_?_Xlength_error@std@@YAXPBD@Z 67da90f8     msvcprt:MSVCP100.dll
 0002:000000fc       __imp_?pptr@?$basic_streambuf@DU?$char_traits@D@std@@@std@@IBEPADXZ 67da90fc     msvcprt:MSVCP100.dll
 0002:00000100       __imp_??1?$basic_streambuf@DU?$char_traits@D@std@@@std@@UAE@XZ 67da9100     msvcprt:MSVCP100.dll
 0002:00000104       __imp_?_Lock@?$basic_streambuf@DU?$char_traits@D@std@@@std@@UAEXXZ 67da9104     msvcprt:MSVCP100.dll
 0002:00000108       __imp_?_Unlock@?$basic_streambuf@DU?$char_traits@D@std@@@std@@UAEXXZ 67da9108     msvcprt:MSVCP100.dll
 0002:0000010c       __imp_?showmanyc@?$basic_streambuf@DU?$char_traits@D@std@@@std@@MAE_JXZ 67da910c     msvcprt:MSVCP100.dll
 0002:00000110       __imp_?uflow@?$basic_streambuf@DU?$char_traits@D@std@@@std@@MAEHXZ 67da9110     msvcprt:MSVCP100.dll
 0002:00000114       __imp_?xsgetn@?$basic_streambuf@DU?$char_traits@D@std@@@std@@MAE_JPAD_J@Z 67da9114     msvcprt:MSVCP100.dll
 0002:00000118       __imp_?xsputn@?$basic_streambuf@DU?$char_traits@D@std@@@std@@MAE_JPBD_J@Z 67da9118     msvcprt:MSVCP100.dll
 0002:0000011c       __imp_?ws@std@@YAAAV?$basic_istream@DU?$char_traits@D@std@@@1@AAV21@@Z 67da911c     msvcprt:MSVCP100.dll
 0002:00000120       __imp_?setbuf@?$basic_streambuf@DU?$char_traits@D@std@@@std@@MAEPAV12@PAD_J@Z 67da9120     msvcprt:MSVCP100.dll
 0002:00000124       \177MSVCP100_NULL_THUNK_DATA 67da9124     msvcprt:MSVCP100.dll
 0002:00000128       __imp__strrchr             67da9128     msvcrt:MSVCR100.dll
 0002:0000012c       __imp____CxxFrameHandler3  67da912c     msvcrt:MSVCR100.dll
 0002:00000130       __imp__memset              67da9130     msvcrt:MSVCR100.dll
 0002:00000134       __imp___vsnprintf          67da9134     msvcrt:MSVCR100.dll
 0002:00000138       __imp___splitpath_s        67da9138     msvcrt:MSVCR100.dll
 0002:0000013c       __imp___stricmp            67da913c     msvcrt:MSVCR100.dll
 0002:00000140       __imp_??0exception@std@@QAE@ABQBD@Z 67da9140     msvcrt:MSVCR100.dll
 0002:00000144       __imp_?what@exception@std@@UBEPBDXZ 67da9144     msvcrt:MSVCR100.dll
 0002:00000148       __imp_??1exception@std@@UAE@XZ 67da9148     msvcrt:MSVCR100.dll
 0002:0000014c       __imp__memcpy              67da914c     msvcrt:MSVCR100.dll
 0002:00000150       __imp__memmove             67da9150     msvcrt:MSVCR100.dll
 0002:00000154       __imp___CxxThrowException@8 67da9154     msvcrt:MSVCR100.dll
 0002:00000158       __imp_??0exception@std@@QAE@ABV01@@Z 67da9158     msvcrt:MSVCR100.dll
 0002:0000015c       __imp__floor               67da915c     msvcrt:MSVCR100.dll
 0002:00000160       __imp_?terminate@@YAXXZ    67da9160     msvcrt:MSVCR100.dll
 0002:00000164       __imp___unlock             67da9164     msvcrt:MSVCR100.dll
 0002:00000168       __imp____dllonexit         67da9168     msvcrt:MSVCR100.dll
 0002:0000016c       __imp___lock               67da916c     msvcrt:MSVCR100.dll
 0002:00000170       __imp___onexit             67da9170     msvcrt:MSVCR100.dll
 0002:00000174       __imp___malloc_crt         67da9174     msvcrt:MSVCR100.dll
 0002:00000178       __imp__free                67da9178     msvcrt:MSVCR100.dll
 0002:0000017c       __imp___encoded_null       67da917c     msvcrt:MSVCR100.dll
 0002:00000180       __imp___initterm           67da9180     msvcrt:MSVCR100.dll
 0002:00000184       __imp___initterm_e         67da9184     msvcrt:MSVCR100.dll
 0002:00000188       __imp___amsg_exit          67da9188     msvcrt:MSVCR100.dll
 0002:0000018c       __imp____CppXcptFilter     67da918c     msvcrt:MSVCR100.dll
 0002:00000190       __imp___except_handler4_common 67da9190     msvcrt:MSVCR100.dll
 0002:00000194       __imp_?_type_info_dtor_internal_method@type_info@@QAEXXZ 67da9194     msvcrt:MSVCR100.dll
 0002:00000198       __imp___crt_debugger_hook  67da9198     msvcrt:MSVCR100.dll
 0002:0000019c       __imp____clean_type_info_names_internal 67da919c     msvcrt:MSVCR100.dll
 0002:000001a0       __imp__strstr              67da91a0     msvcrt:MSVCR100.dll
 0002:000001a4       \177MSVCR100_NULL_THUNK_DATA 67da91a4     msvcrt:MSVCR100.dll
 0002:000001a8       __imp__SysFreeString@4     67da91a8     oleaut32:OLEAUT32.dll
 0002:000001ac       \177OLEAUT32_NULL_THUNK_DATA 67da91ac     oleaut32:OLEAUT32.dll
 0002:000001b0       __imp_?GetDisplayName@SapFeature@@QAEHPADH@Z 67da91b0     SapClassBasic:SapClassBasic82.dll
 0002:000001b4       __imp_?GetFeatureInfo@SapAcqDevice@@QAEHPBDPAVSapFeature@@@Z 67da91b4     SapClassBasic:SapClassBasic82.dll
 0002:000001b8       __imp_?GetFileNameByIndex@SapAcqDevice@@QAEHHPADH@Z 67da91b8     SapClassBasic:SapClassBasic82.dll
 0002:000001bc       __imp_?GetFileCount@SapAcqDevice@@QAEHPAH@Z 67da91bc     SapClassBasic:SapClassBasic82.dll
 0002:000001c0       __imp_??1SapFeature@@UAE@XZ 67da91c0     SapClassBasic:SapClassBasic82.dll
 0002:000001c4       __imp_?GetFeatureValue@SapAcqDevice@@QAEHPBDPADH@Z 67da91c4     SapClassBasic:SapClassBasic82.dll
 0002:000001c8       __imp_?IsFeatureAvailable@SapAcqDevice@@QAEHPBDPAH@Z 67da91c8     SapClassBasic:SapClassBasic82.dll
 0002:000001cc       __imp_?Create@SapFeature@@UAEHXZ 67da91cc     SapClassBasic:SapClassBasic82.dll
 0002:000001d0       __imp_??0SapFeature@@QAE@VSapLocation@@@Z 67da91d0     SapClassBasic:SapClassBasic82.dll
 0002:000001d4       __imp_?GetAcqDevice@SapFlatField@@QBEPAVSapAcqDevice@@XZ 67da91d4     SapClassBasic:SapClassBasic82.dll
 0002:000001d8       __imp_?GetNumFlatField@SapFlatField@@QBEHXZ 67da91d8     SapClassBasic:SapClassBasic82.dll
 0002:000001dc       __imp_?GetBlackPixelPercentage@SapFlatField@@QBEMXZ 67da91dc     SapClassBasic:SapClassBasic82.dll
 0002:000001e0       __imp_?IsClippedGainOffsetDefects@SapFlatField@@QBEHXZ 67da91e0     SapClassBasic:SapClassBasic82.dll
 0002:000001e4       __imp_?GetIndex@SapFlatField@@QBEHXZ 67da91e4     SapClassBasic:SapClassBasic82.dll
 0002:000001e8       __imp_?GetDeviationMaxWhite@SapFlatField@@QBEHXZ 67da91e8     SapClassBasic:SapClassBasic82.dll
 0002:000001ec       __imp_?GetDeviationMaxBlack@SapFlatField@@QBEHXZ 67da91ec     SapClassBasic:SapClassBasic82.dll
 0002:000001f0       __imp_?GetGainDivisor@SapFlatField@@QBEHXZ 67da91f0     SapClassBasic:SapClassBasic82.dll
 0002:000001f4       __imp_?GetVerticalOffset@SapFlatField@@QBEHXZ 67da91f4     SapClassBasic:SapClassBasic82.dll
 0002:000001f8       __imp_?GetNumFramesAverage@SapFlatField@@QBEHXZ 67da91f8     SapClassBasic:SapClassBasic82.dll
 0002:000001fc       __imp_?GetNumLinesAverage@SapFlatField@@QBEHXZ 67da91fc     SapClassBasic:SapClassBasic82.dll
 0002:00000200       __imp_?GetVideoType@SapFlatField@@QBE?AW4VideoType@SapAcquisition@@XZ 67da9200     SapClassBasic:SapClassBasic82.dll
 0002:00000204       __imp_?GetCorrectionType@SapFlatField@@QBE?AW4CorrectionType@1@XZ 67da9204     SapClassBasic:SapClassBasic82.dll
 0002:00000208       __imp_?GetOffsetMinMax@SapFlatField@@QAEXPAH0@Z 67da9208     SapClassBasic:SapClassBasic82.dll
 0002:0000020c       __imp_?WriteFile@SapAcqDevice@@QAEHPBDH@Z 67da920c     SapClassBasic:SapClassBasic82.dll
 0002:00000210       __imp_?SetCommandTimeout@SapManager@@SAXH@Z 67da9210     SapClassBasic:SapClassBasic82.dll
 0002:00000214       __imp_?GetCommandTimeout@SapManager@@SAHXZ 67da9214     SapClassBasic:SapClassBasic82.dll
 0002:00000218       __imp_??1SapFlatFieldStats@@QAE@XZ 67da9218     SapClassBasic:SapClassBasic82.dll
 0002:0000021c       __imp_?GetLastStatus@SapManager@@SAPBDXZ 67da921c     SapClassBasic:SapClassBasic82.dll
 0002:00000220       __imp_??0SapFlatFieldStats@@QAE@XZ 67da9220     SapClassBasic:SapClassBasic82.dll
 0002:00000224       __imp_??1SapFlatFieldDefects@@QAE@XZ 67da9224     SapClassBasic:SapClassBasic82.dll
 0002:00000228       __imp_?GetNumDefects@SapFlatFieldDefects@@QBEHXZ 67da9228     SapClassBasic:SapClassBasic82.dll
 0002:0000022c       __imp_?GetDefectRatio@SapFlatFieldDefects@@QBEMXZ 67da922c     SapClassBasic:SapClassBasic82.dll
 0002:00000230       __imp_?GetNumClusters@SapFlatFieldDefects@@QBEHXZ 67da9230     SapClassBasic:SapClassBasic82.dll
 0002:00000234       __imp_??0SapFlatFieldDefects@@QAE@XZ 67da9234     SapClassBasic:SapClassBasic82.dll
 0002:00000238       __imp_?Load@SapBuffer@@UAEHPBD0HH@Z 67da9238     SapClassBasic:SapClassBasic82.dll
 0002:0000023c       __imp_?Create@SapBuffer@@UAEHXZ 67da923c     SapClassBasic:SapClassBasic82.dll
 0002:00000240       __imp_??0SapBuffer@@QAE@PBDHVSapLocation@@@Z 67da9240     SapClassBasic:SapClassBasic82.dll
 0002:00000244       __imp_??0SapBuffer@@QAE@HPAVSapXferNode@@HVSapLocation@@@Z 67da9244     SapClassBasic:SapClassBasic82.dll
 0002:00000248       __imp_?Destroy@SapBuffer@@UAEHXZ 67da9248     SapClassBasic:SapClassBasic82.dll
 0002:0000024c       __imp_?GetXferParams@SapXferNode@@UBE?AVSapXferParams@@H@Z 67da924c     SapClassBasic:SapClassBasic82.dll
 0002:00000250       __imp_?GetInputXferParams@SapXferNode@@UBE?AVSapXferParams@@H@Z 67da9250     SapClassBasic:SapClassBasic82.dll
 0002:00000254       __imp_?GetOutputXferParams@SapXferNode@@UBE?AVSapXferParams@@H@Z 67da9254     SapClassBasic:SapClassBasic82.dll
 0002:00000258       __imp_?SetXferParams@SapXferNode@@UAEHVSapXferParams@@H@Z 67da9258     SapClassBasic:SapClassBasic82.dll
 0002:0000025c       __imp_?SetInputXferParams@SapXferNode@@UAEHVSapXferParams@@H@Z 67da925c     SapClassBasic:SapClassBasic82.dll
 0002:00000260       __imp_?SetOutputXferParams@SapXferNode@@UAEHVSapXferParams@@H@Z 67da9260     SapClassBasic:SapClassBasic82.dll
 0002:00000264       __imp_?GetHandle@SapBuffer@@UBEPAU__CORHANDLE@@H@Z 67da9264     SapClassBasic:SapClassBasic82.dll
 0002:00000268       __imp_?GetHandle@SapBuffer@@UBEPAU__CORHANDLE@@XZ 67da9268     SapClassBasic:SapClassBasic82.dll
 0002:0000026c       __imp_?GetXferNodeType@SapBuffer@@UAE?AW4XferNodeType@SapXferNode@@XZ 67da926c     SapClassBasic:SapClassBasic82.dll
 0002:00000270       __imp_??ASapBuffer@@UBEPAU__CORHANDLE@@H@Z 67da9270     SapClassBasic:SapClassBasic82.dll
 0002:00000274       __imp_?GetCount@SapBuffer@@UBEHXZ 67da9274     SapClassBasic:SapClassBasic82.dll
 0002:00000278       __imp_?GetIndex@SapBuffer@@UBEHXZ 67da9278     SapClassBasic:SapClassBasic82.dll
 0002:0000027c       __imp_?SetIndex@SapBuffer@@UAEHH@Z 67da927c     SapClassBasic:SapClassBasic82.dll
 0002:00000280       __imp_?ResetIndex@SapBuffer@@UAEXXZ 67da9280     SapClassBasic:SapClassBasic82.dll
 0002:00000284       __imp_?Next@SapBuffer@@UAEXXZ 67da9284     SapClassBasic:SapClassBasic82.dll
 0002:00000288       __imp_?GetTrash@SapBuffer@@UBEPAU__CORHANDLE@@XZ 67da9288     SapClassBasic:SapClassBasic82.dll
 0002:0000028c       __imp_?Empty@SapBuffer@@UAEHH@Z 67da928c     SapClassBasic:SapClassBasic82.dll
 0002:00000290       __imp_?Empty@SapBuffer@@UAEHXZ 67da9290     SapClassBasic:SapClassBasic82.dll
 0002:00000294       __imp_?EmptyAll@SapBuffer@@UAEHXZ 67da9294     SapClassBasic:SapClassBasic82.dll
 0002:00000298       __imp_?SetCount@SapBuffer@@UAEHH@Z 67da9298     SapClassBasic:SapClassBasic82.dll
 0002:0000029c       __imp_?SetWidth@SapBuffer@@UAEHH@Z 67da929c     SapClassBasic:SapClassBasic82.dll
 0002:000002a0       __imp_?SetHeight@SapBuffer@@UAEHH@Z 67da92a0     SapClassBasic:SapClassBasic82.dll
 0002:000002a4       __imp_?SetFormat@SapBuffer@@UAEHH@Z 67da92a4     SapClassBasic:SapClassBasic82.dll
 0002:000002a8       __imp_?SetType@SapBuffer@@UAEHH@Z 67da92a8     SapClassBasic:SapClassBasic82.dll
 0002:000002ac       __imp_?SetPixelDepth@SapBuffer@@UAEHH@Z 67da92ac     SapClassBasic:SapClassBasic82.dll
 0002:000002b0       __imp_?SetVirtualAddress@SapBuffer@@UAEHQAPAX@Z 67da92b0     SapClassBasic:SapClassBasic82.dll
 0002:000002b4       __imp_?SetPhysicalAddress@SapBuffer@@UAEHQAK@Z 67da92b4     SapClassBasic:SapClassBasic82.dll
 0002:000002b8       __imp_?SetParameters@SapBuffer@@UAEHHQAKHHHH@Z 67da92b8     SapClassBasic:SapClassBasic82.dll
 0002:000002bc       __imp_?SetParameters@SapBuffer@@UAEHHQAPAXHHHH@Z 67da92bc     SapClassBasic:SapClassBasic82.dll
 0002:000002c0       __imp_?SetParameters@SapBuffer@@UAEHHHHHH@Z 67da92c0     SapClassBasic:SapClassBasic82.dll
 0002:000002c4       __imp_?SetParametersFromFile@SapBuffer@@UAEHPBDH@Z 67da92c4     SapClassBasic:SapClassBasic82.dll
 0002:000002c8       __imp_?SetFrameRate@SapBuffer@@UAEXM@Z 67da92c8     SapClassBasic:SapClassBasic82.dll
 0002:000002cc       __imp_?GetAddress@SapBuffer@@UAEHH_KIPAXPAPAX@Z 67da92cc     SapClassBasic:SapClassBasic82.dll
 0002:000002d0       __imp_?GetAddress@SapBuffer@@UAEHH_KIPAPAX@Z 67da92d0     SapClassBasic:SapClassBasic82.dll
 0002:000002d4       __imp_?GetAddress@SapBuffer@@UAEH_KIPAXPAPAX@Z 67da92d4     SapClassBasic:SapClassBasic82.dll
 0002:000002d8       __imp_?GetAddress@SapBuffer@@UAEH_KIPAPAX@Z 67da92d8     SapClassBasic:SapClassBasic82.dll
 0002:000002dc       __imp_?GetAddress@SapBuffer@@UAEHHPAXPAPAX@Z 67da92dc     SapClassBasic:SapClassBasic82.dll
 0002:000002e0       __imp_?GetAddress@SapBuffer@@UAEHHPAPAX@Z 67da92e0     SapClassBasic:SapClassBasic82.dll
 0002:000002e4       __imp_?GetAddress@SapBuffer@@UAEHPAXPAPAX@Z 67da92e4     SapClassBasic:SapClassBasic82.dll
 0002:000002e8       __imp_?GetAddress@SapBuffer@@UAEHPAPAX@Z 67da92e8     SapClassBasic:SapClassBasic82.dll
 0002:000002ec       __imp_?ReleaseAddress@SapBuffer@@UAEHHPAX@Z 67da92ec     SapClassBasic:SapClassBasic82.dll
 0002:000002f0       __imp_?ReleaseAddress@SapBuffer@@UAEHPAX@Z 67da92f0     SapClassBasic:SapClassBasic82.dll
 0002:000002f4       __imp_?IsMapped@SapBuffer@@UAEHXZ 67da92f4     SapClassBasic:SapClassBasic82.dll
 0002:000002f8       __imp_?IsMapped@SapBuffer@@UAEHH@Z 67da92f8     SapClassBasic:SapClassBasic82.dll
 0002:000002fc       __imp_?GetCounterStamp@SapBuffer@@UAEHHPAH@Z 67da92fc     SapClassBasic:SapClassBasic82.dll
 0002:00000300       __imp_?GetCounterStamp@SapBuffer@@UAEHPAH@Z 67da9300     SapClassBasic:SapClassBasic82.dll
 0002:00000304       __imp_?GetHostCounterStamp@SapBuffer@@UAEHHPA_K@Z 67da9304     SapClassBasic:SapClassBasic82.dll
 0002:00000308       __imp_?GetHostCounterStamp@SapBuffer@@UAEHPA_K@Z 67da9308     SapClassBasic:SapClassBasic82.dll
 0002:0000030c       __imp_?GetDeviceTimeStamp@SapBuffer@@UAEHHPA_K@Z 67da930c     SapClassBasic:SapClassBasic82.dll
 0002:00000310       __imp_?GetDeviceTimeStamp@SapBuffer@@UAEHPA_K@Z 67da9310     SapClassBasic:SapClassBasic82.dll
 0002:00000314       __imp_?GetSpaceUsed@SapBuffer@@UAEHHPAH@Z 67da9314     SapClassBasic:SapClassBasic82.dll
 0002:00000318       __imp_?GetSpaceUsed@SapBuffer@@UAEHPAH@Z 67da9318     SapClassBasic:SapClassBasic82.dll
 0002:0000031c       __imp_?GetHandles@SapBuffer@@UBEPAPAU__CORHANDLE@@XZ 67da931c     SapClassBasic:SapClassBasic82.dll
 0002:00000320       __imp_?IsCapabilityValid@SapBuffer@@UAEHH@Z 67da9320     SapClassBasic:SapClassBasic82.dll
 0002:00000324       __imp_?GetCapability@SapBuffer@@UAEHHHPAX@Z 67da9324     SapClassBasic:SapClassBasic82.dll
 0002:00000328       __imp_?GetCapability@SapBuffer@@UAEHHPAX@Z 67da9328     SapClassBasic:SapClassBasic82.dll
 0002:0000032c       __imp_?IsParameterValid@SapBuffer@@UAEHHH@Z 67da932c     SapClassBasic:SapClassBasic82.dll
 0002:00000330       __imp_?IsParameterValid@SapBuffer@@UAEHH@Z 67da9330     SapClassBasic:SapClassBasic82.dll
 0002:00000334       __imp_?GetParameter@SapBuffer@@UAEHHHPAX@Z 67da9334     SapClassBasic:SapClassBasic82.dll
 0002:00000338       __imp_?GetParameter@SapBuffer@@UAEHHPAX@Z 67da9338     SapClassBasic:SapClassBasic82.dll
 0002:0000033c       __imp_?SetParameter@SapBuffer@@UAEHHHPAX@Z 67da933c     SapClassBasic:SapClassBasic82.dll
 0002:00000340       __imp_?SetParameter@SapBuffer@@UAEHHPAX@Z 67da9340     SapClassBasic:SapClassBasic82.dll
 0002:00000344       __imp_?SetParameter@SapBuffer@@UAEHHHH@Z 67da9344     SapClassBasic:SapClassBasic82.dll
 0002:00000348       __imp_?SetParameter@SapBuffer@@UAEHHH@Z 67da9348     SapClassBasic:SapClassBasic82.dll
 0002:0000034c       __imp_?GetParent@SapBuffer@@UAEPAV1@XZ 67da934c     SapClassBasic:SapClassBasic82.dll
 0002:00000350       __imp_?GetRoot@SapBuffer@@UAEPAV1@XZ 67da9350     SapClassBasic:SapClassBasic82.dll
 0002:00000354       __imp_?SetState@SapBuffer@@UAEHHH@Z 67da9354     SapClassBasic:SapClassBasic82.dll
 0002:00000358       __imp_?SetState@SapBuffer@@UAEHH@Z 67da9358     SapClassBasic:SapClassBasic82.dll
 0002:0000035c       __imp_?SetAllState@SapBuffer@@UAEHH@Z 67da935c     SapClassBasic:SapClassBasic82.dll
 0002:00000360       __imp_?GetState@SapBuffer@@UAEHHPAH@Z 67da9360     SapClassBasic:SapClassBasic82.dll
 0002:00000364       __imp_?GetState@SapBuffer@@UAEHPAH@Z 67da9364     SapClassBasic:SapClassBasic82.dll
 0002:00000368       __imp_?GetNumPages@SapBuffer@@UAEHPAH@Z 67da9368     SapClassBasic:SapClassBasic82.dll
 0002:0000036c       __imp_?SetPage@SapBuffer@@UAEHHH@Z 67da936c     SapClassBasic:SapClassBasic82.dll
 0002:00000370       __imp_?SetPage@SapBuffer@@UAEHH@Z 67da9370     SapClassBasic:SapClassBasic82.dll
 0002:00000374       __imp_?SetAllPage@SapBuffer@@UAEHH@Z 67da9374     SapClassBasic:SapClassBasic82.dll
 0002:00000378       __imp_?GetPage@SapBuffer@@UAEHHPAH@Z 67da9378     SapClassBasic:SapClassBasic82.dll
 0002:0000037c       __imp_?GetPage@SapBuffer@@UAEHPAH@Z 67da937c     SapClassBasic:SapClassBasic82.dll
 0002:00000380       __imp_?IsMultiFormat@SapBuffer@@UAEHXZ 67da9380     SapClassBasic:SapClassBasic82.dll
 0002:00000384       __imp_?GetPageFormat@SapBuffer@@UAEHPAH@Z 67da9384     SapClassBasic:SapClassBasic82.dll
 0002:00000388       __imp_?Clear@SapBuffer@@UAEHHVSapData@@@Z 67da9388     SapClassBasic:SapClassBasic82.dll
 0002:0000038c       __imp_?Clear@SapBuffer@@UAEHVSapData@@@Z 67da938c     SapClassBasic:SapClassBasic82.dll
 0002:00000390       __imp_?Clear@SapBuffer@@UAEHH@Z 67da9390     SapClassBasic:SapClassBasic82.dll
 0002:00000394       __imp_?Clear@SapBuffer@@UAEHXZ 67da9394     SapClassBasic:SapClassBasic82.dll
 0002:00000398       __imp_?Load@SapBuffer@@UAEHPBDHHH0@Z 67da9398     SapClassBasic:SapClassBasic82.dll
 0002:0000039c       __imp_?Save@SapBuffer@@UAEHPBD0HH@Z 67da939c     SapClassBasic:SapClassBasic82.dll
 0002:000003a0       __imp_?Read@SapBuffer@@UAEHH_KHPAX@Z 67da93a0     SapClassBasic:SapClassBasic82.dll
 0002:000003a4       __imp_?Read@SapBuffer@@UAEH_KHPAX@Z 67da93a4     SapClassBasic:SapClassBasic82.dll
 0002:000003a8       __imp_?ReadElement@SapBuffer@@UAEHHHPAH00@Z 67da93a8     SapClassBasic:SapClassBasic82.dll
 0002:000003ac       __imp_?ReadElement@SapBuffer@@UAEHHHHPAVSapData@@@Z 67da93ac     SapClassBasic:SapClassBasic82.dll
 0002:000003b0       __imp_?ReadElement@SapBuffer@@UAEHHHPAVSapData@@@Z 67da93b0     SapClassBasic:SapClassBasic82.dll
 0002:000003b4       __imp_?ReadElement@SapBuffer@@UAEHHHHPAX@Z 67da93b4     SapClassBasic:SapClassBasic82.dll
 0002:000003b8       __imp_?ReadElement@SapBuffer@@UAEHHHPAX@Z 67da93b8     SapClassBasic:SapClassBasic82.dll
 0002:000003bc       __imp_?ReadLine@SapBuffer@@UAEHHHHHHPAXPAH@Z 67da93bc     SapClassBasic:SapClassBasic82.dll
 0002:000003c0       __imp_?ReadLine@SapBuffer@@UAEHHHHHPAXPAH@Z 67da93c0     SapClassBasic:SapClassBasic82.dll
 0002:000003c4       __imp_?ReadRect@SapBuffer@@UAEHHHHHHPAX@Z 67da93c4     SapClassBasic:SapClassBasic82.dll
 0002:000003c8       __imp_?ReadRect@SapBuffer@@UAEHHHHHPAX@Z 67da93c8     SapClassBasic:SapClassBasic82.dll
 0002:000003cc       __imp_?Write@SapBuffer@@UAEHH_KHPBX@Z 67da93cc     SapClassBasic:SapClassBasic82.dll
 0002:000003d0       __imp_?Write@SapBuffer@@UAEH_KHPBX@Z 67da93d0     SapClassBasic:SapClassBasic82.dll
 0002:000003d4       __imp_?WriteElement@SapBuffer@@UAEHHHHVSapData@@@Z 67da93d4     SapClassBasic:SapClassBasic82.dll
 0002:000003d8       __imp_?WriteElement@SapBuffer@@UAEHHHVSapData@@@Z 67da93d8     SapClassBasic:SapClassBasic82.dll
 0002:000003dc       __imp_?WriteElement@SapBuffer@@UAEHHHHPBX@Z 67da93dc     SapClassBasic:SapClassBasic82.dll
 0002:000003e0       __imp_?WriteElement@SapBuffer@@UAEHHHPBX@Z 67da93e0     SapClassBasic:SapClassBasic82.dll
 0002:000003e4       __imp_?WriteLine@SapBuffer@@UAEHHHHHHPBXPAH@Z 67da93e4     SapClassBasic:SapClassBasic82.dll
 0002:000003e8       __imp_?WriteLine@SapBuffer@@UAEHHHHHPBXPAH@Z 67da93e8     SapClassBasic:SapClassBasic82.dll
 0002:000003ec       __imp_?WriteRect@SapBuffer@@UAEHHHHHHPBX@Z 67da93ec     SapClassBasic:SapClassBasic82.dll
 0002:000003f0       __imp_?WriteRect@SapBuffer@@UAEHHHHHPBX@Z 67da93f0     SapClassBasic:SapClassBasic82.dll
 0002:000003f4       __imp_?Copy@SapBuffer@@UAEHPAV1@HH@Z 67da93f4     SapClassBasic:SapClassBasic82.dll
 0002:000003f8       __imp_?Copy@SapBuffer@@UAEHPAV1@@Z 67da93f8     SapClassBasic:SapClassBasic82.dll
 0002:000003fc       __imp_?Destroy@SapFeature@@UAEHXZ 67da93fc     SapClassBasic:SapClassBasic82.dll
 0002:00000400       __imp_?CopyRect@SapBuffer@@UAEHPAV1@HHHHHHHH@Z 67da9400     SapClassBasic:SapClassBasic82.dll
 0002:00000404       __imp_?ColorConvert@SapBuffer@@UAEHPAV1@HHHHVSapDataFRGB@@PAVSapLut@@@Z 67da9404     SapClassBasic:SapClassBasic82.dll
 0002:00000408       __imp_?ColorConvert@SapBuffer@@UAEHPAV1@HHVSapDataFRGB@@PAVSapLut@@@Z 67da9408     SapClassBasic:SapClassBasic82.dll
 0002:0000040c       __imp_?ColorWhiteBalance@SapBuffer@@UAEHHHPAVSapDataFRGB@@@Z 67da940c     SapClassBasic:SapClassBasic82.dll
 0002:00000410       __imp_?ColorWhiteBalance@SapBuffer@@UAEHHPAVSapDataFRGB@@@Z 67da9410     SapClassBasic:SapClassBasic82.dll
 0002:00000414       __imp_?SplitComponents@SapBuffer@@UAEHPAV1@00H@Z 67da9414     SapClassBasic:SapClassBasic82.dll
 0002:00000418       __imp_?SplitComponents@SapBuffer@@UAEHPAV1@00@Z 67da9418     SapClassBasic:SapClassBasic82.dll
 0002:0000041c       __imp_?SplitComponents@SapBuffer@@UAEHPAV1@H@Z 67da941c     SapClassBasic:SapClassBasic82.dll
 0002:00000420       __imp_?SplitComponents@SapBuffer@@UAEHPAV1@@Z 67da9420     SapClassBasic:SapClassBasic82.dll
 0002:00000424       __imp_?MergeComponents@SapBuffer@@UAEHPAV1@00H@Z 67da9424     SapClassBasic:SapClassBasic82.dll
 0002:00000428       __imp_?MergeComponents@SapBuffer@@UAEHPAV1@00@Z 67da9428     SapClassBasic:SapClassBasic82.dll
 0002:0000042c       __imp_?MergeComponents@SapBuffer@@UAEHPAV1@H@Z 67da942c     SapClassBasic:SapClassBasic82.dll
 0002:00000430       __imp_?MergeComponents@SapBuffer@@UAEHPAV1@@Z 67da9430     SapClassBasic:SapClassBasic82.dll
 0002:00000434       __imp_?Register@SapBuffer@@UAEHPBD@Z 67da9434     SapClassBasic:SapClassBasic82.dll
 0002:00000438       __imp_?Unregister@SapBuffer@@UAEHXZ 67da9438     SapClassBasic:SapClassBasic82.dll
 0002:0000043c       __imp_?GetNumRoi@SapBuffer@@UBEHXZ 67da943c     SapClassBasic:SapClassBasic82.dll
 0002:00000440       __imp_?GetRoi@SapBuffer@@UBEQAUtagRECT@@H@Z 67da9440     SapClassBasic:SapClassBasic82.dll
 0002:00000444       __imp_?AddRoi@SapBuffer@@UAEHUtagRECT@@@Z 67da9444     SapClassBasic:SapClassBasic82.dll
 0002:00000448       __imp_?RemoveAllRoi@SapBuffer@@UAEHXZ 67da9448     SapClassBasic:SapClassBasic82.dll
 0002:0000044c       __imp_?GetChild@SapBuffer@@UBEPAU__CORHANDLE@@HH@Z 67da944c     SapClassBasic:SapClassBasic82.dll
 0002:00000450       __imp_?BayerConvert@SapBuffer@@UAEHPAV1@HHHHVSapDataFRGB@@PAVSapLut@@@Z 67da9450     SapClassBasic:SapClassBasic82.dll
 0002:00000454       __imp_?GetPixelRatio@SapFlatFieldStats@@QBEMH@Z 67da9454     SapClassBasic:SapClassBasic82.dll
 0002:00000458       __imp_?BayerWhiteBalance@SapBuffer@@UAEHHHPAVSapDataFRGB@@@Z 67da9458     SapClassBasic:SapClassBasic82.dll
 0002:0000045c       __imp_?BayerWhiteBalance@SapBuffer@@UAEHHPAVSapDataFRGB@@@Z 67da945c     SapClassBasic:SapClassBasic82.dll
 0002:00000460       __imp_?Construct@SapBuffer@@MAEXPBDPAVSapDisplay@@@Z 67da9460     SapClassBasic:SapClassBasic82.dll
 0002:00000464       __imp_?GetPinNumber@SapGioCallbackInfo@@QBEHXZ 67da9464     SapClassBasic:SapClassBasic82.dll
 0002:00000468       __imp_?GetContext@SapGioCallbackInfo@@QBEPAXXZ 67da9468     SapClassBasic:SapClassBasic82.dll
 0002:0000046c       __imp_?SetDisplayStatusMode@SapManager@@SAHHP6AXPAVSapManCallbackInfo@@@ZPAX@Z 67da946c     SapClassBasic:SapClassBasic82.dll
 0002:00000470       __imp_?GetNumPins@SapGio@@QBEHXZ 67da9470     SapClassBasic:SapClassBasic82.dll
 0002:00000474       __imp_?Top@SapViewScaleParams@@QBEHXZ 67da9474     SapClassBasic:SapClassBasic82.dll
 0002:00000478       __imp_?Left@SapViewScaleParams@@QBEHXZ 67da9478     SapClassBasic:SapClassBasic82.dll
 0002:0000047c       __imp_?Height@SapViewScaleParams@@QBEHXZ 67da947c     SapClassBasic:SapClassBasic82.dll
 0002:00000480       __imp_?Width@SapViewScaleParams@@QBEHXZ 67da9480     SapClassBasic:SapClassBasic82.dll
 0002:00000484       __imp_?GetScaleParamsSrc@SapView@@QAEABVSapViewScaleParams@@XZ 67da9484     SapClassBasic:SapClassBasic82.dll
 0002:00000488       __imp_?GetBuffer@SapView@@QBEPAVSapBuffer@@XZ 67da9488     SapClassBasic:SapClassBasic82.dll
 0002:0000048c       __imp_?Mono@SapDataMono@@QAEHXZ 67da948c     SapClassBasic:SapClassBasic82.dll
 0002:00000490       __imp_??1SapDataMono@@UAE@XZ 67da9490     SapClassBasic:SapClassBasic82.dll
 0002:00000494       __imp_??0SapDataMono@@QAE@XZ 67da9494     SapClassBasic:SapClassBasic82.dll
 0002:00000498       __imp_?GetImageFilterKernelSize@SapAcquisition@@QAEHIPAW4ImageFilterKernelSize@1@@Z 67da9498     SapClassBasic:SapClassBasic82.dll
 0002:0000049c       __imp_?GetImageFilter@SapAcquisition@@QAEHIPAVSapBuffer@@@Z 67da949c     SapClassBasic:SapClassBasic82.dll
 0002:000004a0       __imp_?EnableImageFilter@SapAcquisition@@QAEHH@Z 67da94a0     SapClassBasic:SapClassBasic82.dll
 0002:000004a4       __imp_?IsImageFilterEnabled@SapAcquisition@@QAEHXZ 67da94a4     SapClassBasic:SapClassBasic82.dll
 0002:000004a8       __imp_?IsImageFilterAvailable@SapAcquisition@@QBEHXZ 67da94a8     SapClassBasic:SapClassBasic82.dll
 0002:000004ac       __imp_??0SapData@@QAE@ABV0@@Z 67da94ac     SapClassBasic:SapClassBasic82.dll
 0002:000004b0       __imp_?Set@SapDataMono@@QAEXH@Z 67da94b0     SapClassBasic:SapClassBasic82.dll
 0002:000004b4       __imp_?SetImageFilter@SapAcquisition@@QAEHIPAVSapBuffer@@@Z 67da94b4     SapClassBasic:SapClassBasic82.dll
 0002:000004b8       __imp_??1SapViewScaleParams@@QAE@XZ 67da94b8     SapClassBasic:SapClassBasic82.dll
 0002:000004bc       __imp_?ZoomVert@SapViewScaleParams@@QBEMXZ 67da94bc     SapClassBasic:SapClassBasic82.dll
 0002:000004c0       __imp_?ZoomHorz@SapViewScaleParams@@QBEMXZ 67da94c0     SapClassBasic:SapClassBasic82.dll
 0002:000004c4       __imp_?GetScaleParamsDst@SapView@@QAEABVSapViewScaleParams@@XZ 67da94c4     SapClassBasic:SapClassBasic82.dll
 0002:000004c8       __imp_?SetHeight@SapViewScaleParams@@QAEXH@Z 67da94c8     SapClassBasic:SapClassBasic82.dll
 0002:000004cc       __imp_?SetWidth@SapViewScaleParams@@QAEXH@Z 67da94cc     SapClassBasic:SapClassBasic82.dll
 0002:000004d0       __imp_?SetLeft@SapViewScaleParams@@QAEXH@Z 67da94d0     SapClassBasic:SapClassBasic82.dll
 0002:000004d4       __imp_?SetTop@SapViewScaleParams@@QAEXH@Z 67da94d4     SapClassBasic:SapClassBasic82.dll
 0002:000004d8       __imp_??0SapViewScaleParams@@QAE@XZ 67da94d8     SapClassBasic:SapClassBasic82.dll
 0002:000004dc       __imp_?GetContext@SapViewCallbackInfo@@QBEPAXXZ 67da94dc     SapClassBasic:SapClassBasic82.dll
 0002:000004e0       __imp_??1SapDataHSI@@UAE@XZ 67da94e0     SapClassBasic:SapClassBasic82.dll
 0002:000004e4       __imp_?H@SapDataHSI@@QAEHXZ 67da94e4     SapClassBasic:SapClassBasic82.dll
 0002:000004e8       __imp_?S@SapDataHSI@@QAEHXZ 67da94e8     SapClassBasic:SapClassBasic82.dll
 0002:000004ec       __imp_?I@SapDataHSI@@QAEHXZ 67da94ec     SapClassBasic:SapClassBasic82.dll
 0002:000004f0       __imp_??0SapDataHSI@@QAE@XZ 67da94f0     SapClassBasic:SapClassBasic82.dll
 0002:000004f4       __imp_??1SapDataLAB@@UAE@XZ 67da94f4     SapClassBasic:SapClassBasic82.dll
 0002:000004f8       __imp_?L@SapDataLAB@@QAEHXZ 67da94f8     SapClassBasic:SapClassBasic82.dll
 0002:000004fc       __imp_?A@SapDataLAB@@QAEHXZ 67da94fc     SapClassBasic:SapClassBasic82.dll
 0002:00000500       __imp_?B@SapDataLAB@@QAEHXZ 67da9500     SapClassBasic:SapClassBasic82.dll
 0002:00000504       __imp_??0SapDataLAB@@QAE@XZ 67da9504     SapClassBasic:SapClassBasic82.dll
 0002:00000508       __imp_??1SapDataYUV@@UAE@XZ 67da9508     SapClassBasic:SapClassBasic82.dll
 0002:0000050c       __imp_?Y@SapDataYUV@@QAEHXZ 67da950c     SapClassBasic:SapClassBasic82.dll
 0002:00000510       __imp_?U@SapDataYUV@@QAEHXZ 67da9510     SapClassBasic:SapClassBasic82.dll
 0002:00000514       __imp_?V@SapDataYUV@@QAEHXZ 67da9514     SapClassBasic:SapClassBasic82.dll
 0002:00000518       __imp_??0SapDataYUV@@QAE@XZ 67da9518     SapClassBasic:SapClassBasic82.dll
 0002:0000051c       __imp_??0SapDataRGB@@QAE@XZ 67da951c     SapClassBasic:SapClassBasic82.dll
 0002:00000520       __imp_??1SapData@@UAE@XZ   67da9520     SapClassBasic:SapClassBasic82.dll
 0002:00000524       __imp_??1SapDataRGB@@UAE@XZ 67da9524     SapClassBasic:SapClassBasic82.dll
 0002:00000528       __imp_?Blue@SapDataRGB@@QAEHXZ 67da9528     SapClassBasic:SapClassBasic82.dll
 0002:0000052c       __imp_?Green@SapDataRGB@@QAEHXZ 67da952c     SapClassBasic:SapClassBasic82.dll
 0002:00000530       __imp_?Red@SapDataRGB@@QAEHXZ 67da9530     SapClassBasic:SapClassBasic82.dll
 0002:00000534       __imp_??0SapDataRGB@@QAE@ABVSapData@@@Z 67da9534     SapClassBasic:SapClassBasic82.dll
 0002:00000538       __imp_??0SapData@@QAE@XZ   67da9538     SapClassBasic:SapClassBasic82.dll
 0002:0000053c       __imp_?Alpha@SapDataRGBA@@QAEHXZ 67da953c     SapClassBasic:SapClassBasic82.dll
 0002:00000540       __imp_??1SapDataRGBA@@UAE@XZ 67da9540     SapClassBasic:SapClassBasic82.dll
 0002:00000544       __imp_?Red@SapDataRGBA@@QAEHXZ 67da9544     SapClassBasic:SapClassBasic82.dll
 0002:00000548       __imp_?Green@SapDataRGBA@@QAEHXZ 67da9548     SapClassBasic:SapClassBasic82.dll
 0002:0000054c       __imp_?Blue@SapDataRGBA@@QAEHXZ 67da954c     SapClassBasic:SapClassBasic82.dll
 0002:00000550       __imp_??0SapDataRGBA@@QAE@XZ 67da9550     SapClassBasic:SapClassBasic82.dll
 0002:00000554       __imp_??1SapDataHSV@@UAE@XZ 67da9554     SapClassBasic:SapClassBasic82.dll
 0002:00000558       __imp_?H@SapDataHSV@@QAEHXZ 67da9558     SapClassBasic:SapClassBasic82.dll
 0002:0000055c       __imp_?S@SapDataHSV@@QAEHXZ 67da955c     SapClassBasic:SapClassBasic82.dll
 0002:00000560       __imp_?V@SapDataHSV@@QAEHXZ 67da9560     SapClassBasic:SapClassBasic82.dll
 0002:00000564       __imp_??0SapDataHSV@@QAE@XZ 67da9564     SapClassBasic:SapClassBasic82.dll
 0002:00000568       __imp_??1SapDataLABA@@UAE@XZ 67da9568     SapClassBasic:SapClassBasic82.dll
 0002:0000056c       __imp_?L@SapDataLABA@@QAEHXZ 67da956c     SapClassBasic:SapClassBasic82.dll
 0002:00000570       __imp_?A@SapDataLABA@@QAEHXZ 67da9570     SapClassBasic:SapClassBasic82.dll
 0002:00000574       __imp_?B@SapDataLABA@@QAEHXZ 67da9574     SapClassBasic:SapClassBasic82.dll
 0002:00000578       __imp_??0SapDataLABA@@QAE@XZ 67da9578     SapClassBasic:SapClassBasic82.dll
 0002:0000057c       __imp_?GetScrollRange@SapView@@QBE?AUtagSIZE@@XZ 67da957c     SapClassBasic:SapClassBasic82.dll
 0002:00000580       __imp_?GetScrollPos@SapView@@QBE?AUtagPOINT@@XZ 67da9580     SapClassBasic:SapClassBasic82.dll
 0002:00000584       __imp_?GetScalingMode@SapView@@QBE?AW4ScalingMode@1@XZ 67da9584     SapClassBasic:SapClassBasic82.dll
 0002:00000588       __imp_?SetRefImage@SapPixProParams@@QAEXH@Z 67da9588     SapClassBasic:SapClassBasic82.dll
 0002:0000058c       __imp_?SetBankId@SapPixProParams@@QAEXH@Z 67da958c     SapClassBasic:SapClassBasic82.dll
 0002:00000590       __imp_??1SapPixProParams@@QAE@XZ 67da9590     SapClassBasic:SapClassBasic82.dll
 0002:00000594       __imp_?SetConfigIndex@SapPixProParams@@QAEXH@Z 67da9594     SapClassBasic:SapClassBasic82.dll
 0002:00000598       __imp_?SetFunctionIndex@SapPixProParams@@QAEXH@Z 67da9598     SapClassBasic:SapClassBasic82.dll
 0002:0000059c       __imp_?GetParams@SapPixPro@@QBEPBVSapPixProParams@@XZ 67da959c     SapClassBasic:SapClassBasic82.dll
 0002:000005a0       __imp_?GetConfigIndex@SapPixProParams@@QBEHXZ 67da95a0     SapClassBasic:SapClassBasic82.dll
 0002:000005a4       __imp_?GetFunctionIndex@SapPixProParams@@QBEHXZ 67da95a4     SapClassBasic:SapClassBasic82.dll
 0002:000005a8       __imp_?GetFile@SapPixPro@@QBEPBDXZ 67da95a8     SapClassBasic:SapClassBasic82.dll
 0002:000005ac       __imp_??1SapPixPro@@UAE@XZ 67da95ac     SapClassBasic:SapClassBasic82.dll
 0002:000005b0       __imp_??4SapPixPro@@QAEAAV0@ABV0@@Z 67da95b0     SapClassBasic:SapClassBasic82.dll
 0002:000005b4       __imp_??0SapPixPro@@QAE@VSapLocation@@PBDPAVSapXferNode@@PAVSapPixProParams@@@Z 67da95b4     SapClassBasic:SapClassBasic82.dll
 0002:000005b8       __imp_?GetConfigInfo@SapPixPro@@QAEHHPADH@Z 67da95b8     SapClassBasic:SapClassBasic82.dll
 0002:000005bc       __imp_?GetNumConfigs@SapPixPro@@QAEHXZ 67da95bc     SapClassBasic:SapClassBasic82.dll
 0002:000005c0       __imp_?GetFunctionInfo@SapPixPro@@QAEHHPAUCORPPL_FCT_PROP@@PADH@Z 67da95c0     SapClassBasic:SapClassBasic82.dll
 0002:000005c4       __imp_?GetNumFunctions@SapPixPro@@QAEHXZ 67da95c4     SapClassBasic:SapClassBasic82.dll
 0002:000005c8       __imp_?ReadDesign@SapPixPro@@QAEHPAD@Z 67da95c8     SapClassBasic:SapClassBasic82.dll
 0002:000005cc       __imp_?SetIntegrateFactor@SapPixProParams@@QAEXH@Z 67da95cc     SapClassBasic:SapClassBasic82.dll
 0002:000005d0       __imp_?SetIntegrateCount@SapPixProParams@@QAEXH@Z 67da95d0     SapClassBasic:SapClassBasic82.dll
 0002:000005d4       __imp_?SetWeightingFactor@SapPixProParams@@QAEXH@Z 67da95d4     SapClassBasic:SapClassBasic82.dll
 0002:000005d8       __imp_?GetStringFromFormat@SapManager@@SAHHPAD@Z 67da95d8     SapClassBasic:SapClassBasic82.dll
 0002:000005dc       __imp_??1SapLocation@@UAE@XZ 67da95dc     SapClassBasic:SapClassBasic82.dll
 0002:000005e0       __imp_?SetLocation@SapXferNode@@QAEHVSapLocation@@@Z 67da95e0     SapClassBasic:SapClassBasic82.dll
 0002:000005e4       __imp_??0SapLocation@@QAE@ABV0@@Z 67da95e4     SapClassBasic:SapClassBasic82.dll
 0002:000005e8       __imp_??1SapManager@@UAE@XZ 67da95e8     SapClassBasic:SapClassBasic82.dll
 0002:000005ec       __imp_??1SapAcquisition@@UAE@XZ 67da95ec     SapClassBasic:SapClassBasic82.dll
 0002:000005f0       __imp_?GetServerName@SapManager@@SAHHPADH@Z 67da95f0     SapClassBasic:SapClassBasic82.dll
 0002:000005f4       __imp_?GetResourceCount@SapManager@@SAHHH@Z 67da95f4     SapClassBasic:SapClassBasic82.dll
 0002:000005f8       __imp_?GetServerCount@SapManager@@SAHXZ 67da95f8     SapClassBasic:SapClassBasic82.dll
 0002:000005fc       __imp_?GetResourceCount@SapManager@@SAHVSapLocation@@H@Z 67da95fc     SapClassBasic:SapClassBasic82.dll
 0002:00000600       __imp_?GetLocation@SapXferNode@@QBE?AVSapLocation@@XZ 67da9600     SapClassBasic:SapClassBasic82.dll
 0002:00000604       __imp_?IsResourceAvailable@SapManager@@SAHPBDHH@Z 67da9604     SapClassBasic:SapClassBasic82.dll
 0002:00000608       __imp_?GetResourceName@SapManager@@SAHPBDHHPADH@Z 67da9608     SapClassBasic:SapClassBasic82.dll
 0002:0000060c       __imp_?GetResourceCount@SapManager@@SAHPBDH@Z 67da960c     SapClassBasic:SapClassBasic82.dll
 0002:00000610       __imp_?GetServerIndex@SapManager@@SAHPBD@Z 67da9610     SapClassBasic:SapClassBasic82.dll
 0002:00000614       __imp_??0SapAcquisition@@QAE@VSapLocation@@@Z 67da9614     SapClassBasic:SapClassBasic82.dll
 0002:00000618       __imp_??0SapLocation@@QAE@HH@Z 67da9618     SapClassBasic:SapClassBasic82.dll
 0002:0000061c       __imp_??0SapManager@@QAE@XZ 67da961c     SapClassBasic:SapClassBasic82.dll
 0002:00000620       __imp_?GetResourceIndex@SapLocation@@QBEHXZ 67da9620     SapClassBasic:SapClassBasic82.dll
 0002:00000624       __imp_?GetServerName@SapManager@@SAHVSapLocation@@PADH@Z 67da9624     SapClassBasic:SapClassBasic82.dll
 0002:00000628       __imp_?GetConfigFile@SapAcquisition@@QBEPBDXZ 67da9628     SapClassBasic:SapClassBasic82.dll
 0002:0000062c       __imp_??4SapAcquisition@@QAEAAV0@ABV0@@Z 67da962c     SapClassBasic:SapClassBasic82.dll
 0002:00000630       __imp_?DisplayStatus@SapManager@@SAIPBDI@Z 67da9630     SapClassBasic:SapClassBasic82.dll
 0002:00000634       __imp_?SetIndex@SapXferNode@@UAEHH@Z 67da9634     SapClassBasic:SapClassBasic82.dll
 0002:00000638       __imp_??1SapDataFRGB@@UAE@XZ 67da9638     SapClassBasic:SapClassBasic82.dll
 0002:0000063c       __imp_?IsEnabled@SapBayer@@QBEHXZ 67da963c     SapClassBasic:SapClassBasic82.dll
 0002:00000640       __imp_?IsLutEnabled@SapBayer@@QBEHXZ 67da9640     SapClassBasic:SapClassBasic82.dll
 0002:00000644       __imp_?GetGamma@SapBayer@@QBEMXZ 67da9644     SapClassBasic:SapClassBasic82.dll
 0002:00000648       __imp_?Blue@SapDataFRGB@@QAEMXZ 67da9648     SapClassBasic:SapClassBasic82.dll
 0002:0000064c       __imp_?CopyAll@SapBuffer@@UAEHPAV1@@Z 67da964c     SapClassBasic:SapClassBasic82.dll
 0002:00000650       __imp_?GetNumPixels@SapFlatFieldStats@@QBEHH@Z 67da9650     SapClassBasic:SapClassBasic82.dll
 0002:00000654       __imp_?Green@SapDataFRGB@@QAEMXZ 67da9654     SapClassBasic:SapClassBasic82.dll
 0002:00000658       __imp_?Red@SapDataFRGB@@QAEMXZ 67da9658     SapClassBasic:SapClassBasic82.dll
 0002:0000065c       __imp_?GetWBGain@SapBayer@@QBE?AVSapDataFRGB@@XZ 67da965c     SapClassBasic:SapClassBasic82.dll
 0002:00000660       __imp_?GetMethod@SapBayer@@QBEHXZ 67da9660     SapClassBasic:SapClassBasic82.dll
 0002:00000664       __imp_?GetAlign@SapBayer@@QBEHXZ 67da9664     SapClassBasic:SapClassBasic82.dll
 0002:00000668       __imp_?GetAvailMethod@SapBayer@@QBEHXZ 67da9668     SapClassBasic:SapClassBasic82.dll
 0002:0000066c       __imp_?GetAvailAlign@SapBayer@@QBEHXZ 67da966c     SapClassBasic:SapClassBasic82.dll
 0002:00000670       __imp_?IsSoftware@SapBayer@@QBEHXZ 67da9670     SapClassBasic:SapClassBasic82.dll
 0002:00000674       __imp_??BSapManager@@QBEHXZ 67da9674     SapClassBasic:SapClassBasic82.dll
 0002:00000678       __imp_??0SapDataFRGB@@QAE@MMM@Z 67da9678     SapClassBasic:SapClassBasic82.dll
 0002:0000067c       __imp_?GetPixelDepthMin@SapManager@@SAHH@Z 67da967c     SapClassBasic:SapClassBasic82.dll
 0002:00000680       __imp_?GetPixelDepthMax@SapManager@@SAHH@Z 67da9680     SapClassBasic:SapClassBasic82.dll
 0002:00000684       __imp_??1SapBuffer@@UAE@XZ 67da9684     SapClassBasic:SapClassBasic82.dll
 0002:00000688       __imp_?IsBufferTypeSupported@SapBuffer@@SAHVSapLocation@@H@Z 67da9688     SapClassBasic:SapClassBasic82.dll
 0002:0000068c       __imp_??4SapLocation@@QAEAAV0@ABV0@@Z 67da968c     SapClassBasic:SapClassBasic82.dll
 0002:00000690       __imp_?GetSrcNode@SapXferNode@@QBEPAV1@XZ 67da9690     SapClassBasic:SapClassBasic82.dll
 0002:00000694       __imp_?GetPixelDepth@SapBuffer@@QBEHXZ 67da9694     SapClassBasic:SapClassBasic82.dll
 0002:00000698       __imp_?GetType@SapBuffer@@QBEHXZ 67da9698     SapClassBasic:SapClassBasic82.dll
 0002:0000069c       __imp_?GetFormat@SapBuffer@@QBEHXZ 67da969c     SapClassBasic:SapClassBasic82.dll
 0002:000006a0       __imp_?GetHeight@SapBuffer@@QBEHXZ 67da96a0     SapClassBasic:SapClassBasic82.dll
 0002:000006a4       __imp_?GetWidth@SapBuffer@@QBEHXZ 67da96a4     SapClassBasic:SapClassBasic82.dll
 0002:000006a8       __imp_??0SapLocation@@QAE@XZ 67da96a8     SapClassBasic:SapClassBasic82.dll
 0002:000006ac       __imp_??0SapBuffer@@QAE@HHHHHVSapLocation@@@Z 67da96ac     SapClassBasic:SapClassBasic82.dll
 0002:000006b0       __imp_??0SapCab@@QAE@VSapLocation@@PAVSapXferNode@@@Z 67da96b0     SapClassBasic:SapClassBasic82.dll
 0002:000006b4       __imp_??0SapLocation@@QAE@ABV0@H@Z 67da96b4     SapClassBasic:SapClassBasic82.dll
 0002:000006b8       __imp_?Create@SapCab@@UAEHXZ 67da96b8     SapClassBasic:SapClassBasic82.dll
 0002:000006bc       __imp_?Destroy@SapCab@@UAEHXZ 67da96bc     SapClassBasic:SapClassBasic82.dll
 0002:000006c0       __imp_?GetXferParams@SapCab@@UBE?AVSapXferParams@@H@Z 67da96c0     SapClassBasic:SapClassBasic82.dll
 0002:000006c4       __imp_??0SapLocation@@QAE@PBDH@Z 67da96c4     SapClassBasic:SapClassBasic82.dll
 0002:000006c8       __imp_?GetInputXferParams@SapCab@@UBE?AVSapXferParams@@H@Z 67da96c8     SapClassBasic:SapClassBasic82.dll
 0002:000006cc       __imp_?GetOutputXferParams@SapCab@@UBE?AVSapXferParams@@H@Z 67da96cc     SapClassBasic:SapClassBasic82.dll
 0002:000006d0       __imp_?SetSrcNode@SapXferNode@@UAEHPAV1@H@Z 67da96d0     SapClassBasic:SapClassBasic82.dll
 0002:000006d4       __imp_?SetXferParams@SapCab@@UAEHVSapXferParams@@H@Z 67da96d4     SapClassBasic:SapClassBasic82.dll
 0002:000006d8       __imp_?SetInputXferParams@SapCab@@UAEHVSapXferParams@@H@Z 67da96d8     SapClassBasic:SapClassBasic82.dll
 0002:000006dc       __imp_?SetOutputXferParams@SapCab@@UAEHVSapXferParams@@H@Z 67da96dc     SapClassBasic:SapClassBasic82.dll
 0002:000006e0       __imp_?GetHandle@SapXferNode@@UBEPAU__CORHANDLE@@H@Z 67da96e0     SapClassBasic:SapClassBasic82.dll
 0002:000006e4       __imp_?GetHandle@SapXferNode@@UBEPAU__CORHANDLE@@XZ 67da96e4     SapClassBasic:SapClassBasic82.dll
 0002:000006e8       __imp_?GetXferParamsFromSrcNode@SapXferNode@@UAEXXZ 67da96e8     SapClassBasic:SapClassBasic82.dll
 0002:000006ec       __imp_?GetXferNodeType@SapCab@@UAE?AW4XferNodeType@SapXferNode@@XZ 67da96ec     SapClassBasic:SapClassBasic82.dll
 0002:000006f0       __imp_?IsBuffer@SapXferNode@@UAEHXZ 67da96f0     SapClassBasic:SapClassBasic82.dll
 0002:000006f4       __imp_??ASapXferNode@@UBEPAU__CORHANDLE@@H@Z 67da96f4     SapClassBasic:SapClassBasic82.dll
 0002:000006f8       __imp_?GetCount@SapXferNode@@UBEHXZ 67da96f8     SapClassBasic:SapClassBasic82.dll
 0002:000006fc       __imp_?GetIndex@SapXferNode@@UBEHXZ 67da96fc     SapClassBasic:SapClassBasic82.dll
 0002:00000700       __imp_?GetPeakPosition@SapFlatFieldStats@@QBEHH@Z 67da9700     SapClassBasic:SapClassBasic82.dll
 0002:00000704       __imp_?GetHigh@SapFlatFieldStats@@QBEHH@Z 67da9704     SapClassBasic:SapClassBasic82.dll
 0002:00000708       __imp_?GetLow@SapFlatFieldStats@@QBEHH@Z 67da9708     SapClassBasic:SapClassBasic82.dll
 0002:0000070c       __imp_?GetStdDeviation@SapFlatFieldStats@@QBEHH@Z 67da970c     SapClassBasic:SapClassBasic82.dll
 0002:00000710       __imp_?GetNumComponents@SapFlatFieldStats@@QBEHXZ 67da9710     SapClassBasic:SapClassBasic82.dll
 0002:00000714       __imp_?GetAverage@SapFlatFieldStats@@QBEHH@Z 67da9714     SapClassBasic:SapClassBasic82.dll
 0002:00000718       __imp_?SetClusterMap@SapFlatField@@QAEHPBD@Z 67da9718     SapClassBasic:SapClassBasic82.dll
 0002:0000071c       __imp_?GetClusterMapPixelCount@SapFlatField@@QBEHXZ 67da971c     SapClassBasic:SapClassBasic82.dll
 0002:00000720       __imp_?GetAlign@SapColorConversion@@QBEHXZ 67da9720     SapClassBasic:SapClassBasic82.dll
 0002:00000724       __imp_?GetMethod@SapColorConversion@@QBEHXZ 67da9724     SapClassBasic:SapClassBasic82.dll
 0002:00000728       __imp_?GetGamma@SapColorConversion@@QBEMXZ 67da9728     SapClassBasic:SapClassBasic82.dll
 0002:0000072c       __imp_?IsLutEnabled@SapColorConversion@@QBEHXZ 67da972c     SapClassBasic:SapClassBasic82.dll
 0002:00000730       __imp_?GetAvailAlign@SapColorConversion@@QBEHXZ 67da9730     SapClassBasic:SapClassBasic82.dll
 0002:00000734       __imp_?GetAvailMethod@SapColorConversion@@QBEHXZ 67da9734     SapClassBasic:SapClassBasic82.dll
 0002:00000738       __imp_?GetWBGain@SapColorConversion@@QBE?AVSapDataFRGB@@XZ 67da9738     SapClassBasic:SapClassBasic82.dll
 0002:0000073c       __imp_?IsHardwareEnabled@SapColorConversion@@QBEHXZ 67da973c     SapClassBasic:SapClassBasic82.dll
 0002:00000740       __imp_?IsEnabled@SapColorConversion@@QBEHXZ 67da9740     SapClassBasic:SapClassBasic82.dll
 0002:00000744       __imp_?GetCamFile@SapAcquisition@@QBEPBDXZ 67da9744     SapClassBasic:SapClassBasic82.dll
 0002:00000748       __imp_?GetVicFile@SapAcquisition@@QBEPBDXZ 67da9748     SapClassBasic:SapClassBasic82.dll
 0002:0000074c       __imp_??1SapCab@@UAE@XZ    67da974c     SapClassBasic:SapClassBasic82.dll
 0002:00000750       __imp_?Construct@SapCab@@MAEXHHPBH@Z 67da9750     SapClassBasic:SapClassBasic82.dll
 0002:00000754       __imp_?SetParameter@SapCab@@UAEHHH@Z 67da9754     SapClassBasic:SapClassBasic82.dll
 0002:00000758       __imp_?SetParameter@SapCab@@UAEHHPAX@Z 67da9758     SapClassBasic:SapClassBasic82.dll
 0002:0000075c       __imp_?GetParameter@SapCab@@UAEHHPAX@Z 67da975c     SapClassBasic:SapClassBasic82.dll
 0002:00000760       __imp_?GetCapability@SapCab@@UAEHHPAX@Z 67da9760     SapClassBasic:SapClassBasic82.dll
 0002:00000764       __imp_?EmptyAll@SapXferNode@@UAEHXZ 67da9764     SapClassBasic:SapClassBasic82.dll
 0002:00000768       __imp_?Empty@SapXferNode@@UAEHXZ 67da9768     SapClassBasic:SapClassBasic82.dll
 0002:0000076c       __imp_?Empty@SapXferNode@@UAEHH@Z 67da976c     SapClassBasic:SapClassBasic82.dll
 0002:00000770       __imp_?GetTrash@SapXferNode@@UBEPAU__CORHANDLE@@XZ 67da9770     SapClassBasic:SapClassBasic82.dll
 0002:00000774       __imp_?Next@SapXferNode@@UAEXXZ 67da9774     SapClassBasic:SapClassBasic82.dll
 0002:00000778       __imp_?BayerConvert@SapBuffer@@UAEHPAV1@HHVSapDataFRGB@@PAVSapLut@@@Z 67da9778     SapClassBasic:SapClassBasic82.dll
 0002:0000077c       __imp_?ResetIndex@SapXferNode@@UAEXXZ 67da977c     SapClassBasic:SapClassBasic82.dll
 0002:00000780       \177SapClassBasic82_NULL_THUNK_DATA 67da9780     SapClassBasic:SapClassBasic82.dll
 0002:00000784       __imp__ShowScrollBar@12    67da9784     user32:USER32.dll
 0002:00000788       __imp__IsIconic@4          67da9788     user32:USER32.dll
 0002:0000078c       __imp__SetCursor@4         67da978c     user32:USER32.dll
 0002:00000790       __imp__GetCursorPos@4      67da9790     user32:USER32.dll
 0002:00000794       __imp__SetCursorPos@8      67da9794     user32:USER32.dll
 0002:00000798       __imp__LoadCursorA@8       67da9798     user32:USER32.dll
 0002:0000079c       __imp__ScreenToClient@8    67da979c     user32:USER32.dll
 0002:000007a0       __imp__SetRect@20          67da97a0     user32:USER32.dll
 0002:000007a4       __imp__PtInRect@12         67da97a4     user32:USER32.dll
 0002:000007a8       __imp__GetSystemMetrics@4  67da97a8     user32:USER32.dll
 0002:000007ac       __imp__TrackMouseEvent@4   67da97ac     user32:USER32.dll
 0002:000007b0       __imp__InvalidateRect@12   67da97b0     user32:USER32.dll
 0002:000007b4       __imp__FillRect@12         67da97b4     user32:USER32.dll
 0002:000007b8       __imp__OffsetRect@12       67da97b8     user32:USER32.dll
 0002:000007bc       __imp__RedrawWindow@16     67da97bc     user32:USER32.dll
 0002:000007c0       __imp__GetClientRect@8     67da97c0     user32:USER32.dll
 0002:000007c4       __imp__GetParent@4         67da97c4     user32:USER32.dll
 0002:000007c8       __imp__ReleaseDC@8         67da97c8     user32:USER32.dll
 0002:000007cc       __imp__GetDC@4             67da97cc     user32:USER32.dll
 0002:000007d0       __imp__GetFocus@0          67da97d0     user32:USER32.dll
 0002:000007d4       __imp__SetForegroundWindow@4 67da97d4     user32:USER32.dll
 0002:000007d8       __imp__SetDlgItemTextA@12  67da97d8     user32:USER32.dll
 0002:000007dc       __imp__SendMessageA@16     67da97dc     user32:USER32.dll
 0002:000007e0       __imp__BringWindowToTop@4  67da97e0     user32:USER32.dll
 0002:000007e4       __imp__EnableWindow@8      67da97e4     user32:USER32.dll
 0002:000007e8       __imp__KillTimer@8         67da97e8     user32:USER32.dll
 0002:000007ec       __imp__SetTimer@16         67da97ec     user32:USER32.dll
 0002:000007f0       __imp__GetWindowRect@8     67da97f0     user32:USER32.dll
 0002:000007f4       __imp__GetForegroundWindow@0 67da97f4     user32:USER32.dll
 0002:000007f8       \177USER32_NULL_THUNK_DATA 67da97f8     user32:USER32.dll
 0002:000007fc       __imp_?DeleteItem@CComboBox@@UAEXPAUtagDELETEITEMSTRUCT@@@Z 67da97fc     mfc100:mfc100.dll
 0002:00000800       __imp_??1CComboBox@@UAE@XZ 67da9800     mfc100:mfc100.dll
 0002:00000804       __imp_?GetRuntimeClass@CEdit@@UBEPAUCRuntimeClass@@XZ 67da9804     mfc100:mfc100.dll
 0002:00000808       __imp_??1CEdit@@UAE@XZ     67da9808     mfc100:mfc100.dll
 0002:0000080c       __imp_?DDX_Check@@YGXPAVCDataExchange@@HAAH@Z 67da980c     mfc100:mfc100.dll
 0002:00000810       __imp_?DDX_CBIndex@@YGXPAVCDataExchange@@HAAH@Z 67da9810     mfc100:mfc100.dll
 0002:00000814       __imp_?DDX_CBString@@YGXPAVCDataExchange@@HAAV?$CStringT@DV?$StrTraitMFC_DLL@DV?$ChTraitsCRT@D@ATL@@@@@ATL@@@Z 67da9814     mfc100:mfc100.dll
 0002:00000818       __imp_?DDX_Control@@YGXPAVCDataExchange@@HAAVCWnd@@@Z 67da9818     mfc100:mfc100.dll
 0002:0000081c       __imp_?GetLBText@CComboBox@@QBEXHAAV?$CStringT@DV?$StrTraitMFC_DLL@DV?$ChTraitsCRT@D@ATL@@@@@ATL@@@Z 67da981c     mfc100:mfc100.dll
 0002:00000820       __imp_?IsEmpty@?$CSimpleStringT@D$00@ATL@@QBE_NXZ 67da9820     mfc100:mfc100.dll
 0002:00000824       __imp_?UpdateData@CWnd@@QAEHH@Z 67da9824     mfc100:mfc100.dll
 0002:00000828       __imp_?EnableWindow@CWnd@@QAEHH@Z 67da9828     mfc100:mfc100.dll
 0002:0000082c       __imp_?GetDlgItem@CWnd@@QBEPAV1@H@Z 67da982c     mfc100:mfc100.dll
 0002:00000830       __imp_??4?$CStringT@DV?$StrTraitMFC_DLL@DV?$ChTraitsCRT@D@ATL@@@@@ATL@@QAEAAV01@ABV01@@Z 67da9830     mfc100:mfc100.dll
 0002:00000834       __imp_??0?$CStringT@DV?$StrTraitMFC_DLL@DV?$ChTraitsCRT@D@ATL@@@@@ATL@@QAE@XZ 67da9834     mfc100:mfc100.dll
 0002:00000838       __imp_??4?$CStringT@DV?$StrTraitMFC_DLL@DV?$ChTraitsCRT@D@ATL@@@@@ATL@@QAEAAV01@PBD@Z 67da9838     mfc100:mfc100.dll
 0002:0000083c       __imp_??1CFileDialog@@UAE@XZ 67da983c     mfc100:mfc100.dll
 0002:00000840       __imp_?GetPathName@CFileDialog@@QBE?AV?$CStringT@DV?$StrTraitMFC_DLL@DV?$ChTraitsCRT@D@ATL@@@@@ATL@@XZ 67da9840     mfc100:mfc100.dll
 0002:00000844       __imp_?DoModal@CFileDialog@@UAEHXZ 67da9844     mfc100:mfc100.dll
 0002:00000848       __imp_?GetOFN@CFileDialog@@QAEAAUtagOFNA@@XZ 67da9848     mfc100:mfc100.dll
 0002:0000084c       __imp_??0CFileDialog@@QAE@HPBD0K0PAVCWnd@@KH@Z 67da984c     mfc100:mfc100.dll
 0002:00000850       __imp_?OnVScroll@CWnd@@IAEXIIPAVCScrollBar@@@Z 67da9850     mfc100:mfc100.dll
 0002:00000854       __imp_?AfxMessageBox@@YGHPBDII@Z 67da9854     mfc100:mfc100.dll
 0002:00000858       __imp_?GetRuntimeClass@CScrollBar@@UBEPAUCRuntimeClass@@XZ 67da9858     mfc100:mfc100.dll
 0002:0000085c       __imp_?Create@CScrollBar@@UAEHKABUtagRECT@@PAVCWnd@@I@Z 67da985c     mfc100:mfc100.dll
 0002:00000860       __imp_??1CScrollBar@@UAE@XZ 67da9860     mfc100:mfc100.dll
 0002:00000864       __imp_?DDX_Text@@YGXPAVCDataExchange@@HAAH@Z 67da9864     mfc100:mfc100.dll
 0002:00000868       __imp_?GetDlgCtrlID@CWnd@@QBEHXZ 67da9868     mfc100:mfc100.dll
 0002:0000086c       __imp_?DDV_MinMaxInt@@YGXPAVCDataExchange@@HHH@Z 67da986c     mfc100:mfc100.dll
 0002:00000870       __imp_?DDX_Radio@@YGXPAVCDataExchange@@HAAH@Z 67da9870     mfc100:mfc100.dll
 0002:00000874       __imp_?DDX_Text@@YGXPAVCDataExchange@@HAAM@Z 67da9874     mfc100:mfc100.dll
 0002:00000878       __imp_?AfxFindResourceHandle@@YGPAUHINSTANCE__@@PBD0@Z 67da9878     mfc100:mfc100.dll
 0002:0000087c       __imp_?DDV_MinMaxUInt@@YGXPAVCDataExchange@@III@Z 67da987c     mfc100:mfc100.dll
 0002:00000880       __imp_?InsertItem@CTabCtrl@@QAEJIHPBDHJ@Z 67da9880     mfc100:mfc100.dll
 0002:00000884       __imp_??2@YAPAXI@Z         67da9884     mfc100:mfc100.dll
 0002:00000888       __imp_?DDV_MinMaxDWord@@YGXPAVCDataExchange@@KKK@Z 67da9888     mfc100:mfc100.dll
 0002:0000088c       __imp_?IsWindowEnabled@CWnd@@QBEHXZ 67da988c     mfc100:mfc100.dll
 0002:00000890       __imp_?Format@?$CStringT@DV?$StrTraitMFC_DLL@DV?$ChTraitsCRT@D@ATL@@@@@ATL@@QAAXPBDZZ 67da9890     mfc100:mfc100.dll
 0002:00000894       __imp_?StringLength@?$CSimpleStringT@D$00@ATL@@SAHPBD@Z 67da9894     mfc100:mfc100.dll
 0002:00000898       __imp_??_U@YAPAXI@Z        67da9898     mfc100:mfc100.dll
 0002:0000089c       __imp_?EndWaitCursor@CCmdTarget@@QAEXXZ 67da989c     mfc100:mfc100.dll
 0002:000008a0       __imp_?BeginWaitCursor@CCmdTarget@@QAEXXZ 67da98a0     mfc100:mfc100.dll
 0002:000008a4       __imp_??Y?$CStringT@DV?$StrTraitMFC_DLL@DV?$ChTraitsCRT@D@ATL@@@@@ATL@@QAEAAV01@PBD@Z 67da98a4     mfc100:mfc100.dll
 0002:000008a8       __imp_?Replace@?$CStringT@DV?$StrTraitMFC_DLL@DV?$ChTraitsCRT@D@ATL@@@@@ATL@@QAEHPBD0@Z 67da98a8     mfc100:mfc100.dll
 0002:000008ac       __imp_?GetDlgItemTextA@CWnd@@QBEHHPADH@Z 67da98ac     mfc100:mfc100.dll
 0002:000008b0       __imp_?DDX_Text@@YGXPAVCDataExchange@@HAAV?$CStringT@DV?$StrTraitMFC_DLL@DV?$ChTraitsCRT@D@ATL@@@@@ATL@@@Z 67da98b0     mfc100:mfc100.dll
 0002:000008b4       __imp_?GetRuntimeClass@CSliderCtrl@@UBEPAUCRuntimeClass@@XZ 67da98b4     mfc100:mfc100.dll
 0002:000008b8       __imp_?Create@CSliderCtrl@@UAEHKABUtagRECT@@PAVCWnd@@I@Z 67da98b8     mfc100:mfc100.dll
 0002:000008bc       __imp_?CreateEx@CSliderCtrl@@UAEHKKABUtagRECT@@PAVCWnd@@I@Z 67da98bc     mfc100:mfc100.dll
 0002:000008c0       __imp_??1CSliderCtrl@@UAE@XZ 67da98c0     mfc100:mfc100.dll
 0002:000008c4       __imp_?DDX_Text@@YGXPAVCDataExchange@@HAAJ@Z 67da98c4     mfc100:mfc100.dll
 0002:000008c8       __imp_?SetRange@CSliderCtrl@@QAEXHHH@Z 67da98c8     mfc100:mfc100.dll
 0002:000008cc       __imp_?OnHScroll@CWnd@@IAEXIIPAVCScrollBar@@@Z 67da98cc     mfc100:mfc100.dll
 0002:000008d0       __imp_?CheckRadioButton@CWnd@@QAEXHHH@Z 67da98d0     mfc100:mfc100.dll
 0002:000008d4       __imp_??1CButton@@UAE@XZ   67da98d4     mfc100:mfc100.dll
 0002:000008d8       __imp_??1CStatic@@UAE@XZ   67da98d8     mfc100:mfc100.dll
 0002:000008dc       __imp_?OnDestroy@CWnd@@IAEXXZ 67da98dc     mfc100:mfc100.dll
 0002:000008e0       __imp_?SetWindowTextA@CWnd@@QAEXPBD@Z 67da98e0     mfc100:mfc100.dll
 0002:000008e4       __imp_??Y?$CStringT@DV?$StrTraitMFC_DLL@DV?$ChTraitsCRT@D@ATL@@@@@ATL@@QAEAAV01@ABV?$CSimpleStringT@D$00@1@@Z 67da98e4     mfc100:mfc100.dll
 0002:000008e8       __imp_?FromHandle@CDC@@SGPAV1@PAUHDC__@@@Z 67da98e8     mfc100:mfc100.dll
 0002:000008ec       __imp_?FromHandle@CWnd@@SGPAV1@PAUHWND__@@@Z 67da98ec     mfc100:mfc100.dll
 0002:000008f0       __imp_?GetRuntimeClass@CStatic@@UBEPAUCRuntimeClass@@XZ 67da98f0     mfc100:mfc100.dll
 0002:000008f4       __imp_?OnChildNotify@CStatic@@MAEHIIJPAJ@Z 67da98f4     mfc100:mfc100.dll
 0002:000008f8       __imp_?Create@CStatic@@UAEHPBDKABUtagRECT@@PAVCWnd@@I@Z 67da98f8     mfc100:mfc100.dll
 0002:000008fc       __imp_?DrawItem@CStatic@@UAEXPAUtagDRAWITEMSTRUCT@@@Z 67da98fc     mfc100:mfc100.dll
 0002:00000900       __imp_?GetRuntimeClass@CButton@@UBEPAUCRuntimeClass@@XZ 67da9900     mfc100:mfc100.dll
 0002:00000904       __imp_?OnChildNotify@CButton@@MAEHIIJPAJ@Z 67da9904     mfc100:mfc100.dll
 0002:00000908       __imp_?Create@CButton@@UAEHPBDKABUtagRECT@@PAVCWnd@@I@Z 67da9908     mfc100:mfc100.dll
 0002:0000090c       __imp_?DrawItem@CButton@@UAEXPAUtagDRAWITEMSTRUCT@@@Z 67da990c     mfc100:mfc100.dll
 0002:00000910       __imp_?Find@?$CStringT@DV?$StrTraitMFC_DLL@DV?$ChTraitsCRT@D@ATL@@@@@ATL@@QBEHPBDH@Z 67da9910     mfc100:mfc100.dll
 0002:00000914       __imp_?ShowWindow@CWnd@@QAEHH@Z 67da9914     mfc100:mfc100.dll
 0002:00000918       __imp_?GetRuntimeClass@CGdiObject@@UBEPAUCRuntimeClass@@XZ 67da9918     mfc100:mfc100.dll
 0002:0000091c       __imp_?DeleteObject@CGdiObject@@QAEHXZ 67da991c     mfc100:mfc100.dll
 0002:00000920       __imp_?GetRuntimeClass@CBrush@@UBEPAUCRuntimeClass@@XZ 67da9920     mfc100:mfc100.dll
 0002:00000924       __imp_?MoveWindow@CWnd@@QAEXHHHHH@Z 67da9924     mfc100:mfc100.dll
 0002:00000928       __imp_?OnCtlColor@CWnd@@IAEPAUHBRUSH__@@PAVCDC@@PAV1@I@Z 67da9928     mfc100:mfc100.dll
 0002:0000092c       __imp_?GetWindowTextA@CWnd@@QBEXAAV?$CStringT@DV?$StrTraitMFC_DLL@DV?$ChTraitsCRT@D@ATL@@@@@ATL@@@Z 67da992c     mfc100:mfc100.dll
 0002:00000930       __imp_?ModifyStyle@CWnd@@QAEHKKI@Z 67da9930     mfc100:mfc100.dll
 0002:00000934       __imp_?GetThisClass@CStatic@@SGPAUCRuntimeClass@@XZ 67da9934     mfc100:mfc100.dll
 0002:00000938       __imp_?SetFocus@CWnd@@QAEPAV1@XZ 67da9938     mfc100:mfc100.dll
 0002:0000093c       __imp_?GetRuntimeClass@CPen@@UBEPAUCRuntimeClass@@XZ 67da993c     mfc100:mfc100.dll
 0002:00000940       __imp_?Attach@CGdiObject@@QAEHPAX@Z 67da9940     mfc100:mfc100.dll
 0002:00000944       __imp_?GetRuntimeClass@CBitmap@@UBEPAUCRuntimeClass@@XZ 67da9944     mfc100:mfc100.dll
 0002:00000948       __imp_?GetRuntimeClass@CRgn@@UBEPAUCRuntimeClass@@XZ 67da9948     mfc100:mfc100.dll
 0002:0000094c       __imp_?Attach@CDC@@QAEHPAUHDC__@@@Z 67da994c     mfc100:mfc100.dll
 0002:00000950       __imp_?SelectGdiObject@CDC@@KGPAVCGdiObject@@PAUHDC__@@PAX@Z 67da9950     mfc100:mfc100.dll
 0002:00000954       __imp_?SetScrollInfo@CWnd@@QAEHHPAUtagSCROLLINFO@@H@Z 67da9954     mfc100:mfc100.dll
 0002:00000958       __imp_?GetScrollInfo@CWnd@@QAEHHPAUtagSCROLLINFO@@I@Z 67da9958     mfc100:mfc100.dll
 0002:0000095c       __imp_??1CPaintDC@@UAE@XZ  67da995c     mfc100:mfc100.dll
 0002:00000960       __imp_??1CDC@@UAE@XZ       67da9960     mfc100:mfc100.dll
 0002:00000964       __imp_?DeleteDC@CDC@@QAEHXZ 67da9964     mfc100:mfc100.dll
 0002:00000968       __imp_?SelectObject@CDC@@QAEPAVCBrush@@PAV2@@Z 67da9968     mfc100:mfc100.dll
 0002:0000096c       __imp_?SelectObject@CDC@@QAEPAVCPen@@PAV2@@Z 67da996c     mfc100:mfc100.dll
 0002:00000970       __imp_?SelectClipRgn@CDC@@QAEHPAVCRgn@@@Z 67da9970     mfc100:mfc100.dll
 0002:00000974       __imp_??0CDC@@QAE@XZ       67da9974     mfc100:mfc100.dll
 0002:00000978       __imp_??0CPaintDC@@QAE@PAVCWnd@@@Z 67da9978     mfc100:mfc100.dll
 0002:0000097c       __imp_?GetThisMessageMap@CWnd@@KGPBUAFX_MSGMAP@@XZ 67da997c     mfc100:mfc100.dll
 0002:00000980       __imp_?GetThisClass@CDialog@@SGPAUCRuntimeClass@@XZ 67da9980     mfc100:mfc100.dll
 0002:00000984       __imp_?FromHandle@CGdiObject@@SGPAV1@PAX@Z 67da9984     mfc100:mfc100.dll
 0002:00000988       __imp_?Create@CEdit@@QAEHKABUtagRECT@@PAVCWnd@@I@Z 67da9988     mfc100:mfc100.dll
 0002:0000098c       __imp_?ScreenToClient@CWnd@@QBEXPAUtagRECT@@@Z 67da998c     mfc100:mfc100.dll
 0002:00000990       __imp_?EndDialog@CDialog@@QAEXH@Z 67da9990     mfc100:mfc100.dll
 0002:00000994       __imp_?ClientToScreen@CWnd@@QBEXPAUtagRECT@@@Z 67da9994     mfc100:mfc100.dll
 0002:00000998       __imp_?CompareItem@CComboBox@@UAEHPAUtagCOMPAREITEMSTRUCT@@@Z 67da9998     mfc100:mfc100.dll
 0002:0000099c       __imp_?DrawTrackerRect@CRectTracker@@UAEXPBUtagRECT@@PAVCWnd@@PAVCDC@@1@Z 67da999c     mfc100:mfc100.dll
 0002:000009a0       __imp_?AdjustRect@CRectTracker@@UAEXHPAUtagRECT@@@Z 67da99a0     mfc100:mfc100.dll
 0002:000009a4       __imp_?OnChangedRect@CRectTracker@@UAEXABVCRect@@@Z 67da99a4     mfc100:mfc100.dll
 0002:000009a8       __imp_?GetHandleMask@CRectTracker@@UBEIXZ 67da99a8     mfc100:mfc100.dll
 0002:000009ac       __imp_?GetHandleSize@CRectTracker@@MBEHPBUtagRECT@@@Z 67da99ac     mfc100:mfc100.dll
 0002:000009b0       __imp_??1CRectTracker@@UAE@XZ 67da99b0     mfc100:mfc100.dll
 0002:000009b4       __imp_?FillSolidRect@CDC@@QAEXPBUtagRECT@@K@Z 67da99b4     mfc100:mfc100.dll
 0002:000009b8       __imp_?SetCursor@CRectTracker@@QBEHPAVCWnd@@I@Z 67da99b8     mfc100:mfc100.dll
 0002:000009bc       __imp_??1CClientDC@@UAE@XZ 67da99bc     mfc100:mfc100.dll
 0002:000009c0       __imp_?Draw@CRectTracker@@QBEXPAVCDC@@@Z 67da99c0     mfc100:mfc100.dll
 0002:000009c4       __imp_?SetWindowOrg@CDC@@QAE?AVCPoint@@HH@Z 67da99c4     mfc100:mfc100.dll
 0002:000009c8       __imp_??0CClientDC@@QAE@PAVCWnd@@@Z 67da99c8     mfc100:mfc100.dll
 0002:000009cc       __imp_?Track@CRectTracker@@QAEHPAVCWnd@@VCPoint@@H0@Z 67da99cc     mfc100:mfc100.dll
 0002:000009d0       __imp_?TrackRubberBand@CRectTracker@@QAEHPAVCWnd@@VCPoint@@H@Z 67da99d0     mfc100:mfc100.dll
 0002:000009d4       __imp_?HitTest@CRectTracker@@QBEHVCPoint@@@Z 67da99d4     mfc100:mfc100.dll
 0002:000009d8       __imp_?GetThisInterfaceMap@CWnd@@KGPBUAFX_INTERFACEMAP@@XZ 67da99d8     mfc100:mfc100.dll
 0002:000009dc       __imp_?GetThisDispatchMap@CCmdTarget@@KGPBUAFX_DISPMAP@@XZ 67da99dc     mfc100:mfc100.dll
 0002:000009e0       __imp_?DDX_Text@@YGXPAVCDataExchange@@HAAI@Z 67da99e0     mfc100:mfc100.dll
 0002:000009e4       __imp_?GetThisClass@CFileDialog@@SGPAUCRuntimeClass@@XZ 67da99e4     mfc100:mfc100.dll
 0002:000009e8       __imp_?GetThisMessageMap@CCommonDialog@@KGPBUAFX_MSGMAP@@XZ 67da99e8     mfc100:mfc100.dll
 0002:000009ec       __imp_?GetFileTitle@CFileDialog@@QBE?AV?$CStringT@DV?$StrTraitMFC_DLL@DV?$ChTraitsCRT@D@ATL@@@@@ATL@@XZ 67da99ec     mfc100:mfc100.dll
 0002:000009f0       __imp_?GetInterfaceMap@CFileDialog@@MBEPBUAFX_INTERFACEMAP@@XZ 67da99f0     mfc100:mfc100.dll
 0002:000009f4       __imp_?OnNotify@CFileDialog@@MAEHIJPAJ@Z 67da99f4     mfc100:mfc100.dll
 0002:000009f8       __imp_?OnOK@CCommonDialog@@MAEXXZ 67da99f8     mfc100:mfc100.dll
 0002:000009fc       __imp_?OnCancel@CCommonDialog@@MAEXXZ 67da99fc     mfc100:mfc100.dll
 0002:00000a00       __imp_?UpdateOFNFromShellDialog@CFileDialog@@UAEXXZ 67da9a00     mfc100:mfc100.dll
 0002:00000a04       __imp_?OnShareViolation@CFileDialog@@MAEIPBD@Z 67da9a04     mfc100:mfc100.dll
 0002:00000a08       __imp_?OnFileNameOK@CFileDialog@@MAEHXZ 67da9a08     mfc100:mfc100.dll
 0002:00000a0c       __imp_?OnLBSelChangedNotify@CFileDialog@@MAEXIII@Z 67da9a0c     mfc100:mfc100.dll
 0002:00000a10       __imp_?OnInitDone@CFileDialog@@MAEXXZ 67da9a10     mfc100:mfc100.dll
 0002:00000a14       __imp_?OnFileNameChange@CFileDialog@@MAEXXZ 67da9a14     mfc100:mfc100.dll
 0002:00000a18       __imp_?OnFolderChange@CFileDialog@@MAEXXZ 67da9a18     mfc100:mfc100.dll
 0002:00000a1c       __imp_?OnItemSelected@CFileDialog@@MAEXKK@Z 67da9a1c     mfc100:mfc100.dll
 0002:00000a20       __imp_?OnButtonClicked@CFileDialog@@MAEXK@Z 67da9a20     mfc100:mfc100.dll
 0002:00000a24       __imp_?OnCheckButtonToggled@CFileDialog@@MAEXKH@Z 67da9a24     mfc100:mfc100.dll
 0002:00000a28       __imp_?OnControlActivating@CFileDialog@@MAEXK@Z 67da9a28     mfc100:mfc100.dll
 0002:00000a2c       __imp_??1CSpinButtonCtrl@@UAE@XZ 67da9a2c     mfc100:mfc100.dll
 0002:00000a30       __imp_??0CDynLinkLibrary@@QAE@AAUAFX_EXTENSION_MODULE@@H@Z 67da9a30     mfc100:mfc100.dll
 0002:00000a34       __imp_?AfxTermExtensionModule@@YGXAAUAFX_EXTENSION_MODULE@@H@Z 67da9a34     mfc100:mfc100.dll
 0002:00000a38       __imp_?AfxInitExtensionModule@@YGHAAUAFX_EXTENSION_MODULE@@PAUHINSTANCE__@@@Z 67da9a38     mfc100:mfc100.dll
 0002:00000a3c       __imp_?GetRuntimeClass@CSpinButtonCtrl@@UBEPAUCRuntimeClass@@XZ 67da9a3c     mfc100:mfc100.dll
 0002:00000a40       __imp_?Create@CSpinButtonCtrl@@UAEHKABUtagRECT@@PAVCWnd@@I@Z 67da9a40     mfc100:mfc100.dll
 0002:00000a44       __imp_?CreateEx@CSpinButtonCtrl@@UAEHKKABUtagRECT@@PAVCWnd@@I@Z 67da9a44     mfc100:mfc100.dll
 0002:00000a48       __imp_?DDV_MinMaxFloat@@YGXPAVCDataExchange@@ABMMM@Z 67da9a48     mfc100:mfc100.dll
 0002:00000a4c       __imp_?DDX_Text@@YGXPAVCDataExchange@@HAAK@Z 67da9a4c     mfc100:mfc100.dll
 0002:00000a50       __imp_?CompareNoCase@?$CStringT@DV?$StrTraitMFC_DLL@DV?$ChTraitsCRT@D@ATL@@@@@ATL@@QBEHPBD@Z 67da9a50     mfc100:mfc100.dll
 0002:00000a54       __imp_?MessageBoxA@CWnd@@QAEHPBD0I@Z 67da9a54     mfc100:mfc100.dll
 0002:00000a58       __imp_?SetDlgItemTextA@CWnd@@QAEXHPBD@Z 67da9a58     mfc100:mfc100.dll
 0002:00000a5c       __imp_??0?$CStringT@DV?$StrTraitMFC_DLL@DV?$ChTraitsCRT@D@ATL@@@@@ATL@@QAE@PBD@Z 67da9a5c     mfc100:mfc100.dll
 0002:00000a60       __imp_??0?$CStringT@DV?$StrTraitMFC_DLL@DV?$ChTraitsCRT@D@ATL@@@@@ATL@@QAE@ABV01@@Z 67da9a60     mfc100:mfc100.dll
 0002:00000a64       __imp_??B?$CSimpleStringT@D$00@ATL@@QBEPBDXZ 67da9a64     mfc100:mfc100.dll
 0002:00000a68       __imp_??1?$CStringT@DV?$StrTraitMFC_DLL@DV?$ChTraitsCRT@D@ATL@@@@@ATL@@QAE@XZ 67da9a68     mfc100:mfc100.dll
 0002:00000a6c       __imp_?GetThisMessageMap@CDialog@@KGPBUAFX_MSGMAP@@XZ 67da9a6c     mfc100:mfc100.dll
 0002:00000a70       __imp_?OnInitDialog@CDialog@@UAEHXZ 67da9a70     mfc100:mfc100.dll
 0002:00000a74       __imp_?SetWindowPos@CWnd@@QAEHPBV1@HHHHI@Z 67da9a74     mfc100:mfc100.dll
 0002:00000a78       __imp_?PreInitDialog@CDialog@@MAEXXZ 67da9a78     mfc100:mfc100.dll
 0002:00000a7c       __imp_?OnCancel@CDialog@@MAEXXZ 67da9a7c     mfc100:mfc100.dll
 0002:00000a80       __imp_?OnOK@CDialog@@MAEXXZ 67da9a80     mfc100:mfc100.dll
 0002:00000a84       __imp_?OnSetFont@CDialog@@UAEXPAVCFont@@@Z 67da9a84     mfc100:mfc100.dll
 0002:00000a88       __imp_?DoModal@CDialog@@UAEHXZ 67da9a88     mfc100:mfc100.dll
 0002:00000a8c       __imp_?CreateIndirect@CDialog@@UAEHPBUDLGTEMPLATE@@PAVCWnd@@PAX@Z 67da9a8c     mfc100:mfc100.dll
 0002:00000a90       __imp_?CreateIndirect@CDialog@@UAEHPAXPAVCWnd@@@Z 67da9a90     mfc100:mfc100.dll
 0002:00000a94       __imp_?Create@CDialog@@UAEHPBDPAVCWnd@@@Z 67da9a94     mfc100:mfc100.dll
 0002:00000a98       __imp_?GetOccDialogInfo@CDialog@@MAEPAU_AFX_OCC_DIALOG_INFO@@XZ 67da9a98     mfc100:mfc100.dll
 0002:00000a9c       __imp_?SetOccDialogInfo@CDialog@@MAEHPAU_AFX_OCC_DIALOG_INFO@@@Z 67da9a9c     mfc100:mfc100.dll
 0002:00000aa0       __imp_?CreateControlSite@CWnd@@MAEHPAVCOleControlContainer@@PAPAVCOleControlSite@@IABU_GUID@@@Z 67da9aa0     mfc100:mfc100.dll
 0002:00000aa4       __imp_?CreateControlContainer@CWnd@@MAEHPAPAVCOleControlContainer@@@Z 67da9aa4     mfc100:mfc100.dll
 0002:00000aa8       __imp_?IsFrameWnd@CWnd@@UBEHXZ 67da9aa8     mfc100:mfc100.dll
 0002:00000aac       __imp_?CheckAutoCenter@CDialog@@UAEHXZ 67da9aac     mfc100:mfc100.dll
 0002:00000ab0       __imp_?OnGesturePressAndTap@CWnd@@MAEHVCPoint@@J@Z 67da9ab0     mfc100:mfc100.dll
 0002:00000ab4       __imp_?OnGestureTwoFingerTap@CWnd@@MAEHVCPoint@@@Z 67da9ab4     mfc100:mfc100.dll
 0002:00000ab8       __imp_?OnGestureRotate@CWnd@@MAEHVCPoint@@N@Z 67da9ab8     mfc100:mfc100.dll
 0002:00000abc       __imp_?OnGesturePan@CWnd@@MAEHVCPoint@@0@Z 67da9abc     mfc100:mfc100.dll
 0002:00000ac0       __imp_?OnGestureZoom@CWnd@@MAEHVCPoint@@J@Z 67da9ac0     mfc100:mfc100.dll
 0002:00000ac4       __imp_?GetGestureStatus@CWnd@@MAEKVCPoint@@@Z 67da9ac4     mfc100:mfc100.dll
 0002:00000ac8       __imp_?OnTouchInput@CWnd@@MAEHVCPoint@@HHPAUtagTOUCHINPUT@@@Z 67da9ac8     mfc100:mfc100.dll
 0002:00000acc       __imp_?OnTouchInputs@CWnd@@MAEHIPAUtagTOUCHINPUT@@@Z 67da9acc     mfc100:mfc100.dll
 0002:00000ad0       __imp_?OnChildNotify@CWnd@@MAEHIIJPAJ@Z 67da9ad0     mfc100:mfc100.dll
 0002:00000ad4       __imp_?PostNcDestroy@CWnd@@MAEXXZ 67da9ad4     mfc100:mfc100.dll
 0002:00000ad8       __imp_?DefWindowProcA@CWnd@@MAEJIIJ@Z 67da9ad8     mfc100:mfc100.dll
 0002:00000adc       __imp_?OnWndMsg@CWnd@@MAEHIIJPAJ@Z 67da9adc     mfc100:mfc100.dll
 0002:00000ae0       __imp_?WindowProc@CWnd@@MAEJIIJ@Z 67da9ae0     mfc100:mfc100.dll
 0002:00000ae4       __imp_?OnAmbientProperty@CWnd@@UAEHPAVCOleControlSite@@JPAUtagVARIANT@@@Z 67da9ae4     mfc100:mfc100.dll
 0002:00000ae8       __imp_?PreTranslateMessage@CDialog@@UAEHPAUtagMSG@@@Z 67da9ae8     mfc100:mfc100.dll
 0002:00000aec       __imp_?GetSuperWndProcAddr@CWnd@@MAEPAP6GJPAUHWND__@@IIJ@ZXZ 67da9aec     mfc100:mfc100.dll
 0002:00000af0       __imp_?OnNotify@CWnd@@MAEHIJPAJ@Z 67da9af0     mfc100:mfc100.dll
 0002:00000af4       __imp_?OnCommand@CWnd@@MAEHIJ@Z 67da9af4     mfc100:mfc100.dll
 0002:00000af8       __imp_?CreateAccessibleProxy@CWnd@@UAEJIJPAJ@Z 67da9af8     mfc100:mfc100.dll
 0002:00000afc       __imp_?SetProxy@CWnd@@UAEJPAUIAccessibleProxy@@@Z 67da9afc     mfc100:mfc100.dll
 0002:00000b00       __imp_?put_accValue@CWnd@@UAEJUtagVARIANT@@PA_W@Z 67da9b00     mfc100:mfc100.dll
 0002:00000b04       __imp_?put_accName@CWnd@@UAEJUtagVARIANT@@PA_W@Z 67da9b04     mfc100:mfc100.dll
 0002:00000b08       __imp_?accHitTest@CWnd@@UAEJJJPAUtagVARIANT@@@Z 67da9b08     mfc100:mfc100.dll
 0002:00000b0c       __imp_?accNavigate@CWnd@@UAEJJUtagVARIANT@@PAU2@@Z 67da9b0c     mfc100:mfc100.dll
 0002:00000b10       __imp_?accLocation@CWnd@@UAEJPAJ000UtagVARIANT@@@Z 67da9b10     mfc100:mfc100.dll
 0002:00000b14       __imp_?accSelect@CWnd@@UAEJJUtagVARIANT@@@Z 67da9b14     mfc100:mfc100.dll
 0002:00000b18       __imp_?get_accDefaultAction@CWnd@@UAEJUtagVARIANT@@PAPA_W@Z 67da9b18     mfc100:mfc100.dll
 0002:00000b1c       __imp_?get_accSelection@CWnd@@UAEJPAUtagVARIANT@@@Z 67da9b1c     mfc100:mfc100.dll
 0002:00000b20       __imp_?get_accFocus@CWnd@@UAEJPAUtagVARIANT@@@Z 67da9b20     mfc100:mfc100.dll
 0002:00000b24       __imp_?get_accKeyboardShortcut@CWnd@@UAEJUtagVARIANT@@PAPA_W@Z 67da9b24     mfc100:mfc100.dll
 0002:00000b28       __imp_?get_accHelpTopic@CWnd@@UAEJPAPA_WUtagVARIANT@@PAJ@Z 67da9b28     mfc100:mfc100.dll
 0002:00000b2c       __imp_?get_accHelp@CWnd@@UAEJUtagVARIANT@@PAPA_W@Z 67da9b2c     mfc100:mfc100.dll
 0002:00000b30       __imp_?get_accState@CWnd@@UAEJUtagVARIANT@@PAU2@@Z 67da9b30     mfc100:mfc100.dll
 0002:00000b34       __imp_?MeasureItem@CComboBox@@UAEXPAUtagMEASUREITEMSTRUCT@@@Z 67da9b34     mfc100:mfc100.dll
 0002:00000b38       __imp_?DrawItem@CComboBox@@UAEXPAUtagDRAWITEMSTRUCT@@@Z 67da9b38     mfc100:mfc100.dll
 0002:00000b3c       __imp_?Create@CComboBox@@UAEHKABUtagRECT@@PAVCWnd@@I@Z 67da9b3c     mfc100:mfc100.dll
 0002:00000b40       __imp_?OnChildNotify@CComboBox@@MAEHIIJPAJ@Z 67da9b40     mfc100:mfc100.dll
 0002:00000b44       __imp_?GetRuntimeClass@CComboBox@@UBEPAUCRuntimeClass@@XZ 67da9b44     mfc100:mfc100.dll
 0002:00000b48       __imp_??1CListBox@@UAE@XZ  67da9b48     mfc100:mfc100.dll
 0002:00000b4c       __imp_?CharToItem@CListBox@@UAEHII@Z 67da9b4c     mfc100:mfc100.dll
 0002:00000b50       __imp_?VKeyToItem@CListBox@@UAEHII@Z 67da9b50     mfc100:mfc100.dll
 0002:00000b54       __imp_?DeleteItem@CListBox@@UAEXPAUtagDELETEITEMSTRUCT@@@Z 67da9b54     mfc100:mfc100.dll
 0002:00000b58       __imp_?CompareItem@CListBox@@UAEHPAUtagCOMPAREITEMSTRUCT@@@Z 67da9b58     mfc100:mfc100.dll
 0002:00000b5c       __imp_?MeasureItem@CListBox@@UAEXPAUtagMEASUREITEMSTRUCT@@@Z 67da9b5c     mfc100:mfc100.dll
 0002:00000b60       __imp_?DrawItem@CListBox@@UAEXPAUtagDRAWITEMSTRUCT@@@Z 67da9b60     mfc100:mfc100.dll
 0002:00000b64       __imp_?Create@CListBox@@UAEHKABUtagRECT@@PAVCWnd@@I@Z 67da9b64     mfc100:mfc100.dll
 0002:00000b68       __imp_?GetOccDialogInfo@CWnd@@MAEPAU_AFX_OCC_DIALOG_INFO@@XZ 67da9b68     mfc100:mfc100.dll
 0002:00000b6c       __imp_?SetOccDialogInfo@CWnd@@MAEHPAU_AFX_OCC_DIALOG_INFO@@@Z 67da9b6c     mfc100:mfc100.dll
 0002:00000b70       __imp_?CheckAutoCenter@CWnd@@UAEHXZ 67da9b70     mfc100:mfc100.dll
 0002:00000b74       __imp_?OnChildNotify@CListBox@@MAEHIIJPAJ@Z 67da9b74     mfc100:mfc100.dll
 0002:00000b78       __imp_?PreTranslateMessage@CWnd@@UAEHPAUtagMSG@@@Z 67da9b78     mfc100:mfc100.dll
 0002:00000b7c       __imp_?GetMessageMap@CWnd@@MBEPBUAFX_MSGMAP@@XZ 67da9b7c     mfc100:mfc100.dll
 0002:00000b80       __imp_?OnCmdMsg@CCmdTarget@@UAEHIHPAXPAUAFX_CMDHANDLERINFO@@@Z 67da9b80     mfc100:mfc100.dll
 0002:00000b84       __imp_?GetRuntimeClass@CListBox@@UBEPAUCRuntimeClass@@XZ 67da9b84     mfc100:mfc100.dll
 0002:00000b88       __imp_??0CWnd@@QAE@XZ      67da9b88     mfc100:mfc100.dll
 0002:00000b8c       __imp_?AfxGetModuleState@@YGPAVAFX_MODULE_STATE@@XZ 67da9b8c     mfc100:mfc100.dll
 0002:00000b90       __imp_?GetManager@?$CStringT@DV?$StrTraitMFC_DLL@DV?$ChTraitsCRT@D@ATL@@@@@ATL@@QBEPAUIAtlStringMgr@2@XZ 67da9b90     mfc100:mfc100.dll
 0002:00000b94       __imp_??0?$CStringT@DV?$StrTraitMFC_DLL@DV?$ChTraitsCRT@D@ATL@@@@@ATL@@QAE@PAUIAtlStringMgr@1@@Z 67da9b94     mfc100:mfc100.dll
 0002:00000b98       __imp_?GetLength@?$CSimpleStringT@D$00@ATL@@QBEHXZ 67da9b98     mfc100:mfc100.dll
 0002:00000b9c       __imp_?Concatenate@?$CSimpleStringT@D$00@ATL@@KAXAAV12@PBDH1H@Z 67da9b9c     mfc100:mfc100.dll
 0002:00000ba0       __imp_?GetBuffer@?$CSimpleStringT@D$00@ATL@@QAEPADH@Z 67da9ba0     mfc100:mfc100.dll
 0002:00000ba4       __imp_?Construct@CRectTracker@@IAEXXZ 67da9ba4     mfc100:mfc100.dll
 0002:00000ba8       __imp_?ReleaseBuffer@?$CSimpleStringT@D$00@ATL@@QAEXH@Z 67da9ba8     mfc100:mfc100.dll
 0002:00000bac       __imp_?get_accRole@CWnd@@UAEJUtagVARIANT@@PAU2@@Z 67da9bac     mfc100:mfc100.dll
 0002:00000bb0       __imp_?get_accDescription@CWnd@@UAEJUtagVARIANT@@PAPA_W@Z 67da9bb0     mfc100:mfc100.dll
 0002:00000bb4       __imp_?get_accValue@CWnd@@UAEJUtagVARIANT@@PAPA_W@Z 67da9bb4     mfc100:mfc100.dll
 0002:00000bb8       __imp_?get_accName@CWnd@@UAEJUtagVARIANT@@PAPA_W@Z 67da9bb8     mfc100:mfc100.dll
 0002:00000bbc       __imp_?get_accChild@CWnd@@UAEJUtagVARIANT@@PAPAUIDispatch@@@Z 67da9bbc     mfc100:mfc100.dll
 0002:00000bc0       __imp_?get_accChildCount@CWnd@@UAEJPAJ@Z 67da9bc0     mfc100:mfc100.dll
 0002:00000bc4       __imp_?get_accParent@CWnd@@UAEJPAPAUIDispatch@@@Z 67da9bc4     mfc100:mfc100.dll
 0002:00000bc8       __imp_?EnsureStdObj@CWnd@@UAEJXZ 67da9bc8     mfc100:mfc100.dll
 0002:00000bcc       __imp_?OnDrawIconicThumbnailOrLivePreview@CWnd@@UAEXAAVCDC@@VCRect@@VCSize@@HAAH@Z 67da9bcc     mfc100:mfc100.dll
 0002:00000bd0       __imp_?EndModalLoop@CWnd@@UAEXH@Z 67da9bd0     mfc100:mfc100.dll
 0002:00000bd4       __imp_?ContinueModal@CWnd@@UAEHXZ 67da9bd4     mfc100:mfc100.dll
 0002:00000bd8       __imp_?WinHelpInternal@CWnd@@UAEXKI@Z 67da9bd8     mfc100:mfc100.dll
 0002:00000bdc       __imp_?HtmlHelpA@CWnd@@UAEXKI@Z 67da9bdc     mfc100:mfc100.dll
 0002:00000be0       __imp_?WinHelpA@CWnd@@UAEXKI@Z 67da9be0     mfc100:mfc100.dll
 0002:00000be4       __imp_?GetScrollBarCtrl@CWnd@@UBEPAVCScrollBar@@H@Z 67da9be4     mfc100:mfc100.dll
 0002:00000be8       __imp_?OnToolHitTest@CWnd@@UBEHVCPoint@@PAUtagTOOLINFOA@@@Z 67da9be8     mfc100:mfc100.dll
 0002:00000bec       __imp_?SetMenu@CWnd@@UAEHPAVCMenu@@@Z 67da9bec     mfc100:mfc100.dll
 0002:00000bf0       __imp_?GetMenu@CWnd@@UBEPAVCMenu@@XZ 67da9bf0     mfc100:mfc100.dll
 0002:00000bf4       __imp_?CalcWindowRect@CWnd@@UAEXPAUtagRECT@@I@Z 67da9bf4     mfc100:mfc100.dll
 0002:00000bf8       __imp_?PreCreateWindow@CWnd@@UAEHAAUtagCREATESTRUCTA@@@Z 67da9bf8     mfc100:mfc100.dll
 0002:00000bfc       __imp_?DestroyWindow@CWnd@@UAEHXZ 67da9bfc     mfc100:mfc100.dll
 0002:00000c00       __imp_?CreateEx@CWnd@@UAEHKPBD0KHHHHPAUHWND__@@PAUHMENU__@@PAX@Z 67da9c00     mfc100:mfc100.dll
 0002:00000c04       __imp_?CreateEx@CWnd@@UAEHKPBD0KABUtagRECT@@PAV1@IPAX@Z 67da9c04     mfc100:mfc100.dll
 0002:00000c08       __imp_?Create@CWnd@@UAEHPBD0KABUtagRECT@@PAV1@IPAUCCreateContext@@@Z 67da9c08     mfc100:mfc100.dll
 0002:00000c0c       __imp_?GetConnectionHook@CCmdTarget@@MAEPAUIConnectionPoint@@ABU_GUID@@@Z 67da9c0c     mfc100:mfc100.dll
 0002:00000c10       __imp_?GetExtraConnectionPoints@CCmdTarget@@MAEHPAVCPtrArray@@@Z 67da9c10     mfc100:mfc100.dll
 0002:00000c14       __imp_?GetInterfaceHook@CCmdTarget@@UAEPAUIUnknown@@PBX@Z 67da9c14     mfc100:mfc100.dll
 0002:00000c18       __imp_?OnCreateAggregates@CCmdTarget@@UAEHXZ 67da9c18     mfc100:mfc100.dll
 0002:00000c1c       __imp_?GetEventSinkMap@CCmdTarget@@MBEPBUAFX_EVENTSINKMAP@@XZ 67da9c1c     mfc100:mfc100.dll
 0002:00000c20       __imp_?GetInterfaceMap@CWnd@@MBEPBUAFX_INTERFACEMAP@@XZ 67da9c20     mfc100:mfc100.dll
 0002:00000c24       __imp_?GetConnectionMap@CCmdTarget@@MBEPBUAFX_CONNECTIONMAP@@XZ 67da9c24     mfc100:mfc100.dll
 0002:00000c28       __imp_?GetDispatchMap@CCmdTarget@@MBEPBUAFX_DISPMAP@@XZ 67da9c28     mfc100:mfc100.dll
 0002:00000c2c       __imp_?GetCommandMap@CCmdTarget@@MBEPBUAFX_OLECMDMAP@@XZ 67da9c2c     mfc100:mfc100.dll
 0002:00000c30       __imp_?GetTypeLib@CCmdTarget@@UAEJKPAPAUITypeLib@@@Z 67da9c30     mfc100:mfc100.dll
 0002:00000c34       __imp_?GetTypeLibCache@CCmdTarget@@UAEPAVCTypeLibCache@@XZ 67da9c34     mfc100:mfc100.dll
 0002:00000c38       __imp_?GetTypeInfoCount@CCmdTarget@@UAEIXZ 67da9c38     mfc100:mfc100.dll
 0002:00000c3c       __imp_?GetDispatchIID@CCmdTarget@@UAEHPAU_GUID@@@Z 67da9c3c     mfc100:mfc100.dll
 0002:00000c40       __imp_?IsInvokeAllowed@CCmdTarget@@UAEHJ@Z 67da9c40     mfc100:mfc100.dll
 0002:00000c44       __imp_?OnFinalRelease@CWnd@@UAEXXZ 67da9c44     mfc100:mfc100.dll
 0002:00000c48       __imp_?OnCmdMsg@CDialog@@UAEHIHPAXPAUAFX_CMDHANDLERINFO@@@Z 67da9c48     mfc100:mfc100.dll
 0002:00000c4c       __imp_?GetRuntimeClass@CDialog@@UBEPAUCRuntimeClass@@XZ 67da9c4c     mfc100:mfc100.dll
 0002:00000c50       __imp_??0CDialog@@QAE@IPAVCWnd@@@Z 67da9c50     mfc100:mfc100.dll
 0002:00000c54       __imp_??_V@YAXPAX@Z        67da9c54     mfc100:mfc100.dll
 0002:00000c58       __imp_??1CDialog@@UAE@XZ   67da9c58     mfc100:mfc100.dll
 0002:00000c5c       __imp_?Default@CWnd@@IAEJXZ 67da9c5c     mfc100:mfc100.dll
 0002:00000c60       __imp_??3@YAXPAX@Z         67da9c60     mfc100:mfc100.dll
 0002:00000c64       __imp_?accDoDefaultAction@CWnd@@UAEJUtagVARIANT@@@Z 67da9c64     mfc100:mfc100.dll
 0002:00000c68       __imp_?PreSubclassWindow@CWnd@@UAEXXZ 67da9c68     mfc100:mfc100.dll
 0002:00000c6c       \177mfc100_NULL_THUNK_DATA 67da9c6c     mfc100:mfc100.dll
 0002:00000c70       ___xc_a                    67da9c70     msvcrt:cinitexe.obj
 0002:00000c78       ___xc_z                    67da9c78     msvcrt:cinitexe.obj
 0002:00000c7c       ___xi_a                    67da9c7c     msvcrt:cinitexe.obj
 0002:00000c88       ___xi_z                    67da9c88     msvcrt:cinitexe.obj
 0002:00000c94       ??_7CAbortDlg@@6B@         67da9c94     AbortDlg.obj
 0002:00000e78       ??_C@_08FGDEIKKM@Vic?5Name?$AA@ 67da9e78     AcqConfigDlg.obj
 0002:00000e84       ??_C@_0L@EHKKKJAJ@Model?5Name?$AA@ 67da9e84     AcqConfigDlg.obj
 0002:00000e90       ??_C@_0N@LPKOPLJ@Company?5Name?$AA@ 67da9e90     AcqConfigDlg.obj
 0002:00000ea0       ??_C@_0M@JIKEDLBG@Camera?5Name?$AA@ 67da9ea0     AcqConfigDlg.obj
 0002:00000eac       ??_C@_03IOBOMBFG@ccf?$AA@  67da9eac     AcqConfigDlg.obj
 0002:00000eb0       ??_C@_0O@MHKMKKDC@ConfigFileDir?$AA@ 67da9eb0     AcqConfigDlg.obj
 0002:00000ec0       ??_C@_0P@EIOELGML@ConfigFileName?$AA@ 67da9ec0     AcqConfigDlg.obj
 0002:00000ed0       ??_C@_08FLGELGHE@Resource?$AA@ 67da9ed0     AcqConfigDlg.obj
 0002:00000edc       ??_C@_0P@BCPHBIBE@SapAcquisition?$AA@ 67da9edc     AcqConfigDlg.obj
 0002:00000eec       ??_C@_06LGMEBDBC@Server?$AA@ 67da9eec     AcqConfigDlg.obj
 0002:00000ef3       ??_C@_00CNPNBAHC@?$AA@     67da9ef3     AcqConfigDlg.obj
 0002:00000ef4       ??_C@_07ECEMPDJM@General?$AA@ 67da9ef4     AcqConfigDlg.obj
 0002:00000efc       ??_C@_07NBCGADJA@Unknown?$AA@ 67da9efc     AcqConfigDlg.obj
 0002:00000f04       ??_C@_05MCLBJHFM@Board?$AA@ 67da9f04     AcqConfigDlg.obj
 0002:00000f0c       ??_C@_0M@IGAEJANM@Server?5name?$AA@ 67da9f0c     AcqConfigDlg.obj
 0002:00000f18       ??_C@_06DHGOCNPL@Unknow?$AA@ 67da9f18     AcqConfigDlg.obj
 0002:00000f20       ??_C@_0JE@OAAMOPEP@The?5selected?5file?5does?5not?5match@ 67da9f20     AcqConfigDlg.obj
 0002:00000fb4       ??_C@_0CD@HEOFCGBO@Camera?5Configuration?5File?5Mismat@ 67da9fb4     AcqConfigDlg.obj
 0002:00000fdc       ??_7CListBox@@6B@          67da9fdc     AcqConfigDlg.obj
 0002:00001164       ??_7CComboBox@@6B@         67daa164     AcqConfigDlg.obj
 0002:000012e4       ??_7CEdit@@6B@             67daa2e4     AcqConfigDlg.obj
 0002:0000144c       ??_C@_0M@ONDELFLO@CameraLink_?$AA@ 67daa44c     AcqConfigDlg.obj
 0002:00001458       ??_C@_02DKCKIIND@?$CFs?$AA@ 67daa458     AcqConfigDlg.obj
 0002:0000145c       ??_C@_0CA@MFLNOFDE@Not?5Available?5?9?5Resource?5In?5Use?$AA@ 67daa45c     AcqConfigDlg.obj
 0002:0000147c       ??_C@_04HDOCAJNK@?$CFs?$CFs?$AA@ 67daa47c     AcqConfigDlg.obj
 0002:00001488       ??_7CAcqConfigDlg@@6BSapManager@@@ 67daa488     AcqConfigDlg.obj
 0002:00001494       ??_7CAcqConfigDlg@@6BCDialog@@@ 67daa494     AcqConfigDlg.obj
 0002:00001624       ??_C@_0BM@OPNFDDGP@Please?5select?5a?5CCF?5file?4?4?4?$AA@ 67daa624     AcqConfigDlg.obj
 0002:00001640       ??_C@_0DO@HPLKKALF@Camera?5Configuration?5Files?$CI?$CK?4ccf@ 67daa640     AcqConfigDlg.obj
 0002:00001704       ??_7CAcqDlg@@6BSapManager@@@ 67daa704     AcqDlg.obj
 0002:0000170c       ??_7CAcqDlg@@6BCDialog@@@  67daa70c     AcqDlg.obj
 0002:000018f0       ??_C@_02DPKJAMEF@?$CFd?$AA@ 67daa8f0     AcqDlg.obj
 0002:000018f4       ??_C@_0BL@FANCBNCF@Invalid?5acquisition?5object?$AA@ 67daa8f4     AcqDlg.obj
 0002:00001914       ??_7CScrollBar@@6B@        67daa914     AScanDlg.obj
 0002:00001a84       ??_7CAScanDlg@@6BSapManager@@@ 67daaa84     AScanDlg.obj
 0002:00001a8c       ??_7CAScanDlg@@6BCDialog@@@ 67daaa8c     AScanDlg.obj
 0002:00001c1c       ??_C@_0DK@HMDELPBI@Time?5integration?5duration?5out?5of@ 67daac1c     AScanDlg.obj
 0002:00001c58       ??_C@_0DI@NIKIJHOG@Frame?5integration?5count?5out?5of?5r@ 67daac58     AScanDlg.obj
 0002:00001c90       ??_C@_0N@ECGEKAIB@CorAcqGetCap?$AA@ 67daac90     AScanDlg.obj
 0002:00001d68       ??_C@_0BF@DJJGMDDH@Avi?5Compression?5Type?$AA@ 67daad68     AviFileDlg.obj
 0002:00001d80       ??_C@_0BG@BODCLCMO@Avi?5Compression?5Level?$AA@ 67daad80     AviFileDlg.obj
 0002:00001d98       ??_C@_07KPENCGOF@SapFile?$AA@ 67daad98     AviFileDlg.obj
 0002:00001da0       ??_C@_0BA@IPPPFNME@Avi?5First?5Frame?$AA@ 67daada0     AviFileDlg.obj
 0002:00001db4       ??_7CAviFileDlg@@6B@       67daadb4     AviFileDlg.obj
 0002:00001fb4       ??_7CBayerOptionsDlg@@6BSapManager@@@ 67daafb4     BayerDlg.obj
 0002:00001fbc       ??_7CBayerOptionsDlg@@6BCDialog@@@ 67daafbc     BayerDlg.obj
 0002:0000214c       __real@3f800000            67dab14c     BayerDlg.obj
 0002:00002150       ??_C@_0BK@FIMABCFD@No?5Bayer?5object?5specified?$AA@ 67dab150     BayerDlg.obj
 0002:00002170       ??_C@_0EJ@CKOJKFEC@White?5balance?5is?5not?5available?5w@ 67dab170     BayerDlg.obj
 0002:000021bc       ??_C@_0CO@IAFKJJCM@You?5must?5select?5a?5ROI?5containing@ 67dab1bc     BayerDlg.obj
 0002:00002318       ??_C@_0N@DHMDELMH@filename?4txt?$AA@ 67dab318     BrowseDirDlg.obj
 0002:00002328       ??_C@_0BF@FMJAKOIH@Browse?5for?5Directory?$AA@ 67dab328     BrowseDirDlg.obj
 0002:00002340       ??_C@_0BN@NEOCHHEC@Monochrome?516?9bit?5?$CI3?5planes?$CJ?$AA@ 67dab340     BufDlg.obj
 0002:00002360       ??_C@_0BN@DLCABMHM@Monochrome?516?9bit?5?$CI2?5planes?$CJ?$AA@ 67dab360     BufDlg.obj
 0002:00002380       ??_C@_0BM@GPAKAEKL@Monochrome?58?9bit?5?$CI3?5planes?$CJ?$AA@ 67dab380     BufDlg.obj
 0002:0000239c       ??_C@_0BM@IAMIGPJF@Monochrome?58?9bit?5?$CI2?5planes?$CJ?$AA@ 67dab39c     BufDlg.obj
 0002:000023b8       ??_C@_0O@GOOAALO@RGB?9IR?516?9bit?$AA@ 67dab3b8     BufDlg.obj
 0002:000023c8       ??_C@_0N@PKMCIKN@RGB?9IR?58?9bit?$AA@ 67dab3c8     BufDlg.obj
 0002:000023d8       ??_C@_0P@IJCDOFDE@BICOLOR?516?9bit?$AA@ 67dab3d8     BufDlg.obj
 0002:000023e8       ??_C@_0O@KHNHFNHB@BICOLOR?58?9bit?$AA@ 67dab3e8     BufDlg.obj
 0002:000023f8       ??_C@_0BC@KGGGHLHE@LAB?5Planar?516?9bit?$AA@ 67dab3f8     BufDlg.obj
 0002:0000240c       ??_C@_0L@KMKLJJPK@LAB?5101010?$AA@ 67dab40c     BufDlg.obj
 0002:00002418       ??_C@_0BB@INDFJKEN@LAB?5Planar?58?9bit?$AA@ 67dab418     BufDlg.obj
 0002:0000242c       ??_C@_03LMGOANBG@LAB?$AA@  67dab42c     BufDlg.obj
 0002:00002430       ??_C@_04HPIBLFCF@YUYV?$AA@ 67dab430     BufDlg.obj
 0002:00002438       ??_C@_04HOBABLIG@YUY2?$AA@ 67dab438     BufDlg.obj
 0002:00002440       ??_C@_04HMGDLMGO@UYVY?$AA@ 67dab440     BufDlg.obj
 0002:00002448       ??_C@_03CAADKAK@HSV?$AA@   67dab448     BufDlg.obj
 0002:0000244c       ??_C@_0BB@EBEOAAIB@HSI?5Planar?58?9bit?$AA@ 67dab44c     BufDlg.obj
 0002:00002460       ??_C@_03MPFKDEJE@HSI?$AA@  67dab460     BufDlg.obj
 0002:00002464       ??_C@_0BC@DGNMICON@RGB?5Planar?516?9bit?$AA@ 67dab464     BufDlg.obj
 0002:00002478       ??_C@_0BB@IINBJCEC@RGB?5Planar?58?9bit?$AA@ 67dab478     BufDlg.obj
 0002:0000248c       ??_C@_0N@FPLECKGC@RGB?516161616?$AA@ 67dab48c     BufDlg.obj
 0002:0000249c       ??_C@_0L@PIFNBNDH@RGB?5161616?$AA@ 67dab49c     BufDlg.obj
 0002:000024a8       ??_C@_0L@FNDFAGHA@RGB?5101010?$AA@ 67dab4a8     BufDlg.obj
 0002:000024b4       ??_C@_08CLBLADOJ@RGB?58888?$AA@ 67dab4b4     BufDlg.obj
 0002:000024c0       ??_C@_0BF@EAEIKEMN@RGBR?5888?5?$CIred?5first?$CJ?$AA@ 67dab4c0     BufDlg.obj
 0002:000024d8       ??_C@_0BF@GEFMFJCF@RGB?5888?5?$CIblue?5first?$CJ?$AA@ 67dab4d8     BufDlg.obj
 0002:000024f0       ??_C@_07MKABEILO@RGB?5565?$AA@ 67dab4f0     BufDlg.obj
 0002:000024f8       ??_C@_08PIPLDHJP@RGB?55551?$AA@ 67dab4f8     BufDlg.obj
 0002:00002504       ??_C@_0BC@HHEGDDKP@Monochrome?516?9bit?$AA@ 67dab504     BufDlg.obj
 0002:00002518       ??_C@_0BB@BGBKLAOJ@Monochrome?58?9bit?$AA@ 67dab518     BufDlg.obj
 0002:0000252c       ??_C@_0BB@DBBFOBCB@Monochrome?51?9bit?$AA@ 67dab52c     BufDlg.obj
 0002:00002544       ??_7CBufDlg@@6B@           67dab544     BufDlg.obj
 0002:0000270c       ??_C@_0P@JFDLJCNK@Point?9to?9point?$AA@ 67dab70c     CabDlg.obj
 0002:0000271c       ??_C@_0M@JODPLNGE@Round?9Robin?$AA@ 67dab71c     CabDlg.obj
 0002:00002728       ??_C@_09DNHBHFFN@Multicast?$AA@ 67dab728     CabDlg.obj
 0002:00002738       ??_7CCabDlg@@6BSapManager@@@ 67dab738     CabDlg.obj
 0002:00002744       ??_7CCabDlg@@6BCDialog@@@  67dab744     CabDlg.obj
 0002:000028dc       ??_SSapCab@@6B@            67dab8dc     CabDlg.obj
 0002:00002954       ??_C@_08JPFKHKAK@Port?5?$CFld?$AA@ 67dab954     CabDlg.obj
 0002:00002960       ??_C@_09EHCHBHGM@CAB?5Error?$AA@ 67dab960     CabDlg.obj
 0002:0000296c       ??_C@_0DC@OGNBMKDI@At?5least?5one?5channel?5must?5be?5che@ 67dab96c     CabDlg.obj
 0002:00002ba0       ??_C@_03BDGLLMAC@cvi?$AA@  67dabba0     CamVicDlg.obj
 0002:00002ba4       ??_C@_03MBFPFHJB@cca?$AA@  67dabba4     CamVicDlg.obj
 0002:00002ba8       ??_C@_07FBAABGND@VicFile?$AA@ 67dabba8     CamVicDlg.obj
 0002:00002bb0       ??_C@_07GMLOAGIL@CamFile?$AA@ 67dabbb0     CamVicDlg.obj
 0002:00002bb8       ??_C@_0BB@JDPIDFPL@?2Bin?2MakeVic?4exe?$AA@ 67dabbb8     CamVicDlg.obj
 0002:00002bcc       ??_C@_09NILPNEIF@?2CamFiles?$AA@ 67dabbcc     CamVicDlg.obj
 0002:00002bd8       ??_C@_09DMPIKGI@SAPERADIR?$AA@ 67dabbd8     CamVicDlg.obj
 0002:00002be4       ??_C@_06DIJPEION@?$CFs?$CFs?$CFs?$AA@ 67dabbe4     CamVicDlg.obj
 0002:00002bec       ??_C@_02KEGNLNML@?0?5?$AA@ 67dabbec     CamVicDlg.obj
 0002:00002bf0       ??_C@_05BMGBEOOC@?$CFs?2?$CFs?$AA@ 67dabbf0     CamVicDlg.obj
 0002:00002bf8       ??_C@_07HMIPAPAI@?$CFs?2?$CK?4?$CFs?$AA@ 67dabbf8     CamVicDlg.obj
 0002:00002c00       ??_C@_0CH@HIIPFFDF@The?5MakeVic?5utility?5cannot?5be?5st@ 67dabc00     CamVicDlg.obj
 0002:00002c28       ??_C@_01BJJEKLCA@?$CC?$AA@ 67dabc28     CamVicDlg.obj
 0002:00002c2c       ??_C@_01KICIPPFI@?2?$AA@   67dabc2c     CamVicDlg.obj
 0002:00002c30       ??_C@_02JPEBCGCN@?5?$CC?$AA@ 67dabc30     CamVicDlg.obj
 0002:00002c34       ??_C@_01CLKCMJKC@?5?$AA@   67dabc34     CamVicDlg.obj
 0002:00002c38       ??_C@_04FIMIOOPF@?4cca?$AA@ 67dabc38     CamVicDlg.obj
 0002:00002c40       ??_C@_04IKPMAFGG@?4cvi?$AA@ 67dabc40     CamVicDlg.obj
 0002:00002c4c       ??_7CCamVicDlg@@6BSapManager@@@ 67dabc4c     CamVicDlg.obj
 0002:00002c54       ??_7CCamVicDlg@@6BCDialog@@@ 67dabc54     CamVicDlg.obj
 0002:00002ee4       ??_7CColorConversionOptionsDlg@@6BSapManager@@@ 67dabee4     ColorConversionDlg.obj
 0002:00002eec       ??_7CColorConversionOptionsDlg@@6BCDialog@@@ 67dabeec     ColorConversionDlg.obj
 0002:0000307c       ??_C@_0N@OONLOHLK@?5is?5selected?$AA@ 67dac07c     ColorConversionDlg.obj
 0002:000031e8       ??_C@_0CF@OIGMDMLI@No?5Color?5Conversion?5object?5speci@ 67dac1e8     ColorConversionDlg.obj
 0002:00003210       ??_C@_0CO@IOHOEEPH@Bi?9Color?5Method?57?5?$CIcompatible?5wi@ 67dac210     ColorConversionDlg.obj
 0002:00003240       ??_C@_0DC@OAKLKCEN@Bi?9Color?5Method?56?5?$CIcompatible?5wi@ 67dac240     ColorConversionDlg.obj
 0002:00003274       ??_C@_0P@EBAMOKCD@Bayer?5Method?55?$AA@ 67dac274     ColorConversionDlg.obj
 0002:00003284       ??_C@_0P@FIBHNLGC@Bayer?5Method?54?$AA@ 67dac284     ColorConversionDlg.obj
 0002:00003294       ??_C@_0P@BHFGENKF@Bayer?5Method?53?$AA@ 67dac294     ColorConversionDlg.obj
 0002:000032a4       ??_C@_0P@OENHMOE@Bayer?5Method?52?$AA@ 67dac2a4     ColorConversionDlg.obj
 0002:000032b4       ??_C@_0P@CFGACPCH@Bayer?5Method?51?$AA@ 67dac2b4     ColorConversionDlg.obj
 0002:000032c4       ??_C@_09CLJFLNLE@No?5Method?$AA@ 67dac2c4     ColorConversionDlg.obj
 0002:000032d4       ??_7CSliderCtrl@@6B@       67dac2d4     CompDlg.obj
 0002:00003448       ??_7CCompDlg@@6BSapManager@@@ 67dac448     CompDlg.obj
 0002:00003454       ??_7CCompDlg@@6BCDialog@@@ 67dac454     CompDlg.obj
 0002:0000370c       ??_7CFlatFieldDlg@@6BSapManager@@@ 67dac70c     FlatFieldDlg.obj
 0002:00003714       ??_7CFlatFieldDlg@@6BCDialog@@@ 67dac714     FlatFieldDlg.obj
 0002:000038a4       ??_C@_0BE@HIHNNFKM@Invalid?5cluster?5map?$AA@ 67dac8a4     FlatFieldDlg.obj
 0002:000038b8       ??_C@_0CM@IEOLBPAL@Cluster?5map?5loaded?5with?5?$CFd?5defec@ 67dac8b8     FlatFieldDlg.obj
 0002:000038e4       ??_C@_03NIPKHAHH@csv?$AA@  67dac8e4     FlatFieldDlg.obj
 0002:000038e8       ??_C@_0P@JLJFGKAI@clustermap?4csv?$AA@ 67dac8e8     FlatFieldDlg.obj
 0002:000038f8       ??_C@_0CG@IHMBBENM@CSV?5?$CIComma?5delimited?$CJ?5?$CI?$CK?4csv?$CJ?$HM?$CK?4@ 67dac8f8     FlatFieldDlg.obj
 0002:00003920       ??_C@_02DHOGEDBE@?5?$FN?$AA@ 67dac920     FlatFieldDlg.obj
 0002:00003924       ??_C@_02PFNDMDBO@?$FL?5?$AA@ 67dac924     FlatFieldDlg.obj
 0002:00003928       ??_C@_06NBGJEFCJ@?$CF?42f?$CF?$CF?$AA@ 67dac928     FlatFieldDlg.obj
 0002:00003934       ??_7CStatic@@6B@           67dac934     FlatFieldDlg.obj
 0002:00003aac       ??_7CButton@@6B@           67dacaac     FlatFieldDlg.obj
 0002:00003c1c       ??_C@_0L@LBHJMCDF@?$CFs?5?$CI?$CFs?3?$CFd?$CJ?$AA@ 67dacc1c     FlatFieldDlg.obj
 0002:00003c28       ??_C@_0O@KHJMBFME@?$CFs?5?$CI?$CFs?3?$CFd?$CJ?6?$CFs?$AA@ 67dacc28     FlatFieldDlg.obj
 0002:00003c38       ??_C@_0BP@OIEOKIDM@Exception?5thrown?5in?5destructor?$AA@ 67dacc38     FlatFieldDlg.obj
 0002:00003c58       ??_C@_0FC@HHCMBKHG@C?3?2Program?5Files?5?$CIx86?$CJ?2Microsoft@ 67dacc58     FlatFieldDlg.obj
 0002:00003cb0       __real@3ff0000000000000    67daccb0     FlatFieldDlg.obj
 0002:00003cb8       ??_C@_06KPBAEEOK@?$FLErr?$FN?5?$AA@ 67daccb8     FlatFieldDlg.obj
 0002:00003cc0       ??_C@_06PLMBAPFN@?$FLWrn?$FN?5?$AA@ 67daccc0     FlatFieldDlg.obj
 0002:00003cc8       ??_C@_06BJOEEIJK@?$FLMsg?$FN?5?$AA@ 67daccc8     FlatFieldDlg.obj
 0002:00003cd0       ??_C@_0BG@LLLPGOKF@Invalid?5buffer?5object?$AA@ 67daccd0     FlatFieldDlg.obj
 0002:00003ce8       ??_C@_0DA@DKEAPBIC@Step?53?3?5?5Save?5Calibration?5offset@ 67dacce8     FlatFieldDlg.obj
 0002:00003d18       ??_C@_01GBGANLPD@0?$AA@    67dacd18     FlatFieldDlg.obj
 0002:00003d1c       ??_C@_0BA@CPNFBOGK@?$CD?$CDFileSelector?4?$AA@ 67dacd1c     FlatFieldDlg.obj
 0002:00003d2c       ??_C@_09DAGHKBFI@FlatField?$AA@ 67dacd2c     FlatFieldDlg.obj
 0002:00003d38       ??_C@_04INACKGJP@Save?$AA@ 67dacd38     FlatFieldDlg.obj
 0002:00003d40       ??_C@_02PKJNKOBG@TS?$AA@   67dacd40     FlatFieldDlg.obj
 0002:00003d44       ??_C@_05IJMHHDMI@Genie?$AA@ 67dacd44     FlatFieldDlg.obj
 0002:00003d4c       ??_C@_0BA@FLGNCIOA@DeviceModelName?$AA@ 67dacd4c     FlatFieldDlg.obj
 0002:00003d5c       ??_C@_05ONNNFGGP@Bayer?$AA@ 67dacd5c     FlatFieldDlg.obj
 0002:00003d64       ??_C@_0L@NCAJOFAD@Monochrome?$AA@ 67dacd64     FlatFieldDlg.obj
 0002:00003d70       ??_C@_09LHKCLHPM@Flat?5Line?$AA@ 67dacd70     FlatFieldDlg.obj
 0002:00003d7c       ??_C@_0L@MMGGCNML@Flat?5Field?$AA@ 67dacd7c     FlatFieldDlg.obj
 0002:00003d88       ??_C@_0CN@EMNMGOGH@?$CIrecommended?5average?5pixel?6value@ 67dacd88     FlatFieldDlg.obj
 0002:00003db8       ??_C@_0CM@JGOBHFDE@?$CIrecommended?5average?5pixel?6value@ 67dacdb8     FlatFieldDlg.obj
 0002:00003de8       __real@3fe99999a0000000    67dacde8     FlatFieldDlg.obj
 0002:00003df0       __real@3fd0000000000000    67dacdf0     FlatFieldDlg.obj
 0002:00003df8       __real@4000000000000000    67dacdf8     FlatFieldDlg.obj
 0002:00003e00       ??_C@_0BB@DFLDOJCD@?$CFs?5?$CGBright?5Image?$AA@ 67dace00     FlatFieldDlg.obj
 0002:00003e14       ??_C@_0CI@DOJLNJCO@Step?52?3?5?$CFs?5a?5non?9saturated?5brigh@ 67dace14     FlatFieldDlg.obj
 0002:00003e3c       ??_C@_0P@BKLCIOAG@?$CFs?5?$CGDark?5Image?$AA@ 67dace3c     FlatFieldDlg.obj
 0002:00003e4c       ??_C@_0BI@GLPPPEMF@Step?51?3?5?$CFs?5a?5dark?5image?$AA@ 67dace4c     FlatFieldDlg.obj
 0002:00003e64       ??_C@_07DNCJJOBD@Acquire?$AA@ 67dace64     FlatFieldDlg.obj
 0002:00003e6c       ??_C@_04IPBPFFEL@Load?$AA@ 67dace6c     FlatFieldDlg.obj
 0002:00003e74       ??_C@_0BK@FJJKDGAB@Invalid?5flat?9field?5object?$AA@ 67dace74     FlatFieldDlg.obj
 0002:00003e90       ??_C@_0BE@EFLJEAEI@File?5upload?5failed?4?$AA@ 67dace90     FlatFieldDlg.obj
 0002:00003ea4       ??_C@_0CE@GKFODOBC@File?5upload?5completed?5successful@ 67dacea4     FlatFieldDlg.obj
 0002:00003ec8       ??_C@_0CJ@NPJMHPBK@Uploading?5file?5to?5device?4?4?4?5Plea@ 67dacec8     FlatFieldDlg.obj
 0002:00003ef4       ??_C@_0BJ@JINNHDAJ@File?5saved?5successfully?4?$AA@ 67dacef4     FlatFieldDlg.obj
 0002:00003f10       ??_C@_07DFDFEJFN@FFC?4tif?$AA@ 67dacf10     FlatFieldDlg.obj
 0002:00003f18       ??_C@_0BK@GKBMAGJP@TIFF?5Files?5?$CI?$CK?4tif?$CJ?$HM?$CK?4tif?$HM?$AA@ 67dacf18     FlatFieldDlg.obj
 0002:00003f38       ??_C@_0BAP@LFPMEKLK@The?5following?5statistics?5have?5be@ 67dacf38     FlatFieldDlg.obj
 0002:00004048       ??_C@_0DJ@OLPJIGDJ@Calibration?5with?5a?5dark?5image?5ha@ 67dad048     FlatFieldDlg.obj
 0002:00004084       ??_C@_0DM@MBNOMEDE@?5?5?5?5Maximum?5deviation?5allowed?5fr@ 67dad084     FlatFieldDlg.obj
 0002:000040c0       ??_C@_0BM@CPAPBPBL@?5?5?5?5Average?5pixel?5value?3?5?$CFs?$AA@ 67dad0c0     FlatFieldDlg.obj
 0002:000040e0       ??_C@_0LI@JFBOOCNO@The?5following?5statistics?5have?5be@ 67dad0e0     FlatFieldDlg.obj
 0002:00004198       ??_C@_0CC@IJEIOOMH@?5?5?5Unable?5to?5get?5image?5statistic@ 67dad198     FlatFieldDlg.obj
 0002:000041bc       ??_C@_0BH@IMNLKCGC@Dark?5image?5calibration?$AA@ 67dad1bc     FlatFieldDlg.obj
 0002:000041d4       ??_C@_0BN@GBBBPCEI@Vertical?5offset?5from?5top?3?5?$CFd?$AA@ 67dad1d4     FlatFieldDlg.obj
 0002:000041f4       ??_C@_0BP@GKHJLHLJ@Number?5of?5lines?5to?5average?3?5?$CFd?$AA@ 67dad1f4     FlatFieldDlg.obj
 0002:00004214       ??_C@_0CA@FDKMEOHM@Number?5of?5frames?5to?5average?3?5?$CFd?$AA@ 67dad214     FlatFieldDlg.obj
 0002:00004234       ??_C@_0BB@IBEIAGLK@Video?5type?3?5?8?$CFs?8?$AA@ 67dad234     FlatFieldDlg.obj
 0002:00004248       ??_C@_0BG@OHFNEGHN@Correction?5type?3?5?8?$CFs?8?$AA@ 67dad248     FlatFieldDlg.obj
 0002:00004260       ??_C@_04LIDDHMOL@Line?$AA@ 67dad260     FlatFieldDlg.obj
 0002:00004268       ??_C@_05EPLKDJMH@Field?$AA@ 67dad268     FlatFieldDlg.obj
 0002:00004270       ??_C@_0DL@MNKLEMDH@Calibration?5with?5a?5bright?5image?5@ 67dad270     FlatFieldDlg.obj
 0002:000042ac       ??_C@_0CF@KMGMFJKN@?5?5?5?5Number?5of?5clusters?5detected?3@ 67dad2ac     FlatFieldDlg.obj
 0002:000042d4       ??_C@_0DG@EMPPKLPI@?5?5?5?5Number?5of?5defective?5pixels?5d@ 67dad2d4     FlatFieldDlg.obj
 0002:00004310       ??_C@_0LL@CHJDOBFE@?$CFlu?5pixels?5?$CI?$CF?42f?$CF?$CF?5?$CJ?5have?5been?5i@ 67dad310     FlatFieldDlg.obj
 0002:000043cc       ??_C@_0CM@CDPHOBCA@?5?5?5?5Number?5of?5pixels?5inside?5boun@ 67dad3cc     FlatFieldDlg.obj
 0002:000043f8       ??_C@_0BE@DHBGJDNC@?5?5?5?5Upper?5bound?3?5?$CFs?$AA@ 67dad3f8     FlatFieldDlg.obj
 0002:0000440c       ??_C@_0BE@HJGNFFIA@?5?5?5?5Lower?5bound?3?5?$CFs?$AA@ 67dad40c     FlatFieldDlg.obj
 0002:00004420       ??_C@_0BO@DMDJDHEJ@?5?5?5?5Highest?5peak?5position?3?5?$CFs?$AA@ 67dad420     FlatFieldDlg.obj
 0002:00004440       ??_C@_0BIN@IEDFHGJN@The?5following?5statistics?5have?5be@ 67dad440     FlatFieldDlg.obj
 0002:000045d0       __real@4058c00000000000    67dad5d0     FlatFieldDlg.obj
 0002:000045d8       ??_C@_0BO@HNGIMDLB@Unable?5to?5get?5image?5statistic?$AA@ 67dad5d8     FlatFieldDlg.obj
 0002:000045f8       ??_C@_0BJ@LPKMBNGK@Bright?5image?5calibration?$AA@ 67dad5f8     FlatFieldDlg.obj
 0002:00004614       ??_C@_0DM@KCBLFJDF@Image?5file?5selected?5doesn?8t?5have@ 67dad614     FlatFieldDlg.obj
 0002:00004650       ??_C@_0BI@NFBBHKMO@Loaded?5dark?5image?3?5?8?$CFs?8?$AA@ 67dad650     FlatFieldDlg.obj
 0002:00004668       ??_C@_0N@BFOOOCCK@?9format?5auto?$AA@ 67dad668     FlatFieldDlg.obj
 0002:00004678       ??_C@_0FA@FBPKILOE@Image?5file?5has?5a?5different?5forma@ 67dad678     FlatFieldDlg.obj
 0002:000046c8       ??_C@_0BL@DGIDEJEA@Unable?5to?5acquire?5an?5image?$AA@ 67dad6c8     FlatFieldDlg.obj
 0002:000046ec       ??_SSapBuffer@@6B@         67dad6ec     FlatFieldDlg.obj
 0002:00004920       ??_C@_0BK@CFDGCENE@Loaded?5bright?5image?3?5?8?$CFs?8?$AA@ 67dad920     FlatFieldDlg.obj
 0002:00004a20       ??_C@_04PKDHFCJF@HIGH?$AA@ 67dada20     GioBidirectionalDlg.obj
 0002:00004a28       ??_C@_03IBEFMGAI@LOW?$AA@  67dada28     GioBidirectionalDlg.obj
 0002:00004a30       ??_7CGdiObject@@6B@        67dada30     GioBidirectionalDlg.obj
 0002:00004a48       ??_C@_0FC@PBLIGINI@C?3?2Program?5Files?5?$CIx86?$CJ?2Microsoft@ 67dada48     GioBidirectionalDlg.obj
 0002:00004aa0       ??_7CBrush@@6B@            67dadaa0     GioBidirectionalDlg.obj
 0002:00004abc       ??_7CGioBidirectionalDlg@@6B@ 67dadabc     GioBidirectionalDlg.obj
 0002:00004c4c       ??_C@_0N@MCFIDAGM@Falling?5Edge?$AA@ 67dadc4c     GioBidirectionalDlg.obj
 0002:00004c5c       ??_C@_0M@GPNEGMCE@Rising?5Edge?$AA@ 67dadc5c     GioBidirectionalDlg.obj
 0002:00004c68       ??_C@_03HPADHAHE@N?1A?$AA@ 67dadc68     GioBidirectionalDlg.obj
 0002:00004c6c       ??_C@_05GCLNDCPO@fault?$AA@ 67dadc6c     GioBidirectionalDlg.obj
 0002:00004c74       ??_C@_06NAEEEDIK@RS?9422?$AA@ 67dadc74     GioBidirectionalDlg.obj
 0002:00004c7c       ??_C@_0M@EOLJBMAN@LVDS?5RS?9644?$AA@ 67dadc7c     GioBidirectionalDlg.obj
 0002:00004c88       ??_C@_0BG@IAMGFNNM@24?9Volts?5Single?5Ended?$AA@ 67dadc88     GioBidirectionalDlg.obj
 0002:00004ca0       ??_C@_0BG@EPIDPFFK@12?9Volts?5Single?5Ended?$AA@ 67dadca0     GioBidirectionalDlg.obj
 0002:00004cb8       ??_C@_0BF@PJAJLLCL@5?9Volts?5Single?5Ended?$AA@ 67dadcb8     GioBidirectionalDlg.obj
 0002:00004cd0       ??_C@_0BH@KMPACII@3?43?9Volts?5Single?5Ended?$AA@ 67dadcd0     GioBidirectionalDlg.obj
 0002:00004ce8       ??_C@_08NKCLJDKG@Reserved?$AA@ 67dadce8     GioBidirectionalDlg.obj
 0002:00004cf4       ??_C@_06PFDLEJLJ@Output?$AA@ 67dadcf4     GioBidirectionalDlg.obj
 0002:00004cfc       ??_C@_05DCDOHKAB@Input?$AA@ 67dadcfc     GioBidirectionalDlg.obj
 0002:00004d04       ??_C@_0BB@NMDDMCAP@?5?$CIBidirectional?$CJ?$AA@ 67dadd04     GioBidirectionalDlg.obj
 0002:00004d18       ??_C@_0O@MKAOODLE@Bidirectional?$AA@ 67dadd18     GioBidirectionalDlg.obj
 0002:00004d28       ??_C@_0O@HGKJLGM@bidirectional?$AA@ 67dadd28     GioBidirectionalDlg.obj
 0002:0000511c       ??_7CGioInputDlg@@6B@      67dae11c     GioInputDlg.obj
 0002:000052ac       ??_C@_08CPMJJIAL@?5?$CIinput?$CJ?$AA@ 67dae2ac     GioInputDlg.obj
 0002:000052b8       ??_C@_05DFJCHPDH@input?$AA@ 67dae2b8     GioInputDlg.obj
 0002:00005464       ??_7CGioOutputDlg@@6B@     67dae464     GioOutputDlg.obj
 0002:00005768       ??_C@_0BD@KBJPDDHB@Invalid?5Gio?5object?$AA@ 67dae768     GioOutputDlg.obj
 0002:0000577c       ??_C@_06MAFFGDO@Active?$AA@ 67dae77c     GioOutputDlg.obj
 0002:00005784       ??_C@_05PCOCLALA@LVTTL?$AA@ 67dae784     GioOutputDlg.obj
 0002:0000578c       ??_C@_03KNKNDOHD@TTL?$AA@  67dae78c     GioOutputDlg.obj
 0002:00005790       ??_C@_04DECHBNHO@OPTO?$AA@ 67dae790     GioOutputDlg.obj
 0002:00005798       ??_C@_03ONDNACEM@LED?$AA@  67dae798     GioOutputDlg.obj
 0002:0000579c       ??_C@_03KHDGEDNG@NPN?$AA@  67dae79c     GioOutputDlg.obj
 0002:000057a0       ??_C@_03NFAJNCNP@PNP?$AA@  67dae7a0     GioOutputDlg.obj
 0002:000057a4       ??_C@_08IPBPJCJI@Tristate?$AA@ 67dae7a4     GioOutputDlg.obj
 0002:000057b0       ??_C@_09PPKEFJKI@?5?$CIoutput?$CJ?$AA@ 67dae7b0     GioOutputDlg.obj
 0002:000057bc       ??_C@_06DKIGHACF@output?$AA@ 67dae7bc     GioOutputDlg.obj
 0002:000057c4       ??_C@_0M@IBEGOEHO@CImageExWnd?$AA@ 67dae7c4     ImageExWnd.obj
 0002:000057d0       ?classCImageExWnd@CImageExWnd@@2UCRuntimeClass@@B 67dae7d0     ImageExWnd.obj
 0002:000057f0       ??_7CPen@@6B@              67dae7f0     ImageExWnd.obj
 0002:00005808       ??_7CBitmap@@6B@           67dae808     ImageExWnd.obj
 0002:00005820       ??_7CRgn@@6B@              67dae820     ImageExWnd.obj
 0002:00005838       ??_7CImageViewportWndEventHandler@@6B@ 67dae838     ImageExWnd.obj
 0002:0000584c       ??_7CImageExWnd@@6BCImageViewportWndEventHandler@@@ 67dae84c     ImageExWnd.obj
 0002:00005864       ??_7CImageExWnd@@6BCStatic@@@ 67dae864     ImageExWnd.obj
 0002:000059d4       ??_C@_0BD@LJEGDADL@inner?5image?5window?$AA@ 67dae9d4     ImageExWnd.obj
 0002:000059e8       __real@3fe0000000000000    67dae9e8     ImageExWnd.obj
 0002:00005b18       ??_C@_0BG@GGONPKMH@CImageFilterEditorDlg?$AA@ 67daeb18     ImageFilterEditorDlg.obj
 0002:00005b68       ?classCImageFilterEditorDlg@CImageFilterEditorDlg@@2UCRuntimeClass@@B 67daeb68     ImageFilterEditorDlg.obj
 0002:00005b84       ??_C@_0CO@ELPBDPHA@Failed?5to?5read?5a?5coefficient?5fro@ 67daeb84     ImageFilterEditorDlg.obj
 0002:00005bb4       ??_C@_04GBBGJLMB@?$CF?45f?$AA@ 67daebb4     ImageFilterEditorDlg.obj
 0002:00005bc0       __real@41f0000000000000    67daebc0     ImageFilterEditorDlg.obj
 0002:00005bc8       ??_C@_0FF@KCPIHMOD@The?5input?5buffer?5is?5for?5a?5?$CFdx?$CFd?5@ 67daebc8     ImageFilterEditorDlg.obj
 0002:00005c20       ??_C@_0CJ@IEBKEMNN@The?5input?5buffer?5is?5not?5a?5square@ 67daec20     ImageFilterEditorDlg.obj
 0002:00005c4c       ??_C@_0BE@BJACJAFM@Image?5Filter?5Editor?$AA@ 67daec4c     ImageFilterEditorDlg.obj
 0002:00005c60       ??_C@_0CO@OHBNNIJE@Failed?5to?5load?1read?5the?5kernel?5f@ 67daec60     ImageFilterEditorDlg.obj
 0002:00005c90       ??_C@_03OOINPMFE@crc?$AA@  67daec90     ImageFilterEditorDlg.obj
 0002:00005c94       ??_C@_0L@CDAICIDA@kernel?4crc?$AA@ 67daec94     ImageFilterEditorDlg.obj
 0002:00005ca0       ??_C@_0CE@IKNONHPN@Teledyne?5DALSA?5Files?$CI?$CK?4crc?$CJ?$HM?$CK?4cr@ 67daeca0     ImageFilterEditorDlg.obj
 0002:00005cc8       ??_7bad_alloc@std@@6B@     67daecc8     ImageFilterEditorDlg.obj
 0002:00005cd0       ??_C@_0BI@CFPLBAOH@invalid?5string?5position?$AA@ 67daecd0     ImageFilterEditorDlg.obj
 0002:00005ce8       ??_C@_0BA@JFNIOLAK@string?5too?5long?$AA@ 67daece8     ImageFilterEditorDlg.obj
 0002:00005cfc       ??_7CImageFilterEditorDlg@@6B@ 67daecfc     ImageFilterEditorDlg.obj
 0002:00005e8c       ??_C@_07FJJAPPM@?$CFd?5x?5?$CFd?$AA@ 67daee8c     ImageFilterEditorDlg.obj
 0002:00005e94       ??_C@_0DJ@DIKCNNJD@Failed?5to?5create?5the?5edit?5contro@ 67daee94     ImageFilterEditorDlg.obj
 0002:00005ed0       ??_C@_0DB@BDJKAALE@Failed?5to?5read?5the?5coefficients?5@ 67daeed0     ImageFilterEditorDlg.obj
 0002:00005f04       ??_C@_0DA@IHECGIAJ@Failed?5to?5get?5the?5coefficients?5f@ 67daef04     ImageFilterEditorDlg.obj
 0002:00005f34       ??_C@_0DJ@EOBHGEAI@Failed?5to?5create?5the?5buffer?5for?5@ 67daef34     ImageFilterEditorDlg.obj
 0002:00005f70       ??_C@_0CD@PHDKKNBO@Failed?5to?5enable?5the?5image?5filte@ 67daef70     ImageFilterEditorDlg.obj
 0002:00005f94       ??_C@_0DB@PKPOKJO@Failed?5to?5read?5the?5coefficients?5@ 67daef94     ImageFilterEditorDlg.obj
 0002:00005fcc       ??_7?$basic_stringbuf@DU?$char_traits@D@std@@V?$allocator@D@2@@std@@6B@ 67daefcc     ImageFilterEditorDlg.obj
 0002:00006008       ??_C@_0CN@NOFBEKGG@The?5acquisition?5device?5passed?5in@ 67daf008     ImageFilterEditorDlg.obj
 0002:00006038       ??_C@_0GA@FOECIGIA@Not?5available?5for?5color?5correcti@ 67daf038     ImageFilterEditorDlg.obj
 0002:00006098       ??_C@_0CP@MJHMNAAM@Image?5Filter?5is?5incompatible?5wit@ 67daf098     ImageFilterEditorDlg.obj
 0002:000060cc       ??_7?$basic_istringstream@DU?$char_traits@D@std@@V?$allocator@D@2@@std@@6B@ 67daf0cc     ImageFilterEditorDlg.obj
 0002:000060d0       ??_8?$basic_istringstream@DU?$char_traits@D@std@@V?$allocator@D@2@@std@@7B@ 67daf0d0     ImageFilterEditorDlg.obj
 0002:000060d8       ??_C@_0CN@HMPOFMAA@Failed?5to?5write?5a?5coefficient?5to@ 67daf0d8     ImageFilterEditorDlg.obj
 0002:00006108       ??_C@_0DJ@CKBMELHL@Failed?5to?5convert?5?8?$CFs?8?5to?5a?5sign@ 67daf108     ImageFilterEditorDlg.obj
 0002:00006144       ??_C@_0DP@HIGPBHNP@User?5value?5at?5location?5?$CI?$CFd?0?$CFd?$CJ?5w@ 67daf144     ImageFilterEditorDlg.obj
 0002:00006188       __real@0000000000000000    67daf188     ImageFilterEditorDlg.obj
 0002:00006190       ??_C@_0GG@JNGILBJB@The?5output?5buffer?5is?5for?5a?5?$CFdx?$CFd@ 67daf190     ImageFilterEditorDlg.obj
 0002:000061f8       ??_C@_0CK@KCNMHPNI@The?5output?5buffer?5is?5not?5a?5squar@ 67daf1f8     ImageFilterEditorDlg.obj
 0002:00006224       ??_C@_0M@EDAHEFAM@?9format?5crc?$AA@ 67daf224     ImageFilterEditorDlg.obj
 0002:00006230       ??_C@_0CD@OEFGLFMA@Failed?5to?5save?5the?5kernel?5to?5fil@ 67daf230     ImageFilterEditorDlg.obj
 0002:00006254       ??_C@_0DA@EPDLLOCP@Failed?5to?5write?5the?5coefficients@ 67daf254     ImageFilterEditorDlg.obj
 0002:00006284       ??_C@_0DA@DCALPCLI@Failed?5to?5set?5the?5coefficients?5o@ 67daf284     ImageFilterEditorDlg.obj
 0002:00006350       ??_C@_0CD@NKNBCPDB@Coefficients?5successfully?5applie@ 67daf350     ImageFilterEditorDlg.obj
 0002:00006374       ??_C@_0CC@NAANMPLG@Failed?5to?5apply?5the?5coefficients@ 67daf374     ImageFilterEditorDlg.obj
 0002:00006398       ??_C@_0BC@BANKGPFK@CImageViewportWnd?$AA@ 67daf398     ImageViewportWnd.obj
 0002:000063ac       ?classCImageViewportWnd@CImageViewportWnd@@2UCRuntimeClass@@B 67daf3ac     ImageViewportWnd.obj
 0002:000063cc       ??_7CImageViewportWnd@@6B@ 67daf3cc     ImageViewportWnd.obj
 0002:0000653c       __real@4f800000            67daf53c     ImageViewportWnd.obj
 0002:00006540       __real@3f000000            67daf540     ImageViewportWnd.obj
 0002:00006544       __real@3e000000            67daf544     ImageViewportWnd.obj
 0002:00006548       __real@4059000000000000    67daf548     ImageViewportWnd.obj
 0002:000066c0       ??_C@_0CE@HEMHJNKO@Position?5x?3?$CF03ld?5y?3?$CF03ld?5?5?5Value@ 67daf6c0     ImageWnd.obj
 0002:000066e4       ??_C@_0BL@GJEEFOBE@H?30x?$CF02x?5S?30x?$CF02x?5I?30x?$CF02x?$AA@ 67daf6e4     ImageWnd.obj
 0002:00006700       ??_C@_0BF@LJLMIFFI@H?3?$CF03d?5S?3?$CF03d?5I?3?$CF03d?$AA@ 67daf700     ImageWnd.obj
 0002:00006718       ??_C@_0BL@KBCHJMBH@L?30x?$CF02x?5A?30x?$CF02x?5B?30x?$CF02x?$AA@ 67daf718     ImageWnd.obj
 0002:00006734       ??_C@_0BF@COJOCNNI@L?3?$CF03d?5A?3?$CF03d?5B?3?$CF03d?$AA@ 67daf734     ImageWnd.obj
 0002:0000674c       ??_C@_0BL@CELJNPCF@Y?30x?$CF02x?5U?30x?$CF02x?5V?30x?$CF02x?$AA@ 67daf74c     ImageWnd.obj
 0002:00006768       ??_C@_0BF@ENGLDLL@Y?3?$CF03d?5U?3?$CF03d?5V?3?$CF03d?$AA@ 67daf768     ImageWnd.obj
 0002:00006780       ??_C@_0CE@GIAENJBM@R?30x?$CF02x?5G?30x?$CF02x?5B?30x?$CF02x?5A?30x?$CF@ 67daf780     ImageWnd.obj
 0002:000067a4       ??_C@_0BM@IIOJLNOJ@R?3?$CF03d?5G?3?$CF03d?5B?3?$CF03d?5A?3?$CF03d?$AA@ 67daf7a4     ImageWnd.obj
 0002:000067c0       ??_C@_06BEICJAKK@0x?$CF02x?$AA@ 67daf7c0     ImageWnd.obj
 0002:000067c8       ??_C@_04OHGLKFFN@?$CF03d?$AA@ 67daf7c8     ImageWnd.obj
 0002:000067d0       ??_C@_0BL@IPPEAAIK@R?30x?$CF02x?5G?30x?$CF02x?5B?30x?$CF02x?$AA@ 67daf7d0     ImageWnd.obj
 0002:000067ec       ??_C@_0BF@EOHHHIDC@R?3?$CF03d?5G?3?$CF03d?5B?3?$CF03d?$AA@ 67daf7ec     ImageWnd.obj
 0002:00006804       ??_C@_0BL@BKDNNDLE@H?30x?$CF02x?5S?30x?$CF02x?5V?30x?$CF02x?$AA@ 67daf804     ImageWnd.obj
 0002:00006820       ??_C@_0BF@CICKGJHP@H?3?$CF03d?5S?3?$CF03d?5V?3?$CF03d?$AA@ 67daf820     ImageWnd.obj
 0002:00006838       ??_C@_0BL@LMKKEAID@L?30x?$CF04x?5A?30x?$CF04x?5B?30x?$CF04x?$AA@ 67daf838     ImageWnd.obj
 0002:00006854       ??_C@_0BF@IADJJGCF@L?3?$CF05d?5A?3?$CF05d?5B?3?$CF05d?$AA@ 67daf854     ImageWnd.obj
 0002:0000686c       ??_C@_03EKLFPLOI@n?1a?$AA@ 67daf86c     ImageWnd.obj
 0002:00006870       ??_C@_0BJ@NOINAOGN@Pixel?5data?5not?5available?$AA@ 67daf870     ImageWnd.obj
 0002:00006890       ??_7CRectTracker@@6B@      67daf890     ImageWnd.obj
 0002:000068ac       ??_7CSapRectTracker@@6B@   67daf8ac     ImageWnd.obj
 0002:000068c8       ??_7CImageWnd@@6B@         67daf8c8     ImageWnd.obj
 0002:000068cc       ?_interfaceEntries@CJpegFileDlg@@0QBUAFX_INTERFACEMAP_ENTRY@@B 67daf8cc     JpegFileDlg.obj
 0002:000068dc       ?_dispatchEntries@CJpegFileDlg@@0QBUAFX_DISPMAP_ENTRY@@B 67daf8dc     JpegFileDlg.obj
 0002:000068fc       ?dispatchMap@CJpegFileDlg@@1UAFX_DISPMAP@@B 67daf8fc     JpegFileDlg.obj
 0002:0000691c       ?interfaceMap@CJpegFileDlg@@1UAFX_INTERFACEMAP@@B 67daf91c     JpegFileDlg.obj
 0002:00006924       ??_C@_0N@JAMHJIAJ@Jpeg?5Quality?$AA@ 67daf924     JpegFileDlg.obj
 0002:0000693c       ??_7CJpegFileDlg@@6B@      67daf93c     JpegFileDlg.obj
 0002:00006b20       ??_C@_0N@DMOFMGKK@CLoadSaveDlg?$AA@ 67dafb20     LoadSaveDlg.obj
 0002:00006b30       ??_C@_0BN@CFGOIGDL@corfile_val_compression_jpeg?$AA@ 67dafb30     LoadSaveDlg.obj
 0002:00006b50       ??_C@_0BM@ICIKMFJA@corfile_val_compression_lzw?$AA@ 67dafb50     LoadSaveDlg.obj
 0002:00006b6c       ??_C@_0BM@FCBDEKCN@corfile_val_compression_rle?$AA@ 67dafb6c     LoadSaveDlg.obj
 0002:00006b88       ??_C@_0BN@OGPHOKFB@corfile_val_compression_none?$AA@ 67dafb88     LoadSaveDlg.obj
 0002:00006ba8       ?classCLoadSaveDlg@CLoadSaveDlg@@2UCRuntimeClass@@B 67dafba8     LoadSaveDlg.obj
 0002:00006bc4       ??_C@_04KOACHJEN@Type?$AA@ 67dafbc4     LoadSaveDlg.obj
 0002:00006bcc       ??_C@_04FABLJDN@Name?$AA@  67dafbcc     LoadSaveDlg.obj
 0002:00006bf4       ??_C@_0N@MDIBIKKL@?5?9quality?5?$CFd?$AA@ 67dafbf4     LoadSaveDlg.obj
 0002:00006c04       ??_C@_0BB@MDAABLPN@?5?9compression?5?$CFs?$AA@ 67dafc04     LoadSaveDlg.obj
 0002:00006c18       ??_C@_0CB@HIHNFCFK@?5?9width?5?$CFd?5?9height?5?$CFd?5?9offset?5?$CFd@ 67dafc18     LoadSaveDlg.obj
 0002:00006c3c       ??_C@_06ENILEDBM@?5?9q?5?$CFd?$AA@ 67dafc3c     LoadSaveDlg.obj
 0002:00006c44       ??_C@_0M@BEOIMNNB@?9format?5avi?$AA@ 67dafc44     LoadSaveDlg.obj
 0002:00006c50       ??_C@_0M@JOCLLCPN@?9format?5jp2?$AA@ 67dafc50     LoadSaveDlg.obj
 0002:00006c5c       ??_C@_0M@FJOHBLOM@?9format?5jpg?$AA@ 67dafc5c     LoadSaveDlg.obj
 0002:00006c68       ??_C@_0M@JLGMLPIK@?9format?5raw?$AA@ 67dafc68     LoadSaveDlg.obj
 0002:00006c74       ??_C@_0M@ODMNJCPO@?9format?5tif?$AA@ 67dafc74     LoadSaveDlg.obj
 0002:00006c80       ??_C@_0M@INCOIHLG@?9format?5bmp?$AA@ 67dafc80     LoadSaveDlg.obj
 0002:00006c94       ??_7CLoadSaveDlg@@6B@      67dafc94     LoadSaveDlg.obj
 0002:00006e58       ??_C@_0KJ@DKPKFBLM@BMP?5Files?5?$CI?$CK?4bmp?$CJ?$HM?$CK?4bmp?$HMTIF?5File@ 67dafe58     LoadSaveDlg.obj
 0002:00006f04       ??_C@_0BK@IIOPDCBJ@AVI?5Files?5?$CI?$CK?4avi?$CJ?$HM?$CK?4avi?$HM?$HM?$AA@ 67daff04     LoadSaveDlg.obj
 0002:00006f20       ??_C@_0FN@GBJMKIDD@Warning?3?5data?5conversion?5to?5RGB1@ 67daff20     LoadSaveDlg.obj
 0002:00006f80       ??_C@_0FN@EJGFPHMP@Warning?3?5data?5conversion?5to?5RGB1@ 67daff80     LoadSaveDlg.obj
 0002:00006fe0       ??_C@_0FK@OMFNFBMO@Warning?3?5data?5conversion?5to?5RGB8@ 67daffe0     LoadSaveDlg.obj
 0002:00007040       ??_C@_0FJ@BKMFLAEH@Warning?3?5data?5conversion?5to?5MONO@ 67db0040     LoadSaveDlg.obj
 0002:000070a0       ??_7CLScanDlg@@6BSapManager@@@ 67db00a0     LScanDlg.obj
 0002:000070ac       ??_7CLScanDlg@@6BCDialog@@@ 67db00ac     LScanDlg.obj
 0002:0000723c       ??_C@_0DK@BGHGBBIM@Line?5integration?5duration?5out?5of@ 67db023c     LScanDlg.obj
 0002:00007344       ??_7CPixProAbsSubDlg@@6B@  67db0344     PixProAbsSubDlg.obj
 0002:00007558       ??_C@_06LLCHJONG@Config?$AA@ 67db0558     PixProDlg.obj
 0002:00007560       ??_C@_08PHKOHANG@Function?$AA@ 67db0560     PixProDlg.obj
 0002:0000756c       ??_C@_09BCIPHGGK@SapPixPro?$AA@ 67db056c     PixProDlg.obj
 0002:00007578       ??_C@_04PBAHLACE@File?$AA@ 67db0578     PixProDlg.obj
 0002:00007584       ??_7CPixProDlg@@6B@        67db0584     PixProDlg.obj
 0002:00007714       ??_C@_0BJ@DDBFNGFB@Predefined?5Configuration?$AA@ 67db0714     PixProDlg.obj
 0002:00007730       ??_C@_07CDMFBOMA@?2PixPro?$AA@ 67db0730     PixProDlg.obj
 0002:00007738       ??_C@_0M@FBALBNMJ@VIPERDIGDIR?$AA@ 67db0738     PixProDlg.obj
 0002:00007744       ??_C@_08BKKFPOHE@COBRADIR?$AA@ 67db0744     PixProDlg.obj
 0002:00007750       ??_C@_0M@EBKFKMPC@Design?5Name?$AA@ 67db0750     PixProDlg.obj
 0002:0000775c       ??_C@_07OAEEHIKM@No?5Name?$AA@ 67db075c     PixProDlg.obj
 0002:00007764       ??_C@_03BKBNANMM@CPI?$AA@  67db0764     PixProDlg.obj
 0002:000077ec       ??_7CPixProIntScaleDlg@@6B@ 67db07ec     PixProIntScaleDlg.obj
 0002:000079ec       ??_7CPixProRefImageDlg@@6B@ 67db09ec     PixProRefImageDlg.obj
 0002:00007bd4       ??_7CPixProUflowSubDlg@@6B@ 67db0bd4     PixProUflowSubDlg.obj
 0002:00007dec       ??_7CPixProWAvgDlg@@6B@    67db0dec     PixProWAvgDlg.obj
 0002:00008018       ??_C@_0L@OBGCFIID@Raw?5Offset?$AA@ 67db1018     RawFileDlg.obj
 0002:00008024       ??_C@_0L@PHKCNAOJ@Raw?5Height?$AA@ 67db1024     RawFileDlg.obj
 0002:00008030       ??_C@_09EMJFJJAK@Raw?5Width?$AA@ 67db1030     RawFileDlg.obj
 0002:00008044       ??_7CRawFileDlg@@6B@       67db1044     RawFileDlg.obj
 0002:000081d4       ??_C@_0L@HBFKPFKK@Raw?5Format?$AA@ 67db11d4     RawFileDlg.obj
 0002:00008218       ??_C@_07KJLOKDKB@TypeLib?$AA@ 67db1218     SapClassGui.obj
 0002:00008220       ??_C@_08KEKAJNJI@Software?$AA@ 67db1220     SapClassGui.obj
 0002:0000822c       ??_C@_06FDHFNJBJ@SYSTEM?$AA@ 67db122c     SapClassGui.obj
 0002:00008234       ??_C@_08LOPHEHKG@SECURITY?$AA@ 67db1234     SapClassGui.obj
 0002:00008240       ??_C@_03DDIMFGBA@SAM?$AA@  67db1240     SapClassGui.obj
 0002:00008244       ??_C@_04IHBFOLAC@Mime?$AA@ 67db1244     SapClassGui.obj
 0002:0000824c       ??_C@_08PPIOJEA@Hardware?$AA@ 67db124c     SapClassGui.obj
 0002:00008258       ??_C@_09JKPGEJCH@Interface?$AA@ 67db1258     SapClassGui.obj
 0002:00008264       ??_C@_08PICKODJL@FileType?$AA@ 67db1264     SapClassGui.obj
 0002:00008270       ??_C@_0BF@HDDNNDFH@Component?5Categories?$AA@ 67db1270     SapClassGui.obj
 0002:00008288       ??_C@_05GIBEAPNE@CLSID?$AA@ 67db1288     SapClassGui.obj
 0002:00008290       ??_C@_05PDIKPLII@AppID?$AA@ 67db1290     SapClassGui.obj
 0002:00008298       ??_C@_06JBKGCNBB@Delete?$AA@ 67db1298     SapClassGui.obj
 0002:000082a0       ??_C@_08KAAPDIAN@NoRemove?$AA@ 67db12a0     SapClassGui.obj
 0002:000082ac       ??_C@_0M@DBGDLGLL@ForceRemove?$AA@ 67db12ac     SapClassGui.obj
 0002:000082b8       ??_C@_03LAIAPFCB@Val?$AA@  67db12b8     SapClassGui.obj
 0002:000082bc       ??_C@_01HMGJMAIH@B?$AA@    67db12bc     SapClassGui.obj
 0002:000082c0       ??_C@_01CKDDGHAB@D?$AA@    67db12c0     SapClassGui.obj
 0002:000082c4       ??_C@_01PLPBNMEI@M?$AA@    67db12c4     SapClassGui.obj
 0002:000082c8       ??_C@_01CPLAODJH@S?$AA@    67db12c8     SapClassGui.obj
 0002:000082cc       ??_C@_0BF@GPPHKJFN@Invalid?5DateTimeSpan?$AA@ 67db12cc     SapClassGui.obj
 0002:000082e4       ??_C@_0BB@KEKMKJPM@Invalid?5DateTime?$AA@ 67db12e4     SapClassGui.obj
 0002:000082f8       ?_Min@?$AtlLimits@H@ATL@@2HB 67db12f8     SapClassGui.obj
 0002:000082fc       ?_Max@?$AtlLimits@H@ATL@@2HB 67db12fc     SapClassGui.obj
 0002:00008300       ?_Min@?$AtlLimits@I@ATL@@2IB 67db1300     SapClassGui.obj
 0002:00008304       ?_Max@?$AtlLimits@I@ATL@@2IB 67db1304     SapClassGui.obj
 0002:00008308       ?_Min@?$AtlLimits@J@ATL@@2JB 67db1308     SapClassGui.obj
 0002:0000830c       ?_Max@?$AtlLimits@J@ATL@@2JB 67db130c     SapClassGui.obj
 0002:00008310       ?_Min@?$AtlLimits@K@ATL@@2KB 67db1310     SapClassGui.obj
 0002:00008314       ?_Max@?$AtlLimits@K@ATL@@2KB 67db1314     SapClassGui.obj
 0002:00008318       ?_Min@?$AtlLimits@_J@ATL@@2_JB 67db1318     SapClassGui.obj
 0002:00008320       ?_Max@?$AtlLimits@_J@ATL@@2_JB 67db1320     SapClassGui.obj
 0002:00008328       ?_Min@?$AtlLimits@_K@ATL@@2_KB 67db1328     SapClassGui.obj
 0002:00008330       ?_Max@?$AtlLimits@_K@ATL@@2_KB 67db1330     SapClassGui.obj
 0002:00008338       ?VT@?$CVarTypeInfo@D@ATL@@2GB 67db1338     SapClassGui.obj
 0002:0000833c       ?pmField@?$CVarTypeInfo@D@ATL@@2QQtagVARIANT@@DQ3@ 67db133c     SapClassGui.obj
 0002:00008340       ?VT@?$CVarTypeInfo@E@ATL@@2GB 67db1340     SapClassGui.obj
 0002:00008344       ?pmField@?$CVarTypeInfo@E@ATL@@2QQtagVARIANT@@EQ3@ 67db1344     SapClassGui.obj
 0002:00008348       ?VT@?$CVarTypeInfo@PAD@ATL@@2GB 67db1348     SapClassGui.obj
 0002:0000834c       ?pmField@?$CVarTypeInfo@PAD@ATL@@2QQtagVARIANT@@PADQ3@ 67db134c     SapClassGui.obj
 0002:00008350       ?VT@?$CVarTypeInfo@PAE@ATL@@2GB 67db1350     SapClassGui.obj
 0002:00008354       ?pmField@?$CVarTypeInfo@PAE@ATL@@2QQtagVARIANT@@PAEQ3@ 67db1354     SapClassGui.obj
 0002:00008358       ?VT@?$CVarTypeInfo@F@ATL@@2GB 67db1358     SapClassGui.obj
 0002:0000835c       ?pmField@?$CVarTypeInfo@F@ATL@@2QQtagVARIANT@@FQ3@ 67db135c     SapClassGui.obj
 0002:00008360       ?VT@?$CVarTypeInfo@PAF@ATL@@2GB 67db1360     SapClassGui.obj
 0002:00008364       ?pmField@?$CVarTypeInfo@PAF@ATL@@2QQtagVARIANT@@PAFQ3@ 67db1364     SapClassGui.obj
 0002:00008368       ?VT@?$CVarTypeInfo@G@ATL@@2GB 67db1368     SapClassGui.obj
 0002:0000836c       ?pmField@?$CVarTypeInfo@G@ATL@@2QQtagVARIANT@@GQ3@ 67db136c     SapClassGui.obj
 0002:00008370       ?VT@?$CVarTypeInfo@PAG@ATL@@2GB 67db1370     SapClassGui.obj
 0002:00008374       ?pmField@?$CVarTypeInfo@PAG@ATL@@2QQtagVARIANT@@PAGQ3@ 67db1374     SapClassGui.obj
 0002:00008378       ?VT@?$CVarTypeInfo@H@ATL@@2GB 67db1378     SapClassGui.obj
 0002:0000837c       ?pmField@?$CVarTypeInfo@H@ATL@@2QQtagVARIANT@@HQ3@ 67db137c     SapClassGui.obj
 0002:00008380       ?VT@?$CVarTypeInfo@PAH@ATL@@2GB 67db1380     SapClassGui.obj
 0002:00008384       ?pmField@?$CVarTypeInfo@PAH@ATL@@2QQtagVARIANT@@PAHQ3@ 67db1384     SapClassGui.obj
 0002:00008388       ?VT@?$CVarTypeInfo@I@ATL@@2GB 67db1388     SapClassGui.obj
 0002:0000838c       ?pmField@?$CVarTypeInfo@I@ATL@@2QQtagVARIANT@@IQ3@ 67db138c     SapClassGui.obj
 0002:00008390       ?VT@?$CVarTypeInfo@PAI@ATL@@2GB 67db1390     SapClassGui.obj
 0002:00008394       ?pmField@?$CVarTypeInfo@PAI@ATL@@2QQtagVARIANT@@PAIQ3@ 67db1394     SapClassGui.obj
 0002:00008398       ?VT@?$CVarTypeInfo@J@ATL@@2GB 67db1398     SapClassGui.obj
 0002:0000839c       ?pmField@?$CVarTypeInfo@J@ATL@@2QQtagVARIANT@@JQ3@ 67db139c     SapClassGui.obj
 0002:000083a0       ?VT@?$CVarTypeInfo@PAJ@ATL@@2GB 67db13a0     SapClassGui.obj
 0002:000083a4       ?pmField@?$CVarTypeInfo@PAJ@ATL@@2QQtagVARIANT@@PAJQ3@ 67db13a4     SapClassGui.obj
 0002:000083a8       ?VT@?$CVarTypeInfo@K@ATL@@2GB 67db13a8     SapClassGui.obj
 0002:000083ac       ?pmField@?$CVarTypeInfo@K@ATL@@2QQtagVARIANT@@KQ3@ 67db13ac     SapClassGui.obj
 0002:000083b0       ?VT@?$CVarTypeInfo@PAK@ATL@@2GB 67db13b0     SapClassGui.obj
 0002:000083b4       ?pmField@?$CVarTypeInfo@PAK@ATL@@2QQtagVARIANT@@PAKQ3@ 67db13b4     SapClassGui.obj
 0002:000083b8       ?VT@?$CVarTypeInfo@_J@ATL@@2GB 67db13b8     SapClassGui.obj
 0002:000083bc       ?pmField@?$CVarTypeInfo@_J@ATL@@2QQtagVARIANT@@_JQ3@ 67db13bc     SapClassGui.obj
 0002:000083c0       ?VT@?$CVarTypeInfo@PA_J@ATL@@2GB 67db13c0     SapClassGui.obj
 0002:000083c4       ?pmField@?$CVarTypeInfo@PA_J@ATL@@2QQtagVARIANT@@PA_JQ3@ 67db13c4     SapClassGui.obj
 0002:000083c8       ?VT@?$CVarTypeInfo@_K@ATL@@2GB 67db13c8     SapClassGui.obj
 0002:000083cc       ?pmField@?$CVarTypeInfo@_K@ATL@@2QQtagVARIANT@@_KQ3@ 67db13cc     SapClassGui.obj
 0002:000083d0       ?VT@?$CVarTypeInfo@PA_K@ATL@@2GB 67db13d0     SapClassGui.obj
 0002:000083d4       ?pmField@?$CVarTypeInfo@PA_K@ATL@@2QQtagVARIANT@@PA_KQ3@ 67db13d4     SapClassGui.obj
 0002:000083d8       ?VT@?$CVarTypeInfo@M@ATL@@2GB 67db13d8     SapClassGui.obj
 0002:000083dc       ?pmField@?$CVarTypeInfo@M@ATL@@2QQtagVARIANT@@MQ3@ 67db13dc     SapClassGui.obj
 0002:000083e0       ?VT@?$CVarTypeInfo@PAM@ATL@@2GB 67db13e0     SapClassGui.obj
 0002:000083e4       ?pmField@?$CVarTypeInfo@PAM@ATL@@2QQtagVARIANT@@PAMQ3@ 67db13e4     SapClassGui.obj
 0002:000083e8       ?VT@?$CVarTypeInfo@N@ATL@@2GB 67db13e8     SapClassGui.obj
 0002:000083ec       ?pmField@?$CVarTypeInfo@N@ATL@@2QQtagVARIANT@@NQ3@ 67db13ec     SapClassGui.obj
 0002:000083f0       ?VT@?$CVarTypeInfo@PAN@ATL@@2GB 67db13f0     SapClassGui.obj
 0002:000083f4       ?pmField@?$CVarTypeInfo@PAN@ATL@@2QQtagVARIANT@@PANQ3@ 67db13f4     SapClassGui.obj
 0002:000083f8       ?VT@?$CVarTypeInfo@PAUtagVARIANT@@@ATL@@2GB 67db13f8     SapClassGui.obj
 0002:000083fc       ?VT@?$CVarTypeInfo@PA_W@ATL@@2GB 67db13fc     SapClassGui.obj
 0002:00008400       ?pmField@?$CVarTypeInfo@PA_W@ATL@@2QQtagVARIANT@@PA_WQ3@ 67db1400     SapClassGui.obj
 0002:00008404       ?VT@?$CVarTypeInfo@PAPA_W@ATL@@2GB 67db1404     SapClassGui.obj
 0002:00008408       ?pmField@?$CVarTypeInfo@PAPA_W@ATL@@2QQtagVARIANT@@PAPA_WQ3@ 67db1408     SapClassGui.obj
 0002:0000840c       ?VT@?$CVarTypeInfo@PAUIUnknown@@@ATL@@2GB 67db140c     SapClassGui.obj
 0002:00008410       ?pmField@?$CVarTypeInfo@PAUIUnknown@@@ATL@@2QQtagVARIANT@@PAUIUnknown@@Q3@ 67db1410     SapClassGui.obj
 0002:00008414       ?VT@?$CVarTypeInfo@PAPAUIUnknown@@@ATL@@2GB 67db1414     SapClassGui.obj
 0002:00008418       ?pmField@?$CVarTypeInfo@PAPAUIUnknown@@@ATL@@2QQtagVARIANT@@PAPAUIUnknown@@Q3@ 67db1418     SapClassGui.obj
 0002:0000841c       ?VT@?$CVarTypeInfo@PAUIDispatch@@@ATL@@2GB 67db141c     SapClassGui.obj
 0002:00008420       ?pmField@?$CVarTypeInfo@PAUIDispatch@@@ATL@@2QQtagVARIANT@@PAUIDispatch@@Q3@ 67db1420     SapClassGui.obj
 0002:00008424       ?VT@?$CVarTypeInfo@PAPAUIDispatch@@@ATL@@2GB 67db1424     SapClassGui.obj
 0002:00008428       ?pmField@?$CVarTypeInfo@PAPAUIDispatch@@@ATL@@2QQtagVARIANT@@PAPAUIDispatch@@Q3@ 67db1428     SapClassGui.obj
 0002:0000842c       ?VT@?$CVarTypeInfo@TtagCY@@@ATL@@2GB 67db142c     SapClassGui.obj
 0002:00008430       ?pmField@?$CVarTypeInfo@TtagCY@@@ATL@@2QQtagVARIANT@@TtagCY@@Q3@ 67db1430     SapClassGui.obj
 0002:00008434       ?VT@?$CVarTypeInfo@PATtagCY@@@ATL@@2GB 67db1434     SapClassGui.obj
 0002:00008438       ?pmField@?$CVarTypeInfo@PATtagCY@@@ATL@@2QQtagVARIANT@@PATtagCY@@Q3@ 67db1438     SapClassGui.obj
 0002:0000843c       ?c_bIsMFCDLLTraits@?$_MFCDLLTraitsCheck@DV?$StrTraitMFC_DLL@DV?$ChTraitsCRT@D@ATL@@@@@_CSTRING_IMPL_@ATL@@2_NB 67db143c     SapClassGui.obj
 0002:0000843d       ?c_bIsMFCDLLTraits@?$_MFCDLLTraitsCheck@_WV?$StrTraitMFC_DLL@_WV?$ChTraitsCRT@_W@ATL@@@@@_CSTRING_IMPL_@ATL@@2_NB 67db143d     SapClassGui.obj
 0002:00008440       ?generic@CArchiveException@@2HB 67db1440     SapClassGui.obj
 0002:00008444       ?generic@CFileException@@2HB 67db1444     SapClassGui.obj
 0002:00008448       ?Millisecond@CFileTime@ATL@@2_KB 67db1448     SapClassGui.obj
 0002:00008450       ?Second@CFileTime@ATL@@2_KB 67db1450     SapClassGui.obj
 0002:00008458       ?Minute@CFileTime@ATL@@2_KB 67db1458     SapClassGui.obj
 0002:00008460       ?Hour@CFileTime@ATL@@2_KB  67db1460     SapClassGui.obj
 0002:00008468       ?Day@CFileTime@ATL@@2_KB   67db1468     SapClassGui.obj
 0002:00008470       ?Week@CFileTime@ATL@@2_KB  67db1470     SapClassGui.obj
 0002:00008478       ?szInvalidDateTime@ATL@@3QBDB 67db1478     SapClassGui.obj
 0002:0000847c       ?szInvalidDateTimeSpan@ATL@@3QBDB 67db147c     SapClassGui.obj
 0002:00008480       _LIBID_ATLLib              67db1480     SapClassGui.obj
 0002:00008490       _CLSID_Registrar           67db1490     SapClassGui.obj
 0002:000084a0       _IID_IRegistrar            67db14a0     SapClassGui.obj
 0002:000084b0       _IID_IAxWinHostWindow      67db14b0     SapClassGui.obj
 0002:000084c0       _IID_IAxWinAmbientDispatch 67db14c0     SapClassGui.obj
 0002:000084d0       _IID_IInternalConnection   67db14d0     SapClassGui.obj
 0002:000084e0       _IID_IDocHostUIHandlerDispatch 67db14e0     SapClassGui.obj
 0002:000084f0       _IID_IAxWinHostWindowLic   67db14f0     SapClassGui.obj
 0002:00008500       _IID_IAxWinAmbientDispatchEx 67db1500     SapClassGui.obj
 0002:00008530       __pRawDllMain              67db1530     SapClassGui.obj
 0002:00008534       ?MAX_VALUE@CRegParser@ATL@@1HB 67db1534     SapClassGui.obj
 0002:00008538       ?MAX_TYPE@CRegParser@ATL@@1HB 67db1538     SapClassGui.obj
 0002:0000853c       ?rgszNeverDelete@CRegParser@ATL@@1QBQBDB 67db153c     SapClassGui.obj
 0002:0000856c       ?cbNeverDelete@CRegParser@ATL@@1HB 67db156c     SapClassGui.obj
 0002:00008570       ?c_bIsMFCDLLTraits@?$_MFCDLLTraitsCheck@DV?$StrTraitATL@DV?$ChTraitsCRT@D@ATL@@@ATL@@@_CSTRING_IMPL_@ATL@@2_NB 67db1570     SapClassGui.obj
 0002:00008571       ?c_bIsMFCDLLTraits@?$_MFCDLLTraitsCheck@_WV?$StrTraitATL@_WV?$ChTraitsCRT@_W@ATL@@@ATL@@@_CSTRING_IMPL_@ATL@@2_NB 67db1571     SapClassGui.obj
 0002:00008578       ?OLE_DATETIME_HALFSECOND@COleDateTimeSpan@ATL@@2NB 67db1578     SapClassGui.obj
 0002:00008580       ?CLSID_WinFormsControl@@3U_GUID@@B 67db1580     SapClassGui.obj
 0002:00008590       ?value@?$integral_constant@_N$0A@@tr1@std@@2_NB 67db1590     SapClassGui.obj
 0002:00008591       ?value@?$integral_constant@_N$00@tr1@std@@2_NB 67db1591     SapClassGui.obj
 0002:00008594       ?value@?$integral_constant@I$0A@@tr1@std@@2IB 67db1594     SapClassGui.obj
 0002:00008598       ?_Rank@?$_Arithmetic_traits@_N@std@@2HB 67db1598     SapClassGui.obj
 0002:0000859c       ?_Rank@?$_Arithmetic_traits@D@std@@2HB 67db159c     SapClassGui.obj
 0002:000085a0       ?_Rank@?$_Arithmetic_traits@C@std@@2HB 67db15a0     SapClassGui.obj
 0002:000085a4       ?_Rank@?$_Arithmetic_traits@E@std@@2HB 67db15a4     SapClassGui.obj
 0002:000085a8       ?_Rank@?$_Arithmetic_traits@F@std@@2HB 67db15a8     SapClassGui.obj
 0002:000085ac       ?_Rank@?$_Arithmetic_traits@G@std@@2HB 67db15ac     SapClassGui.obj
 0002:000085b0       ?_Rank@?$_Arithmetic_traits@H@std@@2HB 67db15b0     SapClassGui.obj
 0002:000085b4       ?_Rank@?$_Arithmetic_traits@I@std@@2HB 67db15b4     SapClassGui.obj
 0002:000085b8       ?_Rank@?$_Arithmetic_traits@J@std@@2HB 67db15b8     SapClassGui.obj
 0002:000085bc       ?_Rank@?$_Arithmetic_traits@K@std@@2HB 67db15bc     SapClassGui.obj
 0002:000085c0       ?_Rank@?$_Arithmetic_traits@_J@std@@2HB 67db15c0     SapClassGui.obj
 0002:000085c4       ?_Rank@?$_Arithmetic_traits@_K@std@@2HB 67db15c4     SapClassGui.obj
 0002:000085c8       ?_Rank@?$_Arithmetic_traits@M@std@@2HB 67db15c8     SapClassGui.obj
 0002:000085cc       ?_Rank@?$_Arithmetic_traits@N@std@@2HB 67db15cc     SapClassGui.obj
 0002:000085d0       ?_Rank@?$_Arithmetic_traits@O@std@@2HB 67db15d0     SapClassGui.obj
 0002:000085d4       ?collate@?$_Locbase@H@std@@2HB 67db15d4     SapClassGui.obj
 0002:000085d8       ?ctype@?$_Locbase@H@std@@2HB 67db15d8     SapClassGui.obj
 0002:000085dc       ?monetary@?$_Locbase@H@std@@2HB 67db15dc     SapClassGui.obj
 0002:000085e0       ?numeric@?$_Locbase@H@std@@2HB 67db15e0     SapClassGui.obj
 0002:000085e4       ?time@?$_Locbase@H@std@@2HB 67db15e4     SapClassGui.obj
 0002:000085e8       ?messages@?$_Locbase@H@std@@2HB 67db15e8     SapClassGui.obj
 0002:000085ec       ?all@?$_Locbase@H@std@@2HB 67db15ec     SapClassGui.obj
 0002:000085f0       ?none@?$_Locbase@H@std@@2HB 67db15f0     SapClassGui.obj
 0002:000085f4       ?skipws@?$_Iosb@H@std@@2W4_Fmtflags@12@B 67db15f4     SapClassGui.obj
 0002:000085f8       ?unitbuf@?$_Iosb@H@std@@2W4_Fmtflags@12@B 67db15f8     SapClassGui.obj
 0002:000085fc       ?uppercase@?$_Iosb@H@std@@2W4_Fmtflags@12@B 67db15fc     SapClassGui.obj
 0002:00008600       ?showbase@?$_Iosb@H@std@@2W4_Fmtflags@12@B 67db1600     SapClassGui.obj
 0002:00008604       ?showpoint@?$_Iosb@H@std@@2W4_Fmtflags@12@B 67db1604     SapClassGui.obj
 0002:00008608       ?showpos@?$_Iosb@H@std@@2W4_Fmtflags@12@B 67db1608     SapClassGui.obj
 0002:0000860c       ?left@?$_Iosb@H@std@@2W4_Fmtflags@12@B 67db160c     SapClassGui.obj
 0002:00008610       ?right@?$_Iosb@H@std@@2W4_Fmtflags@12@B 67db1610     SapClassGui.obj
 0002:00008614       ?internal@?$_Iosb@H@std@@2W4_Fmtflags@12@B 67db1614     SapClassGui.obj
 0002:00008618       ?dec@?$_Iosb@H@std@@2W4_Fmtflags@12@B 67db1618     SapClassGui.obj
 0002:0000861c       ?oct@?$_Iosb@H@std@@2W4_Fmtflags@12@B 67db161c     SapClassGui.obj
 0002:00008620       ?hex@?$_Iosb@H@std@@2W4_Fmtflags@12@B 67db1620     SapClassGui.obj
 0002:00008624       ?scientific@?$_Iosb@H@std@@2W4_Fmtflags@12@B 67db1624     SapClassGui.obj
 0002:00008628       ?fixed@?$_Iosb@H@std@@2W4_Fmtflags@12@B 67db1628     SapClassGui.obj
 0002:0000862c       ?hexfloat@?$_Iosb@H@std@@2W4_Fmtflags@12@B 67db162c     SapClassGui.obj
 0002:00008630       ?boolalpha@?$_Iosb@H@std@@2W4_Fmtflags@12@B 67db1630     SapClassGui.obj
 0002:00008634       ?_Stdio@?$_Iosb@H@std@@2W4_Fmtflags@12@B 67db1634     SapClassGui.obj
 0002:00008638       ?adjustfield@?$_Iosb@H@std@@2W4_Fmtflags@12@B 67db1638     SapClassGui.obj
 0002:0000863c       ?basefield@?$_Iosb@H@std@@2W4_Fmtflags@12@B 67db163c     SapClassGui.obj
 0002:00008640       ?floatfield@?$_Iosb@H@std@@2W4_Fmtflags@12@B 67db1640     SapClassGui.obj
 0002:00008644       ?goodbit@?$_Iosb@H@std@@2W4_Iostate@12@B 67db1644     SapClassGui.obj
 0002:00008648       ?eofbit@?$_Iosb@H@std@@2W4_Iostate@12@B 67db1648     SapClassGui.obj
 0002:0000864c       ?failbit@?$_Iosb@H@std@@2W4_Iostate@12@B 67db164c     SapClassGui.obj
 0002:00008650       ?badbit@?$_Iosb@H@std@@2W4_Iostate@12@B 67db1650     SapClassGui.obj
 0002:00008654       ?_Hardfail@?$_Iosb@H@std@@2W4_Iostate@12@B 67db1654     SapClassGui.obj
 0002:00008658       ?in@?$_Iosb@H@std@@2W4_Openmode@12@B 67db1658     SapClassGui.obj
 0002:0000865c       ?out@?$_Iosb@H@std@@2W4_Openmode@12@B 67db165c     SapClassGui.obj
 0002:00008660       ?ate@?$_Iosb@H@std@@2W4_Openmode@12@B 67db1660     SapClassGui.obj
 0002:00008664       ?app@?$_Iosb@H@std@@2W4_Openmode@12@B 67db1664     SapClassGui.obj
 0002:00008668       ?trunc@?$_Iosb@H@std@@2W4_Openmode@12@B 67db1668     SapClassGui.obj
 0002:0000866c       ?_Nocreate@?$_Iosb@H@std@@2W4_Openmode@12@B 67db166c     SapClassGui.obj
 0002:00008670       ?_Noreplace@?$_Iosb@H@std@@2W4_Openmode@12@B 67db1670     SapClassGui.obj
 0002:00008674       ?binary@?$_Iosb@H@std@@2W4_Openmode@12@B 67db1674     SapClassGui.obj
 0002:00008678       ?beg@?$_Iosb@H@std@@2W4_Seekdir@12@B 67db1678     SapClassGui.obj
 0002:0000867c       ?cur@?$_Iosb@H@std@@2W4_Seekdir@12@B 67db167c     SapClassGui.obj
 0002:00008680       ?end@?$_Iosb@H@std@@2W4_Seekdir@12@B 67db1680     SapClassGui.obj
 0002:00008688       ??_7Thank_you@Define_the_symbol__ATL_MIXED@@6B@ 67db1688     SapClassGui.obj
 0002:00008690       ??_7CImageExWndEventHandler@@6B@ 67db1690     SapClassGui.obj
 0002:000086a8       ??_C@_0BG@POMAFMJP@Tiff?5Compression?5Type?$AA@ 67db16a8     TiffFileDlg.obj
 0002:000086c0       ??_C@_0BH@MGPIMPIL@Tiff?5Compression?5Level?$AA@ 67db16c0     TiffFileDlg.obj
 0002:000086dc       ??_7CTiffFileDlg@@6B@      67db16dc     TiffFileDlg.obj
 0002:000088c0       ??_C@_07LIIIPKDL@SapView?$AA@ 67db18c0     ViewDlg.obj
 0002:000088c8       ??_C@_0N@CMMLGDAK@Aspect?5Ratio?$AA@ 67db18c8     ViewDlg.obj
 0002:000088dc       ??_7CSpinButtonCtrl@@6B@   67db18dc     ViewDlg.obj
 0002:00008a4c       __real@3a83126f            67db1a4c     ViewDlg.obj
 0002:00008a50       __real@4cbebc20            67db1a50     ViewDlg.obj
 0002:00008a54       __real@00000000            67db1a54     ViewDlg.obj
 0002:00008a5c       ??_7CViewDlg@@6B@          67db1a5c     ViewDlg.obj
 0002:00008bec       ??_C@_0L@OJBBIBIN@?5?$CIpage?5?$CFd?$CJ?$AA@ 67db1bec     ViewDlg.obj
 0002:00008bf8       __real@42c80000            67db1bf8     ViewDlg.obj
 0002:00008db4       ??_7type_info@@6B@         67db1db4     msvcrt:ti_inst.obj
 0002:00008db8       __pDefaultRawDllMain       67db1db8     msvcrt:crtdll.obj
 0002:00008dc4       ?ProcessDetach@NativeDll@<CrtImplementationDetails>@@0IB 67db1dc4     msvcrt:tncleanup.obj
 0002:00008dc8       ?ProcessAttach@NativeDll@<CrtImplementationDetails>@@0IB 67db1dc8     msvcrt:tncleanup.obj
 0002:00008dcc       ?ThreadAttach@NativeDll@<CrtImplementationDetails>@@0IB 67db1dcc     msvcrt:tncleanup.obj
 0002:00008dd0       ?ThreadDetach@NativeDll@<CrtImplementationDetails>@@0IB 67db1dd0     msvcrt:tncleanup.obj
 0002:00008dd4       ?ProcessVerifier@NativeDll@<CrtImplementationDetails>@@0IB 67db1dd4     msvcrt:tncleanup.obj
 0002:00008dd8       __load_config_used         67db1dd8     msvcrt:loadcfg.obj
 0002:00008e20       ??_R4CAbortDlg@@6B@        67db1e20     AbortDlg.obj
 0002:00008e34       ??_R3CAbortDlg@@8          67db1e34     AbortDlg.obj
 0002:00008e44       ??_R2CAbortDlg@@8          67db1e44     AbortDlg.obj
 0002:00008e5c       ??_R1A@?0A@EA@CAbortDlg@@8 67db1e5c     AbortDlg.obj
 0002:00008e78       ??_R1A@?0A@EA@CDialog@@8   67db1e78     AbortDlg.obj
 0002:00008e94       ??_R3CDialog@@8            67db1e94     AbortDlg.obj
 0002:00008ea4       ??_R2CDialog@@8            67db1ea4     AbortDlg.obj
 0002:00008eb8       ??_R1A@?0A@EA@CWnd@@8      67db1eb8     AbortDlg.obj
 0002:00008ed4       ??_R3CWnd@@8               67db1ed4     AbortDlg.obj
 0002:00008ee4       ??_R2CWnd@@8               67db1ee4     AbortDlg.obj
 0002:00008ef4       ??_R1A@?0A@EA@CCmdTarget@@8 67db1ef4     AbortDlg.obj
 0002:00008f10       ??_R3CCmdTarget@@8         67db1f10     AbortDlg.obj
 0002:00008f20       ??_R2CCmdTarget@@8         67db1f20     AbortDlg.obj
 0002:00008f2c       ??_R1A@?0A@EA@CObject@@8   67db1f2c     AbortDlg.obj
 0002:00008f48       ??_R3CObject@@8            67db1f48     AbortDlg.obj
 0002:00008f58       ??_R2CObject@@8            67db1f58     AbortDlg.obj
 0002:00008f60       ??_R4CListBox@@6B@         67db1f60     AcqConfigDlg.obj
 0002:00008f74       ??_R3CListBox@@8           67db1f74     AcqConfigDlg.obj
 0002:00008f84       ??_R2CListBox@@8           67db1f84     AcqConfigDlg.obj
 0002:00008f98       ??_R1A@?0A@EA@CListBox@@8  67db1f98     AcqConfigDlg.obj
 0002:00008fb4       ??_R4CComboBox@@6B@        67db1fb4     AcqConfigDlg.obj
 0002:00008fc8       ??_R3CComboBox@@8          67db1fc8     AcqConfigDlg.obj
 0002:00008fd8       ??_R2CComboBox@@8          67db1fd8     AcqConfigDlg.obj
 0002:00008fec       ??_R1A@?0A@EA@CComboBox@@8 67db1fec     AcqConfigDlg.obj
 0002:00009008       ??_R4CEdit@@6B@            67db2008     AcqConfigDlg.obj
 0002:0000901c       ??_R3CEdit@@8              67db201c     AcqConfigDlg.obj
 0002:0000902c       ??_R2CEdit@@8              67db202c     AcqConfigDlg.obj
 0002:00009040       ??_R1A@?0A@EA@CEdit@@8     67db2040     AcqConfigDlg.obj
 0002:0000905c       ??_R4CAcqConfigDlg@@6BCDialog@@@ 67db205c     AcqConfigDlg.obj
 0002:00009070       ??_R3CAcqConfigDlg@@8      67db2070     AcqConfigDlg.obj
 0002:00009080       ??_R2CAcqConfigDlg@@8      67db2080     AcqConfigDlg.obj
 0002:0000909c       ??_R1A@?0A@EA@CAcqConfigDlg@@8 67db209c     AcqConfigDlg.obj
 0002:000090b8       ??_R1JE@?0A@EA@SapManager@@8 67db20b8     AcqConfigDlg.obj
 0002:000090d4       ??_R3SapManager@@8         67db20d4     AcqConfigDlg.obj
 0002:000090e4       ??_R2SapManager@@8         67db20e4     AcqConfigDlg.obj
 0002:000090ec       ??_R1A@?0A@EA@SapManager@@8 67db20ec     AcqConfigDlg.obj
 0002:00009108       ??_R4CAcqConfigDlg@@6BSapManager@@@ 67db2108     AcqConfigDlg.obj
 0002:0000911c       ??_R4CAcqDlg@@6BCDialog@@@ 67db211c     AcqDlg.obj
 0002:00009130       ??_R3CAcqDlg@@8            67db2130     AcqDlg.obj
 0002:00009140       ??_R2CAcqDlg@@8            67db2140     AcqDlg.obj
 0002:0000915c       ??_R1A@?0A@EA@CAcqDlg@@8   67db215c     AcqDlg.obj
 0002:00009178       ??_R4CAcqDlg@@6BSapManager@@@ 67db2178     AcqDlg.obj
 0002:0000918c       ??_R4CScrollBar@@6B@       67db218c     AScanDlg.obj
 0002:000091a0       ??_R3CScrollBar@@8         67db21a0     AScanDlg.obj
 0002:000091b0       ??_R2CScrollBar@@8         67db21b0     AScanDlg.obj
 0002:000091c4       ??_R1A@?0A@EA@CScrollBar@@8 67db21c4     AScanDlg.obj
 0002:000091e0       ??_R4CAScanDlg@@6BCDialog@@@ 67db21e0     AScanDlg.obj
 0002:000091f4       ??_R3CAScanDlg@@8          67db21f4     AScanDlg.obj
 0002:00009204       ??_R2CAScanDlg@@8          67db2204     AScanDlg.obj
 0002:00009220       ??_R1A@?0A@EA@CAScanDlg@@8 67db2220     AScanDlg.obj
 0002:0000923c       ??_R4CAScanDlg@@6BSapManager@@@ 67db223c     AScanDlg.obj
 0002:00009250       ??_R4CAviFileDlg@@6B@      67db2250     AviFileDlg.obj
 0002:00009264       ??_R3CAviFileDlg@@8        67db2264     AviFileDlg.obj
 0002:00009274       ??_R2CAviFileDlg@@8        67db2274     AviFileDlg.obj
 0002:0000928c       ??_R1A@?0A@EA@CAviFileDlg@@8 67db228c     AviFileDlg.obj
 0002:000092a8       ??_R4CBayerOptionsDlg@@6BCDialog@@@ 67db22a8     BayerDlg.obj
 0002:000092bc       ??_R3CBayerOptionsDlg@@8   67db22bc     BayerDlg.obj
 0002:000092cc       ??_R2CBayerOptionsDlg@@8   67db22cc     BayerDlg.obj
 0002:000092e8       ??_R1A@?0A@EA@CBayerOptionsDlg@@8 67db22e8     BayerDlg.obj
 0002:00009304       ??_R4CBayerOptionsDlg@@6BSapManager@@@ 67db2304     BayerDlg.obj
 0002:00009318       ??_R4CBufDlg@@6B@          67db2318     BufDlg.obj
 0002:0000932c       ??_R3CBufDlg@@8            67db232c     BufDlg.obj
 0002:0000933c       ??_R2CBufDlg@@8            67db233c     BufDlg.obj
 0002:00009354       ??_R1A@?0A@EA@CBufDlg@@8   67db2354     BufDlg.obj
 0002:00009370       ??_R4CCabDlg@@6BCDialog@@@ 67db2370     CabDlg.obj
 0002:00009384       ??_R3CCabDlg@@8            67db2384     CabDlg.obj
 0002:00009394       ??_R2CCabDlg@@8            67db2394     CabDlg.obj
 0002:000093b0       ??_R1A@?0A@EA@CCabDlg@@8   67db23b0     CabDlg.obj
 0002:000093cc       ??_R4CCabDlg@@6BSapManager@@@ 67db23cc     CabDlg.obj
 0002:000093e0       ??_R4SapCab@@6B@           67db23e0     CabDlg.obj
 0002:000093f4       ??_R3SapCab@@8             67db23f4     CabDlg.obj
 0002:00009404       ??_R2SapCab@@8             67db2404     CabDlg.obj
 0002:00009414       ??_R1A@?0A@EA@SapCab@@8    67db2414     CabDlg.obj
 0002:00009430       ??_R1A@?0A@EA@SapXferNode@@8 67db2430     CabDlg.obj
 0002:0000944c       ??_R3SapXferNode@@8        67db244c     CabDlg.obj
 0002:0000945c       ??_R2SapXferNode@@8        67db245c     CabDlg.obj
 0002:00009468       ??_R4CCamVicDlg@@6BCDialog@@@ 67db2468     CamVicDlg.obj
 0002:0000947c       ??_R3CCamVicDlg@@8         67db247c     CamVicDlg.obj
 0002:0000948c       ??_R2CCamVicDlg@@8         67db248c     CamVicDlg.obj
 0002:000094a8       ??_R1A@?0A@EA@CCamVicDlg@@8 67db24a8     CamVicDlg.obj
 0002:000094c4       ??_R4CCamVicDlg@@6BSapManager@@@ 67db24c4     CamVicDlg.obj
 0002:000094d8       ??_R4CColorConversionOptionsDlg@@6BCDialog@@@ 67db24d8     ColorConversionDlg.obj
 0002:000094ec       ??_R3CColorConversionOptionsDlg@@8 67db24ec     ColorConversionDlg.obj
 0002:000094fc       ??_R2CColorConversionOptionsDlg@@8 67db24fc     ColorConversionDlg.obj
 0002:00009518       ??_R1A@?0A@EA@CColorConversionOptionsDlg@@8 67db2518     ColorConversionDlg.obj
 0002:00009534       ??_R4CColorConversionOptionsDlg@@6BSapManager@@@ 67db2534     ColorConversionDlg.obj
 0002:00009548       ??_R4CSliderCtrl@@6B@      67db2548     CompDlg.obj
 0002:0000955c       ??_R3CSliderCtrl@@8        67db255c     CompDlg.obj
 0002:0000956c       ??_R2CSliderCtrl@@8        67db256c     CompDlg.obj
 0002:00009580       ??_R1A@?0A@EA@CSliderCtrl@@8 67db2580     CompDlg.obj
 0002:0000959c       ??_R4CCompDlg@@6BCDialog@@@ 67db259c     CompDlg.obj
 0002:000095b0       ??_R3CCompDlg@@8           67db25b0     CompDlg.obj
 0002:000095c0       ??_R2CCompDlg@@8           67db25c0     CompDlg.obj
 0002:000095dc       ??_R1A@?0A@EA@CCompDlg@@8  67db25dc     CompDlg.obj
 0002:000095f8       ??_R4CCompDlg@@6BSapManager@@@ 67db25f8     CompDlg.obj
 0002:0000960c       ??_R4CFlatFieldDlg@@6BCDialog@@@ 67db260c     FlatFieldDlg.obj
 0002:00009620       ??_R3CFlatFieldDlg@@8      67db2620     FlatFieldDlg.obj
 0002:00009630       ??_R2CFlatFieldDlg@@8      67db2630     FlatFieldDlg.obj
 0002:0000964c       ??_R1A@?0A@EA@CFlatFieldDlg@@8 67db264c     FlatFieldDlg.obj
 0002:00009668       ??_R4CFlatFieldDlg@@6BSapManager@@@ 67db2668     FlatFieldDlg.obj
 0002:0000967c       ??_R4CStatic@@6B@          67db267c     FlatFieldDlg.obj
 0002:00009690       ??_R3CStatic@@8            67db2690     FlatFieldDlg.obj
 0002:000096a0       ??_R2CStatic@@8            67db26a0     FlatFieldDlg.obj
 0002:000096b4       ??_R1A@?0A@EA@CStatic@@8   67db26b4     FlatFieldDlg.obj
 0002:000096d0       ??_R4CButton@@6B@          67db26d0     FlatFieldDlg.obj
 0002:000096e4       ??_R3CButton@@8            67db26e4     FlatFieldDlg.obj
 0002:000096f4       ??_R2CButton@@8            67db26f4     FlatFieldDlg.obj
 0002:00009708       ??_R1A@?0A@EA@CButton@@8   67db2708     FlatFieldDlg.obj
 0002:00009724       ??_R4SapBuffer@@6B@        67db2724     FlatFieldDlg.obj
 0002:00009738       ??_R3SapBuffer@@8          67db2738     FlatFieldDlg.obj
 0002:00009748       ??_R2SapBuffer@@8          67db2748     FlatFieldDlg.obj
 0002:00009758       ??_R1A@?0A@EA@SapBuffer@@8 67db2758     FlatFieldDlg.obj
 0002:00009774       ??_R4CGdiObject@@6B@       67db2774     GioBidirectionalDlg.obj
 0002:00009788       ??_R3CGdiObject@@8         67db2788     GioBidirectionalDlg.obj
 0002:00009798       ??_R2CGdiObject@@8         67db2798     GioBidirectionalDlg.obj
 0002:000097a4       ??_R1A@?0A@EA@CGdiObject@@8 67db27a4     GioBidirectionalDlg.obj
 0002:000097c0       ??_R4CBrush@@6B@           67db27c0     GioBidirectionalDlg.obj
 0002:000097d4       ??_R3CBrush@@8             67db27d4     GioBidirectionalDlg.obj
 0002:000097e4       ??_R2CBrush@@8             67db27e4     GioBidirectionalDlg.obj
 0002:000097f4       ??_R1A@?0A@EA@CBrush@@8    67db27f4     GioBidirectionalDlg.obj
 0002:00009810       ??_R4CGioBidirectionalDlg@@6B@ 67db2810     GioBidirectionalDlg.obj
 0002:00009824       ??_R3CGioBidirectionalDlg@@8 67db2824     GioBidirectionalDlg.obj
 0002:00009834       ??_R2CGioBidirectionalDlg@@8 67db2834     GioBidirectionalDlg.obj
 0002:0000984c       ??_R1A@?0A@EA@CGioBidirectionalDlg@@8 67db284c     GioBidirectionalDlg.obj
 0002:00009868       ??_R4CGioInputDlg@@6B@     67db2868     GioInputDlg.obj
 0002:0000987c       ??_R3CGioInputDlg@@8       67db287c     GioInputDlg.obj
 0002:0000988c       ??_R2CGioInputDlg@@8       67db288c     GioInputDlg.obj
 0002:000098a4       ??_R1A@?0A@EA@CGioInputDlg@@8 67db28a4     GioInputDlg.obj
 0002:000098c0       ??_R4CGioOutputDlg@@6B@    67db28c0     GioOutputDlg.obj
 0002:000098d4       ??_R3CGioOutputDlg@@8      67db28d4     GioOutputDlg.obj
 0002:000098e4       ??_R2CGioOutputDlg@@8      67db28e4     GioOutputDlg.obj
 0002:000098fc       ??_R1A@?0A@EA@CGioOutputDlg@@8 67db28fc     GioOutputDlg.obj
 0002:00009918       ??_R4CPen@@6B@             67db2918     ImageExWnd.obj
 0002:0000992c       ??_R3CPen@@8               67db292c     ImageExWnd.obj
 0002:0000993c       ??_R2CPen@@8               67db293c     ImageExWnd.obj
 0002:0000994c       ??_R1A@?0A@EA@CPen@@8      67db294c     ImageExWnd.obj
 0002:00009968       ??_R4CBitmap@@6B@          67db2968     ImageExWnd.obj
 0002:0000997c       ??_R3CBitmap@@8            67db297c     ImageExWnd.obj
 0002:0000998c       ??_R2CBitmap@@8            67db298c     ImageExWnd.obj
 0002:0000999c       ??_R1A@?0A@EA@CBitmap@@8   67db299c     ImageExWnd.obj
 0002:000099b8       ??_R4CRgn@@6B@             67db29b8     ImageExWnd.obj
 0002:000099cc       ??_R3CRgn@@8               67db29cc     ImageExWnd.obj
 0002:000099dc       ??_R2CRgn@@8               67db29dc     ImageExWnd.obj
 0002:000099ec       ??_R1A@?0A@EA@CRgn@@8      67db29ec     ImageExWnd.obj
 0002:00009a08       ??_R4CImageViewportWndEventHandler@@6B@ 67db2a08     ImageExWnd.obj
 0002:00009a1c       ??_R3CImageViewportWndEventHandler@@8 67db2a1c     ImageExWnd.obj
 0002:00009a2c       ??_R2CImageViewportWndEventHandler@@8 67db2a2c     ImageExWnd.obj
 0002:00009a34       ??_R1A@?0A@EA@CImageViewportWndEventHandler@@8 67db2a34     ImageExWnd.obj
 0002:00009a50       ??_R4CImageExWnd@@6BCStatic@@@ 67db2a50     ImageExWnd.obj
 0002:00009a64       ??_R3CImageExWnd@@8        67db2a64     ImageExWnd.obj
 0002:00009a74       ??_R2CImageExWnd@@8        67db2a74     ImageExWnd.obj
 0002:00009a90       ??_R1A@?0A@EA@CImageExWnd@@8 67db2a90     ImageExWnd.obj
 0002:00009aac       ??_R1HE@?0A@EA@CImageViewportWndEventHandler@@8 67db2aac     ImageExWnd.obj
 0002:00009ac8       ??_R4CImageExWnd@@6BCImageViewportWndEventHandler@@@ 67db2ac8     ImageExWnd.obj
 0002:00009adc       ??_R4bad_alloc@std@@6B@    67db2adc     ImageFilterEditorDlg.obj
 0002:00009af0       ??_R3bad_alloc@std@@8      67db2af0     ImageFilterEditorDlg.obj
 0002:00009b00       ??_R2bad_alloc@std@@8      67db2b00     ImageFilterEditorDlg.obj
 0002:00009b0c       ??_R1A@?0A@EA@bad_alloc@std@@8 67db2b0c     ImageFilterEditorDlg.obj
 0002:00009b28       ??_R1A@?0A@EA@exception@std@@8 67db2b28     ImageFilterEditorDlg.obj
 0002:00009b44       ??_R3exception@std@@8      67db2b44     ImageFilterEditorDlg.obj
 0002:00009b54       ??_R2exception@std@@8      67db2b54     ImageFilterEditorDlg.obj
 0002:00009b5c       ??_R4CImageFilterEditorDlg@@6B@ 67db2b5c     ImageFilterEditorDlg.obj
 0002:00009b70       ??_R3CImageFilterEditorDlg@@8 67db2b70     ImageFilterEditorDlg.obj
 0002:00009b80       ??_R2CImageFilterEditorDlg@@8 67db2b80     ImageFilterEditorDlg.obj
 0002:00009b98       ??_R1A@?0A@EA@CImageFilterEditorDlg@@8 67db2b98     ImageFilterEditorDlg.obj
 0002:00009bb4       ??_R4?$basic_stringbuf@DU?$char_traits@D@std@@V?$allocator@D@2@@std@@6B@ 67db2bb4     ImageFilterEditorDlg.obj
 0002:00009bc8       ??_R3?$basic_stringbuf@DU?$char_traits@D@std@@V?$allocator@D@2@@std@@8 67db2bc8     ImageFilterEditorDlg.obj
 0002:00009bd8       ??_R2?$basic_stringbuf@DU?$char_traits@D@std@@V?$allocator@D@2@@std@@8 67db2bd8     ImageFilterEditorDlg.obj
 0002:00009be4       ??_R1A@?0A@EA@?$basic_stringbuf@DU?$char_traits@D@std@@V?$allocator@D@2@@std@@8 67db2be4     ImageFilterEditorDlg.obj
 0002:00009c00       ??_R1A@?0A@EA@?$basic_streambuf@DU?$char_traits@D@std@@@std@@8 67db2c00     ImageFilterEditorDlg.obj
 0002:00009c1c       ??_R3?$basic_streambuf@DU?$char_traits@D@std@@@std@@8 67db2c1c     ImageFilterEditorDlg.obj
 0002:00009c2c       ??_R2?$basic_streambuf@DU?$char_traits@D@std@@@std@@8 67db2c2c     ImageFilterEditorDlg.obj
 0002:00009c34       ??_R4?$basic_istringstream@DU?$char_traits@D@std@@V?$allocator@D@2@@std@@6B@ 67db2c34     ImageFilterEditorDlg.obj
 0002:00009c48       ??_R3?$basic_istringstream@DU?$char_traits@D@std@@V?$allocator@D@2@@std@@8 67db2c48     ImageFilterEditorDlg.obj
 0002:00009c58       ??_R2?$basic_istringstream@DU?$char_traits@D@std@@V?$allocator@D@2@@std@@8 67db2c58     ImageFilterEditorDlg.obj
 0002:00009c70       ??_R1A@?0A@EA@?$basic_istringstream@DU?$char_traits@D@std@@V?$allocator@D@2@@std@@8 67db2c70     ImageFilterEditorDlg.obj
 0002:00009c8c       ??_R1A@?0A@EA@?$basic_istream@DU?$char_traits@D@std@@@std@@8 67db2c8c     ImageFilterEditorDlg.obj
 0002:00009ca8       ??_R3?$basic_istream@DU?$char_traits@D@std@@@std@@8 67db2ca8     ImageFilterEditorDlg.obj
 0002:00009cb8       ??_R2?$basic_istream@DU?$char_traits@D@std@@@std@@8 67db2cb8     ImageFilterEditorDlg.obj
 0002:00009ccc       ??_R1A@A@3FA@?$basic_ios@DU?$char_traits@D@std@@@std@@8 67db2ccc     ImageFilterEditorDlg.obj
 0002:00009ce8       ??_R3?$basic_ios@DU?$char_traits@D@std@@@std@@8 67db2ce8     ImageFilterEditorDlg.obj
 0002:00009cf8       ??_R2?$basic_ios@DU?$char_traits@D@std@@@std@@8 67db2cf8     ImageFilterEditorDlg.obj
 0002:00009d08       ??_R1A@?0A@EA@?$basic_ios@DU?$char_traits@D@std@@@std@@8 67db2d08     ImageFilterEditorDlg.obj
 0002:00009d24       ??_R1A@?0A@EA@ios_base@std@@8 67db2d24     ImageFilterEditorDlg.obj
 0002:00009d40       ??_R3ios_base@std@@8       67db2d40     ImageFilterEditorDlg.obj
 0002:00009d50       ??_R2ios_base@std@@8       67db2d50     ImageFilterEditorDlg.obj
 0002:00009d5c       ??_R17?0A@EA@?$_Iosb@H@std@@8 67db2d5c     ImageFilterEditorDlg.obj
 0002:00009d78       ??_R3?$_Iosb@H@std@@8      67db2d78     ImageFilterEditorDlg.obj
 0002:00009d88       ??_R2?$_Iosb@H@std@@8      67db2d88     ImageFilterEditorDlg.obj
 0002:00009d90       ??_R1A@?0A@EA@?$_Iosb@H@std@@8 67db2d90     ImageFilterEditorDlg.obj
 0002:00009dac       ??_R1A@A@3EA@ios_base@std@@8 67db2dac     ImageFilterEditorDlg.obj
 0002:00009dc8       ??_R17A@3EA@?$_Iosb@H@std@@8 67db2dc8     ImageFilterEditorDlg.obj
 0002:00009de4       ??_R4CImageViewportWnd@@6B@ 67db2de4     ImageViewportWnd.obj
 0002:00009df8       ??_R3CImageViewportWnd@@8  67db2df8     ImageViewportWnd.obj
 0002:00009e08       ??_R2CImageViewportWnd@@8  67db2e08     ImageViewportWnd.obj
 0002:00009e20       ??_R1A@?0A@EA@CImageViewportWnd@@8 67db2e20     ImageViewportWnd.obj
 0002:00009e3c       ??_R4CRectTracker@@6B@     67db2e3c     ImageWnd.obj
 0002:00009e50       ??_R3CRectTracker@@8       67db2e50     ImageWnd.obj
 0002:00009e60       ??_R2CRectTracker@@8       67db2e60     ImageWnd.obj
 0002:00009e68       ??_R1A@?0A@EA@CRectTracker@@8 67db2e68     ImageWnd.obj
 0002:00009e84       ??_R4CSapRectTracker@@6B@  67db2e84     ImageWnd.obj
 0002:00009e98       ??_R3CSapRectTracker@@8    67db2e98     ImageWnd.obj
 0002:00009ea8       ??_R2CSapRectTracker@@8    67db2ea8     ImageWnd.obj
 0002:00009eb4       ??_R1A@?0A@EA@CSapRectTracker@@8 67db2eb4     ImageWnd.obj
 0002:00009ed0       ??_R4CImageWnd@@6B@        67db2ed0     ImageWnd.obj
 0002:00009ee4       ??_R3CImageWnd@@8          67db2ee4     ImageWnd.obj
 0002:00009ef4       ??_R2CImageWnd@@8          67db2ef4     ImageWnd.obj
 0002:00009efc       ??_R1A@?0A@EA@CImageWnd@@8 67db2efc     ImageWnd.obj
 0002:00009f18       ??_R4CJpegFileDlg@@6B@     67db2f18     JpegFileDlg.obj
 0002:00009f2c       ??_R3CJpegFileDlg@@8       67db2f2c     JpegFileDlg.obj
 0002:00009f3c       ??_R2CJpegFileDlg@@8       67db2f3c     JpegFileDlg.obj
 0002:00009f54       ??_R1A@?0A@EA@CJpegFileDlg@@8 67db2f54     JpegFileDlg.obj
 0002:00009f70       ??_R4CLoadSaveDlg@@6B@     67db2f70     LoadSaveDlg.obj
 0002:00009f84       ??_R3CLoadSaveDlg@@8       67db2f84     LoadSaveDlg.obj
 0002:00009f94       ??_R2CLoadSaveDlg@@8       67db2f94     LoadSaveDlg.obj
 0002:00009fb4       ??_R1A@?0A@EA@CLoadSaveDlg@@8 67db2fb4     LoadSaveDlg.obj
 0002:00009fd0       ??_R1A@?0A@EA@CFileDialog@@8 67db2fd0     LoadSaveDlg.obj
 0002:00009fec       ??_R3CFileDialog@@8        67db2fec     LoadSaveDlg.obj
 0002:00009ffc       ??_R2CFileDialog@@8        67db2ffc     LoadSaveDlg.obj
 0002:0000a018       ??_R1A@?0A@EA@CCommonDialog@@8 67db3018     LoadSaveDlg.obj
 0002:0000a034       ??_R3CCommonDialog@@8      67db3034     LoadSaveDlg.obj
 0002:0000a044       ??_R2CCommonDialog@@8      67db3044     LoadSaveDlg.obj
 0002:0000a05c       ??_R4CLScanDlg@@6BCDialog@@@ 67db305c     LScanDlg.obj
 0002:0000a070       ??_R3CLScanDlg@@8          67db3070     LScanDlg.obj
 0002:0000a080       ??_R2CLScanDlg@@8          67db3080     LScanDlg.obj
 0002:0000a09c       ??_R1A@?0A@EA@CLScanDlg@@8 67db309c     LScanDlg.obj
 0002:0000a0b8       ??_R4CLScanDlg@@6BSapManager@@@ 67db30b8     LScanDlg.obj
 0002:0000a0cc       ??_R4CPixProAbsSubDlg@@6B@ 67db30cc     PixProAbsSubDlg.obj
 0002:0000a0e0       ??_R3CPixProAbsSubDlg@@8   67db30e0     PixProAbsSubDlg.obj
 0002:0000a0f0       ??_R2CPixProAbsSubDlg@@8   67db30f0     PixProAbsSubDlg.obj
 0002:0000a108       ??_R1A@?0A@EA@CPixProAbsSubDlg@@8 67db3108     PixProAbsSubDlg.obj
 0002:0000a124       ??_R4CPixProDlg@@6B@       67db3124     PixProDlg.obj
 0002:0000a138       ??_R3CPixProDlg@@8         67db3138     PixProDlg.obj
 0002:0000a148       ??_R2CPixProDlg@@8         67db3148     PixProDlg.obj
 0002:0000a160       ??_R1A@?0A@EA@CPixProDlg@@8 67db3160     PixProDlg.obj
 0002:0000a17c       ??_R4CPixProIntScaleDlg@@6B@ 67db317c     PixProIntScaleDlg.obj
 0002:0000a190       ??_R3CPixProIntScaleDlg@@8 67db3190     PixProIntScaleDlg.obj
 0002:0000a1a0       ??_R2CPixProIntScaleDlg@@8 67db31a0     PixProIntScaleDlg.obj
 0002:0000a1b8       ??_R1A@?0A@EA@CPixProIntScaleDlg@@8 67db31b8     PixProIntScaleDlg.obj
 0002:0000a1d4       ??_R4CPixProRefImageDlg@@6B@ 67db31d4     PixProRefImageDlg.obj
 0002:0000a1e8       ??_R3CPixProRefImageDlg@@8 67db31e8     PixProRefImageDlg.obj
 0002:0000a1f8       ??_R2CPixProRefImageDlg@@8 67db31f8     PixProRefImageDlg.obj
 0002:0000a210       ??_R1A@?0A@EA@CPixProRefImageDlg@@8 67db3210     PixProRefImageDlg.obj
 0002:0000a22c       ??_R4CPixProUflowSubDlg@@6B@ 67db322c     PixProUflowSubDlg.obj
 0002:0000a240       ??_R3CPixProUflowSubDlg@@8 67db3240     PixProUflowSubDlg.obj
 0002:0000a250       ??_R2CPixProUflowSubDlg@@8 67db3250     PixProUflowSubDlg.obj
 0002:0000a268       ??_R1A@?0A@EA@CPixProUflowSubDlg@@8 67db3268     PixProUflowSubDlg.obj
 0002:0000a284       ??_R4CPixProWAvgDlg@@6B@   67db3284     PixProWAvgDlg.obj
 0002:0000a298       ??_R3CPixProWAvgDlg@@8     67db3298     PixProWAvgDlg.obj
 0002:0000a2a8       ??_R2CPixProWAvgDlg@@8     67db32a8     PixProWAvgDlg.obj
 0002:0000a2c0       ??_R1A@?0A@EA@CPixProWAvgDlg@@8 67db32c0     PixProWAvgDlg.obj
 0002:0000a2dc       ??_R4CRawFileDlg@@6B@      67db32dc     RawFileDlg.obj
 0002:0000a2f0       ??_R3CRawFileDlg@@8        67db32f0     RawFileDlg.obj
 0002:0000a300       ??_R2CRawFileDlg@@8        67db3300     RawFileDlg.obj
 0002:0000a318       ??_R1A@?0A@EA@CRawFileDlg@@8 67db3318     RawFileDlg.obj
 0002:0000a334       ??_R4Thank_you@Define_the_symbol__ATL_MIXED@@6B@ 67db3334     SapClassGui.obj
 0002:0000a348       ??_R3Thank_you@Define_the_symbol__ATL_MIXED@@8 67db3348     SapClassGui.obj
 0002:0000a358       ??_R2Thank_you@Define_the_symbol__ATL_MIXED@@8 67db3358     SapClassGui.obj
 0002:0000a360       ??_R1A@?0A@EA@Thank_you@Define_the_symbol__ATL_MIXED@@8 67db3360     SapClassGui.obj
 0002:0000a37c       ??_R4CImageExWndEventHandler@@6B@ 67db337c     SapClassGui.obj
 0002:0000a390       ??_R3CImageExWndEventHandler@@8 67db3390     SapClassGui.obj
 0002:0000a3a0       ??_R2CImageExWndEventHandler@@8 67db33a0     SapClassGui.obj
 0002:0000a3ac       ??_R1A@?0A@EA@CImageExWndEventHandler@@8 67db33ac     SapClassGui.obj
 0002:0000a3c8       ??_R4CTiffFileDlg@@6B@     67db33c8     TiffFileDlg.obj
 0002:0000a3dc       ??_R3CTiffFileDlg@@8       67db33dc     TiffFileDlg.obj
 0002:0000a3ec       ??_R2CTiffFileDlg@@8       67db33ec     TiffFileDlg.obj
 0002:0000a404       ??_R1A@?0A@EA@CTiffFileDlg@@8 67db3404     TiffFileDlg.obj
 0002:0000a420       ??_R4CSpinButtonCtrl@@6B@  67db3420     ViewDlg.obj
 0002:0000a434       ??_R3CSpinButtonCtrl@@8    67db3434     ViewDlg.obj
 0002:0000a444       ??_R2CSpinButtonCtrl@@8    67db3444     ViewDlg.obj
 0002:0000a458       ??_R1A@?0A@EA@CSpinButtonCtrl@@8 67db3458     ViewDlg.obj
 0002:0000a474       ??_R4CViewDlg@@6B@         67db3474     ViewDlg.obj
 0002:0000a488       ??_R3CViewDlg@@8           67db3488     ViewDlg.obj
 0002:0000a498       ??_R2CViewDlg@@8           67db3498     ViewDlg.obj
 0002:0000a4b0       ??_R1A@?0A@EA@CViewDlg@@8  67db34b0     ViewDlg.obj
 0002:0000a4cc       ??_R4type_info@@6B@        67db34cc     msvcrt:ti_inst.obj
 0002:0000a4e0       ??_R3type_info@@8          67db34e0     msvcrt:ti_inst.obj
 0002:0000a4f0       ??_R2type_info@@8          67db34f0     msvcrt:ti_inst.obj
 0002:0000a4f8       ??_R1A@?0A@EA@type_info@@8 67db34f8     msvcrt:ti_inst.obj
 0002:0000a520       ___safe_se_handler_table   67db3520     <linker-defined>
 0002:0000a7d0       ___rtc_iaa                 67db37d0     msvcrt:_initsect_.obj
 0002:0000a7d4       ___rtc_izz                 67db37d4     msvcrt:_initsect_.obj
 0002:0000a7d8       ___rtc_taa                 67db37d8     msvcrt:_initsect_.obj
 0002:0000a7dc       ___rtc_tzz                 67db37dc     msvcrt:_initsect_.obj
 0002:0000c2f8       __TI2?AVbad_alloc@std@@    67db52f8     ImageFilterEditorDlg.obj
 0002:0000c308       __CTA2?AVbad_alloc@std@@   67db5308     ImageFilterEditorDlg.obj
 0002:0000c314       __CT??_R0?AVbad_alloc@std@@@8??0bad_alloc@std@@QAE@ABV01@@Z12 67db5314     ImageFilterEditorDlg.obj
 0002:0000c330       __CT??_R0?AVexception@std@@@8??0exception@std@@QAE@ABV01@@Z12 67db5330     ImageFilterEditorDlg.obj
 0002:0000d374       ___pobjMapEntryFirst       67db6374     SapClassGui.obj
 0002:0000d378       ___pobjMapEntryLast        67db6378     SapClassGui.obj
 0002:0000d37c       __IMPORT_DESCRIPTOR_CORAPI 67db637c     Corapi:CORAPI.dll
 0002:0000d390       __IMPORT_DESCRIPTOR_SapClassBasic82 67db6390     SapClassBasic:SapClassBasic82.dll
 0002:0000d3a4       __IMPORT_DESCRIPTOR_mfc100 67db63a4     mfc100:mfc100.dll
 0002:0000d3b8       __IMPORT_DESCRIPTOR_MSVCR100 67db63b8     msvcrt:MSVCR100.dll
 0002:0000d3cc       __IMPORT_DESCRIPTOR_KERNEL32 67db63cc     kernel32:KERNEL32.dll
 0002:0000d3e0       __IMPORT_DESCRIPTOR_USER32 67db63e0     user32:USER32.dll
 0002:0000d3f4       __IMPORT_DESCRIPTOR_GDI32  67db63f4     gdi32:GDI32.dll
 0002:0000d408       __IMPORT_DESCRIPTOR_COMDLG32 67db6408     comdlg32:COMDLG32.dll
 0002:0000d41c       __IMPORT_DESCRIPTOR_OLEAUT32 67db641c     oleaut32:OLEAUT32.dll
 0002:0000d430       __IMPORT_DESCRIPTOR_MSVCP100 67db6430     msvcprt:MSVCP100.dll
 0002:0000d444       __NULL_IMPORT_DESCRIPTOR   67db6444     Corapi:CORAPI.dll
 0003:00000000       ??_R0?AVCAbortDlg@@@8      67dc4000     AbortDlg.obj
 0003:00000018       ??_R0?AVCDialog@@@8        67dc4018     AbortDlg.obj
 0003:00000030       ??_R0?AVCWnd@@@8           67dc4030     AbortDlg.obj
 0003:00000044       ??_R0?AVCCmdTarget@@@8     67dc4044     AbortDlg.obj
 0003:00000060       ??_R0?AVCObject@@@8        67dc4060     AbortDlg.obj
 0003:0000008c       ??_R0?AVCListBox@@@8       67dc408c     AcqConfigDlg.obj
 0003:000000a4       ??_R0?AVCComboBox@@@8      67dc40a4     AcqConfigDlg.obj
 0003:000000bc       ??_R0?AVCEdit@@@8          67dc40bc     AcqConfigDlg.obj
 0003:000000d0       ??_R0?AVCAcqConfigDlg@@@8  67dc40d0     AcqConfigDlg.obj
 0003:000000ec       ??_R0?AVSapManager@@@8     67dc40ec     AcqConfigDlg.obj
 0003:00000108       ??_R0?AVCAcqDlg@@@8        67dc4108     AcqDlg.obj
 0003:00000120       ??_R0?AVCScrollBar@@@8     67dc4120     AScanDlg.obj
 0003:0000013c       ??_R0?AVCAScanDlg@@@8      67dc413c     AScanDlg.obj
 0003:00000154       ??_R0?AVCAviFileDlg@@@8    67dc4154     AviFileDlg.obj
 0003:00000170       ?m_AlignValues@CBayerOptionsDlg@@0PAHA 67dc4170     BayerDlg.obj
 0003:00000180       ?m_MethodValues@CBayerOptionsDlg@@0PAHA 67dc4180     BayerDlg.obj
 0003:00000198       ??_R0?AVCBayerOptionsDlg@@@8 67dc4198     BayerDlg.obj
 0003:000001b8       ?m_FormatInfo@CBufDlg@@1PAVSapFormatInfo@@A 67dc41b8     BufDlg.obj
 0003:000002b0       ??_R0?AVCBufDlg@@@8        67dc42b0     BufDlg.obj
 0003:000002c8       ?m_transferModeInfo@CCabDlg@@1PAUTRANSFERMODEINFO@@A 67dc42c8     CabDlg.obj
 0003:000002f0       ?m_chControlId@CCabDlg@@1PAHA 67dc42f0     CabDlg.obj
 0003:00000330       ??_R0?AVCCabDlg@@@8        67dc4330     CabDlg.obj
 0003:00000348       ??_R0?AVSapCab@@@8         67dc4348     CabDlg.obj
 0003:00000360       ??_R0?AVSapXferNode@@@8    67dc4360     CabDlg.obj
 0003:00000394       ??_R0?AVCCamVicDlg@@@8     67dc4394     CamVicDlg.obj
 0003:000003b0       ?m_Aligns@CColorConversionOptionsDlg@@0PAHA 67dc43b0     ColorConversionDlg.obj
 0003:000003c8       ??_R0?AVCColorConversionOptionsDlg@@@8 67dc43c8     ColorConversionDlg.obj
 0003:000003f4       ??_R0?AVCSliderCtrl@@@8    67dc43f4     CompDlg.obj
 0003:00000410       ??_R0?AVCCompDlg@@@8       67dc4410     CompDlg.obj
 0003:00000428       ??_R0?AVCFlatFieldDlg@@@8  67dc4428     FlatFieldDlg.obj
 0003:00000444       ??_R0?AVCStatic@@@8        67dc4444     FlatFieldDlg.obj
 0003:0000045c       ??_R0?AVCButton@@@8        67dc445c     FlatFieldDlg.obj
 0003:00000474       ??_R0PAVCException@@@8     67dc4474     FlatFieldDlg.obj
 0003:00000490       ??_R0?AVSapBuffer@@@8      67dc4490     FlatFieldDlg.obj
 0003:000004a8       ??_R0?AVCGdiObject@@@8     67dc44a8     GioBidirectionalDlg.obj
 0003:000004c4       ??_R0?AVCBrush@@@8         67dc44c4     GioBidirectionalDlg.obj
 0003:000004dc       ??_R0?AVCGioBidirectionalDlg@@@8 67dc44dc     GioBidirectionalDlg.obj
 0003:00000500       ??_R0?AVCGioInputDlg@@@8   67dc4500     GioInputDlg.obj
 0003:0000051c       ??_R0?AVCGioOutputDlg@@@8  67dc451c     GioOutputDlg.obj
 0003:00000538       ??_R0?AVCPen@@@8           67dc4538     ImageExWnd.obj
 0003:0000054c       ??_R0?AVCBitmap@@@8        67dc454c     ImageExWnd.obj
 0003:00000564       ??_R0?AVCRgn@@@8           67dc4564     ImageExWnd.obj
 0003:00000578       ??_R0?AVCImageViewportWndEventHandler@@@8 67dc4578     ImageExWnd.obj
 0003:000005a4       ??_R0?AVCImageExWnd@@@8    67dc45a4     ImageExWnd.obj
 0003:000005c0       ??_R0?AVbad_alloc@std@@@8  67dc45c0     ImageFilterEditorDlg.obj
 0003:000005dc       ??_R0?AVexception@std@@@8  67dc45dc     ImageFilterEditorDlg.obj
 0003:000005f8       ??_R0?AVCImageFilterEditorDlg@@@8 67dc45f8     ImageFilterEditorDlg.obj
 0003:00000620       ??_R0?AV?$basic_stringbuf@DU?$char_traits@D@std@@V?$allocator@D@2@@std@@@8 67dc4620     ImageFilterEditorDlg.obj
 0003:00000670       ??_R0?AV?$basic_streambuf@DU?$char_traits@D@std@@@std@@@8 67dc4670     ImageFilterEditorDlg.obj
 0003:000006b0       ??_R0?AV?$basic_istringstream@DU?$char_traits@D@std@@V?$allocator@D@2@@std@@@8 67dc46b0     ImageFilterEditorDlg.obj
 0003:00000704       ??_R0?AV?$basic_istream@DU?$char_traits@D@std@@@std@@@8 67dc4704     ImageFilterEditorDlg.obj
 0003:00000740       ??_R0?AV?$basic_ios@DU?$char_traits@D@std@@@std@@@8 67dc4740     ImageFilterEditorDlg.obj
 0003:00000778       ??_R0?AVios_base@std@@@8   67dc4778     ImageFilterEditorDlg.obj
 0003:00000794       ??_R0?AV?$_Iosb@H@std@@@8  67dc4794     ImageFilterEditorDlg.obj
 0003:000007b0       ??_R0?AVCImageViewportWnd@@@8 67dc47b0     ImageViewportWnd.obj
 0003:000007d0       ??_R0?AVCRectTracker@@@8   67dc47d0     ImageWnd.obj
 0003:000007ec       ??_R0?AVCSapRectTracker@@@8 67dc47ec     ImageWnd.obj
 0003:0000080c       ??_R0?AVCImageWnd@@@8      67dc480c     ImageWnd.obj
 0003:00000824       ?_dwStockPropMask@CJpegFileDlg@@0KA 67dc4824     JpegFileDlg.obj
 0003:00000828       ?_dispatchEntryCount@CJpegFileDlg@@0IA 67dc4828     JpegFileDlg.obj
 0003:0000082c       ??_R0?AVCJpegFileDlg@@@8   67dc482c     JpegFileDlg.obj
 0003:00000848       ?m_TiffCompressionTypes@CLoadSaveDlg@@1PAPADA 67dc4848     LoadSaveDlg.obj
 0003:00000858       ?m_StandardTypes@CLoadSaveDlg@@1PAHA 67dc4858     LoadSaveDlg.obj
 0003:00000870       ?m_StandardExtensions@CLoadSaveDlg@@1PAY04DA 67dc4870     LoadSaveDlg.obj
 0003:00000890       ?m_SequenceTypes@CLoadSaveDlg@@1PAHA 67dc4890     LoadSaveDlg.obj
 0003:00000898       ?m_ConversionTable@CLoadSaveDlg@@1PAUCONVERSION_TABLE@@A 67dc4898     LoadSaveDlg.obj
 0003:00000d68       ??_R0?AVCLoadSaveDlg@@@8   67dc4d68     LoadSaveDlg.obj
 0003:00000d84       ??_R0?AVCFileDialog@@@8    67dc4d84     LoadSaveDlg.obj
 0003:00000da0       ??_R0?AVCCommonDialog@@@8  67dc4da0     LoadSaveDlg.obj
 0003:00000dbc       ??_R0?AVCLScanDlg@@@8      67dc4dbc     LScanDlg.obj
 0003:00000dd4       ??_R0?AVCPixProAbsSubDlg@@@8 67dc4dd4     PixProAbsSubDlg.obj
 0003:00000df4       ??_R0?AVCPixProDlg@@@8     67dc4df4     PixProDlg.obj
 0003:00000e10       ??_R0?AVCPixProIntScaleDlg@@@8 67dc4e10     PixProIntScaleDlg.obj
 0003:00000e34       ??_R0?AVCPixProRefImageDlg@@@8 67dc4e34     PixProRefImageDlg.obj
 0003:00000e58       ??_R0?AVCPixProUflowSubDlg@@@8 67dc4e58     PixProUflowSubDlg.obj
 0003:00000e7c       ??_R0?AVCPixProWAvgDlg@@@8 67dc4e7c     PixProWAvgDlg.obj
 0003:00000ea0       ?m_FormatInfo@CRawFileDlg@@1PAVSapFormatInfo@@A 67dc4ea0     RawFileDlg.obj
 0003:00000f98       ??_R0?AVCRawFileDlg@@@8    67dc4f98     RawFileDlg.obj
 0003:00000fb4       __pIncludeInitManaged      67dc4fb4     SapClassGui.obj
 0003:00000fb8       ??_R0?AUThank_you@Define_the_symbol__ATL_MIXED@@@8 67dc4fb8     SapClassGui.obj
 0003:00000ff0       ??_R0?AVCImageExWndEventHandler@@@8 67dc4ff0     SapClassGui.obj
 0003:00001018       ?clash@Define_the_symbol__ATL_MIXED@@3UThank_you@1@A 67dc5018     SapClassGui.obj
 0003:0000101c       ??_R0?AVCTiffFileDlg@@@8   67dc501c     TiffFileDlg.obj
 0003:00001038       ??_R0?AVCSpinButtonCtrl@@@8 67dc5038     ViewDlg.obj
 0003:00001058       ??_R0?AVCViewDlg@@@8       67dc5058     ViewDlg.obj
 0003:00001070       ??_R0?AVtype_info@@@8      67dc5070     msvcrt:ti_inst.obj
 0003:00001088       ___security_cookie         67dc5088     msvcrt:gs_cookie.obj
 0003:0000108c       ___security_cookie_complement 67dc508c     msvcrt:gs_cookie.obj
 0003:00001090       ___native_dllmain_reason   67dc5090     msvcrt:natstart.obj
 0003:00001094       ___native_vcclrit_reason   67dc5094     msvcrt:natstart.obj
 0003:00001098       ?m_Methods@CColorConversionOptionsDlg@@0PAUSapColorConversionMethodDictionary@@A 67dc5098     ColorConversionDlg.obj
 0003:000010dc       ?_pAtlAutoThreadModule@ATL@@3PAUIAtlAutoThreadModule@1@A 67dc50dc     SapClassGui.obj
 0003:000010e0       ___@@_PchSym_@00@UkiltiznLurovhUgvovwbmvLwzohzUhzkvizUxozhhvhUtfrUivovzhvOmvgPCABAUhzkxozhhtfrOlyq@ 67dc50e0     SapClassGui.obj
 0003:000010e4       __afxForceEXTDLL           67dc50e4     SapClassGui.obj
 0003:000010fc       ?m_bInitFailed@CAtlBaseModule@ATL@@2_NA 67dc50fc     SapClassGui.obj
 0003:00001100       ?s_pLog@CFixedStringMgr@ATL@@2PAVIFixedStringLog@2@A 67dc5100     SapClassGui.obj
 0003:00001104       ?_pPerfRegFunc@ATL@@3P6AJPAUHINSTANCE__@@@ZA 67dc5104     SapClassGui.obj
 0003:00001108       ?_pPerfUnRegFunc@ATL@@3P6AJXZA 67dc5108     SapClassGui.obj
 0003:0000110c       ?_AtlRegisterPerUser@ATL@@3_NA 67dc510c     SapClassGui.obj
 0003:00001110       ?_pAtlModule@ATL@@3PAVCAtlModule@1@A 67dc5110     SapClassGui.obj
 0003:00001114       ?m_libid@CAtlModule@ATL@@2U_GUID@@A 67dc5114     SapClassGui.obj
 0003:00001124       ?_pModule@ATL@@3PAVCComModule@1@A 67dc5124     SapClassGui.obj
 0003:00001128       ?ATL_CREATE_OBJECT@CComApartment@ATL@@2IA 67dc5128     SapClassGui.obj
 0003:0000112c       ?clash@Inconsistent_definition_of_symbol__ATL_MIXED@@3U_Please_define_it_the_same_throughout_your_project@1@A 67dc512c     SapClassGui.obj
 0003:00001130       __afxForceEXCLUDE          67dc5130     mfcs100:nolib.obj
 0003:00001134       ?WM_DESTROYMODELESS@CDHtmlDialog@@1IA 67dc5134     mfcs100:nolib.obj
 0003:00001138       __afxForceSTDAFX           67dc5138     mfcs100:stdafx.obj
 0003:00001464       ?__type_info_root_node@@3U__type_info_node@@A 67dc5464     msvcrt:tncleanup.obj
 0003:0000146c       ___native_startup_state    67dc546c     <common>
 0003:00001470       ___native_startup_lock     67dc5470     <common>
 0003:00001474       ___sse2_available          67dc5474     <common>
 0003:00001478       ___dyn_tls_init_callback   67dc5478     <common>
 0003:0000147c       ___onexitend               67dc547c     <common>
 0003:00001480       ___onexitbegin             67dc5480     <common>

 entry point at        0001:00024325

 Static symbols

 0001:fffff000       __unwindfunclet$??HATL@@YA?AV?$CStringT@DV?$StrTraitMFC_DLL@DV?$ChTraitsCRT@D@ATL@@@@@0@ABV10@0@Z$0 67d80000 f   ViewDlg.obj
 0001:fffff000       __unwindfunclet$??1CWaitCursor@@QAE@XZ$2 67d80000 f   LoadSaveDlg.obj
 0001:fffff000       __unwindfunclet$??1CGdiObject@@UAE@XZ$2 67d80000 f   ImageWnd.obj
 0001:fffff000       __unwindfunclet$??1CGdiObject@@UAE@XZ$2 67d80000 f   ImageViewportWnd.obj
 0001:fffff000       __unwindfunclet$??1CGdiObject@@UAE@XZ$2 67d80000 f   ImageExWnd.obj
 0001:fffff000       __unwindfunclet$??1CGioInputDlg@@UAE@XZ$0 67d80000 f   SapClassGui.obj
 0001:fffff000       __unwindfunclet$??1CViewDlg@@UAE@XZ$0 67d80000 f   ViewDlg.obj
 0001:fffff000       __unwindfunclet$??1CGdiObject@@UAE@XZ$2 67d80000 f   GioOutputDlg.obj
 0001:fffff000       __unwindfunclet$??1CGdiObject@@UAE@XZ$2 67d80000 f   GioInputDlg.obj
 0001:fffff000       __unwindfunclet$??1CGioBidirectionalDlg@@UAE@XZ$0 67d80000 f   SapClassGui.obj
 0001:fffff000       __unwindfunclet$??1CPixProIntScaleDlg@@UAE@XZ$0 67d80000 f   PixProIntScaleDlg.obj
 0001:fffff000       __unwindfunclet$??1CAcqConfigDlg@@UAE@XZ$0 67d80000 f   SapClassGui.obj
 0001:fffff000       __unwindfunclet$??1CPixProWAvgDlg@@UAE@XZ$0 67d80000 f   PixProWAvgDlg.obj
 0001:fffff000       __unwindfunclet$??1CBufDlg@@UAE@XZ$0 67d80000 f   SapClassGui.obj
 0001:fffff000       __unwindfunclet$??1CRawFileDlg@@UAE@XZ$0 67d80000 f   RawFileDlg.obj
 0001:fffff000       __unwindfunclet$??HATL@@YA?AV?$CStringT@DV?$StrTraitMFC_DLL@DV?$ChTraitsCRT@D@ATL@@@@@0@ABV10@PBD@Z$0 67d80000 f   ColorConversionDlg.obj
 0001:fffff000       __unwindfunclet$??HATL@@YA?AV?$CStringT@DV?$StrTraitMFC_DLL@DV?$ChTraitsCRT@D@ATL@@@@@0@ABV10@0@Z$0 67d80000 f   CamVicDlg.obj
 0001:fffff000       __unwindfunclet$??1CPixProDlg@@UAE@XZ$0 67d80000 f   SapClassGui.obj
 0001:fffff000       __unwindfunclet$??1CCompDlg@@UAE@XZ$0 67d80000 f   SapClassGui.obj
 0001:fffff000       __unwindfunclet$??1CCamVicDlg@@UAE@XZ$0 67d80000 f   SapClassGui.obj
 0001:fffff000       __unwindfunclet$??HATL@@YA?AV?$CStringT@DV?$StrTraitMFC_DLL@DV?$ChTraitsCRT@D@ATL@@@@@0@ABV10@0@Z$0 67d80000 f   BrowseDirDlg.obj
 0001:fffff000       __unwindfunclet$??1CGdiObject@@UAE@XZ$2 67d80000 f   SapClassGui.obj
 0001:fffff000       __unwindfunclet$??1CAScanDlg@@UAE@XZ$0 67d80000 f   SapClassGui.obj
 0001:fffff000       __unwindfunclet$??1CLScanDlg@@UAE@XZ$0 67d80000 f   SapClassGui.obj
 0001:fffff000       __unwindfunclet$??1CAcqDlg@@UAE@XZ$0 67d80000 f   SapClassGui.obj
 0001:fffff000       __unwindfunclet$??1CGioOutputDlg@@UAE@XZ$0 67d80000 f   SapClassGui.obj
 0001:fffff008       __unwindfunclet$??1CLScanDlg@@UAE@XZ$1 67d80008 f   SapClassGui.obj
 0001:fffff008       __unwindfunclet$??1CAScanDlg@@UAE@XZ$1 67d80008 f   SapClassGui.obj
 0001:fffff008       __unwindfunclet$??1CCamVicDlg@@UAE@XZ$1 67d80008 f   SapClassGui.obj
 0001:fffff008       __unwindfunclet$??1CPixProDlg@@UAE@XZ$1 67d80008 f   SapClassGui.obj
 0001:fffff008       __unwindfunclet$??1CCompDlg@@UAE@XZ$1 67d80008 f   SapClassGui.obj
 0001:fffff008       __unwindfunclet$??1CBufDlg@@UAE@XZ$1 67d80008 f   SapClassGui.obj
 0001:fffff008       __ehhandler$??1CRawFileDlg@@UAE@XZ 67d80008 f   RawFileDlg.obj
 0001:fffff008       __ehhandler$??1CPixProWAvgDlg@@UAE@XZ 67d80008 f   PixProWAvgDlg.obj
 0001:fffff008       __unwindfunclet$??1CAcqConfigDlg@@UAE@XZ$1 67d80008 f   SapClassGui.obj
 0001:fffff008       __ehhandler$??1CPixProIntScaleDlg@@UAE@XZ 67d80008 f   PixProIntScaleDlg.obj
 0001:fffff008       __unwindfunclet$??1CGioInputDlg@@UAE@XZ$1 67d80008 f   SapClassGui.obj
 0001:fffff008       __unwindfunclet$??1CViewDlg@@UAE@XZ$1 67d80008 f   ViewDlg.obj
 0001:fffff008       __unwindfunclet$??1CGioBidirectionalDlg@@UAE@XZ$1 67d80008 f   SapClassGui.obj
 0001:fffff008       __ehhandler$??1CAcqDlg@@UAE@XZ 67d80008 f   SapClassGui.obj
 0001:fffff008       __unwindfunclet$??1CGioOutputDlg@@UAE@XZ$1 67d80008 f   SapClassGui.obj
 0001:fffff00c       __ehhandler$??1CGdiObject@@UAE@XZ 67d8000c f   GioInputDlg.obj
 0001:fffff00c       __ehhandler$??1CGdiObject@@UAE@XZ 67d8000c f   ImageExWnd.obj
 0001:fffff00c       __ehhandler$??1CGdiObject@@UAE@XZ 67d8000c f   ImageViewportWnd.obj
 0001:fffff00c       __ehhandler$??1CWaitCursor@@QAE@XZ 67d8000c f   LoadSaveDlg.obj
 0001:fffff00c       __ehhandler$??1CGdiObject@@UAE@XZ 67d8000c f   ImageWnd.obj
 0001:fffff00c       __ehhandler$??1CGdiObject@@UAE@XZ 67d8000c f   SapClassGui.obj
 0001:fffff00c       __ehhandler$??1CGdiObject@@UAE@XZ 67d8000c f   GioOutputDlg.obj
 0001:fffff016       __unwindfunclet$??1CGioInputDlg@@UAE@XZ$2 67d80016 f   SapClassGui.obj
 0001:fffff016       __unwindfunclet$??1CPixProDlg@@UAE@XZ$2 67d80016 f   SapClassGui.obj
 0001:fffff016       __unwindfunclet$??1CViewDlg@@UAE@XZ$2 67d80016 f   ViewDlg.obj
 0001:fffff016       __unwindfunclet$??1CGioOutputDlg@@UAE@XZ$2 67d80016 f   SapClassGui.obj
 0001:fffff016       __unwindfunclet$??1CGioBidirectionalDlg@@UAE@XZ$2 67d80016 f   SapClassGui.obj
 0001:fffff016       __unwindfunclet$??1CBufDlg@@UAE@XZ$2 67d80016 f   SapClassGui.obj
 0001:fffff017       __unwindfunclet$??1CAcqConfigDlg@@UAE@XZ$2 67d80017 f   SapClassGui.obj
 0001:fffff017       __unwindfunclet$??1CAScanDlg@@UAE@XZ$2 67d80017 f   SapClassGui.obj
 0001:fffff017       __unwindfunclet$??1CLScanDlg@@UAE@XZ$2 67d80017 f   SapClassGui.obj
 0001:fffff017       __unwindfunclet$??1CCompDlg@@UAE@XZ$2 67d80017 f   SapClassGui.obj
 0001:fffff017       __unwindfunclet$??1CCamVicDlg@@UAE@XZ$2 67d80017 f   SapClassGui.obj
 0001:fffff01a       __ehhandler$??HATL@@YA?AV?$CStringT@DV?$StrTraitMFC_DLL@DV?$ChTraitsCRT@D@ATL@@@@@0@ABV10@0@Z 67d8001a f   BrowseDirDlg.obj
 0001:fffff01a       __ehhandler$??HATL@@YA?AV?$CStringT@DV?$StrTraitMFC_DLL@DV?$ChTraitsCRT@D@ATL@@@@@0@ABV10@0@Z 67d8001a f   ViewDlg.obj
 0001:fffff01a       __ehhandler$??HATL@@YA?AV?$CStringT@DV?$StrTraitMFC_DLL@DV?$ChTraitsCRT@D@ATL@@@@@0@ABV10@PBD@Z 67d8001a f   ColorConversionDlg.obj
 0001:fffff01a       __ehhandler$??HATL@@YA?AV?$CStringT@DV?$StrTraitMFC_DLL@DV?$ChTraitsCRT@D@ATL@@@@@0@ABV10@0@Z 67d8001a f   CamVicDlg.obj
 0001:fffff024       __unwindfunclet$??1CGioInputDlg@@UAE@XZ$3 67d80024 f   SapClassGui.obj
 0001:fffff024       __unwindfunclet$??1CViewDlg@@UAE@XZ$3 67d80024 f   ViewDlg.obj
 0001:fffff024       __unwindfunclet$??1CGioBidirectionalDlg@@UAE@XZ$3 67d80024 f   SapClassGui.obj
 0001:fffff024       __unwindfunclet$??1CGioOutputDlg@@UAE@XZ$3 67d80024 f   SapClassGui.obj
 0001:fffff024       __unwindfunclet$??1CPixProDlg@@UAE@XZ$3 67d80024 f   SapClassGui.obj
 0001:fffff025       __ehhandler$??1CLScanDlg@@UAE@XZ 67d80025 f   SapClassGui.obj
 0001:fffff025       __unwindfunclet$??1CAcqConfigDlg@@UAE@XZ$3 67d80025 f   SapClassGui.obj
 0001:fffff025       __unwindfunclet$??1CCompDlg@@UAE@XZ$3 67d80025 f   SapClassGui.obj
 0001:fffff025       __ehhandler$??1CBufDlg@@UAE@XZ 67d80025 f   SapClassGui.obj
 0001:fffff025       __unwindfunclet$??1CCamVicDlg@@UAE@XZ$3 67d80025 f   SapClassGui.obj
 0001:fffff025       __ehhandler$??1CAScanDlg@@UAE@XZ 67d80025 f   SapClassGui.obj
 0001:fffff032       __unwindfunclet$??1CViewDlg@@UAE@XZ$4 67d80032 f   ViewDlg.obj
 0001:fffff032       __unwindfunclet$??1CGioOutputDlg@@UAE@XZ$4 67d80032 f   SapClassGui.obj
 0001:fffff032       __unwindfunclet$??1CPixProDlg@@UAE@XZ$4 67d80032 f   SapClassGui.obj
 0001:fffff032       __ehhandler$??1CGioBidirectionalDlg@@UAE@XZ 67d80032 f   SapClassGui.obj
 0001:fffff032       __ehhandler$??1CGioInputDlg@@UAE@XZ 67d80032 f   SapClassGui.obj
 0001:fffff033       __unwindfunclet$??1CCamVicDlg@@UAE@XZ$4 67d80033 f   SapClassGui.obj
 0001:fffff033       __unwindfunclet$??1CAcqConfigDlg@@UAE@XZ$4 67d80033 f   SapClassGui.obj
 0001:fffff033       __unwindfunclet$??1CCompDlg@@UAE@XZ$4 67d80033 f   SapClassGui.obj
 0001:fffff040       __unwindfunclet$??1CGioOutputDlg@@UAE@XZ$5 67d80040 f   SapClassGui.obj
 0001:fffff040       __ehhandler$??1CViewDlg@@UAE@XZ 67d80040 f   ViewDlg.obj
 0001:fffff040       __ehhandler$??1CPixProDlg@@UAE@XZ 67d80040 f   SapClassGui.obj
 0001:fffff041       __unwindfunclet$??1CAcqConfigDlg@@UAE@XZ$5 67d80041 f   SapClassGui.obj
 0001:fffff041       __unwindfunclet$??1CCompDlg@@UAE@XZ$5 67d80041 f   SapClassGui.obj
 0001:fffff041       __unwindfunclet$??1CCamVicDlg@@UAE@XZ$5 67d80041 f   SapClassGui.obj
 0001:fffff04e       __ehhandler$??1CGioOutputDlg@@UAE@XZ 67d8004e f   SapClassGui.obj
 0001:fffff04f       __unwindfunclet$??1CAcqConfigDlg@@UAE@XZ$6 67d8004f f   SapClassGui.obj
 0001:fffff04f       __unwindfunclet$??1CCamVicDlg@@UAE@XZ$6 67d8004f f   SapClassGui.obj
 0001:fffff04f       __ehhandler$??1CCompDlg@@UAE@XZ 67d8004f f   SapClassGui.obj
 0001:fffff05d       __unwindfunclet$??1CCamVicDlg@@UAE@XZ$7 67d8005d f   SapClassGui.obj
 0001:fffff05e       __ehhandler$??1CAcqConfigDlg@@UAE@XZ 67d8005e f   SapClassGui.obj
 0001:fffff05f       __catch$??1CGdiObject@@UAE@XZ$0 67d8005f f   ImageExWnd.obj
 0001:fffff05f       __catch$??1CGdiObject@@UAE@XZ$0 67d8005f f   ImageWnd.obj
 0001:fffff05f       __catch$??1CGdiObject@@UAE@XZ$0 67d8005f f   GioOutputDlg.obj
 0001:fffff05f       __catch$??1CGdiObject@@UAE@XZ$0 67d8005f f   SapClassGui.obj
 0001:fffff05f       __catch$??1CGdiObject@@UAE@XZ$0 67d8005f f   ImageViewportWnd.obj
 0001:fffff05f       __catch$??1CGdiObject@@UAE@XZ$0 67d8005f f   GioInputDlg.obj
 0001:fffff061       __catch$??1CWaitCursor@@QAE@XZ$0 67d80061 f   LoadSaveDlg.obj
 0001:fffff06b       __unwindfunclet$??1CCamVicDlg@@UAE@XZ$8 67d8006b f   SapClassGui.obj
 0001:fffff07a       __ehhandler$??1CCamVicDlg@@UAE@XZ 67d8007a f   SapClassGui.obj
 0001:00000d90       ?StringValidateDestA@@YGJPBDII@Z 67d81d90 f   AcqConfigDlg.obj
 0001:00000db0       ?StringCopyWorkerA@@YGJPADIPAIPBDI@Z 67d81db0 f   AcqConfigDlg.obj
 0001:00000e00       ?StringVPrintfWorkerA@@YGJPADIPAIPBD0@Z 67d81e00 f   AcqConfigDlg.obj
 0001:00002640       ?StringValidateDestA@@YGJPBDII@Z 67d83640 f   AcqDlg.obj
 0001:00002660       ?StringVPrintfWorkerA@@YGJPADIPAIPBD0@Z 67d83660 f   AcqDlg.obj
 0001:00003090       ?StringValidateDestA@@YGJPBDII@Z 67d84090 f   AScanDlg.obj
 0001:000030b0       ?StringVPrintfWorkerA@@YGJPADIPAIPBD0@Z 67d840b0 f   AScanDlg.obj
 0001:00004fd0       ?StringValidateDestA@@YGJPBDII@Z 67d85fd0 f   BrowseDirDlg.obj
 0001:00004ff0       ?StringCopyWorkerA@@YGJPADIPAIPBDI@Z 67d85ff0 f   BrowseDirDlg.obj
 0001:00006d00       ?StringLengthWorkerA@@YGJPBDIPAI@Z 67d87d00 f   CamVicDlg.obj
 0001:00006d40       ?StringValidateDestA@@YGJPBDII@Z 67d87d40 f   CamVicDlg.obj
 0001:00006d60       ?StringValidateDestAndLengthA@@YGJPBDIPAII@Z 67d87d60 f   CamVicDlg.obj
 0001:00006dc0       ?StringCopyWorkerA@@YGJPADIPAIPBDI@Z 67d87dc0 f   CamVicDlg.obj
 0001:00006e10       ?StringVPrintfWorkerA@@YGJPADIPAIPBD0@Z 67d87e10 f   CamVicDlg.obj
 0001:0000bd71       __catch$??1CWaitCursor@@QAE@XZ$0 67d8cd71 f i FlatFieldDlg.obj
 0001:0000ed3f       __catch$??1CGdiObject@@UAE@XZ$0 67d8fd3f f i GioBidirectionalDlg.obj
 0001:0000ee90       ?StringLengthWorkerA@@YGJPBDIPAI@Z 67d8fe90 f   GioBidirectionalDlg.obj
 0001:0000eed0       ?StringValidateDestA@@YGJPBDII@Z 67d8fed0 f   GioBidirectionalDlg.obj
 0001:0000eef0       ?StringValidateDestAndLengthA@@YGJPBDIPAII@Z 67d8fef0 f   GioBidirectionalDlg.obj
 0001:0000ef50       ?StringCopyWorkerA@@YGJPADIPAIPBDI@Z 67d8ff50 f   GioBidirectionalDlg.obj
 0001:000105f0       ?StringLengthWorkerA@@YGJPBDIPAI@Z 67d915f0 f   GioInputDlg.obj
 0001:00010630       ?StringValidateDestA@@YGJPBDII@Z 67d91630 f   GioInputDlg.obj
 0001:00010650       ?StringValidateDestAndLengthA@@YGJPBDIPAII@Z 67d91650 f   GioInputDlg.obj
 0001:000106b0       ?StringCopyWorkerA@@YGJPADIPAIPBDI@Z 67d916b0 f   GioInputDlg.obj
 0001:000114e0       ?StringLengthWorkerA@@YGJPBDIPAI@Z 67d924e0 f   GioOutputDlg.obj
 0001:00011520       ?StringValidateDestA@@YGJPBDII@Z 67d92520 f   GioOutputDlg.obj
 0001:00011540       ?StringValidateDestAndLengthA@@YGJPBDIPAII@Z 67d92540 f   GioOutputDlg.obj
 0001:000115a0       ?StringCopyWorkerA@@YGJPADIPAIPBDI@Z 67d925a0 f   GioOutputDlg.obj
 0001:00014260       ?ConvertKernelSizeToInt@@YAHW4ImageFilterKernelSize@SapAcquisition@@@Z 67d95260 f   ImageFilterEditorDlg.obj
 0001:000161b4       __catch$?_Copy@?$basic_string@DU?$char_traits@D@std@@V?$allocator@D@2@@std@@QAEXII@Z$0 67d971b4 f i ImageFilterEditorDlg.obj
 0001:0001623c       __catch$?_Copy@?$basic_string@DU?$char_traits@D@std@@V?$allocator@D@2@@std@@QAEXII@Z$1 67d9723c f i ImageFilterEditorDlg.obj
 0001:0001c290       ?StringValidateDestA@@YGJPBDII@Z 67d9d290 f   LoadSaveDlg.obj
 0001:0001c2b0       ?StringCopyWorkerA@@YGJPADIPAIPBDI@Z 67d9d2b0 f   LoadSaveDlg.obj
 0001:0001d190       ?StringValidateDestA@@YGJPBDII@Z 67d9e190 f   LScanDlg.obj
 0001:0001d1b0       ?StringVPrintfWorkerA@@YGJPADIPAIPBD0@Z 67d9e1b0 f   LScanDlg.obj
 0001:0001ed70       ?StringLengthWorkerA@@YGJPBDIPAI@Z 67d9fd70 f   PixProDlg.obj
 0001:0001edb0       ?StringValidateDestA@@YGJPBDII@Z 67d9fdb0 f   PixProDlg.obj
 0001:0001edd0       ?StringValidateDestAndLengthA@@YGJPBDIPAII@Z 67d9fdd0 f   PixProDlg.obj
 0001:0001ee30       ?StringCopyWorkerA@@YGJPADIPAIPBDI@Z 67d9fe30 f   PixProDlg.obj
 0001:0001ee80       ?StringVPrintfWorkerA@@YGJPADIPAIPBD0@Z 67d9fe80 f   PixProDlg.obj
 0001:00023c43       ?ArrayUnwindFilter@@YAHPAU_EXCEPTION_POINTERS@@@Z 67da4c43 f   msvcrt:ehvecdtr.obj
 0001:00023fb7       _pre_c_init                67da4fb7 f   msvcrt:crtdll.obj
 0001:0002420f       ___DllMainCRTStartup       67da520f f   msvcrt:crtdll.obj
 0001:000249c0       __unwindfunclet$?GetLocation@CAcqConfigDlg@@QAE?AVSapLocation@@XZ$0 67da59c0 f   AcqConfigDlg.obj
 0001:000249c9       __ehhandler$?GetLocation@CAcqConfigDlg@@QAE?AVSapLocation@@XZ 67da59c9 f   AcqConfigDlg.obj
 0001:000249f0       __unwindfunclet$?UpdateAcquisition@CAcqConfigDlg@@IAEHXZ$0 67da59f0 f   AcqConfigDlg.obj
 0001:000249f9       __unwindfunclet$?UpdateAcquisition@CAcqConfigDlg@@IAEHXZ$1 67da59f9 f   AcqConfigDlg.obj
 0001:00024a02       __unwindfunclet$?UpdateAcquisition@CAcqConfigDlg@@IAEHXZ$3 67da5a02 f   AcqConfigDlg.obj
 0001:00024a0b       __ehhandler$?UpdateAcquisition@CAcqConfigDlg@@IAEHXZ 67da5a0b f   AcqConfigDlg.obj
 0001:00024a30       __unwindfunclet$?SaveSettings@CAcqConfigDlg@@IAEXXZ$0 67da5a30 f   AcqConfigDlg.obj
 0001:00024a39       __unwindfunclet$?SaveSettings@CAcqConfigDlg@@IAEXXZ$1 67da5a39 f   AcqConfigDlg.obj
 0001:00024a42       __ehhandler$?SaveSettings@CAcqConfigDlg@@IAEXXZ 67da5a42 f   AcqConfigDlg.obj
 0001:00024a60       __unwindfunclet$?UpdateDescription@CAcqConfigDlg@@IAEXXZ$0 67da5a60 f   AcqConfigDlg.obj
 0001:00024a6c       __unwindfunclet$?UpdateDescription@CAcqConfigDlg@@IAEXXZ$5 67da5a6c f   AcqConfigDlg.obj
 0001:00024a78       __ehhandler$?UpdateDescription@CAcqConfigDlg@@IAEXXZ 67da5a78 f   AcqConfigDlg.obj
 0001:00024aa0       __unwindfunclet$?ValidateCCFAgainstServerName@CAcqConfigDlg@@IAE_N_N@Z$0 67da5aa0 f   AcqConfigDlg.obj
 0001:00024aa9       __unwindfunclet$?ValidateCCFAgainstServerName@CAcqConfigDlg@@IAE_N_N@Z$1 67da5aa9 f   AcqConfigDlg.obj
 0001:00024ab2       __unwindfunclet$?ValidateCCFAgainstServerName@CAcqConfigDlg@@IAE_N_N@Z$2 67da5ab2 f   AcqConfigDlg.obj
 0001:00024abb       __ehhandler$?ValidateCCFAgainstServerName@CAcqConfigDlg@@IAE_N_N@Z 67da5abb f   AcqConfigDlg.obj
 0001:00024ae0       __unwindfunclet$??HATL@@YA?AV?$CStringT@DV?$StrTraitMFC_DLL@DV?$ChTraitsCRT@D@ATL@@@@@0@ABV10@0@Z$0 67da5ae0 f   AcqConfigDlg.obj
 0001:00024afa       __ehhandler$??HATL@@YA?AV?$CStringT@DV?$StrTraitMFC_DLL@DV?$ChTraitsCRT@D@ATL@@@@@0@ABV10@0@Z 67da5afa f   AcqConfigDlg.obj
 0001:00024b20       __unwindfunclet$??1CAcqConfigDlg@@UAE@XZ$0 67da5b20 f   AcqConfigDlg.obj
 0001:00024b28       __unwindfunclet$??1CAcqConfigDlg@@UAE@XZ$1 67da5b28 f   AcqConfigDlg.obj
 0001:00024b37       __unwindfunclet$??1CAcqConfigDlg@@UAE@XZ$2 67da5b37 f   AcqConfigDlg.obj
 0001:00024b45       __unwindfunclet$??1CAcqConfigDlg@@UAE@XZ$3 67da5b45 f   AcqConfigDlg.obj
 0001:00024b53       __unwindfunclet$??1CAcqConfigDlg@@UAE@XZ$4 67da5b53 f   AcqConfigDlg.obj
 0001:00024b61       __unwindfunclet$??1CAcqConfigDlg@@UAE@XZ$5 67da5b61 f   AcqConfigDlg.obj
 0001:00024b6f       __unwindfunclet$??1CAcqConfigDlg@@UAE@XZ$6 67da5b6f f   AcqConfigDlg.obj
 0001:00024b7e       __ehhandler$??1CAcqConfigDlg@@UAE@XZ 67da5b7e f   AcqConfigDlg.obj
 0001:00024ba0       __unwindfunclet$?LoadSettings@CAcqConfigDlg@@IAEXXZ$0 67da5ba0 f   AcqConfigDlg.obj
 0001:00024ba9       __unwindfunclet$?LoadSettings@CAcqConfigDlg@@IAEXXZ$1 67da5ba9 f   AcqConfigDlg.obj
 0001:00024bb2       __unwindfunclet$?LoadSettings@CAcqConfigDlg@@IAEXXZ$2 67da5bb2 f   AcqConfigDlg.obj
 0001:00024bbb       __unwindfunclet$?LoadSettings@CAcqConfigDlg@@IAEXXZ$4 67da5bbb f   AcqConfigDlg.obj
 0001:00024bc4       __unwindfunclet$?LoadSettings@CAcqConfigDlg@@IAEXXZ$6 67da5bc4 f   AcqConfigDlg.obj
 0001:00024bcd       __unwindfunclet$?LoadSettings@CAcqConfigDlg@@IAEXXZ$7 67da5bcd f   AcqConfigDlg.obj
 0001:00024bd6       __unwindfunclet$?LoadSettings@CAcqConfigDlg@@IAEXXZ$8 67da5bd6 f   AcqConfigDlg.obj
 0001:00024bdf       __ehhandler$?LoadSettings@CAcqConfigDlg@@IAEXXZ 67da5bdf f   AcqConfigDlg.obj
 0001:00024c00       __unwindfunclet$?InitResourceCombo@CAcqConfigDlg@@IAEXXZ$0 67da5c00 f   AcqConfigDlg.obj
 0001:00024c0c       __unwindfunclet$?InitResourceCombo@CAcqConfigDlg@@IAEXXZ$1 67da5c0c f   AcqConfigDlg.obj
 0001:00024c18       __unwindfunclet$?InitResourceCombo@CAcqConfigDlg@@IAEXXZ$2 67da5c18 f   AcqConfigDlg.obj
 0001:00024c24       __unwindfunclet$?InitResourceCombo@CAcqConfigDlg@@IAEXXZ$3 67da5c24 f   AcqConfigDlg.obj
 0001:00024c30       __unwindfunclet$?InitResourceCombo@CAcqConfigDlg@@IAEXXZ$5 67da5c30 f   AcqConfigDlg.obj
 0001:00024c3c       __unwindfunclet$?InitResourceCombo@CAcqConfigDlg@@IAEXXZ$6 67da5c3c f   AcqConfigDlg.obj
 0001:00024c48       __unwindfunclet$?InitResourceCombo@CAcqConfigDlg@@IAEXXZ$7 67da5c48 f   AcqConfigDlg.obj
 0001:00024c54       __ehhandler$?InitResourceCombo@CAcqConfigDlg@@IAEXXZ 67da5c54 f   AcqConfigDlg.obj
 0001:00024c80       __unwindfunclet$??0CAcqConfigDlg@@QAE@PAVCWnd@@W4ServerCategory@0@@Z$0 67da5c80 f   AcqConfigDlg.obj
 0001:00024c88       __unwindfunclet$??0CAcqConfigDlg@@QAE@PAVCWnd@@W4ServerCategory@0@@Z$1 67da5c88 f   AcqConfigDlg.obj
 0001:00024c97       __unwindfunclet$??0CAcqConfigDlg@@QAE@PAVCWnd@@W4ServerCategory@0@@Z$2 67da5c97 f   AcqConfigDlg.obj
 0001:00024ca5       __unwindfunclet$??0CAcqConfigDlg@@QAE@PAVCWnd@@W4ServerCategory@0@@Z$3 67da5ca5 f   AcqConfigDlg.obj
 0001:00024cb3       __unwindfunclet$??0CAcqConfigDlg@@QAE@PAVCWnd@@W4ServerCategory@0@@Z$4 67da5cb3 f   AcqConfigDlg.obj
 0001:00024cc1       __unwindfunclet$??0CAcqConfigDlg@@QAE@PAVCWnd@@W4ServerCategory@0@@Z$5 67da5cc1 f   AcqConfigDlg.obj
 0001:00024ccf       __unwindfunclet$??0CAcqConfigDlg@@QAE@PAVCWnd@@W4ServerCategory@0@@Z$6 67da5ccf f   AcqConfigDlg.obj
 0001:00024cde       __unwindfunclet$??0CAcqConfigDlg@@QAE@PAVCWnd@@W4ServerCategory@0@@Z$8 67da5cde f   AcqConfigDlg.obj
 0001:00024ced       __unwindfunclet$??0CAcqConfigDlg@@QAE@PAVCWnd@@W4ServerCategory@0@@Z$9 67da5ced f   AcqConfigDlg.obj
 0001:00024cfc       __unwindfunclet$??0CAcqConfigDlg@@QAE@PAVCWnd@@W4ServerCategory@0@@Z$10 67da5cfc f   AcqConfigDlg.obj
 0001:00024d0b       __ehhandler$??0CAcqConfigDlg@@QAE@PAVCWnd@@W4ServerCategory@0@@Z 67da5d0b f   AcqConfigDlg.obj
 0001:00024d30       __unwindfunclet$??0CAcqConfigDlg@@QAE@PAVCWnd@@VSapLocation@@PBDW4ServerCategory@0@@Z$0 67da5d30 f   AcqConfigDlg.obj
 0001:00024d39       __unwindfunclet$??0CAcqConfigDlg@@QAE@PAVCWnd@@VSapLocation@@PBDW4ServerCategory@0@@Z$1 67da5d39 f   AcqConfigDlg.obj
 0001:00024d41       __unwindfunclet$??0CAcqConfigDlg@@QAE@PAVCWnd@@VSapLocation@@PBDW4ServerCategory@0@@Z$2 67da5d41 f   AcqConfigDlg.obj
 0001:00024d50       __unwindfunclet$??0CAcqConfigDlg@@QAE@PAVCWnd@@VSapLocation@@PBDW4ServerCategory@0@@Z$3 67da5d50 f   AcqConfigDlg.obj
 0001:00024d5e       __unwindfunclet$??0CAcqConfigDlg@@QAE@PAVCWnd@@VSapLocation@@PBDW4ServerCategory@0@@Z$4 67da5d5e f   AcqConfigDlg.obj
 0001:00024d6c       __unwindfunclet$??0CAcqConfigDlg@@QAE@PAVCWnd@@VSapLocation@@PBDW4ServerCategory@0@@Z$5 67da5d6c f   AcqConfigDlg.obj
 0001:00024d7a       __unwindfunclet$??0CAcqConfigDlg@@QAE@PAVCWnd@@VSapLocation@@PBDW4ServerCategory@0@@Z$6 67da5d7a f   AcqConfigDlg.obj
 0001:00024d88       __unwindfunclet$??0CAcqConfigDlg@@QAE@PAVCWnd@@VSapLocation@@PBDW4ServerCategory@0@@Z$7 67da5d88 f   AcqConfigDlg.obj
 0001:00024d97       __unwindfunclet$??0CAcqConfigDlg@@QAE@PAVCWnd@@VSapLocation@@PBDW4ServerCategory@0@@Z$9 67da5d97 f   AcqConfigDlg.obj
 0001:00024da6       __unwindfunclet$??0CAcqConfigDlg@@QAE@PAVCWnd@@VSapLocation@@PBDW4ServerCategory@0@@Z$10 67da5da6 f   AcqConfigDlg.obj
 0001:00024db5       __unwindfunclet$??0CAcqConfigDlg@@QAE@PAVCWnd@@VSapLocation@@PBDW4ServerCategory@0@@Z$11 67da5db5 f   AcqConfigDlg.obj
 0001:00024dc4       __unwindfunclet$??0CAcqConfigDlg@@QAE@PAVCWnd@@VSapLocation@@PBDW4ServerCategory@0@@Z$13 67da5dc4 f   AcqConfigDlg.obj
 0001:00024dcd       __ehhandler$??0CAcqConfigDlg@@QAE@PAVCWnd@@VSapLocation@@PBDW4ServerCategory@0@@Z 67da5dcd f   AcqConfigDlg.obj
 0001:00024e00       __unwindfunclet$??0CAcqConfigDlg@@QAE@PAVCWnd@@PAVSapAcquisition@@PBD@Z$0 67da5e00 f   AcqConfigDlg.obj
 0001:00024e08       __unwindfunclet$??0CAcqConfigDlg@@QAE@PAVCWnd@@PAVSapAcquisition@@PBD@Z$1 67da5e08 f   AcqConfigDlg.obj
 0001:00024e17       __unwindfunclet$??0CAcqConfigDlg@@QAE@PAVCWnd@@PAVSapAcquisition@@PBD@Z$2 67da5e17 f   AcqConfigDlg.obj
 0001:00024e25       __unwindfunclet$??0CAcqConfigDlg@@QAE@PAVCWnd@@PAVSapAcquisition@@PBD@Z$3 67da5e25 f   AcqConfigDlg.obj
 0001:00024e33       __unwindfunclet$??0CAcqConfigDlg@@QAE@PAVCWnd@@PAVSapAcquisition@@PBD@Z$4 67da5e33 f   AcqConfigDlg.obj
 0001:00024e41       __unwindfunclet$??0CAcqConfigDlg@@QAE@PAVCWnd@@PAVSapAcquisition@@PBD@Z$5 67da5e41 f   AcqConfigDlg.obj
 0001:00024e4f       __unwindfunclet$??0CAcqConfigDlg@@QAE@PAVCWnd@@PAVSapAcquisition@@PBD@Z$6 67da5e4f f   AcqConfigDlg.obj
 0001:00024e5e       __unwindfunclet$??0CAcqConfigDlg@@QAE@PAVCWnd@@PAVSapAcquisition@@PBD@Z$8 67da5e5e f   AcqConfigDlg.obj
 0001:00024e6d       __unwindfunclet$??0CAcqConfigDlg@@QAE@PAVCWnd@@PAVSapAcquisition@@PBD@Z$9 67da5e6d f   AcqConfigDlg.obj
 0001:00024e7c       __unwindfunclet$??0CAcqConfigDlg@@QAE@PAVCWnd@@PAVSapAcquisition@@PBD@Z$10 67da5e7c f   AcqConfigDlg.obj
 0001:00024e8b       __unwindfunclet$??0CAcqConfigDlg@@QAE@PAVCWnd@@PAVSapAcquisition@@PBD@Z$12 67da5e8b f   AcqConfigDlg.obj
 0001:00024e94       __unwindfunclet$??0CAcqConfigDlg@@QAE@PAVCWnd@@PAVSapAcquisition@@PBD@Z$13 67da5e94 f   AcqConfigDlg.obj
 0001:00024e9d       __ehhandler$??0CAcqConfigDlg@@QAE@PAVCWnd@@PAVSapAcquisition@@PBD@Z 67da5e9d f   AcqConfigDlg.obj
 0001:00024ed0       __unwindfunclet$?OnInitDialog@CAcqConfigDlg@@MAEHXZ$0 67da5ed0 f   AcqConfigDlg.obj
 0001:00024ed9       __ehhandler$?OnInitDialog@CAcqConfigDlg@@MAEHXZ 67da5ed9 f   AcqConfigDlg.obj
 0001:00024f00       __unwindfunclet$?OnConfigBrowse@CAcqConfigDlg@@IAEXXZ$0 67da5f00 f   AcqConfigDlg.obj
 0001:00024f0b       __unwindfunclet$?OnConfigBrowse@CAcqConfigDlg@@IAEXXZ$1 67da5f0b f   AcqConfigDlg.obj
 0001:00024f17       __unwindfunclet$?OnConfigBrowse@CAcqConfigDlg@@IAEXXZ$2 67da5f17 f   AcqConfigDlg.obj
 0001:00024f23       __unwindfunclet$?OnConfigBrowse@CAcqConfigDlg@@IAEXXZ$3 67da5f23 f   AcqConfigDlg.obj
 0001:00024f2f       __ehhandler$?OnConfigBrowse@CAcqConfigDlg@@IAEXXZ 67da5f2f f   AcqConfigDlg.obj
 0001:00024f60       __unwindfunclet$??0CAcqDlg@@QAE@PAVCWnd@@PAVSapAcquisition@@@Z$0 67da5f60 f   AcqDlg.obj
 0001:00024f68       __ehhandler$??0CAcqDlg@@QAE@PAVCWnd@@PAVSapAcquisition@@@Z 67da5f68 f   AcqDlg.obj
 0001:00024f90       __unwindfunclet$??1CAcqDlg@@UAE@XZ$0 67da5f90 f   AcqDlg.obj
 0001:00024f98       __ehhandler$??1CAcqDlg@@UAE@XZ 67da5f98 f   AcqDlg.obj
 0001:00024fc0       __unwindfunclet$??_GCAcqDlg@@UAEPAXI@Z$0 67da5fc0 f   AcqDlg.obj
 0001:00024fc8       __ehhandler$??_GCAcqDlg@@UAEPAXI@Z 67da5fc8 f   AcqDlg.obj
 0001:00024ff0       __unwindfunclet$??_ECAcqDlg@@UAEPAXI@Z$0 67da5ff0 f   AcqDlg.obj
 0001:00024ff8       __ehhandler$??_ECAcqDlg@@UAEPAXI@Z 67da5ff8 f   AcqDlg.obj
 0001:00025020       __unwindfunclet$??1CAScanDlg@@UAE@XZ$0 67da6020 f   AScanDlg.obj
 0001:00025028       __unwindfunclet$??1CAScanDlg@@UAE@XZ$1 67da6028 f   AScanDlg.obj
 0001:00025037       __unwindfunclet$??1CAScanDlg@@UAE@XZ$2 67da6037 f   AScanDlg.obj
 0001:00025045       __ehhandler$??1CAScanDlg@@UAE@XZ 67da6045 f   AScanDlg.obj
 0001:00025060       __unwindfunclet$??_GCAScanDlg@@UAEPAXI@Z$0 67da6060 f   AScanDlg.obj
 0001:00025068       __unwindfunclet$??_GCAScanDlg@@UAEPAXI@Z$1 67da6068 f   AScanDlg.obj
 0001:00025077       __unwindfunclet$??_GCAScanDlg@@UAEPAXI@Z$2 67da6077 f   AScanDlg.obj
 0001:00025085       __ehhandler$??_GCAScanDlg@@UAEPAXI@Z 67da6085 f   AScanDlg.obj
 0001:000250a0       __unwindfunclet$??_ECAScanDlg@@UAEPAXI@Z$0 67da60a0 f   AScanDlg.obj
 0001:000250a8       __unwindfunclet$??_ECAScanDlg@@UAEPAXI@Z$1 67da60a8 f   AScanDlg.obj
 0001:000250b7       __unwindfunclet$??_ECAScanDlg@@UAEPAXI@Z$2 67da60b7 f   AScanDlg.obj
 0001:000250c5       __ehhandler$??_ECAScanDlg@@UAEPAXI@Z 67da60c5 f   AScanDlg.obj
 0001:000250e0       __unwindfunclet$??0CAScanDlg@@QAE@PAVCWnd@@PAVSapAcquisition@@@Z$0 67da60e0 f   AScanDlg.obj
 0001:000250e8       __unwindfunclet$??0CAScanDlg@@QAE@PAVCWnd@@PAVSapAcquisition@@@Z$1 67da60e8 f   AScanDlg.obj
 0001:000250f7       __unwindfunclet$??0CAScanDlg@@QAE@PAVCWnd@@PAVSapAcquisition@@@Z$2 67da60f7 f   AScanDlg.obj
 0001:00025105       __ehhandler$??0CAScanDlg@@QAE@PAVCWnd@@PAVSapAcquisition@@@Z 67da6105 f   AScanDlg.obj
 0001:00025120       __unwindfunclet$?VerifyTimeIntegrateDuration@CAScanDlg@@IAEXH@Z$0 67da6120 f   AScanDlg.obj
 0001:00025129       __ehhandler$?VerifyTimeIntegrateDuration@CAScanDlg@@IAEXH@Z 67da6129 f   AScanDlg.obj
 0001:00025150       __unwindfunclet$?VerifyFrameIntegrateCount@CAScanDlg@@IAEXXZ$0 67da6150 f   AScanDlg.obj
 0001:00025159       __ehhandler$?VerifyFrameIntegrateCount@CAScanDlg@@IAEXXZ 67da6159 f   AScanDlg.obj
 0001:00025180       __unwindfunclet$??0CAviFileDlg@@QAE@PAVCWnd@@HHHH@Z$0 67da6180 f   AviFileDlg.obj
 0001:00025188       __ehhandler$??0CAviFileDlg@@QAE@PAVCWnd@@HHHH@Z 67da6188 f   AviFileDlg.obj
 0001:000251b0       __unwindfunclet$??0CBayerOptionsDlg@@QAE@PAVCWnd@@PAVSapBayer@@PAVSapTransfer@@PAVCImageWnd@@PAVSapProcessing@@@Z$0 67da61b0 f   BayerDlg.obj
 0001:000251b8       __ehhandler$??0CBayerOptionsDlg@@QAE@PAVCWnd@@PAVSapBayer@@PAVSapTransfer@@PAVCImageWnd@@PAVSapProcessing@@@Z 67da61b8 f   BayerDlg.obj
 0001:000251e0       __unwindfunclet$??1CBayerOptionsDlg@@UAE@XZ$0 67da61e0 f   BayerDlg.obj
 0001:000251e8       __ehhandler$??1CBayerOptionsDlg@@UAE@XZ 67da61e8 f   BayerDlg.obj
 0001:00025210       __unwindfunclet$?UpdateInterface@CBayerOptionsDlg@@QAEXXZ$0 67da6210 f   BayerDlg.obj
 0001:00025219       __ehhandler$?UpdateInterface@CBayerOptionsDlg@@QAEXXZ 67da6219 f   BayerDlg.obj
 0001:00025240       __unwindfunclet$?OnApply@CBayerOptionsDlg@@IAEXXZ$1 67da6240 f   BayerDlg.obj
 0001:00025249       __ehhandler$?OnApply@CBayerOptionsDlg@@IAEXXZ 67da6249 f   BayerDlg.obj
 0001:00025270       __unwindfunclet$??0CBrowseDirDlg@@QAE@PBD@Z$0 67da6270 f   BrowseDirDlg.obj
 0001:00025279       __ehhandler$??0CBrowseDirDlg@@QAE@PBD@Z 67da6279 f   BrowseDirDlg.obj
 0001:000252a0       __unwindfunclet$??HATL@@YA?AV?$CStringT@DV?$StrTraitMFC_DLL@DV?$ChTraitsCRT@D@ATL@@@@@0@ABV10@D@Z$0 67da62a0 f   BrowseDirDlg.obj
 0001:000252ba       __ehhandler$??HATL@@YA?AV?$CStringT@DV?$StrTraitMFC_DLL@DV?$ChTraitsCRT@D@ATL@@@@@0@ABV10@D@Z 67da62ba f   BrowseDirDlg.obj
 0001:000252e0       __unwindfunclet$?DoModal@CBrowseDirDlg@@QAEHXZ$1 67da62e0 f   BrowseDirDlg.obj
 0001:000252ec       __unwindfunclet$?DoModal@CBrowseDirDlg@@QAEHXZ$2 67da62ec f   BrowseDirDlg.obj
 0001:000252f8       __unwindfunclet$?DoModal@CBrowseDirDlg@@QAEHXZ$3 67da62f8 f   BrowseDirDlg.obj
 0001:00025304       __unwindfunclet$?DoModal@CBrowseDirDlg@@QAEHXZ$4 67da6304 f   BrowseDirDlg.obj
 0001:00025310       __ehhandler$?DoModal@CBrowseDirDlg@@QAEHXZ 67da6310 f   BrowseDirDlg.obj
 0001:00025340       __unwindfunclet$??1CBufDlg@@UAE@XZ$0 67da6340 f   BufDlg.obj
 0001:00025348       __unwindfunclet$??1CBufDlg@@UAE@XZ$1 67da6348 f   BufDlg.obj
 0001:00025356       __unwindfunclet$??1CBufDlg@@UAE@XZ$2 67da6356 f   BufDlg.obj
 0001:00025365       __ehhandler$??1CBufDlg@@UAE@XZ 67da6365 f   BufDlg.obj
 0001:00025380       __unwindfunclet$??_GCBufDlg@@UAEPAXI@Z$0 67da6380 f   BufDlg.obj
 0001:00025388       __unwindfunclet$??_GCBufDlg@@UAEPAXI@Z$1 67da6388 f   BufDlg.obj
 0001:00025396       __unwindfunclet$??_GCBufDlg@@UAEPAXI@Z$2 67da6396 f   BufDlg.obj
 0001:000253a5       __ehhandler$??_GCBufDlg@@UAEPAXI@Z 67da63a5 f   BufDlg.obj
 0001:000253c0       __unwindfunclet$??_ECBufDlg@@UAEPAXI@Z$0 67da63c0 f   BufDlg.obj
 0001:000253c8       __unwindfunclet$??_ECBufDlg@@UAEPAXI@Z$1 67da63c8 f   BufDlg.obj
 0001:000253d6       __unwindfunclet$??_ECBufDlg@@UAEPAXI@Z$2 67da63d6 f   BufDlg.obj
 0001:000253e5       __ehhandler$??_ECBufDlg@@UAEPAXI@Z 67da63e5 f   BufDlg.obj
 0001:00025400       __unwindfunclet$??0CBufDlg@@QAE@PAVCWnd@@PAVSapBuffer@@PAVSapDisplay@@@Z$0 67da6400 f   BufDlg.obj
 0001:0002540b       __unwindfunclet$??0CBufDlg@@QAE@PAVCWnd@@PAVSapBuffer@@PAVSapDisplay@@@Z$1 67da640b f   BufDlg.obj
 0001:0002541c       __unwindfunclet$??0CBufDlg@@QAE@PAVCWnd@@PAVSapBuffer@@PAVSapDisplay@@@Z$3 67da641c f   BufDlg.obj
 0001:0002542e       __unwindfunclet$??0CBufDlg@@QAE@PAVCWnd@@PAVSapBuffer@@PAVSapDisplay@@@Z$4 67da642e f   BufDlg.obj
 0001:00025440       __unwindfunclet$??0CBufDlg@@QAE@PAVCWnd@@PAVSapBuffer@@PAVSapDisplay@@@Z$6 67da6440 f   BufDlg.obj
 0001:0002544c       __ehhandler$??0CBufDlg@@QAE@PAVCWnd@@PAVSapBuffer@@PAVSapDisplay@@@Z 67da644c f   BufDlg.obj
 0001:00025480       __unwindfunclet$??1CCabDlg@@UAE@XZ$0 67da6480 f   CabDlg.obj
 0001:00025488       __unwindfunclet$??1CCabDlg@@UAE@XZ$1 67da6488 f   CabDlg.obj
 0001:00025497       __unwindfunclet$??1CCabDlg@@UAE@XZ$2 67da6497 f   CabDlg.obj
 0001:000254a5       __ehhandler$??1CCabDlg@@UAE@XZ 67da64a5 f   CabDlg.obj
 0001:000254c0       __unwindfunclet$??0CCabDlg@@QAE@PAVCWnd@@PAVSapCab@@PAVSapXferNode@@H@Z$0 67da64c0 f   CabDlg.obj
 0001:000254c8       __unwindfunclet$??0CCabDlg@@QAE@PAVCWnd@@PAVSapCab@@PAVSapXferNode@@H@Z$1 67da64c8 f   CabDlg.obj
 0001:000254d7       __unwindfunclet$??0CCabDlg@@QAE@PAVCWnd@@PAVSapCab@@PAVSapXferNode@@H@Z$2 67da64d7 f   CabDlg.obj
 0001:000254e5       __unwindfunclet$??0CCabDlg@@QAE@PAVCWnd@@PAVSapCab@@PAVSapXferNode@@H@Z$3 67da64e5 f   CabDlg.obj
 0001:000254ee       __unwindfunclet$??0CCabDlg@@QAE@PAVCWnd@@PAVSapCab@@PAVSapXferNode@@H@Z$4 67da64ee f   CabDlg.obj
 0001:000254f7       __unwindfunclet$??0CCabDlg@@QAE@PAVCWnd@@PAVSapCab@@PAVSapXferNode@@H@Z$5 67da64f7 f   CabDlg.obj
 0001:00025502       __ehhandler$??0CCabDlg@@QAE@PAVCWnd@@PAVSapCab@@PAVSapXferNode@@H@Z 67da6502 f   CabDlg.obj
 0001:00025530       __unwindfunclet$?OnInitDialog@CCabDlg@@MAEHXZ$1 67da6530 f   CabDlg.obj
 0001:00025539       __ehhandler$?OnInitDialog@CCabDlg@@MAEHXZ 67da6539 f   CabDlg.obj
 0001:00025560       __unwindfunclet$?OnOK@CCabDlg@@MAEXXZ$0 67da6560 f   CabDlg.obj
 0001:00025569       __ehhandler$?OnOK@CCabDlg@@MAEXXZ 67da6569 f   CabDlg.obj
 0001:00025590       __unwindfunclet$?UpdateAcquisition@CCamVicDlg@@IAEHXZ$0 67da6590 f   CamVicDlg.obj
 0001:00025599       __unwindfunclet$?UpdateAcquisition@CCamVicDlg@@IAEHXZ$1 67da6599 f   CamVicDlg.obj
 0001:000255a2       __unwindfunclet$?UpdateAcquisition@CCamVicDlg@@IAEHXZ$3 67da65a2 f   CamVicDlg.obj
 0001:000255ab       __unwindfunclet$?UpdateAcquisition@CCamVicDlg@@IAEHXZ$4 67da65ab f   CamVicDlg.obj
 0001:000255b4       __ehhandler$?UpdateAcquisition@CCamVicDlg@@IAEHXZ 67da65b4 f   CamVicDlg.obj
 0001:000255e0       __unwindfunclet$?MakeVicAvailable@CCamVicDlg@@IAEHXZ$1 67da65e0 f   CamVicDlg.obj
 0001:00025603       __ehhandler$?MakeVicAvailable@CCamVicDlg@@IAEHXZ 67da6603 f   CamVicDlg.obj
 0001:00025630       __unwindfunclet$??HATL@@YA?AV?$CStringT@DV?$StrTraitMFC_DLL@DV?$ChTraitsCRT@D@ATL@@@@@0@ABV10@PBD@Z$0 67da6630 f   CamVicDlg.obj
 0001:0002564a       __ehhandler$??HATL@@YA?AV?$CStringT@DV?$StrTraitMFC_DLL@DV?$ChTraitsCRT@D@ATL@@@@@0@ABV10@PBD@Z 67da664a f   CamVicDlg.obj
 0001:00025670       __unwindfunclet$??1CCamVicDlg@@UAE@XZ$0 67da6670 f   CamVicDlg.obj
 0001:00025678       __unwindfunclet$??1CCamVicDlg@@UAE@XZ$1 67da6678 f   CamVicDlg.obj
 0001:00025687       __unwindfunclet$??1CCamVicDlg@@UAE@XZ$2 67da6687 f   CamVicDlg.obj
 0001:00025695       __unwindfunclet$??1CCamVicDlg@@UAE@XZ$3 67da6695 f   CamVicDlg.obj
 0001:000256a3       __unwindfunclet$??1CCamVicDlg@@UAE@XZ$4 67da66a3 f   CamVicDlg.obj
 0001:000256b1       __unwindfunclet$??1CCamVicDlg@@UAE@XZ$5 67da66b1 f   CamVicDlg.obj
 0001:000256bf       __unwindfunclet$??1CCamVicDlg@@UAE@XZ$6 67da66bf f   CamVicDlg.obj
 0001:000256cd       __unwindfunclet$??1CCamVicDlg@@UAE@XZ$7 67da66cd f   CamVicDlg.obj
 0001:000256db       __unwindfunclet$??1CCamVicDlg@@UAE@XZ$8 67da66db f   CamVicDlg.obj
 0001:000256ea       __ehhandler$??1CCamVicDlg@@UAE@XZ 67da66ea f   CamVicDlg.obj
 0001:00025710       __unwindfunclet$?InitResourceCombo@CCamVicDlg@@IAEXXZ$0 67da6710 f   CamVicDlg.obj
 0001:0002571c       __unwindfunclet$?InitResourceCombo@CCamVicDlg@@IAEXXZ$1 67da671c f   CamVicDlg.obj
 0001:00025728       __ehhandler$?InitResourceCombo@CCamVicDlg@@IAEXXZ 67da6728 f   CamVicDlg.obj
 0001:00025750       __unwindfunclet$?LoadSettings@CCamVicDlg@@IAEXXZ$0 67da6750 f   CamVicDlg.obj
 0001:00025759       __unwindfunclet$?LoadSettings@CCamVicDlg@@IAEXXZ$1 67da6759 f   CamVicDlg.obj
 0001:00025762       __unwindfunclet$?LoadSettings@CCamVicDlg@@IAEXXZ$2 67da6762 f   CamVicDlg.obj
 0001:0002576b       __unwindfunclet$?LoadSettings@CCamVicDlg@@IAEXXZ$3 67da676b f   CamVicDlg.obj
 0001:00025774       __ehhandler$?LoadSettings@CCamVicDlg@@IAEXXZ 67da6774 f   CamVicDlg.obj
 0001:00025790       __unwindfunclet$?SetDirectories@CCamVicDlg@@IAEXXZ$0 67da6790 f   CamVicDlg.obj
 0001:0002579c       __ehhandler$?SetDirectories@CCamVicDlg@@IAEXXZ 67da679c f   CamVicDlg.obj
 0001:000257d0       __unwindfunclet$?UpdateNames@CCamVicDlg@@IAEXH@Z$0 67da67d0 f   CamVicDlg.obj
 0001:000257d9       __ehhandler$?UpdateNames@CCamVicDlg@@IAEXH@Z 67da67d9 f   CamVicDlg.obj
 0001:00025800       __unwindfunclet$?OnGenerateVic@CCamVicDlg@@IAEXXZ$0 67da6800 f   CamVicDlg.obj
 0001:00025809       __unwindfunclet$?OnGenerateVic@CCamVicDlg@@IAEXXZ$1 67da6809 f   CamVicDlg.obj
 0001:00025812       __unwindfunclet$?OnGenerateVic@CCamVicDlg@@IAEXXZ$2 67da6812 f   CamVicDlg.obj
 0001:0002581b       __unwindfunclet$?OnGenerateVic@CCamVicDlg@@IAEXXZ$3 67da681b f   CamVicDlg.obj
 0001:00025824       __unwindfunclet$?OnGenerateVic@CCamVicDlg@@IAEXXZ$4 67da6824 f   CamVicDlg.obj
 0001:0002582d       __unwindfunclet$?OnGenerateVic@CCamVicDlg@@IAEXXZ$5 67da682d f   CamVicDlg.obj
 0001:00025836       __unwindfunclet$?OnGenerateVic@CCamVicDlg@@IAEXXZ$6 67da6836 f   CamVicDlg.obj
 0001:0002583f       __unwindfunclet$?OnGenerateVic@CCamVicDlg@@IAEXXZ$7 67da683f f   CamVicDlg.obj
 0001:00025848       __unwindfunclet$?OnGenerateVic@CCamVicDlg@@IAEXXZ$8 67da6848 f   CamVicDlg.obj
 0001:00025851       __unwindfunclet$?OnGenerateVic@CCamVicDlg@@IAEXXZ$9 67da6851 f   CamVicDlg.obj
 0001:0002585a       __unwindfunclet$?OnGenerateVic@CCamVicDlg@@IAEXXZ$10 67da685a f   CamVicDlg.obj
 0001:00025863       __unwindfunclet$?OnGenerateVic@CCamVicDlg@@IAEXXZ$11 67da6863 f   CamVicDlg.obj
 0001:0002586c       __unwindfunclet$?OnGenerateVic@CCamVicDlg@@IAEXXZ$12 67da686c f   CamVicDlg.obj
 0001:00025875       __unwindfunclet$?OnGenerateVic@CCamVicDlg@@IAEXXZ$13 67da6875 f   CamVicDlg.obj
 0001:0002587e       __unwindfunclet$?OnGenerateVic@CCamVicDlg@@IAEXXZ$14 67da687e f   CamVicDlg.obj
 0001:00025887       __unwindfunclet$?OnGenerateVic@CCamVicDlg@@IAEXXZ$15 67da6887 f   CamVicDlg.obj
 0001:00025890       __unwindfunclet$?OnGenerateVic@CCamVicDlg@@IAEXXZ$16 67da6890 f   CamVicDlg.obj
 0001:00025899       __unwindfunclet$?OnGenerateVic@CCamVicDlg@@IAEXXZ$17 67da6899 f   CamVicDlg.obj
 0001:000258a2       __ehhandler$?OnGenerateVic@CCamVicDlg@@IAEXXZ 67da68a2 f   CamVicDlg.obj
 0001:000258c0       __unwindfunclet$??0CCamVicDlg@@QAE@PAVCWnd@@PAVSapAcquisition@@PBD@Z$0 67da68c0 f   CamVicDlg.obj
 0001:000258c8       __unwindfunclet$??0CCamVicDlg@@QAE@PAVCWnd@@PAVSapAcquisition@@PBD@Z$1 67da68c8 f   CamVicDlg.obj
 0001:000258d7       __unwindfunclet$??0CCamVicDlg@@QAE@PAVCWnd@@PAVSapAcquisition@@PBD@Z$2 67da68d7 f   CamVicDlg.obj
 0001:000258e5       __unwindfunclet$??0CCamVicDlg@@QAE@PAVCWnd@@PAVSapAcquisition@@PBD@Z$3 67da68e5 f   CamVicDlg.obj
 0001:000258f3       __unwindfunclet$??0CCamVicDlg@@QAE@PAVCWnd@@PAVSapAcquisition@@PBD@Z$4 67da68f3 f   CamVicDlg.obj
 0001:00025901       __unwindfunclet$??0CCamVicDlg@@QAE@PAVCWnd@@PAVSapAcquisition@@PBD@Z$5 67da6901 f   CamVicDlg.obj
 0001:0002590f       __unwindfunclet$??0CCamVicDlg@@QAE@PAVCWnd@@PAVSapAcquisition@@PBD@Z$6 67da690f f   CamVicDlg.obj
 0001:0002591d       __unwindfunclet$??0CCamVicDlg@@QAE@PAVCWnd@@PAVSapAcquisition@@PBD@Z$7 67da691d f   CamVicDlg.obj
 0001:0002592b       __unwindfunclet$??0CCamVicDlg@@QAE@PAVCWnd@@PAVSapAcquisition@@PBD@Z$8 67da692b f   CamVicDlg.obj
 0001:0002593a       __unwindfunclet$??0CCamVicDlg@@QAE@PAVCWnd@@PAVSapAcquisition@@PBD@Z$10 67da693a f   CamVicDlg.obj
 0001:00025949       __unwindfunclet$??0CCamVicDlg@@QAE@PAVCWnd@@PAVSapAcquisition@@PBD@Z$11 67da6949 f   CamVicDlg.obj
 0001:00025958       __unwindfunclet$??0CCamVicDlg@@QAE@PAVCWnd@@PAVSapAcquisition@@PBD@Z$13 67da6958 f   CamVicDlg.obj
 0001:00025961       __ehhandler$??0CCamVicDlg@@QAE@PAVCWnd@@PAVSapAcquisition@@PBD@Z 67da6961 f   CamVicDlg.obj
 0001:00025990       __unwindfunclet$?OnCamBrowse@CCamVicDlg@@IAEXXZ$0 67da6990 f   CamVicDlg.obj
 0001:00025999       __unwindfunclet$?OnCamBrowse@CCamVicDlg@@IAEXXZ$1 67da6999 f   CamVicDlg.obj
 0001:000259a1       __unwindfunclet$?OnCamBrowse@CCamVicDlg@@IAEXXZ$2 67da69a1 f   CamVicDlg.obj
 0001:000259aa       __ehhandler$?OnCamBrowse@CCamVicDlg@@IAEXXZ 67da69aa f   CamVicDlg.obj
 0001:000259d0       __unwindfunclet$?OnVicBrowse@CCamVicDlg@@IAEXXZ$0 67da69d0 f   CamVicDlg.obj
 0001:000259d9       __unwindfunclet$?OnVicBrowse@CCamVicDlg@@IAEXXZ$1 67da69d9 f   CamVicDlg.obj
 0001:000259e1       __unwindfunclet$?OnVicBrowse@CCamVicDlg@@IAEXXZ$2 67da69e1 f   CamVicDlg.obj
 0001:000259ea       __ehhandler$?OnVicBrowse@CCamVicDlg@@IAEXXZ 67da69ea f   CamVicDlg.obj
 0001:00025a10       __unwindfunclet$??0CColorConversionOptionsDlg@@QAE@PAVCWnd@@PAVSapColorConversion@@PAVSapTransfer@@PAVCImageWnd@@PAVSapProcessing@@@Z$0 67da6a10 f   ColorConversionDlg.obj
 0001:00025a18       __ehhandler$??0CColorConversionOptionsDlg@@QAE@PAVCWnd@@PAVSapColorConversion@@PAVSapTransfer@@PAVCImageWnd@@PAVSapProcessing@@@Z 67da6a18 f   ColorConversionDlg.obj
 0001:00025a40       __unwindfunclet$??1CColorConversionOptionsDlg@@UAE@XZ$0 67da6a40 f   ColorConversionDlg.obj
 0001:00025a48       __ehhandler$??1CColorConversionOptionsDlg@@UAE@XZ 67da6a48 f   ColorConversionDlg.obj
 0001:00025a70       __unwindfunclet$?SetSelectedMethodDescription@CColorConversionOptionsDlg@@IAEXXZ$0 67da6a70 f   ColorConversionDlg.obj
 0001:00025a79       __ehhandler$?SetSelectedMethodDescription@CColorConversionOptionsDlg@@IAEXXZ 67da6a79 f   ColorConversionDlg.obj
 0001:00025aa0       __unwindfunclet$?OnApply@CColorConversionOptionsDlg@@IAEXXZ$1 67da6aa0 f   ColorConversionDlg.obj
 0001:00025aa9       __ehhandler$?OnApply@CColorConversionOptionsDlg@@IAEXXZ 67da6aa9 f   ColorConversionDlg.obj
 0001:00025ad0       __unwindfunclet$?UpdateInterface@CColorConversionOptionsDlg@@QAEXXZ$0 67da6ad0 f   ColorConversionDlg.obj
 0001:00025ad9       __ehhandler$?UpdateInterface@CColorConversionOptionsDlg@@QAEXXZ 67da6ad9 f   ColorConversionDlg.obj
 0001:00025b00       __unwindfunclet$??__E?m_Methods@CColorConversionOptionsDlg@@0PAUSapColorConversionMethodDictionary@@A@@YAXXZ$1 67da6b00 f   ColorConversionDlg.obj
 0001:00025b0a       __unwindfunclet$??__E?m_Methods@CColorConversionOptionsDlg@@0PAUSapColorConversionMethodDictionary@@A@@YAXXZ$3 67da6b0a f   ColorConversionDlg.obj
 0001:00025b14       __unwindfunclet$??__E?m_Methods@CColorConversionOptionsDlg@@0PAUSapColorConversionMethodDictionary@@A@@YAXXZ$5 67da6b14 f   ColorConversionDlg.obj
 0001:00025b1e       __unwindfunclet$??__E?m_Methods@CColorConversionOptionsDlg@@0PAUSapColorConversionMethodDictionary@@A@@YAXXZ$7 67da6b1e f   ColorConversionDlg.obj
 0001:00025b28       __unwindfunclet$??__E?m_Methods@CColorConversionOptionsDlg@@0PAUSapColorConversionMethodDictionary@@A@@YAXXZ$9 67da6b28 f   ColorConversionDlg.obj
 0001:00025b32       __unwindfunclet$??__E?m_Methods@CColorConversionOptionsDlg@@0PAUSapColorConversionMethodDictionary@@A@@YAXXZ$11 67da6b32 f   ColorConversionDlg.obj
 0001:00025b3c       __unwindfunclet$??__E?m_Methods@CColorConversionOptionsDlg@@0PAUSapColorConversionMethodDictionary@@A@@YAXXZ$13 67da6b3c f   ColorConversionDlg.obj
 0001:00025b46       __ehhandler$??__E?m_Methods@CColorConversionOptionsDlg@@0PAUSapColorConversionMethodDictionary@@A@@YAXXZ 67da6b46 f   ColorConversionDlg.obj
 0001:00025b70       __unwindfunclet$??1CCompDlg@@UAE@XZ$0 67da6b70 f   CompDlg.obj
 0001:00025b78       __unwindfunclet$??1CCompDlg@@UAE@XZ$1 67da6b78 f   CompDlg.obj
 0001:00025b87       __unwindfunclet$??1CCompDlg@@UAE@XZ$2 67da6b87 f   CompDlg.obj
 0001:00025b95       __unwindfunclet$??1CCompDlg@@UAE@XZ$3 67da6b95 f   CompDlg.obj
 0001:00025ba3       __unwindfunclet$??1CCompDlg@@UAE@XZ$4 67da6ba3 f   CompDlg.obj
 0001:00025bb1       __unwindfunclet$??1CCompDlg@@UAE@XZ$5 67da6bb1 f   CompDlg.obj
 0001:00025bbf       __ehhandler$??1CCompDlg@@UAE@XZ 67da6bbf f   CompDlg.obj
 0001:00025be0       __unwindfunclet$??0CCompDlg@@QAE@PAVCWnd@@PAVSapAcquisition@@PAVSapTransfer@@@Z$0 67da6be0 f   CompDlg.obj
 0001:00025be8       __unwindfunclet$??0CCompDlg@@QAE@PAVCWnd@@PAVSapAcquisition@@PAVSapTransfer@@@Z$1 67da6be8 f   CompDlg.obj
 0001:00025bf7       __unwindfunclet$??0CCompDlg@@QAE@PAVCWnd@@PAVSapAcquisition@@PAVSapTransfer@@@Z$2 67da6bf7 f   CompDlg.obj
 0001:00025c05       __unwindfunclet$??0CCompDlg@@QAE@PAVCWnd@@PAVSapAcquisition@@PAVSapTransfer@@@Z$3 67da6c05 f   CompDlg.obj
 0001:00025c13       __unwindfunclet$??0CCompDlg@@QAE@PAVCWnd@@PAVSapAcquisition@@PAVSapTransfer@@@Z$4 67da6c13 f   CompDlg.obj
 0001:00025c21       __unwindfunclet$??0CCompDlg@@QAE@PAVCWnd@@PAVSapAcquisition@@PAVSapTransfer@@@Z$5 67da6c21 f   CompDlg.obj
 0001:00025c2f       __ehhandler$??0CCompDlg@@QAE@PAVCWnd@@PAVSapAcquisition@@PAVSapTransfer@@@Z 67da6c2f f   CompDlg.obj
 0001:00025c50       __unwindfunclet$?Snap@CCompDlg@@IAEXXZ$0 67da6c50 f   CompDlg.obj
 0001:00025c5b       __ehhandler$?Snap@CCompDlg@@IAEXXZ 67da6c5b f   CompDlg.obj
 0001:00025c90       __unwindfunclet$??1CFlatFieldDlg@@UAE@XZ$0 67da6c90 f   FlatFieldDlg.obj
 0001:00025c98       __unwindfunclet$??1CFlatFieldDlg@@UAE@XZ$1 67da6c98 f   FlatFieldDlg.obj
 0001:00025ca7       __unwindfunclet$??1CFlatFieldDlg@@UAE@XZ$2 67da6ca7 f   FlatFieldDlg.obj
 0001:00025cb5       __unwindfunclet$??1CFlatFieldDlg@@UAE@XZ$3 67da6cb5 f   FlatFieldDlg.obj
 0001:00025cc3       __unwindfunclet$??1CFlatFieldDlg@@UAE@XZ$4 67da6cc3 f   FlatFieldDlg.obj
 0001:00025cd1       __unwindfunclet$??1CFlatFieldDlg@@UAE@XZ$5 67da6cd1 f   FlatFieldDlg.obj
 0001:00025cdf       __unwindfunclet$??1CFlatFieldDlg@@UAE@XZ$6 67da6cdf f   FlatFieldDlg.obj
 0001:00025ced       __unwindfunclet$??1CFlatFieldDlg@@UAE@XZ$7 67da6ced f   FlatFieldDlg.obj
 0001:00025cfb       __unwindfunclet$??1CFlatFieldDlg@@UAE@XZ$8 67da6cfb f   FlatFieldDlg.obj
 0001:00025d0a       __ehhandler$??1CFlatFieldDlg@@UAE@XZ 67da6d0a f   FlatFieldDlg.obj
 0001:00025d30       __unwindfunclet$?OnBnClickedScgFfLoadClusterMap@CFlatFieldDlg@@IAEXXZ$0 67da6d30 f   FlatFieldDlg.obj
 0001:00025d3b       __unwindfunclet$?OnBnClickedScgFfLoadClusterMap@CFlatFieldDlg@@IAEXXZ$1 67da6d3b f   FlatFieldDlg.obj
 0001:00025d47       __unwindfunclet$?OnBnClickedScgFfLoadClusterMap@CFlatFieldDlg@@IAEXXZ$2 67da6d47 f   FlatFieldDlg.obj
 0001:00025d53       __unwindfunclet$?OnBnClickedScgFfLoadClusterMap@CFlatFieldDlg@@IAEXXZ$3 67da6d53 f   FlatFieldDlg.obj
 0001:00025d5f       __ehhandler$?OnBnClickedScgFfLoadClusterMap@CFlatFieldDlg@@IAEXXZ 67da6d5f f   FlatFieldDlg.obj
 0001:00025d90       __unwindfunclet$?GetAverageStr@CFlatFieldDlg@@ABE?AV?$CStringT@DV?$StrTraitMFC_DLL@DV?$ChTraitsCRT@D@ATL@@@@@ATL@@AAVSapFlatFieldStats@@@Z$0 67da6d90 f   FlatFieldDlg.obj
 0001:00025daa       __unwindfunclet$?GetAverageStr@CFlatFieldDlg@@ABE?AV?$CStringT@DV?$StrTraitMFC_DLL@DV?$ChTraitsCRT@D@ATL@@@@@ATL@@AAVSapFlatFieldStats@@@Z$1 67da6daa f   FlatFieldDlg.obj
 0001:00025db3       __ehhandler$?GetAverageStr@CFlatFieldDlg@@ABE?AV?$CStringT@DV?$StrTraitMFC_DLL@DV?$ChTraitsCRT@D@ATL@@@@@ATL@@AAVSapFlatFieldStats@@@Z 67da6db3 f   FlatFieldDlg.obj
 0001:00025dd0       __unwindfunclet$?GetStdDeviationStr@CFlatFieldDlg@@ABE?AV?$CStringT@DV?$StrTraitMFC_DLL@DV?$ChTraitsCRT@D@ATL@@@@@ATL@@AAVSapFlatFieldStats@@@Z$0 67da6dd0 f   FlatFieldDlg.obj
 0001:00025dea       __unwindfunclet$?GetStdDeviationStr@CFlatFieldDlg@@ABE?AV?$CStringT@DV?$StrTraitMFC_DLL@DV?$ChTraitsCRT@D@ATL@@@@@ATL@@AAVSapFlatFieldStats@@@Z$1 67da6dea f   FlatFieldDlg.obj
 0001:00025df3       __ehhandler$?GetStdDeviationStr@CFlatFieldDlg@@ABE?AV?$CStringT@DV?$StrTraitMFC_DLL@DV?$ChTraitsCRT@D@ATL@@@@@ATL@@AAVSapFlatFieldStats@@@Z 67da6df3 f   FlatFieldDlg.obj
 0001:00025e10       __unwindfunclet$?GetLowStr@CFlatFieldDlg@@ABE?AV?$CStringT@DV?$StrTraitMFC_DLL@DV?$ChTraitsCRT@D@ATL@@@@@ATL@@AAVSapFlatFieldStats@@@Z$0 67da6e10 f   FlatFieldDlg.obj
 0001:00025e2a       __unwindfunclet$?GetLowStr@CFlatFieldDlg@@ABE?AV?$CStringT@DV?$StrTraitMFC_DLL@DV?$ChTraitsCRT@D@ATL@@@@@ATL@@AAVSapFlatFieldStats@@@Z$1 67da6e2a f   FlatFieldDlg.obj
 0001:00025e33       __ehhandler$?GetLowStr@CFlatFieldDlg@@ABE?AV?$CStringT@DV?$StrTraitMFC_DLL@DV?$ChTraitsCRT@D@ATL@@@@@ATL@@AAVSapFlatFieldStats@@@Z 67da6e33 f   FlatFieldDlg.obj
 0001:00025e50       __unwindfunclet$?GetHighStr@CFlatFieldDlg@@ABE?AV?$CStringT@DV?$StrTraitMFC_DLL@DV?$ChTraitsCRT@D@ATL@@@@@ATL@@AAVSapFlatFieldStats@@@Z$0 67da6e50 f   FlatFieldDlg.obj
 0001:00025e6a       __unwindfunclet$?GetHighStr@CFlatFieldDlg@@ABE?AV?$CStringT@DV?$StrTraitMFC_DLL@DV?$ChTraitsCRT@D@ATL@@@@@ATL@@AAVSapFlatFieldStats@@@Z$1 67da6e6a f   FlatFieldDlg.obj
 0001:00025e73       __ehhandler$?GetHighStr@CFlatFieldDlg@@ABE?AV?$CStringT@DV?$StrTraitMFC_DLL@DV?$ChTraitsCRT@D@ATL@@@@@ATL@@AAVSapFlatFieldStats@@@Z 67da6e73 f   FlatFieldDlg.obj
 0001:00025e90       __unwindfunclet$?GetPeakPositionStr@CFlatFieldDlg@@ABE?AV?$CStringT@DV?$StrTraitMFC_DLL@DV?$ChTraitsCRT@D@ATL@@@@@ATL@@AAVSapFlatFieldStats@@@Z$0 67da6e90 f   FlatFieldDlg.obj
 0001:00025eaa       __unwindfunclet$?GetPeakPositionStr@CFlatFieldDlg@@ABE?AV?$CStringT@DV?$StrTraitMFC_DLL@DV?$ChTraitsCRT@D@ATL@@@@@ATL@@AAVSapFlatFieldStats@@@Z$1 67da6eaa f   FlatFieldDlg.obj
 0001:00025eb3       __ehhandler$?GetPeakPositionStr@CFlatFieldDlg@@ABE?AV?$CStringT@DV?$StrTraitMFC_DLL@DV?$ChTraitsCRT@D@ATL@@@@@ATL@@AAVSapFlatFieldStats@@@Z 67da6eb3 f   FlatFieldDlg.obj
 0001:00025ed0       __unwindfunclet$?GetPixelRatioStr@CFlatFieldDlg@@ABE?AV?$CStringT@DV?$StrTraitMFC_DLL@DV?$ChTraitsCRT@D@ATL@@@@@ATL@@AAVSapFlatFieldStats@@@Z$0 67da6ed0 f   FlatFieldDlg.obj
 0001:00025eea       __unwindfunclet$?GetPixelRatioStr@CFlatFieldDlg@@ABE?AV?$CStringT@DV?$StrTraitMFC_DLL@DV?$ChTraitsCRT@D@ATL@@@@@ATL@@AAVSapFlatFieldStats@@@Z$1 67da6eea f   FlatFieldDlg.obj
 0001:00025ef3       __ehhandler$?GetPixelRatioStr@CFlatFieldDlg@@ABE?AV?$CStringT@DV?$StrTraitMFC_DLL@DV?$ChTraitsCRT@D@ATL@@@@@ATL@@AAVSapFlatFieldStats@@@Z 67da6ef3 f   FlatFieldDlg.obj
 0001:00025f10       __unwindfunclet$?GetNumPixelsStr@CFlatFieldDlg@@ABE?AV?$CStringT@DV?$StrTraitMFC_DLL@DV?$ChTraitsCRT@D@ATL@@@@@ATL@@AAVSapFlatFieldStats@@@Z$0 67da6f10 f   FlatFieldDlg.obj
 0001:00025f2a       __unwindfunclet$?GetNumPixelsStr@CFlatFieldDlg@@ABE?AV?$CStringT@DV?$StrTraitMFC_DLL@DV?$ChTraitsCRT@D@ATL@@@@@ATL@@AAVSapFlatFieldStats@@@Z$1 67da6f2a f   FlatFieldDlg.obj
 0001:00025f33       __ehhandler$?GetNumPixelsStr@CFlatFieldDlg@@ABE?AV?$CStringT@DV?$StrTraitMFC_DLL@DV?$ChTraitsCRT@D@ATL@@@@@ATL@@AAVSapFlatFieldStats@@@Z 67da6f33 f   FlatFieldDlg.obj
 0001:00025f50       __unwindfunclet$??1CWaitCursor@@QAE@XZ$2 67da6f50 f   FlatFieldDlg.obj
 0001:00025f5c       __ehhandler$??1CWaitCursor@@QAE@XZ 67da6f5c f   FlatFieldDlg.obj
 0001:00025f90       __unwindfunclet$??0CFlatFieldDlg@@QAE@PAVCWnd@@PAVSapFlatField@@PAVSapTransfer@@PAVSapBuffer@@@Z$0 67da6f90 f   FlatFieldDlg.obj
 0001:00025f98       __unwindfunclet$??0CFlatFieldDlg@@QAE@PAVCWnd@@PAVSapFlatField@@PAVSapTransfer@@PAVSapBuffer@@@Z$1 67da6f98 f   FlatFieldDlg.obj
 0001:00025fa7       __unwindfunclet$??0CFlatFieldDlg@@QAE@PAVCWnd@@PAVSapFlatField@@PAVSapTransfer@@PAVSapBuffer@@@Z$2 67da6fa7 f   FlatFieldDlg.obj
 0001:00025fb5       __unwindfunclet$??0CFlatFieldDlg@@QAE@PAVCWnd@@PAVSapFlatField@@PAVSapTransfer@@PAVSapBuffer@@@Z$3 67da6fb5 f   FlatFieldDlg.obj
 0001:00025fc3       __unwindfunclet$??0CFlatFieldDlg@@QAE@PAVCWnd@@PAVSapFlatField@@PAVSapTransfer@@PAVSapBuffer@@@Z$4 67da6fc3 f   FlatFieldDlg.obj
 0001:00025fd1       __unwindfunclet$??0CFlatFieldDlg@@QAE@PAVCWnd@@PAVSapFlatField@@PAVSapTransfer@@PAVSapBuffer@@@Z$5 67da6fd1 f   FlatFieldDlg.obj
 0001:00025fdf       __unwindfunclet$??0CFlatFieldDlg@@QAE@PAVCWnd@@PAVSapFlatField@@PAVSapTransfer@@PAVSapBuffer@@@Z$6 67da6fdf f   FlatFieldDlg.obj
 0001:00025fed       __unwindfunclet$??0CFlatFieldDlg@@QAE@PAVCWnd@@PAVSapFlatField@@PAVSapTransfer@@PAVSapBuffer@@@Z$7 67da6fed f   FlatFieldDlg.obj
 0001:00025ffb       __unwindfunclet$??0CFlatFieldDlg@@QAE@PAVCWnd@@PAVSapFlatField@@PAVSapTransfer@@PAVSapBuffer@@@Z$8 67da6ffb f   FlatFieldDlg.obj
 0001:0002600a       __ehhandler$??0CFlatFieldDlg@@QAE@PAVCWnd@@PAVSapFlatField@@PAVSapTransfer@@PAVSapBuffer@@@Z 67da700a f   FlatFieldDlg.obj
 0001:00026030       __unwindfunclet$?Snap@CFlatFieldDlg@@QAEHXZ$0 67da7030 f   FlatFieldDlg.obj
 0001:0002603b       __ehhandler$?Snap@CFlatFieldDlg@@QAEHXZ 67da703b f   FlatFieldDlg.obj
 0001:00026070       __unwindfunclet$?LogMessage@CFlatFieldDlg@@AAEXHV?$CStringT@DV?$StrTraitMFC_DLL@DV?$ChTraitsCRT@D@ATL@@@@@ATL@@@Z$0 67da7070 f   FlatFieldDlg.obj
 0001:00026079       __unwindfunclet$?LogMessage@CFlatFieldDlg@@AAEXHV?$CStringT@DV?$StrTraitMFC_DLL@DV?$ChTraitsCRT@D@ATL@@@@@ATL@@@Z$1 67da7079 f   FlatFieldDlg.obj
 0001:00026082       __ehhandler$?LogMessage@CFlatFieldDlg@@AAEXHV?$CStringT@DV?$StrTraitMFC_DLL@DV?$ChTraitsCRT@D@ATL@@@@@ATL@@@Z 67da7082 f   FlatFieldDlg.obj
 0001:000260a0       __unwindfunclet$?OnInitDialog@CFlatFieldDlg@@MAEHXZ$0 67da70a0 f   FlatFieldDlg.obj
 0001:000260ac       __unwindfunclet$?OnInitDialog@CFlatFieldDlg@@MAEHXZ$1 67da70ac f   FlatFieldDlg.obj
 0001:000260b8       __unwindfunclet$?OnInitDialog@CFlatFieldDlg@@MAEHXZ$3 67da70b8 f   FlatFieldDlg.obj
 0001:000260c4       __unwindfunclet$?OnInitDialog@CFlatFieldDlg@@MAEHXZ$4 67da70c4 f   FlatFieldDlg.obj
 0001:000260d0       __unwindfunclet$?OnInitDialog@CFlatFieldDlg@@MAEHXZ$5 67da70d0 f   FlatFieldDlg.obj
 0001:000260dc       __ehhandler$?OnInitDialog@CFlatFieldDlg@@MAEHXZ 67da70dc f   FlatFieldDlg.obj
 0001:00026110       __unwindfunclet$?OnSaveAndUpload@CFlatFieldDlg@@IAEXXZ$0 67da7110 f   FlatFieldDlg.obj
 0001:0002611b       __unwindfunclet$?OnSaveAndUpload@CFlatFieldDlg@@IAEXXZ$1 67da711b f   FlatFieldDlg.obj
 0001:00026127       __unwindfunclet$?OnSaveAndUpload@CFlatFieldDlg@@IAEXXZ$2 67da7127 f   FlatFieldDlg.obj
 0001:00026132       __unwindfunclet$?OnSaveAndUpload@CFlatFieldDlg@@IAEXXZ$3 67da7132 f   FlatFieldDlg.obj
 0001:0002613e       __ehhandler$?OnSaveAndUpload@CFlatFieldDlg@@IAEXXZ 67da713e f   FlatFieldDlg.obj
 0001:00026170       __unwindfunclet$?DarkImage@CFlatFieldDlg@@AAEXXZ$0 67da7170 f   FlatFieldDlg.obj
 0001:0002617c       __unwindfunclet$?DarkImage@CFlatFieldDlg@@AAEXXZ$1 67da717c f   FlatFieldDlg.obj
 0001:00026188       __unwindfunclet$?DarkImage@CFlatFieldDlg@@AAEXXZ$9 67da7188 f   FlatFieldDlg.obj
 0001:00026194       __unwindfunclet$?DarkImage@CFlatFieldDlg@@AAEXXZ$10 67da7194 f   FlatFieldDlg.obj
 0001:000261a0       __unwindfunclet$?DarkImage@CFlatFieldDlg@@AAEXXZ$11 67da71a0 f   FlatFieldDlg.obj
 0001:000261ac       __unwindfunclet$?DarkImage@CFlatFieldDlg@@AAEXXZ$7 67da71ac f   FlatFieldDlg.obj
 0001:000261b8       __unwindfunclet$?DarkImage@CFlatFieldDlg@@AAEXXZ$8 67da71b8 f   FlatFieldDlg.obj
 0001:000261c4       __ehhandler$?DarkImage@CFlatFieldDlg@@AAEXXZ 67da71c4 f   FlatFieldDlg.obj
 0001:000261f0       __unwindfunclet$?BrightImage@CFlatFieldDlg@@AAEXXZ$0 67da71f0 f   FlatFieldDlg.obj
 0001:000261fc       __unwindfunclet$?BrightImage@CFlatFieldDlg@@AAEXXZ$1 67da71fc f   FlatFieldDlg.obj
 0001:00026208       __unwindfunclet$?BrightImage@CFlatFieldDlg@@AAEXXZ$5 67da7208 f   FlatFieldDlg.obj
 0001:00026214       __unwindfunclet$?BrightImage@CFlatFieldDlg@@AAEXXZ$6 67da7214 f   FlatFieldDlg.obj
 0001:00026220       __unwindfunclet$?BrightImage@CFlatFieldDlg@@AAEXXZ$7 67da7220 f   FlatFieldDlg.obj
 0001:0002622c       __unwindfunclet$?BrightImage@CFlatFieldDlg@@AAEXXZ$8 67da722c f   FlatFieldDlg.obj
 0001:00026238       __unwindfunclet$?BrightImage@CFlatFieldDlg@@AAEXXZ$9 67da7238 f   FlatFieldDlg.obj
 0001:00026244       __unwindfunclet$?BrightImage@CFlatFieldDlg@@AAEXXZ$10 67da7244 f   FlatFieldDlg.obj
 0001:00026250       __unwindfunclet$?BrightImage@CFlatFieldDlg@@AAEXXZ$11 67da7250 f   FlatFieldDlg.obj
 0001:0002625c       __unwindfunclet$?BrightImage@CFlatFieldDlg@@AAEXXZ$12 67da725c f   FlatFieldDlg.obj
 0001:00026268       __unwindfunclet$?BrightImage@CFlatFieldDlg@@AAEXXZ$15 67da7268 f   FlatFieldDlg.obj
 0001:00026274       __unwindfunclet$?BrightImage@CFlatFieldDlg@@AAEXXZ$17 67da7274 f   FlatFieldDlg.obj
 0001:00026280       __unwindfunclet$?BrightImage@CFlatFieldDlg@@AAEXXZ$19 67da7280 f   FlatFieldDlg.obj
 0001:0002628c       __unwindfunclet$?BrightImage@CFlatFieldDlg@@AAEXXZ$21 67da728c f   FlatFieldDlg.obj
 0001:00026298       __unwindfunclet$?BrightImage@CFlatFieldDlg@@AAEXXZ$22 67da7298 f   FlatFieldDlg.obj
 0001:000262a4       __unwindfunclet$?BrightImage@CFlatFieldDlg@@AAEXXZ$24 67da72a4 f   FlatFieldDlg.obj
 0001:000262b0       __unwindfunclet$?BrightImage@CFlatFieldDlg@@AAEXXZ$25 67da72b0 f   FlatFieldDlg.obj
 0001:000262bc       __ehhandler$?BrightImage@CFlatFieldDlg@@AAEXXZ 67da72bc f   FlatFieldDlg.obj
 0001:000262f0       __unwindfunclet$?OnDarkImage@CFlatFieldDlg@@IAEXXZ$3 67da72f0 f   FlatFieldDlg.obj
 0001:000262fe       __unwindfunclet$?OnDarkImage@CFlatFieldDlg@@IAEXXZ$5 67da72fe f   FlatFieldDlg.obj
 0001:0002630c       __unwindfunclet$?OnDarkImage@CFlatFieldDlg@@IAEXXZ$7 67da730c f   FlatFieldDlg.obj
 0001:00026317       __unwindfunclet$?OnDarkImage@CFlatFieldDlg@@IAEXXZ$8 67da7317 f   FlatFieldDlg.obj
 0001:00026323       __unwindfunclet$?OnDarkImage@CFlatFieldDlg@@IAEXXZ$10 67da7323 f   FlatFieldDlg.obj
 0001:0002632f       __unwindfunclet$?OnDarkImage@CFlatFieldDlg@@IAEXXZ$11 67da732f f   FlatFieldDlg.obj
 0001:0002633b       __unwindfunclet$?OnDarkImage@CFlatFieldDlg@@IAEXXZ$12 67da733b f   FlatFieldDlg.obj
 0001:00026347       __ehhandler$?OnDarkImage@CFlatFieldDlg@@IAEXXZ 67da7347 f   FlatFieldDlg.obj
 0001:00026370       __unwindfunclet$?OnBrightImage@CFlatFieldDlg@@IAEXXZ$3 67da7370 f   FlatFieldDlg.obj
 0001:0002637e       __unwindfunclet$?OnBrightImage@CFlatFieldDlg@@IAEXXZ$5 67da737e f   FlatFieldDlg.obj
 0001:0002638c       __unwindfunclet$?OnBrightImage@CFlatFieldDlg@@IAEXXZ$7 67da738c f   FlatFieldDlg.obj
 0001:00026397       __unwindfunclet$?OnBrightImage@CFlatFieldDlg@@IAEXXZ$8 67da7397 f   FlatFieldDlg.obj
 0001:000263a3       __unwindfunclet$?OnBrightImage@CFlatFieldDlg@@IAEXXZ$10 67da73a3 f   FlatFieldDlg.obj
 0001:000263af       __unwindfunclet$?OnBrightImage@CFlatFieldDlg@@IAEXXZ$11 67da73af f   FlatFieldDlg.obj
 0001:000263bb       __unwindfunclet$?OnBrightImage@CFlatFieldDlg@@IAEXXZ$12 67da73bb f   FlatFieldDlg.obj
 0001:000263c7       __ehhandler$?OnBrightImage@CFlatFieldDlg@@IAEXXZ 67da73c7 f   FlatFieldDlg.obj
 0001:000263f0       __unwindfunclet$?Update@CGioBidirectionalDlg@@QAEHXZ$0 67da73f0 f   GioBidirectionalDlg.obj
 0001:000263f9       __ehhandler$?Update@CGioBidirectionalDlg@@QAEHXZ 67da73f9 f   GioBidirectionalDlg.obj
 0001:00026420       __unwindfunclet$?ResetInterruptCount@CGioBidirectionalDlg@@IAEHXZ$0 67da7420 f   GioBidirectionalDlg.obj
 0001:00026429       __ehhandler$?ResetInterruptCount@CGioBidirectionalDlg@@IAEHXZ 67da7429 f   GioBidirectionalDlg.obj
 0001:00026450       __unwindfunclet$??1CGdiObject@@UAE@XZ$2 67da7450 f   GioBidirectionalDlg.obj
 0001:0002645c       __ehhandler$??1CGdiObject@@UAE@XZ 67da745c f   GioBidirectionalDlg.obj
 0001:00026490       __unwindfunclet$??1CGioBidirectionalDlg@@UAE@XZ$0 67da7490 f   GioBidirectionalDlg.obj
 0001:00026498       __unwindfunclet$??1CGioBidirectionalDlg@@UAE@XZ$1 67da7498 f   GioBidirectionalDlg.obj
 0001:000264a6       __unwindfunclet$??1CGioBidirectionalDlg@@UAE@XZ$2 67da74a6 f   GioBidirectionalDlg.obj
 0001:000264b4       __unwindfunclet$??1CGioBidirectionalDlg@@UAE@XZ$3 67da74b4 f   GioBidirectionalDlg.obj
 0001:000264c2       __ehhandler$??1CGioBidirectionalDlg@@UAE@XZ 67da74c2 f   GioBidirectionalDlg.obj
 0001:000264e0       __unwindfunclet$??0CGioBidirectionalDlg@@QAE@PAVCWnd@@IPAVSapGio@@@Z$0 67da74e0 f   GioBidirectionalDlg.obj
 0001:000264e8       __unwindfunclet$??0CGioBidirectionalDlg@@QAE@PAVCWnd@@IPAVSapGio@@@Z$1 67da74e8 f   GioBidirectionalDlg.obj
 0001:000264f6       __unwindfunclet$??0CGioBidirectionalDlg@@QAE@PAVCWnd@@IPAVSapGio@@@Z$2 67da74f6 f   GioBidirectionalDlg.obj
 0001:00026504       __ehhandler$??0CGioBidirectionalDlg@@QAE@PAVCWnd@@IPAVSapGio@@@Z 67da7504 f   GioBidirectionalDlg.obj
 0001:00026520       __unwindfunclet$?OnEnableCallback@CGioBidirectionalDlg@@IAEXXZ$0 67da7520 f   GioBidirectionalDlg.obj
 0001:00026529       __ehhandler$?OnEnableCallback@CGioBidirectionalDlg@@IAEXXZ 67da7529 f   GioBidirectionalDlg.obj
 0001:00026550       __unwindfunclet$?ChangePinState@CGioBidirectionalDlg@@IAEXH@Z$0 67da7550 f   GioBidirectionalDlg.obj
 0001:00026559       __ehhandler$?ChangePinState@CGioBidirectionalDlg@@IAEXH@Z 67da7559 f   GioBidirectionalDlg.obj
 0001:00026580       __unwindfunclet$?OnInitDialog@CGioBidirectionalDlg@@MAEHXZ$0 67da7580 f   GioBidirectionalDlg.obj
 0001:0002658c       __ehhandler$?OnInitDialog@CGioBidirectionalDlg@@MAEHXZ 67da758c f   GioBidirectionalDlg.obj
 0001:000265c0       __unwindfunclet$?Update@CGioInputDlg@@QAEHXZ$0 67da75c0 f   GioInputDlg.obj
 0001:000265c9       __ehhandler$?Update@CGioInputDlg@@QAEHXZ 67da75c9 f   GioInputDlg.obj
 0001:000265f0       __unwindfunclet$?ResetInterruptCount@CGioInputDlg@@IAEHXZ$0 67da75f0 f   GioInputDlg.obj
 0001:000265f9       __ehhandler$?ResetInterruptCount@CGioInputDlg@@IAEHXZ 67da75f9 f   GioInputDlg.obj
 0001:00026620       __unwindfunclet$??1CGioInputDlg@@UAE@XZ$0 67da7620 f   GioInputDlg.obj
 0001:00026628       __unwindfunclet$??1CGioInputDlg@@UAE@XZ$1 67da7628 f   GioInputDlg.obj
 0001:00026636       __unwindfunclet$??1CGioInputDlg@@UAE@XZ$2 67da7636 f   GioInputDlg.obj
 0001:00026644       __unwindfunclet$??1CGioInputDlg@@UAE@XZ$3 67da7644 f   GioInputDlg.obj
 0001:00026652       __ehhandler$??1CGioInputDlg@@UAE@XZ 67da7652 f   GioInputDlg.obj
 0001:00026670       __unwindfunclet$??0CGioInputDlg@@QAE@PAVCWnd@@IPAVSapGio@@@Z$0 67da7670 f   GioInputDlg.obj
 0001:00026678       __unwindfunclet$??0CGioInputDlg@@QAE@PAVCWnd@@IPAVSapGio@@@Z$1 67da7678 f   GioInputDlg.obj
 0001:00026686       __unwindfunclet$??0CGioInputDlg@@QAE@PAVCWnd@@IPAVSapGio@@@Z$2 67da7686 f   GioInputDlg.obj
 0001:00026694       __ehhandler$??0CGioInputDlg@@QAE@PAVCWnd@@IPAVSapGio@@@Z 67da7694 f   GioInputDlg.obj
 0001:000266b0       __unwindfunclet$?OnInitDialog@CGioInputDlg@@MAEHXZ$0 67da76b0 f   GioInputDlg.obj
 0001:000266bc       __ehhandler$?OnInitDialog@CGioInputDlg@@MAEHXZ 67da76bc f   GioInputDlg.obj
 0001:000266f0       __unwindfunclet$?UpdateIO@CGioOutputDlg@@IAEXXZ$0 67da76f0 f   GioOutputDlg.obj
 0001:000266f9       __ehhandler$?UpdateIO@CGioOutputDlg@@IAEXXZ 67da76f9 f   GioOutputDlg.obj
 0001:00026720       __unwindfunclet$??1CGioOutputDlg@@UAE@XZ$0 67da7720 f   GioOutputDlg.obj
 0001:00026728       __unwindfunclet$??1CGioOutputDlg@@UAE@XZ$1 67da7728 f   GioOutputDlg.obj
 0001:00026736       __unwindfunclet$??1CGioOutputDlg@@UAE@XZ$2 67da7736 f   GioOutputDlg.obj
 0001:00026744       __unwindfunclet$??1CGioOutputDlg@@UAE@XZ$3 67da7744 f   GioOutputDlg.obj
 0001:00026752       __unwindfunclet$??1CGioOutputDlg@@UAE@XZ$4 67da7752 f   GioOutputDlg.obj
 0001:00026760       __unwindfunclet$??1CGioOutputDlg@@UAE@XZ$5 67da7760 f   GioOutputDlg.obj
 0001:0002676e       __ehhandler$??1CGioOutputDlg@@UAE@XZ 67da776e f   GioOutputDlg.obj
 0001:00026790       __unwindfunclet$??0CGioOutputDlg@@QAE@PAVCWnd@@IPAVSapGio@@@Z$0 67da7790 f   GioOutputDlg.obj
 0001:00026798       __unwindfunclet$??0CGioOutputDlg@@QAE@PAVCWnd@@IPAVSapGio@@@Z$1 67da7798 f   GioOutputDlg.obj
 0001:000267a6       __unwindfunclet$??0CGioOutputDlg@@QAE@PAVCWnd@@IPAVSapGio@@@Z$2 67da77a6 f   GioOutputDlg.obj
 0001:000267b4       __unwindfunclet$??0CGioOutputDlg@@QAE@PAVCWnd@@IPAVSapGio@@@Z$3 67da77b4 f   GioOutputDlg.obj
 0001:000267c2       __unwindfunclet$??0CGioOutputDlg@@QAE@PAVCWnd@@IPAVSapGio@@@Z$4 67da77c2 f   GioOutputDlg.obj
 0001:000267d0       __ehhandler$??0CGioOutputDlg@@QAE@PAVCWnd@@IPAVSapGio@@@Z 67da77d0 f   GioOutputDlg.obj
 0001:000267f0       __unwindfunclet$?ChangePinState@CGioOutputDlg@@QAEXPAVCButton@@@Z$0 67da77f0 f   GioOutputDlg.obj
 0001:000267f9       __ehhandler$?ChangePinState@CGioOutputDlg@@QAEXPAVCButton@@@Z 67da77f9 f   GioOutputDlg.obj
 0001:00026820       __unwindfunclet$?OnInitDialog@CGioOutputDlg@@MAEHXZ$0 67da7820 f   GioOutputDlg.obj
 0001:0002682c       __ehhandler$?OnInitDialog@CGioOutputDlg@@MAEHXZ 67da782c f   GioOutputDlg.obj
 0001:00026860       __unwindfunclet$??1CImageExWnd@@UAE@XZ$0 67da7860 f   ImageExWnd.obj
 0001:00026868       __unwindfunclet$??1CImageExWnd@@UAE@XZ$1 67da7868 f   ImageExWnd.obj
 0001:00026873       __unwindfunclet$??1CImageExWnd@@UAE@XZ$2 67da7873 f   ImageExWnd.obj
 0001:0002688b       __unwindfunclet$??1CImageExWnd@@UAE@XZ$3 67da788b f   ImageExWnd.obj
 0001:00026899       __unwindfunclet$??1CImageExWnd@@UAE@XZ$4 67da7899 f   ImageExWnd.obj
 0001:000268a7       __unwindfunclet$??1CImageExWnd@@UAE@XZ$5 67da78a7 f   ImageExWnd.obj
 0001:000268b5       __unwindfunclet$??1CImageExWnd@@UAE@XZ$6 67da78b5 f   ImageExWnd.obj
 0001:000268c3       __unwindfunclet$??1CImageExWnd@@UAE@XZ$7 67da78c3 f   ImageExWnd.obj
 0001:000268d1       __unwindfunclet$??1CImageExWnd@@UAE@XZ$8 67da78d1 f   ImageExWnd.obj
 0001:000268df       __ehhandler$??1CImageExWnd@@UAE@XZ 67da78df f   ImageExWnd.obj
 0001:00026900       __unwindfunclet$?OnPaint@CImageExWnd@@IAEXXZ$0 67da7900 f   ImageExWnd.obj
 0001:00026908       __unwindfunclet$?OnPaint@CImageExWnd@@IAEXXZ$1 67da7908 f   ImageExWnd.obj
 0001:00026913       __unwindfunclet$?OnPaint@CImageExWnd@@IAEXXZ$2 67da7913 f   ImageExWnd.obj
 0001:0002691e       __ehhandler$?OnPaint@CImageExWnd@@IAEXXZ 67da791e f   ImageExWnd.obj
 0001:00026950       __unwindfunclet$?UpdateLayout@CImageExWnd@@IAEXXZ$0 67da7950 f   ImageExWnd.obj
 0001:00026958       __ehhandler$?UpdateLayout@CImageExWnd@@IAEXXZ 67da7958 f   ImageExWnd.obj
 0001:00026980       __unwindfunclet$??0CImageExWnd@@QAE@XZ$0 67da7980 f   ImageExWnd.obj
 0001:00026988       __unwindfunclet$??0CImageExWnd@@QAE@XZ$1 67da7988 f   ImageExWnd.obj
 0001:00026993       __unwindfunclet$??0CImageExWnd@@QAE@XZ$2 67da7993 f   ImageExWnd.obj
 0001:000269ab       __unwindfunclet$??0CImageExWnd@@QAE@XZ$3 67da79ab f   ImageExWnd.obj
 0001:000269b9       __unwindfunclet$??0CImageExWnd@@QAE@XZ$4 67da79b9 f   ImageExWnd.obj
 0001:000269c7       __unwindfunclet$??0CImageExWnd@@QAE@XZ$5 67da79c7 f   ImageExWnd.obj
 0001:000269d5       __unwindfunclet$??0CImageExWnd@@QAE@XZ$6 67da79d5 f   ImageExWnd.obj
 0001:000269e3       __unwindfunclet$??0CImageExWnd@@QAE@XZ$7 67da79e3 f   ImageExWnd.obj
 0001:000269f1       __unwindfunclet$??0CImageExWnd@@QAE@XZ$8 67da79f1 f   ImageExWnd.obj
 0001:000269ff       __ehhandler$??0CImageExWnd@@QAE@XZ 67da79ff f   ImageExWnd.obj
 0001:00026a30       __unwindfunclet$?ReadCoefficientsFromBuffer@CImageFilterEditorDlg@@IAE_NAAVSapBuffer@@@Z$0 67da7a30 f   ImageFilterEditorDlg.obj
 0001:00026a39       __unwindfunclet$?ReadCoefficientsFromBuffer@CImageFilterEditorDlg@@IAE_NAAVSapBuffer@@@Z$1 67da7a39 f   ImageFilterEditorDlg.obj
 0001:00026a42       __unwindfunclet$?ReadCoefficientsFromBuffer@CImageFilterEditorDlg@@IAE_NAAVSapBuffer@@@Z$2 67da7a42 f   ImageFilterEditorDlg.obj
 0001:00026a4b       __ehhandler$?ReadCoefficientsFromBuffer@CImageFilterEditorDlg@@IAE_NAAVSapBuffer@@@Z 67da7a4b f   ImageFilterEditorDlg.obj
 0001:00026a70       __unwindfunclet$?OnBnClickedBtnImport@CImageFilterEditorDlg@@IAEXXZ$0 67da7a70 f   ImageFilterEditorDlg.obj
 0001:00026a7b       __unwindfunclet$?OnBnClickedBtnImport@CImageFilterEditorDlg@@IAEXXZ$1 67da7a7b f   ImageFilterEditorDlg.obj
 0001:00026a87       __unwindfunclet$?OnBnClickedBtnImport@CImageFilterEditorDlg@@IAEXXZ$2 67da7a87 f   ImageFilterEditorDlg.obj
 0001:00026a93       __unwindfunclet$?OnBnClickedBtnImport@CImageFilterEditorDlg@@IAEXXZ$3 67da7a93 f   ImageFilterEditorDlg.obj
 0001:00026a9f       __unwindfunclet$?OnBnClickedBtnImport@CImageFilterEditorDlg@@IAEXXZ$4 67da7a9f f   ImageFilterEditorDlg.obj
 0001:00026aab       __unwindfunclet$?OnBnClickedBtnImport@CImageFilterEditorDlg@@IAEXXZ$5 67da7aab f   ImageFilterEditorDlg.obj
 0001:00026ace       __ehhandler$?OnBnClickedBtnImport@CImageFilterEditorDlg@@IAEXXZ 67da7ace f   ImageFilterEditorDlg.obj
 0001:00026b00       __unwindfunclet$??0CImageFilterEditorDlg@@QAE@PAVSapAcquisition@@PAVCWnd@@@Z$0 67da7b00 f   ImageFilterEditorDlg.obj
 0001:00026b08       __unwindfunclet$??0CImageFilterEditorDlg@@QAE@PAVSapAcquisition@@PAVCWnd@@@Z$1 67da7b08 f   ImageFilterEditorDlg.obj
 0001:00026b16       __unwindfunclet$??0CImageFilterEditorDlg@@QAE@PAVSapAcquisition@@PAVCWnd@@@Z$2 67da7b16 f   ImageFilterEditorDlg.obj
 0001:00026b24       __unwindfunclet$??0CImageFilterEditorDlg@@QAE@PAVSapAcquisition@@PAVCWnd@@@Z$3 67da7b24 f   ImageFilterEditorDlg.obj
 0001:00026b32       __unwindfunclet$??0CImageFilterEditorDlg@@QAE@PAVSapAcquisition@@PAVCWnd@@@Z$4 67da7b32 f   ImageFilterEditorDlg.obj
 0001:00026b41       __unwindfunclet$??0CImageFilterEditorDlg@@QAE@PAVSapAcquisition@@PAVCWnd@@@Z$5 67da7b41 f   ImageFilterEditorDlg.obj
 0001:00026b50       __unwindfunclet$??0CImageFilterEditorDlg@@QAE@PAVSapAcquisition@@PAVCWnd@@@Z$6 67da7b50 f   ImageFilterEditorDlg.obj
 0001:00026b5e       __ehhandler$??0CImageFilterEditorDlg@@QAE@PAVSapAcquisition@@PAVCWnd@@@Z 67da7b5e f   ImageFilterEditorDlg.obj
 0001:00026b80       __unwindfunclet$??1CImageFilterEditorDlg@@UAE@XZ$0 67da7b80 f   ImageFilterEditorDlg.obj
 0001:00026b88       __unwindfunclet$??1CImageFilterEditorDlg@@UAE@XZ$1 67da7b88 f   ImageFilterEditorDlg.obj
 0001:00026b96       __unwindfunclet$??1CImageFilterEditorDlg@@UAE@XZ$2 67da7b96 f   ImageFilterEditorDlg.obj
 0001:00026ba4       __unwindfunclet$??1CImageFilterEditorDlg@@UAE@XZ$3 67da7ba4 f   ImageFilterEditorDlg.obj
 0001:00026bb2       __unwindfunclet$??1CImageFilterEditorDlg@@UAE@XZ$4 67da7bb2 f   ImageFilterEditorDlg.obj
 0001:00026bc1       __unwindfunclet$??1CImageFilterEditorDlg@@UAE@XZ$5 67da7bc1 f   ImageFilterEditorDlg.obj
 0001:00026bd0       __unwindfunclet$??1CImageFilterEditorDlg@@UAE@XZ$6 67da7bd0 f   ImageFilterEditorDlg.obj
 0001:00026bde       __ehhandler$??1CImageFilterEditorDlg@@UAE@XZ 67da7bde f   ImageFilterEditorDlg.obj
 0001:00026c00       __unwindfunclet$?CreateCoeffEditControls@CImageFilterEditorDlg@@IAE_NH@Z$0 67da7c00 f   ImageFilterEditorDlg.obj
 0001:00026c0b       __ehhandler$?CreateCoeffEditControls@CImageFilterEditorDlg@@IAE_NH@Z 67da7c0b f   ImageFilterEditorDlg.obj
 0001:00026c30       __unwindfunclet$?InitControls@CImageFilterEditorDlg@@IAEXXZ$0 67da7c30 f   ImageFilterEditorDlg.obj
 0001:00026c39       __ehhandler$?InitControls@CImageFilterEditorDlg@@IAEXXZ 67da7c39 f   ImageFilterEditorDlg.obj
 0001:00026c60       __unwindfunclet$?ReadCoefficients@CImageFilterEditorDlg@@IAE_NXZ$1 67da7c60 f   ImageFilterEditorDlg.obj
 0001:00026c6c       __ehhandler$?ReadCoefficients@CImageFilterEditorDlg@@IAE_NXZ 67da7c6c f   ImageFilterEditorDlg.obj
 0001:00026ca0       __unwindfunclet$??1?$basic_stringbuf@DU?$char_traits@D@std@@V?$allocator@D@2@@std@@UAE@XZ$0 67da7ca0 f   ImageFilterEditorDlg.obj
 0001:00026ca9       __ehhandler$??1?$basic_stringbuf@DU?$char_traits@D@std@@V?$allocator@D@2@@std@@UAE@XZ 67da7ca9 f   ImageFilterEditorDlg.obj
 0001:00026cd0       __unwindfunclet$??_G?$basic_stringbuf@DU?$char_traits@D@std@@V?$allocator@D@2@@std@@UAEPAXI@Z$0 67da7cd0 f   ImageFilterEditorDlg.obj
 0001:00026cd9       __ehhandler$??_G?$basic_stringbuf@DU?$char_traits@D@std@@V?$allocator@D@2@@std@@UAEPAXI@Z 67da7cd9 f   ImageFilterEditorDlg.obj
 0001:00026d00       __ehhandler$?_Copy@?$basic_string@DU?$char_traits@D@std@@V?$allocator@D@2@@std@@QAEXII@Z 67da7d00 f   ImageFilterEditorDlg.obj
 0001:00026d20       __unwindfunclet$??1?$basic_istringstream@DU?$char_traits@D@std@@V?$allocator@D@2@@std@@UAE@XZ$0 67da7d20 f   ImageFilterEditorDlg.obj
 0001:00026d2c       __unwindfunclet$??1?$basic_istringstream@DU?$char_traits@D@std@@V?$allocator@D@2@@std@@UAE@XZ$2 67da7d2c f   ImageFilterEditorDlg.obj
 0001:00026d35       __ehhandler$??1?$basic_istringstream@DU?$char_traits@D@std@@V?$allocator@D@2@@std@@UAE@XZ 67da7d35 f   ImageFilterEditorDlg.obj
 0001:00026d50       __unwindfunclet$??0?$basic_stringbuf@DU?$char_traits@D@std@@V?$allocator@D@2@@std@@QAE@ABV?$basic_string@DU?$char_traits@D@std@@V?$allocator@D@2@@1@H@Z$0 67da7d50 f   ImageFilterEditorDlg.obj
 0001:00026d59       __ehhandler$??0?$basic_stringbuf@DU?$char_traits@D@std@@V?$allocator@D@2@@std@@QAE@ABV?$basic_string@DU?$char_traits@D@std@@V?$allocator@D@2@@1@H@Z 67da7d59 f   ImageFilterEditorDlg.obj
 0001:00026d80       __unwindfunclet$??_D?$basic_istringstream@DU?$char_traits@D@std@@V?$allocator@D@2@@std@@QAEXXZ$0 67da7d80 f   ImageFilterEditorDlg.obj
 0001:00026d8c       __unwindfunclet$??_D?$basic_istringstream@DU?$char_traits@D@std@@V?$allocator@D@2@@std@@QAEXXZ$2 67da7d8c f   ImageFilterEditorDlg.obj
 0001:00026d95       __ehhandler$??_D?$basic_istringstream@DU?$char_traits@D@std@@V?$allocator@D@2@@std@@QAEXXZ 67da7d95 f   ImageFilterEditorDlg.obj
 0001:00026db0       __unwindfunclet$??0?$basic_istringstream@DU?$char_traits@D@std@@V?$allocator@D@2@@std@@QAE@ABV?$basic_string@DU?$char_traits@D@std@@V?$allocator@D@2@@1@H@Z$0 67da7db0 f   ImageFilterEditorDlg.obj
 0001:00026dcd       __unwindfunclet$??0?$basic_istringstream@DU?$char_traits@D@std@@V?$allocator@D@2@@std@@QAE@ABV?$basic_string@DU?$char_traits@D@std@@V?$allocator@D@2@@1@H@Z$1 67da7dcd f   ImageFilterEditorDlg.obj
 0001:00026dd9       __unwindfunclet$??0?$basic_istringstream@DU?$char_traits@D@std@@V?$allocator@D@2@@std@@QAE@ABV?$basic_string@DU?$char_traits@D@std@@V?$allocator@D@2@@1@H@Z$3 67da7dd9 f   ImageFilterEditorDlg.obj
 0001:00026de2       __ehhandler$??0?$basic_istringstream@DU?$char_traits@D@std@@V?$allocator@D@2@@std@@QAE@ABV?$basic_string@DU?$char_traits@D@std@@V?$allocator@D@2@@1@H@Z 67da7de2 f   ImageFilterEditorDlg.obj
 0001:00026e00       __unwindfunclet$?ConvertToDecimal@CImageFilterEditorDlg@@KA_NV?$CStringT@DV?$StrTraitMFC_DLL@DV?$ChTraitsCRT@D@ATL@@@@@ATL@@AAN@Z$0 67da7e00 f   ImageFilterEditorDlg.obj
 0001:00026e09       __unwindfunclet$?ConvertToDecimal@CImageFilterEditorDlg@@KA_NV?$CStringT@DV?$StrTraitMFC_DLL@DV?$ChTraitsCRT@D@ATL@@@@@ATL@@AAN@Z$1 67da7e09 f   ImageFilterEditorDlg.obj
 0001:00026e11       __unwindfunclet$?ConvertToDecimal@CImageFilterEditorDlg@@KA_NV?$CStringT@DV?$StrTraitMFC_DLL@DV?$ChTraitsCRT@D@ATL@@@@@ATL@@AAN@Z$3 67da7e11 f   ImageFilterEditorDlg.obj
 0001:00026e2e       __unwindfunclet$?ConvertToDecimal@CImageFilterEditorDlg@@KA_NV?$CStringT@DV?$StrTraitMFC_DLL@DV?$ChTraitsCRT@D@ATL@@@@@ATL@@AAN@Z$4 67da7e2e f   ImageFilterEditorDlg.obj
 0001:00026e3a       __unwindfunclet$?ConvertToDecimal@CImageFilterEditorDlg@@KA_NV?$CStringT@DV?$StrTraitMFC_DLL@DV?$ChTraitsCRT@D@ATL@@@@@ATL@@AAN@Z$6 67da7e3a f   ImageFilterEditorDlg.obj
 0001:00026e43       __unwindfunclet$?ConvertToDecimal@CImageFilterEditorDlg@@KA_NV?$CStringT@DV?$StrTraitMFC_DLL@DV?$ChTraitsCRT@D@ATL@@@@@ATL@@AAN@Z$2 67da7e43 f   ImageFilterEditorDlg.obj
 0001:00026e4e       __unwindfunclet$?ConvertToDecimal@CImageFilterEditorDlg@@KA_NV?$CStringT@DV?$StrTraitMFC_DLL@DV?$ChTraitsCRT@D@ATL@@@@@ATL@@AAN@Z$7 67da7e4e f   ImageFilterEditorDlg.obj
 0001:00026e5a       __unwindfunclet$?ConvertToDecimal@CImageFilterEditorDlg@@KA_NV?$CStringT@DV?$StrTraitMFC_DLL@DV?$ChTraitsCRT@D@ATL@@@@@ATL@@AAN@Z$9 67da7e5a f   ImageFilterEditorDlg.obj
 0001:00026e63       __ehhandler$?ConvertToDecimal@CImageFilterEditorDlg@@KA_NV?$CStringT@DV?$StrTraitMFC_DLL@DV?$ChTraitsCRT@D@ATL@@@@@ATL@@AAN@Z 67da7e63 f   ImageFilterEditorDlg.obj
 0001:00026e90       __unwindfunclet$?WriteCoefficientsToBuffer@CImageFilterEditorDlg@@IAE_NAAVSapBuffer@@@Z$0 67da7e90 f   ImageFilterEditorDlg.obj
 0001:00026e99       __unwindfunclet$?WriteCoefficientsToBuffer@CImageFilterEditorDlg@@IAE_NAAVSapBuffer@@@Z$1 67da7e99 f   ImageFilterEditorDlg.obj
 0001:00026ea2       __unwindfunclet$?WriteCoefficientsToBuffer@CImageFilterEditorDlg@@IAE_NAAVSapBuffer@@@Z$4 67da7ea2 f   ImageFilterEditorDlg.obj
 0001:00026eab       __unwindfunclet$?WriteCoefficientsToBuffer@CImageFilterEditorDlg@@IAE_NAAVSapBuffer@@@Z$5 67da7eab f   ImageFilterEditorDlg.obj
 0001:00026eb4       __unwindfunclet$?WriteCoefficientsToBuffer@CImageFilterEditorDlg@@IAE_NAAVSapBuffer@@@Z$3 67da7eb4 f   ImageFilterEditorDlg.obj
 0001:00026ebd       __ehhandler$?WriteCoefficientsToBuffer@CImageFilterEditorDlg@@IAE_NAAVSapBuffer@@@Z 67da7ebd f   ImageFilterEditorDlg.obj
 0001:00026ef0       __unwindfunclet$?OnBnClickedBtnExport@CImageFilterEditorDlg@@IAEXXZ$0 67da7ef0 f   ImageFilterEditorDlg.obj
 0001:00026efb       __unwindfunclet$?OnBnClickedBtnExport@CImageFilterEditorDlg@@IAEXXZ$1 67da7efb f   ImageFilterEditorDlg.obj
 0001:00026f07       __unwindfunclet$?OnBnClickedBtnExport@CImageFilterEditorDlg@@IAEXXZ$3 67da7f07 f   ImageFilterEditorDlg.obj
 0001:00026f13       __unwindfunclet$?OnBnClickedBtnExport@CImageFilterEditorDlg@@IAEXXZ$4 67da7f13 f   ImageFilterEditorDlg.obj
 0001:00026f36       __ehhandler$?OnBnClickedBtnExport@CImageFilterEditorDlg@@IAEXXZ 67da7f36 f   ImageFilterEditorDlg.obj
 0001:00026f60       __unwindfunclet$?WriteCoefficients@CImageFilterEditorDlg@@IAE_NXZ$1 67da7f60 f   ImageFilterEditorDlg.obj
 0001:00026f6c       __ehhandler$?WriteCoefficients@CImageFilterEditorDlg@@IAE_NXZ 67da7f6c f   ImageFilterEditorDlg.obj
 0001:00026fa0       __unwindfunclet$??1SImageViewportROI@@QAE@XZ$0 67da7fa0 f   ImageViewportWnd.obj
 0001:00026fae       __unwindfunclet$??1SImageViewportROI@@QAE@XZ$1 67da7fae f   ImageViewportWnd.obj
 0001:00026fbc       __unwindfunclet$??1SImageViewportROI@@QAE@XZ$2 67da7fbc f   ImageViewportWnd.obj
 0001:00026fca       __ehhandler$??1SImageViewportROI@@QAE@XZ 67da7fca f   ImageViewportWnd.obj
 0001:00026ff0       __unwindfunclet$??1CImageViewportWnd@@UAE@XZ$0 67da7ff0 f   ImageViewportWnd.obj
 0001:00026ff8       __unwindfunclet$??1CImageViewportWnd@@UAE@XZ$1 67da7ff8 f   ImageViewportWnd.obj
 0001:00027006       __unwindfunclet$??1CImageViewportWnd@@UAE@XZ$2 67da8006 f   ImageViewportWnd.obj
 0001:00027014       __ehhandler$??1CImageViewportWnd@@UAE@XZ 67da8014 f   ImageViewportWnd.obj
 0001:00027030       __unwindfunclet$?TranslatePointToNativeView@CImageViewportWnd@@ABE?AVCPoint@@V2@@Z$0 67da8030 f   ImageViewportWnd.obj
 0001:00027039       __ehhandler$?TranslatePointToNativeView@CImageViewportWnd@@ABE?AVCPoint@@V2@@Z 67da8039 f   ImageViewportWnd.obj
 0001:00027060       __unwindfunclet$?TranslatePointToDestinationView@CImageViewportWnd@@ABE?AVCPoint@@V2@@Z$0 67da8060 f   ImageViewportWnd.obj
 0001:00027069       __ehhandler$?TranslatePointToDestinationView@CImageViewportWnd@@ABE?AVCPoint@@V2@@Z 67da8069 f   ImageViewportWnd.obj
 0001:00027090       __unwindfunclet$?GetDstRectFromCurrentScalingOptions@CImageViewportWnd@@ABE?AVCRect@@XZ$0 67da8090 f   ImageViewportWnd.obj
 0001:00027099       __ehhandler$?GetDstRectFromCurrentScalingOptions@CImageViewportWnd@@ABE?AVCRect@@XZ 67da8099 f   ImageViewportWnd.obj
 0001:000270c0       __unwindfunclet$?PaintROI@CImageViewportWnd@@AAEXXZ$0 67da80c0 f   ImageViewportWnd.obj
 0001:000270c8       __ehhandler$?PaintROI@CImageViewportWnd@@AAEXXZ 67da80c8 f   ImageViewportWnd.obj
 0001:000270f0       __unwindfunclet$?UpdateScales@CImageViewportWnd@@AAEXMM@Z$0 67da80f0 f   ImageViewportWnd.obj
 0001:000270fc       __unwindfunclet$?UpdateScales@CImageViewportWnd@@AAEXMM@Z$1 67da80fc f   ImageViewportWnd.obj
 0001:00027105       __ehhandler$?UpdateScales@CImageViewportWnd@@AAEXMM@Z 67da8105 f   ImageViewportWnd.obj
 0001:00027130       __unwindfunclet$?MoveInView@CImageViewportWnd@@AAEXVCPoint@@@Z$0 67da8130 f   ImageViewportWnd.obj
 0001:00027139       __ehhandler$?MoveInView@CImageViewportWnd@@AAEXVCPoint@@@Z 67da8139 f   ImageViewportWnd.obj
 0001:00027160       __unwindfunclet$??0CImageViewportWnd@@QAE@XZ$0 67da8160 f   ImageViewportWnd.obj
 0001:00027168       __unwindfunclet$??0CImageViewportWnd@@QAE@XZ$1 67da8168 f   ImageViewportWnd.obj
 0001:00027176       __unwindfunclet$??0CImageViewportWnd@@QAE@XZ$2 67da8176 f   ImageViewportWnd.obj
 0001:00027184       __ehhandler$??0CImageViewportWnd@@QAE@XZ 67da8184 f   ImageViewportWnd.obj
 0001:000271a0       __unwindfunclet$?OnPaint@CImageViewportWnd@@IAEXXZ$0 67da81a0 f   ImageViewportWnd.obj
 0001:000271ab       __ehhandler$?OnPaint@CImageViewportWnd@@IAEXXZ 67da81ab f   ImageViewportWnd.obj
 0001:000271e0       __unwindfunclet$?GetPixelString@CImageWnd@@SA?AV?$CStringT@DV?$StrTraitMFC_DLL@DV?$ChTraitsCRT@D@ATL@@@@@ATL@@PAVSapBuffer@@VCPoint@@HH@Z$0 67da81e0 f   ImageWnd.obj
 0001:000271fa       __unwindfunclet$?GetPixelString@CImageWnd@@SA?AV?$CStringT@DV?$StrTraitMFC_DLL@DV?$ChTraitsCRT@D@ATL@@@@@ATL@@PAVSapBuffer@@VCPoint@@HH@Z$1 67da81fa f   ImageWnd.obj
 0001:00027203       __unwindfunclet$?GetPixelString@CImageWnd@@SA?AV?$CStringT@DV?$StrTraitMFC_DLL@DV?$ChTraitsCRT@D@ATL@@@@@ATL@@PAVSapBuffer@@VCPoint@@HH@Z$4 67da8203 f   ImageWnd.obj
 0001:0002720c       __unwindfunclet$?GetPixelString@CImageWnd@@SA?AV?$CStringT@DV?$StrTraitMFC_DLL@DV?$ChTraitsCRT@D@ATL@@@@@ATL@@PAVSapBuffer@@VCPoint@@HH@Z$5 67da820c f   ImageWnd.obj
 0001:00027215       __unwindfunclet$?GetPixelString@CImageWnd@@SA?AV?$CStringT@DV?$StrTraitMFC_DLL@DV?$ChTraitsCRT@D@ATL@@@@@ATL@@PAVSapBuffer@@VCPoint@@HH@Z$9 67da8215 f   ImageWnd.obj
 0001:0002721e       __unwindfunclet$?GetPixelString@CImageWnd@@SA?AV?$CStringT@DV?$StrTraitMFC_DLL@DV?$ChTraitsCRT@D@ATL@@@@@ATL@@PAVSapBuffer@@VCPoint@@HH@Z$14 67da821e f   ImageWnd.obj
 0001:00027227       __unwindfunclet$?GetPixelString@CImageWnd@@SA?AV?$CStringT@DV?$StrTraitMFC_DLL@DV?$ChTraitsCRT@D@ATL@@@@@ATL@@PAVSapBuffer@@VCPoint@@HH@Z$11 67da8227 f   ImageWnd.obj
 0001:00027230       __unwindfunclet$?GetPixelString@CImageWnd@@SA?AV?$CStringT@DV?$StrTraitMFC_DLL@DV?$ChTraitsCRT@D@ATL@@@@@ATL@@PAVSapBuffer@@VCPoint@@HH@Z$12 67da8230 f   ImageWnd.obj
 0001:00027239       __unwindfunclet$?GetPixelString@CImageWnd@@SA?AV?$CStringT@DV?$StrTraitMFC_DLL@DV?$ChTraitsCRT@D@ATL@@@@@ATL@@PAVSapBuffer@@VCPoint@@HH@Z$13 67da8239 f   ImageWnd.obj
 0001:00027242       __unwindfunclet$?GetPixelString@CImageWnd@@SA?AV?$CStringT@DV?$StrTraitMFC_DLL@DV?$ChTraitsCRT@D@ATL@@@@@ATL@@PAVSapBuffer@@VCPoint@@HH@Z$10 67da8242 f   ImageWnd.obj
 0001:0002724b       __unwindfunclet$?GetPixelString@CImageWnd@@SA?AV?$CStringT@DV?$StrTraitMFC_DLL@DV?$ChTraitsCRT@D@ATL@@@@@ATL@@PAVSapBuffer@@VCPoint@@HH@Z$8 67da824b f   ImageWnd.obj
 0001:00027254       __unwindfunclet$?GetPixelString@CImageWnd@@SA?AV?$CStringT@DV?$StrTraitMFC_DLL@DV?$ChTraitsCRT@D@ATL@@@@@ATL@@PAVSapBuffer@@VCPoint@@HH@Z$7 67da8254 f   ImageWnd.obj
 0001:0002725d       __unwindfunclet$?GetPixelString@CImageWnd@@SA?AV?$CStringT@DV?$StrTraitMFC_DLL@DV?$ChTraitsCRT@D@ATL@@@@@ATL@@PAVSapBuffer@@VCPoint@@HH@Z$6 67da825d f   ImageWnd.obj
 0001:00027266       __unwindfunclet$?GetPixelString@CImageWnd@@SA?AV?$CStringT@DV?$StrTraitMFC_DLL@DV?$ChTraitsCRT@D@ATL@@@@@ATL@@PAVSapBuffer@@VCPoint@@HH@Z$3 67da8266 f   ImageWnd.obj
 0001:0002726f       __unwindfunclet$?GetPixelString@CImageWnd@@SA?AV?$CStringT@DV?$StrTraitMFC_DLL@DV?$ChTraitsCRT@D@ATL@@@@@ATL@@PAVSapBuffer@@VCPoint@@HH@Z$2 67da826f f   ImageWnd.obj
 0001:00027278       __unwindfunclet$?GetPixelString@CImageWnd@@SA?AV?$CStringT@DV?$StrTraitMFC_DLL@DV?$ChTraitsCRT@D@ATL@@@@@ATL@@PAVSapBuffer@@VCPoint@@HH@Z$15 67da8278 f   ImageWnd.obj
 0001:00027281       __ehhandler$?GetPixelString@CImageWnd@@SA?AV?$CStringT@DV?$StrTraitMFC_DLL@DV?$ChTraitsCRT@D@ATL@@@@@ATL@@PAVSapBuffer@@VCPoint@@HH@Z 67da8281 f   ImageWnd.obj
 0001:000272b0       __unwindfunclet$?DisplayRoiTracker@CImageWnd@@QAEXXZ$0 67da82b0 f   ImageWnd.obj
 0001:000272b8       __unwindfunclet$?DisplayRoiTracker@CImageWnd@@QAEXXZ$1 67da82b8 f   ImageWnd.obj
 0001:000272c0       __ehhandler$?DisplayRoiTracker@CImageWnd@@QAEXXZ 67da82c0 f   ImageWnd.obj
 0001:000272f0       __unwindfunclet$??0CImageWnd@@QAE@PAVSapView@@PAVCWnd@@PAVCScrollBar@@21@Z$0 67da82f0 f   ImageWnd.obj
 0001:000272fb       __ehhandler$??0CImageWnd@@QAE@PAVSapView@@PAVCWnd@@PAVCScrollBar@@21@Z 67da82fb f   ImageWnd.obj
 0001:00027320       __unwindfunclet$??0CImageWnd@@QAE@PAVSapView@@PAVCWnd@@@Z$0 67da8320 f   ImageWnd.obj
 0001:0002732b       __ehhandler$??0CImageWnd@@QAE@PAVSapView@@PAVCWnd@@@Z 67da832b f   ImageWnd.obj
 0001:00027350       __unwindfunclet$??0CJpegFileDlg@@QAE@PAVCWnd@@H@Z$0 67da8350 f   JpegFileDlg.obj
 0001:00027358       __ehhandler$??0CJpegFileDlg@@QAE@PAVCWnd@@H@Z 67da8358 f   JpegFileDlg.obj
 0001:00027380       __unwindfunclet$?SaveSettings@CLoadSaveDlg@@IAEXXZ$0 67da8380 f   LoadSaveDlg.obj
 0001:00027389       __ehhandler$?SaveSettings@CLoadSaveDlg@@IAEXXZ 67da8389 f   LoadSaveDlg.obj
 0001:000273b0       __unwindfunclet$??1CRawFileDlg@@UAE@XZ$0 67da83b0 f   LoadSaveDlg.obj
 0001:000273b8       __ehhandler$??1CRawFileDlg@@UAE@XZ 67da83b8 f   LoadSaveDlg.obj
 0001:000273e0       __unwindfunclet$?AddTiffOptions@CLoadSaveDlg@@IAEHXZ$0 67da83e0 f   LoadSaveDlg.obj
 0001:000273eb       __unwindfunclet$?AddTiffOptions@CLoadSaveDlg@@IAEHXZ$1 67da83eb f   LoadSaveDlg.obj
 0001:000273f4       __unwindfunclet$?AddTiffOptions@CLoadSaveDlg@@IAEHXZ$2 67da83f4 f   LoadSaveDlg.obj
 0001:000273fd       __ehhandler$?AddTiffOptions@CLoadSaveDlg@@IAEHXZ 67da83fd f   LoadSaveDlg.obj
 0001:00027420       __unwindfunclet$?AddRawOptions@CLoadSaveDlg@@IAEHXZ$0 67da8420 f   LoadSaveDlg.obj
 0001:0002742b       __unwindfunclet$?AddRawOptions@CLoadSaveDlg@@IAEHXZ$2 67da842b f   LoadSaveDlg.obj
 0001:00027436       __unwindfunclet$?AddRawOptions@CLoadSaveDlg@@IAEHXZ$1 67da8436 f   LoadSaveDlg.obj
 0001:0002743f       __unwindfunclet$?AddRawOptions@CLoadSaveDlg@@IAEHXZ$4 67da843f f   LoadSaveDlg.obj
 0001:0002744a       __ehhandler$?AddRawOptions@CLoadSaveDlg@@IAEHXZ 67da844a f   LoadSaveDlg.obj
 0001:00027470       __unwindfunclet$?AddJpegOptions@CLoadSaveDlg@@IAEHXZ$0 67da8470 f   LoadSaveDlg.obj
 0001:0002747b       __unwindfunclet$?AddJpegOptions@CLoadSaveDlg@@IAEHXZ$1 67da847b f   LoadSaveDlg.obj
 0001:00027484       __ehhandler$?AddJpegOptions@CLoadSaveDlg@@IAEHXZ 67da8484 f   LoadSaveDlg.obj
 0001:000274b0       __unwindfunclet$?AddAviOptions@CLoadSaveDlg@@IAEHXZ$0 67da84b0 f   LoadSaveDlg.obj
 0001:000274bb       __ehhandler$?AddAviOptions@CLoadSaveDlg@@IAEHXZ 67da84bb f   LoadSaveDlg.obj
 0001:000274e0       __unwindfunclet$?OnTypeChange@CLoadSaveDlg@@MAEXXZ$0 67da84e0 f   LoadSaveDlg.obj
 0001:000274e9       __ehhandler$?OnTypeChange@CLoadSaveDlg@@MAEXXZ 67da84e9 f   LoadSaveDlg.obj
 0001:00027510       __unwindfunclet$?LoadSettings@CLoadSaveDlg@@IAEXXZ$0 67da8510 f   LoadSaveDlg.obj
 0001:00027519       __ehhandler$?LoadSettings@CLoadSaveDlg@@IAEXXZ 67da8519 f   LoadSaveDlg.obj
 0001:00027540       __unwindfunclet$??0CLoadSaveDlg@@QAE@PAVCWnd@@PAVSapBuffer@@HH@Z$0 67da8540 f   LoadSaveDlg.obj
 0001:00027548       __unwindfunclet$??0CLoadSaveDlg@@QAE@PAVCWnd@@PAVSapBuffer@@HH@Z$1 67da8548 f   LoadSaveDlg.obj
 0001:00027557       __ehhandler$??0CLoadSaveDlg@@QAE@PAVCWnd@@PAVSapBuffer@@HH@Z 67da8557 f   LoadSaveDlg.obj
 0001:00027580       __unwindfunclet$?UpdateBuffer@CLoadSaveDlg@@IAEHXZ$0 67da8580 f   LoadSaveDlg.obj
 0001:00027588       __unwindfunclet$?UpdateBuffer@CLoadSaveDlg@@IAEHXZ$1 67da8588 f   LoadSaveDlg.obj
 0001:00027591       __unwindfunclet$?UpdateBuffer@CLoadSaveDlg@@IAEHXZ$2 67da8591 f   LoadSaveDlg.obj
 0001:0002759a       __unwindfunclet$?UpdateBuffer@CLoadSaveDlg@@IAEHXZ$3 67da859a f   LoadSaveDlg.obj
 0001:000275a3       __unwindfunclet$?UpdateBuffer@CLoadSaveDlg@@IAEHXZ$4 67da85a3 f   LoadSaveDlg.obj
 0001:000275ac       __unwindfunclet$?UpdateBuffer@CLoadSaveDlg@@IAEHXZ$5 67da85ac f   LoadSaveDlg.obj
 0001:000275b5       __ehhandler$?UpdateBuffer@CLoadSaveDlg@@IAEHXZ 67da85b5 f   LoadSaveDlg.obj
 0001:000275d0       __unwindfunclet$??1CLScanDlg@@UAE@XZ$0 67da85d0 f   LScanDlg.obj
 0001:000275d8       __unwindfunclet$??1CLScanDlg@@UAE@XZ$1 67da85d8 f   LScanDlg.obj
 0001:000275e7       __unwindfunclet$??1CLScanDlg@@UAE@XZ$2 67da85e7 f   LScanDlg.obj
 0001:000275f5       __ehhandler$??1CLScanDlg@@UAE@XZ 67da85f5 f   LScanDlg.obj
 0001:00027610       __unwindfunclet$??_GCLScanDlg@@UAEPAXI@Z$0 67da8610 f   LScanDlg.obj
 0001:00027618       __unwindfunclet$??_GCLScanDlg@@UAEPAXI@Z$1 67da8618 f   LScanDlg.obj
 0001:00027627       __unwindfunclet$??_GCLScanDlg@@UAEPAXI@Z$2 67da8627 f   LScanDlg.obj
 0001:00027635       __ehhandler$??_GCLScanDlg@@UAEPAXI@Z 67da8635 f   LScanDlg.obj
 0001:00027650       __unwindfunclet$??_ECLScanDlg@@UAEPAXI@Z$0 67da8650 f   LScanDlg.obj
 0001:00027658       __unwindfunclet$??_ECLScanDlg@@UAEPAXI@Z$1 67da8658 f   LScanDlg.obj
 0001:00027667       __unwindfunclet$??_ECLScanDlg@@UAEPAXI@Z$2 67da8667 f   LScanDlg.obj
 0001:00027675       __ehhandler$??_ECLScanDlg@@UAEPAXI@Z 67da8675 f   LScanDlg.obj
 0001:00027690       __unwindfunclet$??0CLScanDlg@@QAE@PAVCWnd@@PAVSapAcquisition@@@Z$0 67da8690 f   LScanDlg.obj
 0001:00027698       __unwindfunclet$??0CLScanDlg@@QAE@PAVCWnd@@PAVSapAcquisition@@@Z$1 67da8698 f   LScanDlg.obj
 0001:000276a7       __unwindfunclet$??0CLScanDlg@@QAE@PAVCWnd@@PAVSapAcquisition@@@Z$2 67da86a7 f   LScanDlg.obj
 0001:000276b5       __ehhandler$??0CLScanDlg@@QAE@PAVCWnd@@PAVSapAcquisition@@@Z 67da86b5 f   LScanDlg.obj
 0001:000276d0       __unwindfunclet$?VerifyLineIntegrateDuration@CLScanDlg@@IAEXXZ$0 67da86d0 f   LScanDlg.obj
 0001:000276d9       __ehhandler$?VerifyLineIntegrateDuration@CLScanDlg@@IAEXXZ 67da86d9 f   LScanDlg.obj
 0001:00027700       __unwindfunclet$?LoadSettings@CPixProDlg@@IAEXXZ$0 67da8700 f   PixProDlg.obj
 0001:00027709       __unwindfunclet$?LoadSettings@CPixProDlg@@IAEXXZ$1 67da8709 f   PixProDlg.obj
 0001:00027712       __unwindfunclet$?LoadSettings@CPixProDlg@@IAEXXZ$2 67da8712 f   PixProDlg.obj
 0001:0002771b       __ehhandler$?LoadSettings@CPixProDlg@@IAEXXZ 67da871b f   PixProDlg.obj
 0001:00027740       __unwindfunclet$?SaveSettings@CPixProDlg@@IAEXXZ$0 67da8740 f   PixProDlg.obj
 0001:00027749       __ehhandler$?SaveSettings@CPixProDlg@@IAEXXZ 67da8749 f   PixProDlg.obj
 0001:00027770       __unwindfunclet$??1CPixProWAvgDlg@@UAE@XZ$0 67da8770 f   PixProDlg.obj
 0001:00027778       __ehhandler$??1CPixProWAvgDlg@@UAE@XZ 67da8778 f   PixProDlg.obj
 0001:000277a0       __unwindfunclet$??1CPixProIntScaleDlg@@UAE@XZ$0 67da87a0 f   PixProDlg.obj
 0001:000277a8       __ehhandler$??1CPixProIntScaleDlg@@UAE@XZ 67da87a8 f   PixProDlg.obj
 0001:000277d0       __unwindfunclet$??1CPixProDlg@@UAE@XZ$0 67da87d0 f   PixProDlg.obj
 0001:000277d8       __unwindfunclet$??1CPixProDlg@@UAE@XZ$1 67da87d8 f   PixProDlg.obj
 0001:000277e6       __unwindfunclet$??1CPixProDlg@@UAE@XZ$2 67da87e6 f   PixProDlg.obj
 0001:000277f4       __unwindfunclet$??1CPixProDlg@@UAE@XZ$3 67da87f4 f   PixProDlg.obj
 0001:00027802       __unwindfunclet$??1CPixProDlg@@UAE@XZ$4 67da8802 f   PixProDlg.obj
 0001:00027810       __ehhandler$??1CPixProDlg@@UAE@XZ 67da8810 f   PixProDlg.obj
 0001:00027830       __unwindfunclet$??0CPixProDlg@@QAE@PAVCWnd@@PAVSapPixPro@@PAVSapXferNode@@@Z$0 67da8830 f   PixProDlg.obj
 0001:0002783b       __unwindfunclet$??0CPixProDlg@@QAE@PAVCWnd@@PAVSapPixPro@@PAVSapXferNode@@@Z$1 67da883b f   PixProDlg.obj
 0001:0002784c       __unwindfunclet$??0CPixProDlg@@QAE@PAVCWnd@@PAVSapPixPro@@PAVSapXferNode@@@Z$2 67da884c f   PixProDlg.obj
 0001:0002785d       __unwindfunclet$??0CPixProDlg@@QAE@PAVCWnd@@PAVSapPixPro@@PAVSapXferNode@@@Z$3 67da885d f   PixProDlg.obj
 0001:0002786e       __unwindfunclet$??0CPixProDlg@@QAE@PAVCWnd@@PAVSapPixPro@@PAVSapXferNode@@@Z$4 67da886e f   PixProDlg.obj
 0001:0002787f       __unwindfunclet$??0CPixProDlg@@QAE@PAVCWnd@@PAVSapPixPro@@PAVSapXferNode@@@Z$6 67da887f f   PixProDlg.obj
 0001:00027891       __unwindfunclet$??0CPixProDlg@@QAE@PAVCWnd@@PAVSapPixPro@@PAVSapXferNode@@@Z$7 67da8891 f   PixProDlg.obj
 0001:0002789a       __unwindfunclet$??0CPixProDlg@@QAE@PAVCWnd@@PAVSapPixPro@@PAVSapXferNode@@@Z$8 67da889a f   PixProDlg.obj
 0001:000278a3       __unwindfunclet$??0CPixProDlg@@QAE@PAVCWnd@@PAVSapPixPro@@PAVSapXferNode@@@Z$10 67da88a3 f   PixProDlg.obj
 0001:000278af       __ehhandler$??0CPixProDlg@@QAE@PAVCWnd@@PAVSapPixPro@@PAVSapXferNode@@@Z 67da88af f   PixProDlg.obj
 0001:000278e0       __unwindfunclet$?FillFunctionCombo@CPixProDlg@@IAEXXZ$0 67da88e0 f   PixProDlg.obj
 0001:000278ec       __unwindfunclet$?FillFunctionCombo@CPixProDlg@@IAEXXZ$1 67da88ec f   PixProDlg.obj
 0001:000278f8       __ehhandler$?FillFunctionCombo@CPixProDlg@@IAEXXZ 67da88f8 f   PixProDlg.obj
 0001:00027920       __unwindfunclet$?SetDirectories@CPixProDlg@@IAEXXZ$0 67da8920 f   PixProDlg.obj
 0001:0002792c       __ehhandler$?SetDirectories@CPixProDlg@@IAEXXZ 67da892c f   PixProDlg.obj
 0001:00027960       __unwindfunclet$?OnOK@CPixProDlg@@MAEXXZ$0 67da8960 f   PixProDlg.obj
 0001:0002796c       __unwindfunclet$?OnOK@CPixProDlg@@MAEXXZ$1 67da896c f   PixProDlg.obj
 0001:00027978       __unwindfunclet$?OnOK@CPixProDlg@@MAEXXZ$2 67da8978 f   PixProDlg.obj
 0001:00027983       __unwindfunclet$?OnOK@CPixProDlg@@MAEXXZ$3 67da8983 f   PixProDlg.obj
 0001:0002798e       __unwindfunclet$?OnOK@CPixProDlg@@MAEXXZ$4 67da898e f   PixProDlg.obj
 0001:00027999       __unwindfunclet$?OnOK@CPixProDlg@@MAEXXZ$5 67da8999 f   PixProDlg.obj
 0001:000279a4       __unwindfunclet$?OnOK@CPixProDlg@@MAEXXZ$10 67da89a4 f   PixProDlg.obj
 0001:000279af       __unwindfunclet$?OnOK@CPixProDlg@@MAEXXZ$6 67da89af f   PixProDlg.obj
 0001:000279ba       __unwindfunclet$?OnOK@CPixProDlg@@MAEXXZ$12 67da89ba f   PixProDlg.obj
 0001:000279c5       __ehhandler$?OnOK@CPixProDlg@@MAEXXZ 67da89c5 f   PixProDlg.obj
 0001:000279f0       __unwindfunclet$?OnBrowse@CPixProDlg@@IAEXXZ$0 67da89f0 f   PixProDlg.obj
 0001:000279f9       __unwindfunclet$?OnBrowse@CPixProDlg@@IAEXXZ$1 67da89f9 f   PixProDlg.obj
 0001:00027a01       __unwindfunclet$?OnBrowse@CPixProDlg@@IAEXXZ$2 67da8a01 f   PixProDlg.obj
 0001:00027a0a       __ehhandler$?OnBrowse@CPixProDlg@@IAEXXZ 67da8a0a f   PixProDlg.obj
 0001:00027a30       __unwindfunclet$??0CPixProIntScaleDlg@@QAE@PAVCWnd@@PAUCORPPL_FCT_PROP@@PAVSapPixProParams@@@Z$0 67da8a30 f   PixProIntScaleDlg.obj
 0001:00027a38       __ehhandler$??0CPixProIntScaleDlg@@QAE@PAVCWnd@@PAUCORPPL_FCT_PROP@@PAVSapPixProParams@@@Z 67da8a38 f   PixProIntScaleDlg.obj
 0001:00027a60       __unwindfunclet$??_GCPixProIntScaleDlg@@UAEPAXI@Z$0 67da8a60 f   PixProIntScaleDlg.obj
 0001:00027a68       __ehhandler$??_GCPixProIntScaleDlg@@UAEPAXI@Z 67da8a68 f   PixProIntScaleDlg.obj
 0001:00027a90       __unwindfunclet$??0CPixProWAvgDlg@@QAE@PAVCWnd@@PAUCORPPL_FCT_PROP@@PAVSapPixProParams@@@Z$0 67da8a90 f   PixProWAvgDlg.obj
 0001:00027a98       __ehhandler$??0CPixProWAvgDlg@@QAE@PAVCWnd@@PAUCORPPL_FCT_PROP@@PAVSapPixProParams@@@Z 67da8a98 f   PixProWAvgDlg.obj
 0001:00027ac0       __unwindfunclet$??_GCPixProWAvgDlg@@UAEPAXI@Z$0 67da8ac0 f   PixProWAvgDlg.obj
 0001:00027ac8       __ehhandler$??_GCPixProWAvgDlg@@UAEPAXI@Z 67da8ac8 f   PixProWAvgDlg.obj
 0001:00027af0       __unwindfunclet$??0CRawFileDlg@@QAE@PAVCWnd@@HHHH@Z$0 67da8af0 f   RawFileDlg.obj
 0001:00027af8       __unwindfunclet$??0CRawFileDlg@@QAE@PAVCWnd@@HHHH@Z$1 67da8af8 f   RawFileDlg.obj
 0001:00027b06       __ehhandler$??0CRawFileDlg@@QAE@PAVCWnd@@HHHH@Z 67da8b06 f   RawFileDlg.obj
 0001:00027b30       __unwindfunclet$??_GCRawFileDlg@@UAEPAXI@Z$0 67da8b30 f   RawFileDlg.obj
 0001:00027b38       __ehhandler$??_GCRawFileDlg@@UAEPAXI@Z 67da8b38 f   RawFileDlg.obj
 0001:00027b60       __unwindfunclet$??1CViewDlg@@UAE@XZ$0 67da8b60 f   SapClassGui.obj
 0001:00027b68       __unwindfunclet$??1CViewDlg@@UAE@XZ$1 67da8b68 f   SapClassGui.obj
 0001:00027b76       __unwindfunclet$??1CViewDlg@@UAE@XZ$2 67da8b76 f   SapClassGui.obj
 0001:00027b84       __unwindfunclet$??1CViewDlg@@UAE@XZ$3 67da8b84 f   SapClassGui.obj
 0001:00027b92       __unwindfunclet$??1CViewDlg@@UAE@XZ$4 67da8b92 f   SapClassGui.obj
 0001:00027ba0       __ehhandler$??1CViewDlg@@UAE@XZ 67da8ba0 f   SapClassGui.obj
 0001:00027bc0       __unwindfunclet$?SapClassGuiInitModule@@YAXXZ$0 67da8bc0 f   SapClassGui.obj
 0001:00027bca       __ehhandler$?SapClassGuiInitModule@@YAXXZ 67da8bca f   SapClassGui.obj
 0001:00027bf0       __unwindfunclet$??0CTiffFileDlg@@QAE@PAVCWnd@@HH@Z$0 67da8bf0 f   TiffFileDlg.obj
 0001:00027bf8       __ehhandler$??0CTiffFileDlg@@QAE@PAVCWnd@@HH@Z 67da8bf8 f   TiffFileDlg.obj
 0001:00027c20       __unwindfunclet$??0CViewDlg@@QAE@PAVCWnd@@PAVSapView@@@Z$0 67da8c20 f   ViewDlg.obj
 0001:00027c28       __unwindfunclet$??0CViewDlg@@QAE@PAVCWnd@@PAVSapView@@@Z$1 67da8c28 f   ViewDlg.obj
 0001:00027c36       __unwindfunclet$??0CViewDlg@@QAE@PAVCWnd@@PAVSapView@@@Z$2 67da8c36 f   ViewDlg.obj
 0001:00027c44       __unwindfunclet$??0CViewDlg@@QAE@PAVCWnd@@PAVSapView@@@Z$3 67da8c44 f   ViewDlg.obj
 0001:00027c52       __unwindfunclet$??0CViewDlg@@QAE@PAVCWnd@@PAVSapView@@@Z$4 67da8c52 f   ViewDlg.obj
 0001:00027c60       __unwindfunclet$??0CViewDlg@@QAE@PAVCWnd@@PAVSapView@@@Z$5 67da8c60 f   ViewDlg.obj
 0001:00027c6e       __unwindfunclet$??0CViewDlg@@QAE@PAVCWnd@@PAVSapView@@@Z$6 67da8c6e f   ViewDlg.obj
 0001:00027c77       __ehhandler$??0CViewDlg@@QAE@PAVCWnd@@PAVSapView@@@Z 67da8c77 f   ViewDlg.obj
 0001:00027ca0       __unwindfunclet$?OnInitDialog@CViewDlg@@MAEHXZ$0 67da8ca0 f   ViewDlg.obj
 0001:00027cac       __unwindfunclet$?OnInitDialog@CViewDlg@@MAEHXZ$1 67da8cac f   ViewDlg.obj
 0001:00027cb8       __ehhandler$?OnInitDialog@CViewDlg@@MAEHXZ 67da8cb8 f   ViewDlg.obj
 0001:00027ce0       ??__E?m_Methods@CColorConversionOptionsDlg@@0PAUSapColorConversionMethodDictionary@@A@@YAXXZ 67da8ce0 f   ColorConversionDlg.obj
 0001:00027e10       ??__F?m_Methods@CColorConversionOptionsDlg@@0PAUSapColorConversionMethodDictionary@@A@@YAXXZ 67da8e10 f   ColorConversionDlg.obj
