 GigeCameraDemo

 Timestamp is 5ac48af7 (Wed Apr 04 16:21:11 2018)

 Preferred load address is 0000000140000000

 Start         Length     Name                   Class
 0001:00000000 0001f8daH .text                   CODE
 0001:0001f8e0 00002958H .text$x                 CODE
 0001:00022240 000018bcH .text$yc                CODE
 0001:00023b00 000010d5H .text$yd                CODE
 0002:00000000 00000109H .CRT$XCA                DATA
 0002:00000110 00000109H .CRT$XCAA               DATA
 0002:00000220 0000011cH .CRT$XCC                DATA
 0002:00000340 00000220H .CRT$XCL                DATA
 0002:00000560 0000013fH .CRT$XCU                DATA
 0002:000006a0 00000109H .CRT$XCZ                DATA
 0002:000007b0 00000109H .CRT$XIA                DATA
 0002:000008c0 00000109H .CRT$XIAA               DATA
 0002:000009d0 00000109H .CRT$XIY                DATA
 0002:00000ae0 00000109H .CRT$XIZ                DATA
 0002:00000bf0 00008592H .rdata                  DATA
 0002:00009184 000001a9H .rdata$debug            DATA
 0002:00009330 00000d12H .rdata$r                DATA
 0002:0000a048 00000109H .rtc$IAA                DATA
 0002:0000a158 00000109H .rtc$IZZ                DATA
 0002:0000a268 00000109H .rtc$TAA                DATA
 0002:0000a378 00000109H .rtc$TZZ                DATA
 0002:0000a488 000028b5H .xdata                  DATA
 0002:0000cd40 00000164H .xdata$x                DATA
 0002:0000cea8 00000109H ATL$__a                 DATA
 0002:0000cfb8 00000109H ATL$__z                 DATA
 0002:0000d0c1 00000000H .edata                  DATA
 0003:00000000 000005ddH .data                   DATA
 0003:000005e0 345271a0H .bss                    DATA
 0004:00000000 00001d70H .pdata                  DATA
 0005:00000000 0000012cH .idata$2                DATA
 0005:0000012c 00000014H .idata$3                DATA
 0005:00000140 000019c0H .idata$4                DATA
 0005:00001b00 000019c0H .idata$5                DATA
 0005:000034c0 00001517H .idata$6                DATA
 0006:00000000 00001253H .rsrc$01                DATA
 0006:00001260 000b7f06H .rsrc$02                DATA

  Address         Publics by Value              Rva+Base               Lib:Object

 0000:00000000       ___safe_se_handler_table   0000000000000000     <absolute>
 0000:00000000       ___safe_se_handler_count   0000000000000000     <absolute>
 0000:00000000       __ImageBase                0000000140000000     <linker-defined>
 0001:000009c0       ?_AfxInitManaged@@YAHXZ    00000001400019c0 f i GigeCameraDemo.obj
 0001:000009d0       ??_H@YAXPEAX_KHP6APEAX0@Z@Z 00000001400019d0 f i GigeCameraDemo.obj
 0001:00000a40       ?GetMessageMap@CGigeCameraDemoApp@@MEBAPEBUAFX_MSGMAP@@XZ 0000000140001a40 f   GigeCameraDemo.obj
 0001:00000a60       ?GetThisMessageMap@CGigeCameraDemoApp@@KAPEBUAFX_MSGMAP@@XZ 0000000140001a60 f   GigeCameraDemo.obj
 0001:00000a70       ??0CGigeCameraDemoApp@@QEAA@XZ 0000000140001a70 f   GigeCameraDemo.obj
 0001:00000ab0       ?InitInstance@CGigeCameraDemoApp@@UEAAHXZ 0000000140001ab0 f   GigeCameraDemo.obj
 0001:00000b90       ?SupportsRestartManager@CWinApp@@UEBAHXZ 0000000140001b90 f i GigeCameraDemo.obj
 0001:00000bb0       ?SupportsApplicationRecovery@CWinApp@@UEBAHXZ 0000000140001bb0 f i GigeCameraDemo.obj
 0001:00000bd0       ?SupportsAutosaveAtRestart@CWinApp@@UEBAHXZ 0000000140001bd0 f i GigeCameraDemo.obj
 0001:00000bf0       ?SupportsAutosaveAtInterval@CWinApp@@UEBAHXZ 0000000140001bf0 f i GigeCameraDemo.obj
 0001:00000c10       ?ReopenPreviousFilesAtRestart@CWinApp@@UEBAHXZ 0000000140001c10 f i GigeCameraDemo.obj
 0001:00000c30       ?RestoreAutosavedFilesAtRestart@CWinApp@@UEBAHXZ 0000000140001c30 f i GigeCameraDemo.obj
 0001:00000c50       ?GetApplicationRestartFlags@CWinApp@@UEAAKXZ 0000000140001c50 f i GigeCameraDemo.obj
 0001:00000c60       ?GetApplicationRecoveryParameter@CWinApp@@UEAAPEAXXZ 0000000140001c60 f i GigeCameraDemo.obj
 0001:00000c70       ?GetApplicationRecoveryPingInterval@CWinApp@@UEAAKXZ 0000000140001c70 f i GigeCameraDemo.obj
 0001:00000c80       ??_ECGigeCameraDemoApp@@UEAAPEAXI@Z 0000000140001c80 f i GigeCameraDemo.obj
 0001:00000c80       ??_GCGigeCameraDemoApp@@UEAAPEAXI@Z 0000000140001c80 f i GigeCameraDemo.obj
 0001:00000cd0       ??1CGigeCameraDemoApp@@UEAA@XZ 0000000140001cd0 f i GigeCameraDemo.obj
 0001:00000cf0       ??1CGigeCameraDemoDlg@@UEAA@XZ 0000000140001cf0 f i GigeCameraDemo.obj
 0001:00000ff0       ??0Thank_you@Define_the_symbol__ATL_MIXED@@QEAA@XZ 0000000140001ff0 f i GigeCameraDemo.obj
 0001:00001010       ?one@Thank_you@Define_the_symbol__ATL_MIXED@@UEAAXXZ 0000000140002010 f i GigeCameraDemo.obj
 0001:00001020       ??0CAboutDlg@@QEAA@XZ      0000000140002020 f   GigeCameraDemoDlg.obj
 0001:00001060       ?DoDataExchange@CAboutDlg@@MEAAXPEAVCDataExchange@@@Z 0000000140002060 f   GigeCameraDemoDlg.obj
 0001:00001090       ?GetMessageMap@CAboutDlg@@MEBAPEBUAFX_MSGMAP@@XZ 0000000140002090 f   GigeCameraDemoDlg.obj
 0001:000010b0       ?GetThisMessageMap@CAboutDlg@@KAPEBUAFX_MSGMAP@@XZ 00000001400020b0 f   GigeCameraDemoDlg.obj
 0001:000010c0       ??0CGigeCameraDemoDlg@@QEAA@PEAVCWnd@@@Z 00000001400020c0 f   GigeCameraDemoDlg.obj
 0001:00001a90       ?DoDataExchange@CGigeCameraDemoDlg@@MEAAXPEAVCDataExchange@@@Z 0000000140002a90 f   GigeCameraDemoDlg.obj
 0001:00001b10       ?GetMessageMap@CGigeCameraDemoDlg@@MEBAPEBUAFX_MSGMAP@@XZ 0000000140002b10 f   GigeCameraDemoDlg.obj
 0001:00001b30       ?GetThisMessageMap@CGigeCameraDemoDlg@@KAPEBUAFX_MSGMAP@@XZ 0000000140002b30 f   GigeCameraDemoDlg.obj
 0001:00001b40       ?onShowTask@CGigeCameraDemoDlg@@IEAA_J_K_J@Z 0000000140002b40 f   GigeCameraDemoDlg.obj
 0001:00001c90       ?PushImageToMyBuffer@@YA_NQEAUtag_BuffNode@@PEADHHHHH@Z 0000000140002c90 f   GigeCameraDemoDlg.obj
 0001:00001cb0       ?PushImageToMyBuffer_1@@YA_NQEAUtag_BuffNode@@PEADHHHHH@Z 0000000140002cb0 f   GigeCameraDemoDlg.obj
 0001:00001e90       ?PushImageToMyBuffer_2@@YA_NQEAUtag_BuffNode@@PEADHHHHH@Z 0000000140002e90 f   GigeCameraDemoDlg.obj
 0001:00002070       ?CreateFile2@@YAHV?$CStringT@DV?$StrTraitMFC_DLL@DV?$ChTraitsCRT@D@ATL@@@@@ATL@@0H@Z 0000000140003070 f   GigeCameraDemoDlg.obj
 0001:00002170       ?SaveImageData@@YAKPEAX@Z  0000000140003170 f   GigeCameraDemoDlg.obj
 0001:000021a0       ?SaveImageData_1@@YAKPEAX@Z 00000001400031a0 f   GigeCameraDemoDlg.obj
 0001:000024b0       ?SaveImageData_2@@YAKPEAX@Z 00000001400034b0 f   GigeCameraDemoDlg.obj
 0001:000027c0       ?XferCallback_1@CGigeCameraDemoDlg@@SAXPEAVSapXferCallbackInfo@@@Z 00000001400037c0 f   GigeCameraDemoDlg.obj
 0001:00002ad0       ?XferCallback_2@CGigeCameraDemoDlg@@SAXPEAVSapXferCallbackInfo@@@Z 0000000140003ad0 f   GigeCameraDemoDlg.obj
 0001:00002f00       ?PixelChanged@CGigeCameraDemoDlg@@UEAAXHH@Z 0000000140003f00 f   GigeCameraDemoDlg.obj
 0001:000030c0       ?GetPathUseSpace@@YA_KPEBD@Z 00000001400040c0 f   GigeCameraDemoDlg.obj
 0001:00003160       ?GetDirFileCount@@YA_KV?$CStringT@DV?$StrTraitMFC_DLL@DV?$ChTraitsCRT@D@ATL@@@@@ATL@@@Z 0000000140004160 f   GigeCameraDemoDlg.obj
 0001:00003260       ?ReadFreeSpace@@YANV?$CStringT@DV?$StrTraitMFC_DLL@DV?$ChTraitsCRT@D@ATL@@@@@ATL@@@Z 0000000140004260 f   GigeCameraDemoDlg.obj
 0001:000033b0       ?OnReceiveData@CGigeCameraDemoDlg@@IEAA_J_K_J@Z 00000001400043b0 f   GigeCameraDemoDlg.obj
 0001:00003600       ?us_Delay@@YAXK@Z          0000000140004600 f   GigeCameraDemoDlg.obj
 0001:00003690       ?CheckMessageQueue@@YAHXZ  0000000140004690 f   GigeCameraDemoDlg.obj
 0001:000036f0       ?delay_time@@YAXK@Z        00000001400046f0 f   GigeCameraDemoDlg.obj
 0001:00003790       ?OnInitDialog@CGigeCameraDemoDlg@@MEAAHXZ 0000000140004790 f   GigeCameraDemoDlg.obj
 0001:00003950       ?ThreadFunc@@YAIPEAX@Z     0000000140004950 f   GigeCameraDemoDlg.obj
 0001:00003a80       ?IsUserAdmin@CGigeCameraDemoDlg@@QEAAHXZ 0000000140004a80 f   GigeCameraDemoDlg.obj
 0001:00003ad0       ?CreateObjects_1@CGigeCameraDemoDlg@@QEAAHXZ 0000000140004ad0 f   GigeCameraDemoDlg.obj
 0001:00003d50       ?CreateObjects_2@CGigeCameraDemoDlg@@QEAAHXZ 0000000140004d50 f   GigeCameraDemoDlg.obj
 0001:00003fd0       ?DestroyObjects_1@CGigeCameraDemoDlg@@QEAAHXZ 0000000140004fd0 f   GigeCameraDemoDlg.obj
 0001:00004100       ?DestroyObjects_2@CGigeCameraDemoDlg@@QEAAHXZ 0000000140005100 f   GigeCameraDemoDlg.obj
 0001:00004230       ?OnSysCommand@CGigeCameraDemoDlg@@IEAAXI_J@Z 0000000140005230 f   GigeCameraDemoDlg.obj
 0001:000042b0       ?OnPaint@CGigeCameraDemoDlg@@IEAAXXZ 00000001400052b0 f   GigeCameraDemoDlg.obj
 0001:00004400       ?OnDestroy@CGigeCameraDemoDlg@@IEAAXXZ 0000000140005400 f   GigeCameraDemoDlg.obj
 0001:000048d0       ?OnSize@CGigeCameraDemoDlg@@IEAAXIHH@Z 00000001400058d0 f   GigeCameraDemoDlg.obj
 0001:00004c00       ?OnQueryDragIcon@CGigeCameraDemoDlg@@IEAAPEAUHICON__@@XZ 0000000140005c00 f   GigeCameraDemoDlg.obj
 0001:00004c20       ?OnEndSession@CGigeCameraDemoDlg@@IEAAXH@Z 0000000140005c20 f   GigeCameraDemoDlg.obj
 0001:00004c60       ?OnQueryEndSession@CGigeCameraDemoDlg@@IEAAHXZ 0000000140005c60 f   GigeCameraDemoDlg.obj
 0001:00004c90       ?UpdateMenu@CGigeCameraDemoDlg@@QEAAXXZ 0000000140005c90 f   GigeCameraDemoDlg.obj
 0001:00004df0       ?DoEvents@@YA_NXZ          0000000140005df0 f   GigeCameraDemoDlg.obj
 0001:00004e80       ?OnTest@CGigeCameraDemoDlg@@IEAAXXZ 0000000140005e80 f   GigeCameraDemoDlg.obj
 0001:00004f60       ?ReadParamFromIniFile@CGigeCameraDemoDlg@@QEAA_NXZ 0000000140005f60 f   GigeCameraDemoDlg.obj
 0001:00005500       ?WriteParamFileIniFile@CGigeCameraDemoDlg@@QEAA_NXZ 0000000140006500 f   GigeCameraDemoDlg.obj
 0001:00005590       ?OnMainitemShow@CGigeCameraDemoDlg@@QEAAXXZ 0000000140006590 f   GigeCameraDemoDlg.obj
 0001:000055f0       ?OnMainitemHide@CGigeCameraDemoDlg@@QEAAXXZ 00000001400065f0 f   GigeCameraDemoDlg.obj
 0001:00005610       ?OnMainitemExit@CGigeCameraDemoDlg@@QEAAXXZ 0000000140006610 f   GigeCameraDemoDlg.obj
 0001:00005640       ?FitToWindow@CGigeCameraDemoDlg@@QEAAXPEAVSapView@@@Z 0000000140006640 f   GigeCameraDemoDlg.obj
 0001:000058c0       ?OnGrab@CGigeCameraDemoDlg@@IEAAXXZ 00000001400068c0 f   GigeCameraDemoDlg.obj
 0001:00005bd0       ?OnFreeze@CGigeCameraDemoDlg@@IEAAXXZ 0000000140006bd0 f   GigeCameraDemoDlg.obj
 0001:00005e60       ?OnNcPaint@CGigeCameraDemoDlg@@QEAAXXZ 0000000140006e60 f   GigeCameraDemoDlg.obj
 0001:00005e80       ?OnTimer@CGigeCameraDemoDlg@@QEAAX_K@Z 0000000140006e80 f   GigeCameraDemoDlg.obj
 0001:00006600       ?OnMainitemTest@CGigeCameraDemoDlg@@QEAAXXZ 0000000140007600 f   GigeCameraDemoDlg.obj
 0001:00006620       ?OnBnClickedReturn@CGigeCameraDemoDlg@@QEAAXXZ 0000000140007620 f   GigeCameraDemoDlg.obj
 0001:00006760       ?ImageFrom_IDResource@CGigeCameraDemoDlg@@QEAAXIPEBDPEAVCImage@ATL@@@Z 0000000140007760 f   GigeCameraDemoDlg.obj
 0001:00006860       ?RefreshUI@CGigeCameraDemoDlg@@QEAAXXZ 0000000140007860 f   GigeCameraDemoDlg.obj
 0001:000076c0       ?OnLButtonDown@CGigeCameraDemoDlg@@QEAAXIVCPoint@@@Z 00000001400086c0 f   GigeCameraDemoDlg.obj
 0001:00008250       ?OnEraseBkgnd@CGigeCameraDemoDlg@@QEAAHPEAVCDC@@@Z 0000000140009250 f   GigeCameraDemoDlg.obj
 0001:000082a0       ?WritePosInfo@CGigeCameraDemoDlg@@QEAAXH@Z 00000001400092a0 f   GigeCameraDemoDlg.obj
 0001:00008540       ?SetUI@CGigeCameraDemoDlg@@QEAAXXZ 0000000140009540 f   GigeCameraDemoDlg.obj
 0001:00008b60       ?OnCreate@CGigeCameraDemoDlg@@QEAAHPEAUtagCREATESTRUCTA@@@Z 0000000140009b60 f   GigeCameraDemoDlg.obj
 0001:00008ba0       ?HideCursor@CGigeCameraDemoDlg@@QEAAXXZ 0000000140009ba0 f   GigeCameraDemoDlg.obj
 0001:0000aa90       ??_ECAboutDlg@@UEAAPEAXI@Z 000000014000ba90 f i GigeCameraDemoDlg.obj
 0001:0000aa90       ??_GCAboutDlg@@UEAAPEAXI@Z 000000014000ba90 f i GigeCameraDemoDlg.obj
 0001:0000aae0       ??1CAboutDlg@@UEAA@XZ      000000014000bae0 f i GigeCameraDemoDlg.obj
 0001:0000ab00       ??_ECGigeCameraDemoDlg@@UEAAPEAXI@Z 000000014000bb00 f i GigeCameraDemoDlg.obj
 0001:0000ab00       ??_GCGigeCameraDemoDlg@@UEAAPEAXI@Z 000000014000bb00 f i GigeCameraDemoDlg.obj
 0001:0000ab50       ?floor@@YAMM@Z             000000014000bb50 f i GigeCameraDemoDlg.obj
 0001:0000ab80       ?Load@CImage@ATL@@QEAAJPEAUIStream@@@Z 000000014000bb80 f i GigeCameraDemoDlg.obj
 0001:0000ac20       ?GetLastStatus@Image@Gdiplus@@QEBA?AW4Status@2@XZ 000000014000bc20 f i GigeCameraDemoDlg.obj
 0001:0000ac60       ??1Bitmap@Gdiplus@@UEAA@XZ 000000014000bc60 f i GigeCameraDemoDlg.obj
 0001:0000ac80       ??1Image@Gdiplus@@UEAA@XZ  000000014000bc80 f i GigeCameraDemoDlg.obj
 0001:0000acc0       ??_GImage@Gdiplus@@UEAAPEAXI@Z 000000014000bcc0 f i GigeCameraDemoDlg.obj
 0001:0000acc0       ??_EImage@Gdiplus@@UEAAPEAXI@Z 000000014000bcc0 f i GigeCameraDemoDlg.obj
 0001:0000ad10       ??3GdiplusBase@Gdiplus@@SAXPEAX@Z 000000014000bd10 f i GigeCameraDemoDlg.obj
 0001:0000ad30       ?Clone@Image@Gdiplus@@UEAAPEAV12@XZ 000000014000bd30 f i GigeCameraDemoDlg.obj
 0001:0000ade0       ??2GdiplusBase@Gdiplus@@SAPEAX_K@Z 000000014000bde0 f i GigeCameraDemoDlg.obj
 0001:0000ae00       ?SetStatus@Image@Gdiplus@@IEBA?AW4Status@2@W432@@Z 000000014000be00 f i GigeCameraDemoDlg.obj
 0001:0000ae40       ??0Image@Gdiplus@@IEAA@PEAVGpImage@1@W4Status@1@@Z 000000014000be40 f i GigeCameraDemoDlg.obj
 0001:0000aea0       ?SetNativeImage@Image@Gdiplus@@IEAAXPEAVGpImage@2@@Z 000000014000bea0 f i GigeCameraDemoDlg.obj
 0001:0000aec0       ??0Bitmap@Gdiplus@@QEAA@PEAUIStream@@H@Z 000000014000bec0 f i GigeCameraDemoDlg.obj
 0001:0000af80       ??0Image@Gdiplus@@IEAA@XZ  000000014000bf80 f i GigeCameraDemoDlg.obj
 0001:0000afa0       ??_EBitmap@Gdiplus@@UEAAPEAXI@Z 000000014000bfa0 f i GigeCameraDemoDlg.obj
 0001:0000afa0       ??_GBitmap@Gdiplus@@UEAAPEAXI@Z 000000014000bfa0 f i GigeCameraDemoDlg.obj
 0001:0000aff0       ?CreateFromGdiplusBitmap@CImage@ATL@@AEAAJAEAVBitmap@Gdiplus@@@Z 000000014000bff0 f i GigeCameraDemoDlg.obj
 0001:0000b6f0       ?_AtlVerifyStackAvailable@_ATL_SAFE_ALLOCA_IMPL@ATL@@YA_N_K@Z 000000014000c6f0 f i GigeCameraDemoDlg.obj
 0001:0000b800       ?memcpy_s@Checked@ATL@@YAXPEAX_KPEBX1@Z 000000014000c800 f i GigeCameraDemoDlg.obj
 0001:0000b850       ?AfxCrtErrorCheck@@YAHH@Z  000000014000c850 f i GigeCameraDemoDlg.obj
 0001:0000b8c0       ??0Rect@Gdiplus@@QEAA@HHHH@Z 000000014000c8c0 f i GigeCameraDemoDlg.obj
 0001:0000b920       ?GetPixelFormatSize@Gdiplus@@YAIH@Z 000000014000c920 f i GigeCameraDemoDlg.obj
 0001:0000b940       ?IsIndexedPixelFormat@Gdiplus@@YAHH@Z 000000014000c940 f i GigeCameraDemoDlg.obj
 0001:0000b980       ?IsAlphaPixelFormat@Gdiplus@@YAHH@Z 000000014000c980 f i GigeCameraDemoDlg.obj
 0001:0000b9c0       ??0Graphics@Gdiplus@@QEAA@PEAVImage@1@@Z 000000014000c9c0 f i GigeCameraDemoDlg.obj
 0001:0000ba30       ??1Graphics@Gdiplus@@QEAA@XZ 000000014000ca30 f i GigeCameraDemoDlg.obj
 0001:0000ba60       ?DrawImage@Graphics@Gdiplus@@QEAA?AW4Status@2@PEAVImage@2@HH@Z 000000014000ca60 f i GigeCameraDemoDlg.obj
 0001:0000bae0       ?SetNativeGraphics@Graphics@Gdiplus@@IEAAXPEAVGpGraphics@2@@Z 000000014000cae0 f i GigeCameraDemoDlg.obj
 0001:0000bb00       ?SetStatus@Graphics@Gdiplus@@IEBA?AW4Status@2@W432@@Z 000000014000cb00 f i GigeCameraDemoDlg.obj
 0001:0000bb40       ?GetWidth@Image@Gdiplus@@QEAAIXZ 000000014000cb40 f i GigeCameraDemoDlg.obj
 0001:0000bb90       ?GetHeight@Image@Gdiplus@@QEAAIXZ 000000014000cb90 f i GigeCameraDemoDlg.obj
 0001:0000bbe0       ?GetPixelFormat@Image@Gdiplus@@QEAAHXZ 000000014000cbe0 f i GigeCameraDemoDlg.obj
 0001:0000bc20       ?GetPaletteSize@Image@Gdiplus@@QEAAHXZ 000000014000cc20 f i GigeCameraDemoDlg.obj
 0001:0000bc70       ?GetPalette@Image@Gdiplus@@QEAA?AW4Status@2@PEAUColorPalette@2@H@Z 000000014000cc70 f i GigeCameraDemoDlg.obj
 0001:0000bcc0       ??0Bitmap@Gdiplus@@QEAA@HHHHPEAE@Z 000000014000ccc0 f i GigeCameraDemoDlg.obj
 0001:0000bd80       ?LockBits@Bitmap@Gdiplus@@QEAA?AW4Status@2@PEBVRect@2@IHPEAVBitmapData@2@@Z 000000014000cd80 f i GigeCameraDemoDlg.obj
 0001:0000bdf0       ?UnlockBits@Bitmap@Gdiplus@@QEAA?AW4Status@2@PEAVBitmapData@2@@Z 000000014000cdf0 f i GigeCameraDemoDlg.obj
 0001:0000be30       ?Create@CImage@ATL@@QEAAHHHHK@Z 000000014000ce30 f i GigeCameraDemoDlg.obj
 0001:0000be90       ?CreateEx@CImage@ATL@@QEAAHHHHKPEBKK@Z 000000014000ce90 f i GigeCameraDemoDlg.obj
 0001:0000c230       ?Attach@CImage@ATL@@QEAAXPEAUHBITMAP__@@W4DIBOrientation@12@@Z 000000014000d230 f i GigeCameraDemoDlg.obj
 0001:0000c310       ?GetBits@CImage@ATL@@QEAAPEAXXZ 000000014000d310 f i GigeCameraDemoDlg.obj
 0001:0000c3e0       ?GetHeight@CImage@ATL@@QEBAHXZ 000000014000d3e0 f i GigeCameraDemoDlg.obj
 0001:0000c460       ?GetPitch@CImage@ATL@@QEBAHXZ 000000014000d460 f i GigeCameraDemoDlg.obj
 0001:0000c530       ?GetWidth@CImage@ATL@@QEBAHXZ 000000014000d530 f i GigeCameraDemoDlg.obj
 0001:0000c5b0       ?IsDIBSection@CImage@ATL@@QEBA_NXZ 000000014000d5b0 f i GigeCameraDemoDlg.obj
 0001:0000c5d0       ?SetColorTable@CImage@ATL@@QEAAXIIPEBUtagRGBQUAD@@@Z 000000014000d5d0 f i GigeCameraDemoDlg.obj
 0001:0000c730       ?GetDC@CImage@ATL@@QEBAPEAUHDC__@@XZ 000000014000d730 f i GigeCameraDemoDlg.obj
 0001:0000c810       ?GetDC@CDCCache@CImage@ATL@@QEAAPEAUHDC__@@XZ 000000014000d810 f i GigeCameraDemoDlg.obj
 0001:0000c890       ?IsIndexed@CImage@ATL@@QEBA_NXZ 000000014000d890 f i GigeCameraDemoDlg.obj
 0001:0000c980       ?ReleaseDC@CImage@ATL@@QEBAXXZ 000000014000d980 f i GigeCameraDemoDlg.obj
 0001:0000cab0       ?ReleaseDC@CDCCache@CImage@ATL@@QEAAXPEAUHDC__@@@Z 000000014000dab0 f i GigeCameraDemoDlg.obj
 0001:0000cb50       ?UpdateBitmapInfo@CImage@ATL@@AEAAXW4DIBOrientation@12@@Z 000000014000db50 f i GigeCameraDemoDlg.obj
 0001:0000ce00       ?abs@@YAJJ@Z               000000014000de00 f i GigeCameraDemoDlg.obj
 0001:0000ce20       ?ComputePitch@CImage@ATL@@CAHHH@Z 000000014000de20 f i GigeCameraDemoDlg.obj
 0001:0000ce50       ?InitGDIPlus@CImage@ATL@@CA_NXZ 000000014000de50 f i GigeCameraDemoDlg.obj
 0001:0000ce80       ?Init@CInitGDIPlus@CImage@ATL@@QEAA_NXZ 000000014000de80 f i GigeCameraDemoDlg.obj
 0001:0000cf30       ??0GdiplusStartupInput@Gdiplus@@QEAA@P6AXW4DebugEventLevel@1@PEAD@ZHH@Z 000000014000df30 f i GigeCameraDemoDlg.obj
 0001:0000cf90       ??0CImage@ATL@@QEAA@XZ     000000014000df90 f i GigeCameraDemoDlg.obj
 0001:0000d090       ?IncreaseCImageCount@CInitGDIPlus@CImage@ATL@@QEAAXXZ 000000014000e090 f i GigeCameraDemoDlg.obj
 0001:0000d0f0       ??_GCImage@ATL@@UEAAPEAXI@Z 000000014000e0f0 f i GigeCameraDemoDlg.obj
 0001:0000d0f0       ??_ECImage@ATL@@UEAAPEAXI@Z 000000014000e0f0 f i GigeCameraDemoDlg.obj
 0001:0000d140       ??1CImage@ATL@@UEAA@XZ     000000014000e140 f i GigeCameraDemoDlg.obj
 0001:0000d180       ?DecreaseCImageCount@CInitGDIPlus@CImage@ATL@@QEAAXXZ 000000014000e180 f i GigeCameraDemoDlg.obj
 0001:0000d200       ?ReleaseGDIPlus@CInitGDIPlus@CImage@ATL@@QEAAXXZ 000000014000e200 f i GigeCameraDemoDlg.obj
 0001:0000d270       ?Destroy@CImage@ATL@@QEAAXXZ 000000014000e270 f i GigeCameraDemoDlg.obj
 0001:0000d2c0       ?Detach@CImage@ATL@@QEAAPEAUHBITMAP__@@XZ 000000014000e2c0 f i GigeCameraDemoDlg.obj
 0001:0000d430       ?Draw@CImage@ATL@@QEBAHPEAUHDC__@@AEBUtagRECT@@@Z 000000014000e430 f i GigeCameraDemoDlg.obj
 0001:0000d4e0       ?Draw@CImage@ATL@@QEBAHPEAUHDC__@@HHHHHHHH@Z 000000014000e4e0 f i GigeCameraDemoDlg.obj
 0001:0000d990       ?IsTransparencySupported@CImage@ATL@@SAHXZ 000000014000e990 f i GigeCameraDemoDlg.obj
 0001:0000d9a0       ?GetTransparentRGB@CImage@ATL@@AEBAKXZ 000000014000e9a0 f i GigeCameraDemoDlg.obj
 0001:0000dae0       ??0?$CAtlSafeAllocBufferManager@VCCRTAllocator@ATL@@@_ATL_SAFE_ALLOCA_IMPL@ATL@@QEAA@XZ 000000014000eae0 f i GigeCameraDemoDlg.obj
 0001:0000db00       ?Allocate@?$CAtlSafeAllocBufferManager@VCCRTAllocator@ATL@@@_ATL_SAFE_ALLOCA_IMPL@ATL@@QEAAPEAX_K@Z 000000014000eb00 f i GigeCameraDemoDlg.obj
 0001:0000db80       ?Allocate@CCRTAllocator@ATL@@SAPEAX_K@Z 000000014000eb80 f i GigeCameraDemoDlg.obj
 0001:0000dba0       ??1?$CAtlSafeAllocBufferManager@VCCRTAllocator@ATL@@@_ATL_SAFE_ALLOCA_IMPL@ATL@@QEAA@XZ 000000014000eba0 f i GigeCameraDemoDlg.obj
 0001:0000dc00       ?Free@CCRTAllocator@ATL@@SAXPEAX@Z 000000014000ec00 f i GigeCameraDemoDlg.obj
 0001:0000dc20       ??HATL@@YA?AV?$CStringT@DV?$StrTraitMFC_DLL@DV?$ChTraitsCRT@D@ATL@@@@@0@AEBV10@PEBD@Z 000000014000ec20 f i GigeCameraDemoDlg.obj
 0001:0000dd10       ??HATL@@YA?AV?$CStringT@DV?$StrTraitMFC_DLL@DV?$ChTraitsCRT@D@ATL@@@@@0@PEBDAEBV10@@Z 000000014000ed10 f i GigeCameraDemoDlg.obj
 0001:0000de10       ?GetData@CAtlSafeAllocBufferNode@?$CAtlSafeAllocBufferManager@VCCRTAllocator@ATL@@@_ATL_SAFE_ALLOCA_IMPL@ATL@@QEAAPEAXXZ 000000014000ee10 f i GigeCameraDemoDlg.obj
 0001:0000de30       ??$AtlAdd@_K@ATL@@YAJPEA_K_K1@Z 000000014000ee30 f i GigeCameraDemoDlg.obj
 0001:0000dea0       HRESULT_FROM_WIN32         000000014000eea0 f i GigeCameraDemoDlg.obj
 0001:0000def0       ??$AtlAlignUp@I@ATL@@YAIIK@Z 000000014000eef0 f i GigeCameraDemoDlg.obj
 0001:0000df20       ??$sprintf_s@$0EAA@@@YAHAEAY0EAA@DPEBDZZ 000000014000ef20 f i GigeCameraDemoDlg.obj
 0001:0000df80       ??$sprintf_s@$09@@YAHAEAY09DPEBDZZ 000000014000ef80 f i GigeCameraDemoDlg.obj
 0001:0000dfe0       ??$sprintf_s@$0CAA@@@YAHAEAY0CAA@DPEBDZZ 000000014000efe0 f i GigeCameraDemoDlg.obj
 0001:0000e040       ??$strcpy_s@$0IA@@@YAHAEAY0IA@DPEBD@Z 000000014000f040 f i GigeCameraDemoDlg.obj
 0001:0000e080       ??$AtlAddThrow@_K@ATL@@YA_K_K0@Z 000000014000f080 f i GigeCameraDemoDlg.obj
 0001:0000e0d0       ?AtlThrowImpl@ATL@@YAXJ@Z  000000014000f0d0 f i GigeCameraDemoDlg.obj
 0001:0000e160       ??0CTraceFileAndLineInfo@ATL@@QEAA@PEBDH@Z 000000014000f160 f i GigeCameraDemoDlg.obj
 0001:0000e1a0       ??RCTraceFileAndLineInfo@ATL@@QEBAX_KIPEBDZZ 000000014000f1a0 f i GigeCameraDemoDlg.obj
 0001:0000e230       ?TraceV@CTrace@ATL@@QEBAXPEBDH_KI0PEAD@Z 000000014000f230 f i GigeCameraDemoDlg.obj
 0001:0000e2a0       ??BCTraceCategory@ATL@@QEBA_KXZ 000000014000f2a0 f i GigeCameraDemoDlg.obj
 0001:0000e2c0       ?_GetBaseClass@CInputDialog@@KAPEAUCRuntimeClass@@XZ 000000014000f2c0 f   InputDialog.obj
 0001:0000e2e0       ?GetThisClass@CInputDialog@@SAPEAUCRuntimeClass@@XZ 000000014000f2e0 f   InputDialog.obj
 0001:0000e2f0       ?GetRuntimeClass@CInputDialog@@UEBAPEAUCRuntimeClass@@XZ 000000014000f2f0 f   InputDialog.obj
 0001:0000e310       ??0CInputDialog@@QEAA@PEAVCWnd@@@Z 000000014000f310 f   InputDialog.obj
 0001:0000e360       ??1CInputDialog@@UEAA@XZ   000000014000f360 f   InputDialog.obj
 0001:0000e390       ?DoDataExchange@CInputDialog@@MEAAXPEAVCDataExchange@@@Z 000000014000f390 f   InputDialog.obj
 0001:0000e3e0       ?GetMessageMap@CInputDialog@@MEBAPEBUAFX_MSGMAP@@XZ 000000014000f3e0 f   InputDialog.obj
 0001:0000e400       ?GetThisMessageMap@CInputDialog@@KAPEBUAFX_MSGMAP@@XZ 000000014000f400 f   InputDialog.obj
 0001:0000e410       ?OnBnClickedOk@CInputDialog@@QEAAXXZ 000000014000f410 f   InputDialog.obj
 0001:0000e4a0       ??_ECInputDialog@@UEAAPEAXI@Z 000000014000f4a0 f i InputDialog.obj
 0001:0000e4a0       ??_GCInputDialog@@UEAAPEAXI@Z 000000014000f4a0 f i InputDialog.obj
 0001:0000e4f0       ?_GetBaseClass@CMessageDialog@@KAPEAUCRuntimeClass@@XZ 000000014000f4f0 f   MessageDialog.obj
 0001:0000e510       ?GetThisClass@CMessageDialog@@SAPEAUCRuntimeClass@@XZ 000000014000f510 f   MessageDialog.obj
 0001:0000e520       ?GetRuntimeClass@CMessageDialog@@UEBAPEAUCRuntimeClass@@XZ 000000014000f520 f   MessageDialog.obj
 0001:0000e540       ??0CMessageDialog@@QEAA@PEAVCWnd@@@Z 000000014000f540 f   MessageDialog.obj
 0001:0000e5b0       ??1CMessageDialog@@UEAA@XZ 000000014000f5b0 f   MessageDialog.obj
 0001:0000e600       ?DoDataExchange@CMessageDialog@@MEAAXPEAVCDataExchange@@@Z 000000014000f600 f   MessageDialog.obj
 0001:0000e630       ?GetMessageMap@CMessageDialog@@MEBAPEBUAFX_MSGMAP@@XZ 000000014000f630 f   MessageDialog.obj
 0001:0000e650       ?GetThisMessageMap@CMessageDialog@@KAPEBUAFX_MSGMAP@@XZ 000000014000f650 f   MessageDialog.obj
 0001:0000e660       ?Response@CMessageDialog@@QEAA_J_K_J@Z 000000014000f660 f   MessageDialog.obj
 0001:0000e740       ?OnCtlColor@CMessageDialog@@QEAAPEAUHBRUSH__@@PEAVCDC@@PEAVCWnd@@I@Z 000000014000f740 f   MessageDialog.obj
 0001:0000e910       ?OnEraseBkgnd@CMessageDialog@@QEAAHPEAVCDC@@@Z 000000014000f910 f   MessageDialog.obj
 0001:0000ea10       ?OnCreate@CMessageDialog@@QEAAHPEAUtagCREATESTRUCTA@@@Z 000000014000fa10 f   MessageDialog.obj
 0001:0000ea90       ?OnClose@CMessageDialog@@QEAAXXZ 000000014000fa90 f   MessageDialog.obj
 0001:0000ead0       ?OnPaint@CMessageDialog@@QEAAXXZ 000000014000fad0 f   MessageDialog.obj
 0001:0000eb30       ?OnBnClickedOk@CMessageDialog@@QEAAXXZ 000000014000fb30 f   MessageDialog.obj
 0001:0000eb50       ?OnInitDialog@CMessageDialog@@UEAAHXZ 000000014000fb50 f   MessageDialog.obj
 0001:0000eb80       ?OnTimer@CMessageDialog@@QEAAX_K@Z 000000014000fb80 f   MessageDialog.obj
 0001:0000ebb0       ?OnLButtonUp@CMessageDialog@@QEAAXIVCPoint@@@Z 000000014000fbb0 f   MessageDialog.obj
 0001:0000eda0       ??_GCMessageDialog@@UEAAPEAXI@Z 000000014000fda0 f i MessageDialog.obj
 0001:0000eda0       ??_ECMessageDialog@@UEAAPEAXI@Z 000000014000fda0 f i MessageDialog.obj
 0001:0000edf0       ??0CSerialPort@@QEAA@XZ    000000014000fdf0 f   SerialPort.obj
 0001:0000ee90       ??1CSerialPort@@UEAA@XZ    000000014000fe90 f   SerialPort.obj
 0001:0000ef10       ?InitPort@CSerialPort@@QEAAHPEAVCWnd@@IIDIIKI@Z 000000014000ff10 f   SerialPort.obj
 0001:0000f560       ?CommThread@CSerialPort@@KAIPEAX@Z 0000000140010560 f   SerialPort.obj
 0001:0000f870       ?StartMonitoring@CSerialPort@@QEAAHXZ 0000000140010870 f   SerialPort.obj
 0001:0000f900       ?RestartMonitoring@CSerialPort@@QEAAHXZ 0000000140010900 f   SerialPort.obj
 0001:0000f950       ?StopMonitoring@CSerialPort@@QEAAHXZ 0000000140010950 f   SerialPort.obj
 0001:0000f9a0       ?ProcessErrorMessage@CSerialPort@@IEAAXPEAD@Z 00000001400109a0 f   SerialPort.obj
 0001:0000fa70       ?WriteChar@CSerialPort@@KAXPEAV1@H@Z 0000000140010a70 f   SerialPort.obj
 0001:0000fca0       ?ReceiveChar@CSerialPort@@KAXPEAV1@U_COMSTAT@@@Z 0000000140010ca0 f   SerialPort.obj
 0001:0000fe70       ?WriteToPort@CSerialPort@@QEAAXPEAD@Z 0000000140010e70 f   SerialPort.obj
 0001:0000fef0       ?WriteToPort@CSerialPort@@QEAAXPEADH@Z 0000000140010ef0 f   SerialPort.obj
 0001:0000ffb0       ?GetDCB@CSerialPort@@QEAA?AU_DCB@@XZ 0000000140010fb0 f   SerialPort.obj
 0001:00010000       ?GetCommEvents@CSerialPort@@QEAAKXZ 0000000140011000 f   SerialPort.obj
 0001:00010020       ?GetWriteBufferSize@CSerialPort@@QEAAKXZ 0000000140011020 f   SerialPort.obj
 0001:00010040       ?GetPortNO@CSerialPort@@QEAAHXZ 0000000140011040 f   SerialPort.obj
 0001:000104f0       ??_ECSerialPort@@UEAAPEAXI@Z 00000001400114f0 f i SerialPort.obj
 0001:000104f0       ??_GCSerialPort@@UEAAPEAXI@Z 00000001400114f0 f i SerialPort.obj
 0001:00010540       ??RCTraceFileAndLineInfo@ATL@@QEBAXPEBDZZ 0000000140011540 f i SerialPort.obj
 0001:000105e0       ?_GetBaseClass@CSplashWnd@@KAPEAUCRuntimeClass@@XZ 00000001400115e0 f   SplashWnd.obj
 0001:00010600       ?GetThisClass@CSplashWnd@@SAPEAUCRuntimeClass@@XZ 0000000140011600 f   SplashWnd.obj
 0001:00010610       ?GetRuntimeClass@CSplashWnd@@UEBAPEAUCRuntimeClass@@XZ 0000000140011610 f   SplashWnd.obj
 0001:00010630       ??0CSplashWnd@@QEAA@XZ     0000000140011630 f   SplashWnd.obj
 0001:00010740       ??1CSplashWnd@@UEAA@XZ     0000000140011740 f   SplashWnd.obj
 0001:000107f0       ?GetMessageMap@CSplashWnd@@MEBAPEBUAFX_MSGMAP@@XZ 00000001400117f0 f   SplashWnd.obj
 0001:00010810       ?GetThisMessageMap@CSplashWnd@@KAPEBUAFX_MSGMAP@@XZ 0000000140011810 f   SplashWnd.obj
 0001:00010820       ?DeleteSplash@CSplashWnd@@QEAAXXZ 0000000140011820 f   SplashWnd.obj
 0001:00010840       ?CreateSplash@CSplashWnd@@QEAAXXZ 0000000140011840 f   SplashWnd.obj
 0001:00010940       ?OnPaint@CSplashWnd@@IEAAXXZ 0000000140011940 f   SplashWnd.obj
 0001:00010b40       ?ImageFrom_IDResource@CSplashWnd@@QEAAXIPEBDPEAVCImage@ATL@@@Z 0000000140011b40 f   SplashWnd.obj
 0001:00010c40       ?SetInfo@CSplashWnd@@QEAAXV?$CStringT@DV?$StrTraitMFC_DLL@DV?$ChTraitsCRT@D@ATL@@@@@ATL@@@Z 0000000140011c40 f   SplashWnd.obj
 0001:00010c90       ?On_Timer@@YAKPEAX@Z       0000000140011c90 f   SplashWnd.obj
 0001:000115a0       ?OnNcDestroy@CSplashWnd@@QEAAXXZ 00000001400125a0 f   SplashWnd.obj
 0001:000115d0       ?HideCursor@CSplashWnd@@QEAAXXZ 00000001400125d0 f   SplashWnd.obj
 0001:00011a10       ??_ECSplashWnd@@UEAAPEAXI@Z 0000000140012a10 f i SplashWnd.obj
 0001:00011a10       ??_GCSplashWnd@@UEAAPEAXI@Z 0000000140012a10 f i SplashWnd.obj
 0001:00011a54       ??1SapAcquisition@@UEAA@XZ 0000000140012a54 f   SapClassBasic:SapClassBasic82.dll
 0001:00011a5a       ??0SapAcquisition@@QEAA@VSapLocation@@@Z 0000000140012a5a f   SapClassBasic:SapClassBasic82.dll
 0001:00011a60       ??0SapLocation@@QEAA@HH@Z  0000000140012a60 f   SapClassBasic:SapClassBasic82.dll
 0001:00011a66       ?GetEventCount@SapXferCallbackInfo@@QEBAHXZ 0000000140012a66 f   SapClassBasic:SapClassBasic82.dll
 0001:00011a6c       ?GetHeight@SapBuffer@@QEBAHXZ 0000000140012a6c f   SapClassBasic:SapClassBasic82.dll
 0001:00011a72       ?GetWidth@SapBuffer@@QEBAHXZ 0000000140012a72 f   SapClassBasic:SapClassBasic82.dll
 0001:00011a78       ?GetContext@SapXferCallbackInfo@@QEBAPEAXXZ 0000000140012a78 f   SapClassBasic:SapClassBasic82.dll
 0001:00011a7e       ?SetCycleMode@SapXferPair@@QEAAHH@Z 0000000140012a7e f   SapClassBasic:SapClassBasic82.dll
 0001:00011a84       ?GetPair@SapTransfer@@QEAAPEAVSapXferPair@@H@Z 0000000140012a84 f   SapClassBasic:SapClassBasic82.dll
 0001:00011a8a       ??BSapManager@@QEBAHXZ     0000000140012a8a f   SapClassBasic:SapClassBasic82.dll
 0001:00011a90       ?GetBuffer@SapView@@QEBAPEAVSapBuffer@@XZ 0000000140012a90 f   SapClassBasic:SapClassBasic82.dll
 0001:00011a96       ??1CImageExWnd@@UEAA@XZ    0000000140012a96 f   SapClassGuiD:SapClassGui82D.NET_2010.dll
 0001:00011a9c       ??0CImageExWnd@@QEAA@XZ    0000000140012a9c f   SapClassGuiD:SapClassGui82D.NET_2010.dll
 0001:00011aa2       ??0CImageExWndEventHandler@@QEAA@XZ 0000000140012aa2 f   SapClassGuiD:SapClassGui82D.NET_2010.dll
 0001:00011aa8       ?ScaleChanged@CImageViewportWndEventHandler@@UEAAXXZ 0000000140012aa8 f   SapClassGuiD:SapClassGui82D.NET_2010.dll
 0001:00011aae       ?RoiChanged@CImageViewportWndEventHandler@@UEAAXXZ 0000000140012aae f   SapClassGuiD:SapClassGui82D.NET_2010.dll
 0001:00011ab4       ?ViewChanged@CImageViewportWndEventHandler@@UEAAXXZ 0000000140012ab4 f   SapClassGuiD:SapClassGui82D.NET_2010.dll
 0001:00011aba       ?MarkerChanged@CImageExWndEventHandler@@UEAAXXZ 0000000140012aba f   SapClassGuiD:SapClassGui82D.NET_2010.dll
 0001:00011ac0       ?InteractiveMarkerChanged@CImageExWndEventHandler@@UEAAXH@Z 0000000140012ac0 f   SapClassGuiD:SapClassGui82D.NET_2010.dll
 0001:00011ac6       ?GetPixelString@CImageExWnd@@QEBA?AV?$CStringT@DV?$StrTraitMFC_DLL@DV?$ChTraitsCRT@D@ATL@@@@@ATL@@VCPoint@@@Z 0000000140012ac6 f   SapClassGuiD:SapClassGui82D.NET_2010.dll
 0001:00011acc       ??1CViewDlg@@UEAA@XZ       0000000140012acc f   SapClassGuiD:SapClassGui82D.NET_2010.dll
 0001:00011ad2       ?Refresh@CImageExWnd@@QEAAXXZ 0000000140012ad2 f   SapClassGuiD:SapClassGui82D.NET_2010.dll
 0001:00011ad8       ??0CViewDlg@@QEAA@PEAVCWnd@@PEAVSapView@@@Z 0000000140012ad8 f   SapClassGuiD:SapClassGui82D.NET_2010.dll
 0001:00011ade       ??1CAbortDlg@@UEAA@XZ      0000000140012ade f   SapClassGuiD:SapClassGui82D.NET_2010.dll
 0001:00011ae4       ??0CAbortDlg@@QEAA@PEAVCWnd@@PEAVSapTransfer@@H@Z 0000000140012ae4 f   SapClassGuiD:SapClassGui82D.NET_2010.dll
 0001:00011aea       ZLBSaveImage               0000000140012aea f   ZLBImage:ZLBImage.dll
 0001:00011af0       ZLBCreateDirectory         0000000140012af0 f   ZLBCommon:ZLBCommon.dll
 0001:00011af6       ZLBIsPathExist             0000000140012af6 f   ZLBCommon:ZLBCommon.dll
 0001:00011afc       ZLBIniReadDouble           0000000140012afc f   ZLBCommon:ZLBCommon.dll
 0001:00011b02       ZLBIniReadString           0000000140012b02 f   ZLBCommon:ZLBCommon.dll
 0001:00011b08       ZLBIniReadInt              0000000140012b08 f   ZLBCommon:ZLBCommon.dll
 0001:00011b0e       ZLBIniFile                 0000000140012b0e f   ZLBCommon:ZLBCommon.dll
 0001:00011b14       ZLBGetCurrentPath          0000000140012b14 f   ZLBCommon:ZLBCommon.dll
 0001:00011b1a       ??3@YAXPEAX@Z              0000000140012b1a f   mfc100d:mfc100d.dll
 0001:00011b20       ?GetThisMessageMap@CWinApp@@KAPEBUAFX_MSGMAP@@XZ 0000000140012b20 f   mfc100d:mfc100d.dll
 0001:00011b26       ??0CWinApp@@QEAA@PEBD@Z    0000000140012b26 f   mfc100d:mfc100d.dll
 0001:00011b2c       ?GetRuntimeClass@CWinApp@@UEBAPEAUCRuntimeClass@@XZ 0000000140012b2c f   mfc100d:mfc100d.dll
 0001:00011b32       ?Serialize@CObject@@UEAAXAEAVCArchive@@@Z 0000000140012b32 f   mfc100d:mfc100d.dll
 0001:00011b38       ?AssertValid@CWinApp@@UEBAXXZ 0000000140012b38 f   mfc100d:mfc100d.dll
 0001:00011b3e       ?Dump@CWinApp@@UEBAXAEAVCDumpContext@@@Z 0000000140012b3e f   mfc100d:mfc100d.dll
 0001:00011b44       ?OnCmdMsg@CCmdTarget@@UEAAHIHPEAXPEAUAFX_CMDHANDLERINFO@@@Z 0000000140012b44 f   mfc100d:mfc100d.dll
 0001:00011b4a       ?OnFinalRelease@CCmdTarget@@UEAAXXZ 0000000140012b4a f   mfc100d:mfc100d.dll
 0001:00011b50       ?IsInvokeAllowed@CCmdTarget@@UEAAHJ@Z 0000000140012b50 f   mfc100d:mfc100d.dll
 0001:00011b56       ?GetDispatchIID@CCmdTarget@@UEAAHPEAU_GUID@@@Z 0000000140012b56 f   mfc100d:mfc100d.dll
 0001:00011b5c       ?GetTypeInfoCount@CCmdTarget@@UEAAIXZ 0000000140012b5c f   mfc100d:mfc100d.dll
 0001:00011b62       ?GetTypeLibCache@CCmdTarget@@UEAAPEAVCTypeLibCache@@XZ 0000000140012b62 f   mfc100d:mfc100d.dll
 0001:00011b68       ?GetTypeLib@CCmdTarget@@UEAAJKPEAPEAUITypeLib@@@Z 0000000140012b68 f   mfc100d:mfc100d.dll
 0001:00011b6e       ?GetCommandMap@CCmdTarget@@MEBAPEBUAFX_OLECMDMAP@@XZ 0000000140012b6e f   mfc100d:mfc100d.dll
 0001:00011b74       ?GetDispatchMap@CCmdTarget@@MEBAPEBUAFX_DISPMAP@@XZ 0000000140012b74 f   mfc100d:mfc100d.dll
 0001:00011b7a       ?GetConnectionMap@CCmdTarget@@MEBAPEBUAFX_CONNECTIONMAP@@XZ 0000000140012b7a f   mfc100d:mfc100d.dll
 0001:00011b80       ?GetInterfaceMap@CCmdTarget@@MEBAPEBUAFX_INTERFACEMAP@@XZ 0000000140012b80 f   mfc100d:mfc100d.dll
 0001:00011b86       ?GetEventSinkMap@CCmdTarget@@MEBAPEBUAFX_EVENTSINKMAP@@XZ 0000000140012b86 f   mfc100d:mfc100d.dll
 0001:00011b8c       ?OnCreateAggregates@CCmdTarget@@UEAAHXZ 0000000140012b8c f   mfc100d:mfc100d.dll
 0001:00011b92       ?GetInterfaceHook@CCmdTarget@@UEAAPEAUIUnknown@@PEBX@Z 0000000140012b92 f   mfc100d:mfc100d.dll
 0001:00011b98       ?GetExtraConnectionPoints@CCmdTarget@@MEAAHPEAVCPtrArray@@@Z 0000000140012b98 f   mfc100d:mfc100d.dll
 0001:00011b9e       ?GetConnectionHook@CCmdTarget@@MEAAPEAUIConnectionPoint@@AEBU_GUID@@@Z 0000000140012b9e f   mfc100d:mfc100d.dll
 0001:00011ba4       ?Run@CWinApp@@UEAAHXZ      0000000140012ba4 f   mfc100d:mfc100d.dll
 0001:00011baa       ?PreTranslateMessage@CWinThread@@UEAAHPEAUtagMSG@@@Z 0000000140012baa f   mfc100d:mfc100d.dll
 0001:00011bb0       ?PumpMessage@CWinThread@@UEAAHXZ 0000000140012bb0 f   mfc100d:mfc100d.dll
 0001:00011bb6       ?OnIdle@CWinApp@@UEAAHJ@Z  0000000140012bb6 f   mfc100d:mfc100d.dll
 0001:00011bbc       ?IsIdleMessage@CWinThread@@UEAAHPEAUtagMSG@@@Z 0000000140012bbc f   mfc100d:mfc100d.dll
 0001:00011bc2       ?ExitInstance@CWinApp@@UEAAHXZ 0000000140012bc2 f   mfc100d:mfc100d.dll
 0001:00011bc8       ?ProcessWndProcException@CWinApp@@UEAA_JPEAVCException@@PEBUtagMSG@@@Z 0000000140012bc8 f   mfc100d:mfc100d.dll
 0001:00011bce       ?ProcessMessageFilter@CWinThread@@UEAAHHPEAUtagMSG@@@Z 0000000140012bce f   mfc100d:mfc100d.dll
 0001:00011bd4       ?GetMainWnd@CWinThread@@UEAAPEAVCWnd@@XZ 0000000140012bd4 f   mfc100d:mfc100d.dll
 0001:00011bda       ?Delete@CWinThread@@UEAAXXZ 0000000140012bda f   mfc100d:mfc100d.dll
 0001:00011be0       ?GetProfileIntA@CWinApp@@UEAAIPEBD0H@Z 0000000140012be0 f   mfc100d:mfc100d.dll
 0001:00011be6       ?WriteProfileInt@CWinApp@@UEAAHPEBD0H@Z 0000000140012be6 f   mfc100d:mfc100d.dll
 0001:00011bec       ?GetProfileStringA@CWinApp@@UEAA?AV?$CStringT@DV?$StrTraitMFC_DLL@DV?$ChTraitsCRT@D@ATL@@@@@ATL@@PEBD00@Z 0000000140012bec f   mfc100d:mfc100d.dll
 0001:00011bf2       ?WriteProfileStringA@CWinApp@@UEAAHPEBD00@Z 0000000140012bf2 f   mfc100d:mfc100d.dll
 0001:00011bf8       ?GetProfileBinary@CWinApp@@UEAAHPEBD0PEAPEAEPEAI@Z 0000000140012bf8 f   mfc100d:mfc100d.dll
 0001:00011bfe       ?WriteProfileBinary@CWinApp@@UEAAHPEBD0PEAEI@Z 0000000140012bfe f   mfc100d:mfc100d.dll
 0001:00011c04       ?InitLibId@CWinApp@@UEAAXXZ 0000000140012c04 f   mfc100d:mfc100d.dll
 0001:00011c0a       ?Register@CWinApp@@UEAAHXZ 0000000140012c0a f   mfc100d:mfc100d.dll
 0001:00011c10       ?Unregister@CWinApp@@UEAAHXZ 0000000140012c10 f   mfc100d:mfc100d.dll
 0001:00011c16       ?OpenDocumentFile@CWinApp@@UEAAPEAVCDocument@@PEBDH@Z 0000000140012c16 f   mfc100d:mfc100d.dll
 0001:00011c1c       ?OpenDocumentFile@CWinApp@@UEAAPEAVCDocument@@PEBD@Z 0000000140012c1c f   mfc100d:mfc100d.dll
 0001:00011c22       ?AddToRecentFileList@CWinApp@@UEAAXPEBD@Z 0000000140012c22 f   mfc100d:mfc100d.dll
 0001:00011c28       ?InitApplication@CWinApp@@UEAAHXZ 0000000140012c28 f   mfc100d:mfc100d.dll
 0001:00011c2e       ?SaveAllModified@CWinApp@@UEAAHXZ 0000000140012c2e f   mfc100d:mfc100d.dll
 0001:00011c34       ?DoMessageBox@CWinApp@@UEAAHPEBDII@Z 0000000140012c34 f   mfc100d:mfc100d.dll
 0001:00011c3a       ?DoWaitCursor@CWinApp@@UEAAXH@Z 0000000140012c3a f   mfc100d:mfc100d.dll
 0001:00011c40       ?OnDDECommand@CWinApp@@UEAAHPEAD@Z 0000000140012c40 f   mfc100d:mfc100d.dll
 0001:00011c46       ?WinHelpA@CWinApp@@UEAAX_KI@Z 0000000140012c46 f   mfc100d:mfc100d.dll
 0001:00011c4c       ?HtmlHelpA@CWinApp@@UEAAX_KI@Z 0000000140012c4c f   mfc100d:mfc100d.dll
 0001:00011c52       ?WinHelpInternal@CWinApp@@UEAAX_KI@Z 0000000140012c52 f   mfc100d:mfc100d.dll
 0001:00011c58       ?RegisterWithRestartManager@CWinApp@@UEAAJPEB_WKP6AKPEAX@Z1KK@Z 0000000140012c58 f   mfc100d:mfc100d.dll
 0001:00011c5e       ?RegisterWithRestartManager@CWinApp@@UEAAJHAEBV?$CStringT@DV?$StrTraitMFC_DLL@DV?$ChTraitsCRT@D@ATL@@@@@ATL@@@Z 0000000140012c5e f   mfc100d:mfc100d.dll
 0001:00011c64       ?ApplicationRecoveryCallback@CWinApp@@UEAAKPEAX@Z 0000000140012c64 f   mfc100d:mfc100d.dll
 0001:00011c6a       ?GetDataRecoveryHandler@CWinApp@@UEAAPEAVCDataRecoveryHandler@@XZ 0000000140012c6a f   mfc100d:mfc100d.dll
 0001:00011c70       ?IsTaskbarInteractionEnabled@CWinApp@@UEAAHXZ 0000000140012c70 f   mfc100d:mfc100d.dll
 0001:00011c76       ?RestartInstance@CWinApp@@UEAAHXZ 0000000140012c76 f   mfc100d:mfc100d.dll
 0001:00011c7c       ?LoadAppLangResourceDLL@CWinApp@@UEAAPEAUHINSTANCE__@@XZ 0000000140012c7c f   mfc100d:mfc100d.dll
 0001:00011c82       ?LoadSysPolicies@CWinApp@@UEAAHXZ 0000000140012c82 f   mfc100d:mfc100d.dll
 0001:00011c88       ??3CObject@@SAXPEAX@Z      0000000140012c88 f   mfc100d:mfc100d.dll
 0001:00011c8e       ??1CWinApp@@UEAA@XZ        0000000140012c8e f   mfc100d:mfc100d.dll
 0001:00011c94       ?DoModal@CDialog@@UEAA_JXZ 0000000140012c94 f   mfc100d:mfc100d.dll
 0001:00011c9a       ?AfxEnableControlContainer@@YAXPEAVCOccManager@@@Z 0000000140012c9a f   mfc100d:mfc100d.dll
 0001:00011ca0       ??1CDialog@@UEAA@XZ        0000000140012ca0 f   mfc100d:mfc100d.dll
 0001:00011ca6       ??1CStatic@@UEAA@XZ        0000000140012ca6 f   mfc100d:mfc100d.dll
 0001:00011cac       ??1CEdit@@UEAA@XZ          0000000140012cac f   mfc100d:mfc100d.dll
 0001:00011cb2       ??1CButton@@UEAA@XZ        0000000140012cb2 f   mfc100d:mfc100d.dll
 0001:00011cb8       ??1CComboBox@@UEAA@XZ      0000000140012cb8 f   mfc100d:mfc100d.dll
 0001:00011cbe       ??1?$CStringT@DV?$StrTraitMFC_DLL@DV?$ChTraitsCRT@D@ATL@@@@@ATL@@QEAA@XZ 0000000140012cbe f   mfc100d:mfc100d.dll
 0001:00011cc4       ??0CDialog@@QEAA@IPEAVCWnd@@@Z 0000000140012cc4 f   mfc100d:mfc100d.dll
 0001:00011cca       ?GetRuntimeClass@CDialog@@UEBAPEAUCRuntimeClass@@XZ 0000000140012cca f   mfc100d:mfc100d.dll
 0001:00011cd0       ?AssertValid@CDialog@@UEBAXXZ 0000000140012cd0 f   mfc100d:mfc100d.dll
 0001:00011cd6       ?Dump@CDialog@@UEBAXAEAVCDumpContext@@@Z 0000000140012cd6 f   mfc100d:mfc100d.dll
 0001:00011cdc       ?OnCmdMsg@CDialog@@UEAAHIHPEAXPEAUAFX_CMDHANDLERINFO@@@Z 0000000140012cdc f   mfc100d:mfc100d.dll
 0001:00011ce2       ?OnFinalRelease@CWnd@@UEAAXXZ 0000000140012ce2 f   mfc100d:mfc100d.dll
 0001:00011ce8       ?GetInterfaceMap@CWnd@@MEBAPEBUAFX_INTERFACEMAP@@XZ 0000000140012ce8 f   mfc100d:mfc100d.dll
 0001:00011cee       ?PreSubclassWindow@CWnd@@UEAAXXZ 0000000140012cee f   mfc100d:mfc100d.dll
 0001:00011cf4       ?Create@CWnd@@UEAAHPEBD0KAEBUtagRECT@@PEAV1@IPEAUCCreateContext@@@Z 0000000140012cf4 f   mfc100d:mfc100d.dll
 0001:00011cfa       ?CreateEx@CWnd@@UEAAHKPEBD0KAEBUtagRECT@@PEAV1@IPEAX@Z 0000000140012cfa f   mfc100d:mfc100d.dll
 0001:00011d00       ?CreateEx@CWnd@@UEAAHKPEBD0KHHHHPEAUHWND__@@PEAUHMENU__@@PEAX@Z 0000000140012d00 f   mfc100d:mfc100d.dll
 0001:00011d06       ?DestroyWindow@CWnd@@UEAAHXZ 0000000140012d06 f   mfc100d:mfc100d.dll
 0001:00011d0c       ?PreCreateWindow@CWnd@@UEAAHAEAUtagCREATESTRUCTA@@@Z 0000000140012d0c f   mfc100d:mfc100d.dll
 0001:00011d12       ?CalcWindowRect@CWnd@@UEAAXPEAUtagRECT@@I@Z 0000000140012d12 f   mfc100d:mfc100d.dll
 0001:00011d18       ?GetMenu@CWnd@@UEBAPEAVCMenu@@XZ 0000000140012d18 f   mfc100d:mfc100d.dll
 0001:00011d1e       ?SetMenu@CWnd@@UEAAHPEAVCMenu@@@Z 0000000140012d1e f   mfc100d:mfc100d.dll
 0001:00011d24       ?OnToolHitTest@CWnd@@UEBA_JVCPoint@@PEAUtagTOOLINFOA@@@Z 0000000140012d24 f   mfc100d:mfc100d.dll
 0001:00011d2a       ?GetScrollBarCtrl@CWnd@@UEBAPEAVCScrollBar@@H@Z 0000000140012d2a f   mfc100d:mfc100d.dll
 0001:00011d30       ?WinHelpA@CWnd@@UEAAX_KI@Z 0000000140012d30 f   mfc100d:mfc100d.dll
 0001:00011d36       ?HtmlHelpA@CWnd@@UEAAX_KI@Z 0000000140012d36 f   mfc100d:mfc100d.dll
 0001:00011d3c       ?WinHelpInternal@CWnd@@UEAAX_KI@Z 0000000140012d3c f   mfc100d:mfc100d.dll
 0001:00011d42       ?ContinueModal@CWnd@@UEAAHXZ 0000000140012d42 f   mfc100d:mfc100d.dll
 0001:00011d48       ?EndModalLoop@CWnd@@UEAAXH@Z 0000000140012d48 f   mfc100d:mfc100d.dll
 0001:00011d4e       ?OnDrawIconicThumbnailOrLivePreview@CWnd@@UEAAXAEAVCDC@@VCRect@@VCSize@@HAEAH@Z 0000000140012d4e f   mfc100d:mfc100d.dll
 0001:00011d54       ?EnsureStdObj@CWnd@@UEAAJXZ 0000000140012d54 f   mfc100d:mfc100d.dll
 0001:00011d5a       ?get_accParent@CWnd@@UEAAJPEAPEAUIDispatch@@@Z 0000000140012d5a f   mfc100d:mfc100d.dll
 0001:00011d60       ?get_accChildCount@CWnd@@UEAAJPEAJ@Z 0000000140012d60 f   mfc100d:mfc100d.dll
 0001:00011d66       ?get_accChild@CWnd@@UEAAJUtagVARIANT@@PEAPEAUIDispatch@@@Z 0000000140012d66 f   mfc100d:mfc100d.dll
 0001:00011d6c       ?get_accName@CWnd@@UEAAJUtagVARIANT@@PEAPEA_W@Z 0000000140012d6c f   mfc100d:mfc100d.dll
 0001:00011d72       ?get_accValue@CWnd@@UEAAJUtagVARIANT@@PEAPEA_W@Z 0000000140012d72 f   mfc100d:mfc100d.dll
 0001:00011d78       ?get_accDescription@CWnd@@UEAAJUtagVARIANT@@PEAPEA_W@Z 0000000140012d78 f   mfc100d:mfc100d.dll
 0001:00011d7e       ?get_accRole@CWnd@@UEAAJUtagVARIANT@@PEAU2@@Z 0000000140012d7e f   mfc100d:mfc100d.dll
 0001:00011d84       ?get_accState@CWnd@@UEAAJUtagVARIANT@@PEAU2@@Z 0000000140012d84 f   mfc100d:mfc100d.dll
 0001:00011d8a       ?get_accHelp@CWnd@@UEAAJUtagVARIANT@@PEAPEA_W@Z 0000000140012d8a f   mfc100d:mfc100d.dll
 0001:00011d90       ?get_accHelpTopic@CWnd@@UEAAJPEAPEA_WUtagVARIANT@@PEAJ@Z 0000000140012d90 f   mfc100d:mfc100d.dll
 0001:00011d96       ?get_accKeyboardShortcut@CWnd@@UEAAJUtagVARIANT@@PEAPEA_W@Z 0000000140012d96 f   mfc100d:mfc100d.dll
 0001:00011d9c       ?get_accFocus@CWnd@@UEAAJPEAUtagVARIANT@@@Z 0000000140012d9c f   mfc100d:mfc100d.dll
 0001:00011da2       ?get_accSelection@CWnd@@UEAAJPEAUtagVARIANT@@@Z 0000000140012da2 f   mfc100d:mfc100d.dll
 0001:00011da8       ?get_accDefaultAction@CWnd@@UEAAJUtagVARIANT@@PEAPEA_W@Z 0000000140012da8 f   mfc100d:mfc100d.dll
 0001:00011dae       ?accSelect@CWnd@@UEAAJJUtagVARIANT@@@Z 0000000140012dae f   mfc100d:mfc100d.dll
 0001:00011db4       ?accLocation@CWnd@@UEAAJPEAJ000UtagVARIANT@@@Z 0000000140012db4 f   mfc100d:mfc100d.dll
 0001:00011dba       ?accNavigate@CWnd@@UEAAJJUtagVARIANT@@PEAU2@@Z 0000000140012dba f   mfc100d:mfc100d.dll
 0001:00011dc0       ?accHitTest@CWnd@@UEAAJJJPEAUtagVARIANT@@@Z 0000000140012dc0 f   mfc100d:mfc100d.dll
 0001:00011dc6       ?accDoDefaultAction@CWnd@@UEAAJUtagVARIANT@@@Z 0000000140012dc6 f   mfc100d:mfc100d.dll
 0001:00011dcc       ?put_accName@CWnd@@UEAAJUtagVARIANT@@PEA_W@Z 0000000140012dcc f   mfc100d:mfc100d.dll
 0001:00011dd2       ?put_accValue@CWnd@@UEAAJUtagVARIANT@@PEA_W@Z 0000000140012dd2 f   mfc100d:mfc100d.dll
 0001:00011dd8       ?SetProxy@CWnd@@UEAAJPEAUIAccessibleProxy@@@Z 0000000140012dd8 f   mfc100d:mfc100d.dll
 0001:00011dde       ?CreateAccessibleProxy@CWnd@@UEAAJ_K_JPEA_J@Z 0000000140012dde f   mfc100d:mfc100d.dll
 0001:00011de4       ?OnCommand@CWnd@@MEAAH_K_J@Z 0000000140012de4 f   mfc100d:mfc100d.dll
 0001:00011dea       ?OnNotify@CWnd@@MEAAH_K_JPEA_J@Z 0000000140012dea f   mfc100d:mfc100d.dll
 0001:00011df0       ?GetSuperWndProcAddr@CWnd@@MEAAPEAP6A_JPEAUHWND__@@I_K_J@ZXZ 0000000140012df0 f   mfc100d:mfc100d.dll
 0001:00011df6       ?BeginModalState@CWnd@@UEAAXXZ 0000000140012df6 f   mfc100d:mfc100d.dll
 0001:00011dfc       ?EndModalState@CWnd@@UEAAXXZ 0000000140012dfc f   mfc100d:mfc100d.dll
 0001:00011e02       ?PreTranslateMessage@CDialog@@UEAAHPEAUtagMSG@@@Z 0000000140012e02 f   mfc100d:mfc100d.dll
 0001:00011e08       ?OnAmbientProperty@CWnd@@UEAAHPEAVCOleControlSite@@JPEAUtagVARIANT@@@Z 0000000140012e08 f   mfc100d:mfc100d.dll
 0001:00011e0e       ?WindowProc@CWnd@@MEAA_JI_K_J@Z 0000000140012e0e f   mfc100d:mfc100d.dll
 0001:00011e14       ?OnWndMsg@CWnd@@MEAAHI_K_JPEA_J@Z 0000000140012e14 f   mfc100d:mfc100d.dll
 0001:00011e1a       ?DefWindowProcA@CWnd@@MEAA_JI_K_J@Z 0000000140012e1a f   mfc100d:mfc100d.dll
 0001:00011e20       ?PostNcDestroy@CWnd@@MEAAXXZ 0000000140012e20 f   mfc100d:mfc100d.dll
 0001:00011e26       ?OnChildNotify@CWnd@@MEAAHI_K_JPEA_J@Z 0000000140012e26 f   mfc100d:mfc100d.dll
 0001:00011e2c       ?OnTouchInputs@CWnd@@MEAAHIPEAUtagTOUCHINPUT@@@Z 0000000140012e2c f   mfc100d:mfc100d.dll
 0001:00011e32       ?OnTouchInput@CWnd@@MEAAHVCPoint@@HHPEAUtagTOUCHINPUT@@@Z 0000000140012e32 f   mfc100d:mfc100d.dll
 0001:00011e38       ?GetGestureStatus@CWnd@@MEAAKVCPoint@@@Z 0000000140012e38 f   mfc100d:mfc100d.dll
 0001:00011e3e       ?OnGestureZoom@CWnd@@MEAAHVCPoint@@J@Z 0000000140012e3e f   mfc100d:mfc100d.dll
 0001:00011e44       ?OnGesturePan@CWnd@@MEAAHVCPoint@@0@Z 0000000140012e44 f   mfc100d:mfc100d.dll
 0001:00011e4a       ?OnGestureRotate@CWnd@@MEAAHVCPoint@@N@Z 0000000140012e4a f   mfc100d:mfc100d.dll
 0001:00011e50       ?OnGestureTwoFingerTap@CWnd@@MEAAHVCPoint@@@Z 0000000140012e50 f   mfc100d:mfc100d.dll
 0001:00011e56       ?OnGesturePressAndTap@CWnd@@MEAAHVCPoint@@J@Z 0000000140012e56 f   mfc100d:mfc100d.dll
 0001:00011e5c       ?CheckAutoCenter@CDialog@@UEAAHXZ 0000000140012e5c f   mfc100d:mfc100d.dll
 0001:00011e62       ?IsFrameWnd@CWnd@@UEBAHXZ  0000000140012e62 f   mfc100d:mfc100d.dll
 0001:00011e68       ?CreateControlContainer@CWnd@@MEAAHPEAPEAVCOleControlContainer@@@Z 0000000140012e68 f   mfc100d:mfc100d.dll
 0001:00011e6e       ?CreateControlSite@CWnd@@MEAAHPEAVCOleControlContainer@@PEAPEAVCOleControlSite@@IAEBU_GUID@@@Z 0000000140012e6e f   mfc100d:mfc100d.dll
 0001:00011e74       ?SetOccDialogInfo@CDialog@@MEAAHPEAU_AFX_OCC_DIALOG_INFO@@@Z 0000000140012e74 f   mfc100d:mfc100d.dll
 0001:00011e7a       ?GetOccDialogInfo@CDialog@@MEAAPEAU_AFX_OCC_DIALOG_INFO@@XZ 0000000140012e7a f   mfc100d:mfc100d.dll
 0001:00011e80       ?Create@CDialog@@UEAAHIPEAVCWnd@@@Z 0000000140012e80 f   mfc100d:mfc100d.dll
 0001:00011e86       ?Create@CDialog@@UEAAHPEBDPEAVCWnd@@@Z 0000000140012e86 f   mfc100d:mfc100d.dll
 0001:00011e8c       ?CreateIndirect@CDialog@@UEAAHPEAXPEAVCWnd@@@Z 0000000140012e8c f   mfc100d:mfc100d.dll
 0001:00011e92       ?CreateIndirect@CDialog@@UEAAHPEBUDLGTEMPLATE@@PEAVCWnd@@PEAX@Z 0000000140012e92 f   mfc100d:mfc100d.dll
 0001:00011e98       ?OnInitDialog@CDialog@@UEAAHXZ 0000000140012e98 f   mfc100d:mfc100d.dll
 0001:00011e9e       ?OnSetFont@CDialog@@UEAAXPEAVCFont@@@Z 0000000140012e9e f   mfc100d:mfc100d.dll
 0001:00011ea4       ?OnOK@CDialog@@MEAAXXZ     0000000140012ea4 f   mfc100d:mfc100d.dll
 0001:00011eaa       ?OnCancel@CDialog@@MEAAXXZ 0000000140012eaa f   mfc100d:mfc100d.dll
 0001:00011eb0       ?PreInitDialog@CDialog@@MEAAXXZ 0000000140012eb0 f   mfc100d:mfc100d.dll
 0001:00011eb6       ?DoDataExchange@CWnd@@MEAAXPEAVCDataExchange@@@Z 0000000140012eb6 f   mfc100d:mfc100d.dll
 0001:00011ebc       ?GetThisMessageMap@CDialog@@KAPEBUAFX_MSGMAP@@XZ 0000000140012ebc f   mfc100d:mfc100d.dll
 0001:00011ec2       ??4?$CStringT@DV?$StrTraitMFC_DLL@DV?$ChTraitsCRT@D@ATL@@@@@ATL@@QEAAAEAV01@PEBD@Z 0000000140012ec2 f   mfc100d:mfc100d.dll
 0001:00011ec8       ?LoadIconA@CWinApp@@QEBAPEAUHICON__@@I@Z 0000000140012ec8 f   mfc100d:mfc100d.dll
 0001:00011ece       ?AfxGetApp@@YAPEAVCWinApp@@XZ 0000000140012ece f   mfc100d:mfc100d.dll
 0001:00011ed4       ??0?$CStringT@DV?$StrTraitMFC_DLL@DV?$ChTraitsCRT@D@ATL@@@@@ATL@@QEAA@PEBD@Z 0000000140012ed4 f   mfc100d:mfc100d.dll
 0001:00011eda       ??0CComboBox@@QEAA@XZ      0000000140012eda f   mfc100d:mfc100d.dll
 0001:00011ee0       ??0CEdit@@QEAA@XZ          0000000140012ee0 f   mfc100d:mfc100d.dll
 0001:00011ee6       ??0CButton@@QEAA@XZ        0000000140012ee6 f   mfc100d:mfc100d.dll
 0001:00011eec       ??0?$CStringT@DV?$StrTraitMFC_DLL@DV?$ChTraitsCRT@D@ATL@@@@@ATL@@QEAA@XZ 0000000140012eec f   mfc100d:mfc100d.dll
 0001:00011ef2       ??0CStatic@@QEAA@XZ        0000000140012ef2 f   mfc100d:mfc100d.dll
 0001:00011ef8       ?DDX_Control@@YAXPEAVCDataExchange@@HAEAVCWnd@@@Z 0000000140012ef8 f   mfc100d:mfc100d.dll
 0001:00011efe       ??1CMenu@@UEAA@XZ          0000000140012efe f   mfc100d:mfc100d.dll
 0001:00011f04       ?DestroyMenu@CMenu@@QEAAHXZ 0000000140012f04 f   mfc100d:mfc100d.dll
 0001:00011f0a       ?PostMessageA@CWnd@@QEAAHI_K_J@Z 0000000140012f0a f   mfc100d:mfc100d.dll
 0001:00011f10       ?TrackPopupMenu@CMenu@@QEAAHIHHPEAVCWnd@@PEBUtagRECT@@@Z 0000000140012f10 f   mfc100d:mfc100d.dll
 0001:00011f16       ?SetForegroundWindow@CWnd@@QEAAHXZ 0000000140012f16 f   mfc100d:mfc100d.dll
 0001:00011f1c       ?GetSubMenu@CMenu@@QEBAPEAV1@H@Z 0000000140012f1c f   mfc100d:mfc100d.dll
 0001:00011f22       ?LoadMenuA@CMenu@@QEAAHI@Z 0000000140012f22 f   mfc100d:mfc100d.dll
 0001:00011f28       ??0CMenu@@QEAA@XZ          0000000140012f28 f   mfc100d:mfc100d.dll
 0001:00011f2e       ??2@YAPEAX_KPEBDH@Z        0000000140012f2e f   mfc100d:mfc100d.dll
 0001:00011f34       ??1CFile@@UEAA@XZ          0000000140012f34 f   mfc100d:mfc100d.dll
 0001:00011f3a       ?Close@CFile@@UEAAXXZ      0000000140012f3a f   mfc100d:mfc100d.dll
 0001:00011f40       ?Write@CFile@@UEAAXPEBXI@Z 0000000140012f40 f   mfc100d:mfc100d.dll
 0001:00011f46       ?Open@CFile@@UEAAHPEBDIPEAVCFileException@@@Z 0000000140012f46 f   mfc100d:mfc100d.dll
 0001:00011f4c       ??B?$CSimpleStringT@D$00@ATL@@QEBAPEBDXZ 0000000140012f4c f   mfc100d:mfc100d.dll
 0001:00011f52       ??0CFile@@QEAA@XZ          0000000140012f52 f   mfc100d:mfc100d.dll
 0001:00011f58       ?GetLength@?$CSimpleStringT@D$00@ATL@@QEBAHXZ 0000000140012f58 f   mfc100d:mfc100d.dll
 0001:00011f5e       ?SetWindowTextA@CWnd@@QEAAXPEBD@Z 0000000140012f5e f   mfc100d:mfc100d.dll
 0001:00011f64       ??Y?$CStringT@DV?$StrTraitMFC_DLL@DV?$ChTraitsCRT@D@ATL@@@@@ATL@@QEAAAEAV01@AEBV?$CSimpleStringT@D$00@1@@Z 0000000140012f64 f   mfc100d:mfc100d.dll
 0001:00011f6a       ??0?$CStringT@DV?$StrTraitMFC_DLL@DV?$ChTraitsCRT@D@ATL@@@@@ATL@@QEAA@AEBV01@@Z 0000000140012f6a f   mfc100d:mfc100d.dll
 0001:00011f70       ?AfxAssertFailedLine@@YAHPEBDH@Z 0000000140012f70 f   mfc100d:mfc100d.dll
 0001:00011f76       ??1CFileFind@@UEAA@XZ      0000000140012f76 f   mfc100d:mfc100d.dll
 0001:00011f7c       ?IsDirectory@CFileFind@@QEBAHXZ 0000000140012f7c f   mfc100d:mfc100d.dll
 0001:00011f82       ?IsDots@CFileFind@@UEBAHXZ 0000000140012f82 f   mfc100d:mfc100d.dll
 0001:00011f88       ?FindNextFileA@CFileFind@@UEAAHXZ 0000000140012f88 f   mfc100d:mfc100d.dll
 0001:00011f8e       ?FindFile@CFileFind@@UEAAHPEBDK@Z 0000000140012f8e f   mfc100d:mfc100d.dll
 0001:00011f94       ??0CFileFind@@QEAA@XZ      0000000140012f94 f   mfc100d:mfc100d.dll
 0001:00011f9a       ?Left@?$CStringT@DV?$StrTraitMFC_DLL@DV?$ChTraitsCRT@D@ATL@@@@@ATL@@QEBA?AV12@H@Z 0000000140012f9a f   mfc100d:mfc100d.dll
 0001:00011fa0       ?AfxBeginThread@@YAPEAVCWinThread@@P6AIPEAX@Z0HIKPEAU_SECURITY_ATTRIBUTES@@@Z 0000000140012fa0 f   mfc100d:mfc100d.dll
 0001:00011fa6       ?GetSafeHwnd@CWnd@@QEBAPEAUHWND__@@XZ 0000000140012fa6 f   mfc100d:mfc100d.dll
 0001:00011fac       ?SetIcon@CWnd@@QEAAPEAUHICON__@@PEAU2@H@Z 0000000140012fac f   mfc100d:mfc100d.dll
 0001:00011fb2       ?EnableMenuItem@CMenu@@QEAAIII@Z 0000000140012fb2 f   mfc100d:mfc100d.dll
 0001:00011fb8       ?AppendMenuA@CMenu@@QEAAHI_KPEBD@Z 0000000140012fb8 f   mfc100d:mfc100d.dll
 0001:00011fbe       ?IsEmpty@?$CSimpleStringT@D$00@ATL@@QEBA_NXZ 0000000140012fbe f   mfc100d:mfc100d.dll
 0001:00011fc4       ?LoadStringA@?$CStringT@DV?$StrTraitMFC_DLL@DV?$ChTraitsCRT@D@ATL@@@@@ATL@@QEAAHI@Z 0000000140012fc4 f   mfc100d:mfc100d.dll
 0001:00011fca       ?GetSystemMenu@CWnd@@QEBAPEAVCMenu@@H@Z 0000000140012fca f   mfc100d:mfc100d.dll
 0001:00011fd0       ?Format@?$CStringT@DV?$StrTraitMFC_DLL@DV?$ChTraitsCRT@D@ATL@@@@@ATL@@QEAAXPEBDZZ 0000000140012fd0 f   mfc100d:mfc100d.dll
 0001:00011fd6       ??1CWaitCursor@@QEAA@XZ    0000000140012fd6 f   mfc100d:mfc100d.dll
 0001:00011fdc       ??0CWaitCursor@@QEAA@XZ    0000000140012fdc f   mfc100d:mfc100d.dll
 0001:00011fe2       ?OnSysCommand@CWnd@@IEAAXI_J@Z 0000000140012fe2 f   mfc100d:mfc100d.dll
 0001:00011fe8       ?OnPaint@CDialog@@IEAAXXZ  0000000140012fe8 f   mfc100d:mfc100d.dll
 0001:00011fee       ??1CPaintDC@@UEAA@XZ       0000000140012fee f   mfc100d:mfc100d.dll
 0001:00011ff4       ?DrawIcon@CDC@@QEAAHHHPEAUHICON__@@@Z 0000000140012ff4 f   mfc100d:mfc100d.dll
 0001:00011ffa       ?GetClientRect@CWnd@@QEBAXPEAUtagRECT@@@Z 0000000140012ffa f   mfc100d:mfc100d.dll
 0001:00012000       ?SendMessageA@CWnd@@QEBA_JI_K_J@Z 0000000140013000 f   mfc100d:mfc100d.dll
 0001:00012006       ?GetSafeHdc@CDC@@QEBAPEAUHDC__@@XZ 0000000140013006 f   mfc100d:mfc100d.dll
 0001:0001200c       ??0CPaintDC@@QEAA@PEAVCWnd@@@Z 000000014001300c f   mfc100d:mfc100d.dll
 0001:00012012       ?IsIconic@CWnd@@QEBAHXZ    0000000140013012 f   mfc100d:mfc100d.dll
 0001:00012018       ?InvalidateRect@CWnd@@QEAAXPEBUtagRECT@@H@Z 0000000140013018 f   mfc100d:mfc100d.dll
 0001:0001201e       ??4?$CStringT@DV?$StrTraitMFC_DLL@DV?$ChTraitsCRT@D@ATL@@@@@ATL@@QEAAAEAV01@AEBV01@@Z 000000014001301e f   mfc100d:mfc100d.dll
 0001:00012024       ?OnDestroy@CWnd@@IEAAXXZ   0000000140013024 f   mfc100d:mfc100d.dll
 0001:0001202a       ?ShowWindow@CWnd@@QEAAHH@Z 000000014001302a f   mfc100d:mfc100d.dll
 0001:00012030       ?MoveWindow@CWnd@@QEAAXPEBUtagRECT@@H@Z 0000000140013030 f   mfc100d:mfc100d.dll
 0001:00012036       ?ScreenToClient@CWnd@@QEBAXPEAUtagRECT@@@Z 0000000140013036 f   mfc100d:mfc100d.dll
 0001:0001203c       ?GetWindowRect@CWnd@@QEBAXPEAUtagRECT@@@Z 000000014001303c f   mfc100d:mfc100d.dll
 0001:00012042       ?GetDlgItem@CWnd@@QEBAPEAV1@H@Z 0000000140013042 f   mfc100d:mfc100d.dll
 0001:00012048       ?OnSize@CWnd@@IEAAXIHH@Z   0000000140013048 f   mfc100d:mfc100d.dll
 0001:0001204e       ?OnEndSession@CDialog@@IEAAXH@Z 000000014001304e f   mfc100d:mfc100d.dll
 0001:00012054       ?OnQueryEndSession@CDialog@@IEAAHXZ 0000000140013054 f   mfc100d:mfc100d.dll
 0001:0001205a       ?EnableWindow@CWnd@@QEAAHH@Z 000000014001305a f   mfc100d:mfc100d.dll
 0001:00012060       ?MessageBoxA@CWnd@@QEAAHPEBD0I@Z 0000000140013060 f   mfc100d:mfc100d.dll
 0001:00012066       ?GetBuffer@?$CSimpleStringT@D$00@ATL@@QEAAPEADXZ 0000000140013066 f   mfc100d:mfc100d.dll
 0001:0001206c       ?GetBuffer@?$CSimpleStringT@D$00@ATL@@QEAAPEADH@Z 000000014001306c f   mfc100d:mfc100d.dll
 0001:00012072       ?SetWindowPos@CWnd@@QEAAHPEBV1@HHHHI@Z 0000000140013072 f   mfc100d:mfc100d.dll
 0001:00012078       ?EndDialog@CDialog@@QEAAXH@Z 0000000140013078 f   mfc100d:mfc100d.dll
 0001:0001207e       ?UpdateData@CWnd@@QEAAHH@Z 000000014001307e f   mfc100d:mfc100d.dll
 0001:00012084       ?SetTimer@CWnd@@QEAA_K_KIP6AXPEAUHWND__@@I0K@Z@Z 0000000140013084 f   mfc100d:mfc100d.dll
 0001:0001208a       ?OnNcPaint@CWnd@@IEAAXXZ   000000014001308a f   mfc100d:mfc100d.dll
 0001:00012090       ?OnTimer@CWnd@@IEAAX_K@Z   0000000140013090 f   mfc100d:mfc100d.dll
 0001:00012096       ?GetForegroundWindow@CWnd@@SAPEAV1@XZ 0000000140013096 f   mfc100d:mfc100d.dll
 0001:0001209c       ?KillTimer@CWnd@@QEAAH_K@Z 000000014001309c f   mfc100d:mfc100d.dll
 0001:000120a2       ?MoveWindow@CWnd@@QEAAXHHHHH@Z 00000001400130a2 f   mfc100d:mfc100d.dll
 0001:000120a8       ?ModifyStyle@CWnd@@QEAAHKKI@Z 00000001400130a8 f   mfc100d:mfc100d.dll
 0001:000120ae       ?AfxThrowInvalidArgException@@YAXXZ 00000001400130ae f   mfc100d:mfc100d.dll
 0001:000120b4       ?AfxThrowMemoryException@@YAXXZ 00000001400130b4 f   mfc100d:mfc100d.dll
 0001:000120ba       ??3CObject@@SAXPEAXPEBDH@Z 00000001400130ba f   mfc100d:mfc100d.dll
 0001:000120c0       ??1CDC@@UEAA@XZ            00000001400130c0 f   mfc100d:mfc100d.dll
 0001:000120c6       ??1CBitmap@@UEAA@XZ        00000001400130c6 f   mfc100d:mfc100d.dll
 0001:000120cc       ??1CFont@@UEAA@XZ          00000001400130cc f   mfc100d:mfc100d.dll
 0001:000120d2       ??1CPen@@UEAA@XZ           00000001400130d2 f   mfc100d:mfc100d.dll
 0001:000120d8       ?DeleteDC@CDC@@QEAAHXZ     00000001400130d8 f   mfc100d:mfc100d.dll
 0001:000120de       ?BitBlt@CDC@@QEAAHHHHHPEAV1@HHK@Z 00000001400130de f   mfc100d:mfc100d.dll
 0001:000120e4       ?Mid@?$CStringT@DV?$StrTraitMFC_DLL@DV?$ChTraitsCRT@D@ATL@@@@@ATL@@QEBA?AV12@HH@Z 00000001400130e4 f   mfc100d:mfc100d.dll
 0001:000120ea       ?Find@?$CStringT@DV?$StrTraitMFC_DLL@DV?$ChTraitsCRT@D@ATL@@@@@ATL@@QEBAHDH@Z 00000001400130ea f   mfc100d:mfc100d.dll
 0001:000120f0       ?LineTo@CDC@@QEAAHHH@Z     00000001400130f0 f   mfc100d:mfc100d.dll
 0001:000120f6       ?MoveTo@CDC@@QEAA?AVCPoint@@HH@Z 00000001400130f6 f   mfc100d:mfc100d.dll
 0001:000120fc       ?SelectObject@CDC@@QEAAPEAVCPen@@PEAV2@@Z 00000001400130fc f   mfc100d:mfc100d.dll
 0001:00012102       ??0CPen@@QEAA@HHK@Z        0000000140013102 f   mfc100d:mfc100d.dll
 0001:00012108       ?DeleteObject@CGdiObject@@QEAAHXZ 0000000140013108 f   mfc100d:mfc100d.dll
 0001:0001210e       ?DrawTextA@CDC@@QEAAHAEBV?$CStringT@DV?$StrTraitMFC_DLL@DV?$ChTraitsCRT@D@ATL@@@@@ATL@@PEAUtagRECT@@I@Z 000000014001310e f   mfc100d:mfc100d.dll
 0001:00012114       ?SetBkMode@CDC@@QEAAHH@Z   0000000140013114 f   mfc100d:mfc100d.dll
 0001:0001211a       ?CreateFontA@CFont@@QEAAHHHHHHEEEEEEEEPEBD@Z 000000014001311a f   mfc100d:mfc100d.dll
 0001:00012120       ??0CFont@@QEAA@XZ          0000000140013120 f   mfc100d:mfc100d.dll
 0001:00012126       ?SelectObject@CDC@@QEAAPEAVCBitmap@@PEAV2@@Z 0000000140013126 f   mfc100d:mfc100d.dll
 0001:0001212c       ?CreateCompatibleBitmap@CBitmap@@QEAAHPEAVCDC@@HH@Z 000000014001312c f   mfc100d:mfc100d.dll
 0001:00012132       ??0CBitmap@@QEAA@XZ        0000000140013132 f   mfc100d:mfc100d.dll
 0001:00012138       ?CreateCompatibleDC@CDC@@QEAAHPEAV1@@Z 0000000140013138 f   mfc100d:mfc100d.dll
 0001:0001213e       ??2CObject@@SAPEAX_KPEBDH@Z 000000014001313e f   mfc100d:mfc100d.dll
 0001:00012144       ?GetDC@CWnd@@QEAAPEAVCDC@@XZ 0000000140013144 f   mfc100d:mfc100d.dll
 0001:0001214a       ??0CDC@@QEAA@XZ            000000014001314a f   mfc100d:mfc100d.dll
 0001:00012150       ?OnLButtonDown@CWnd@@IEAAXIVCPoint@@@Z 0000000140013150 f   mfc100d:mfc100d.dll
 0001:00012156       ?AppendChar@?$CSimpleStringT@D$00@ATL@@QEAAXD@Z 0000000140013156 f   mfc100d:mfc100d.dll
 0001:0001215c       ?Delete@?$CStringT@DV?$StrTraitMFC_DLL@DV?$ChTraitsCRT@D@ATL@@@@@ATL@@QEAAHHH@Z 000000014001315c f   mfc100d:mfc100d.dll
 0001:00012162       ?OnEraseBkgnd@CWnd@@IEAAHPEAVCDC@@@Z 0000000140013162 f   mfc100d:mfc100d.dll
 0001:00012168       ??1CStdioFile@@UEAA@XZ     0000000140013168 f   mfc100d:mfc100d.dll
 0001:0001216e       ?Close@CStdioFile@@UEAAXXZ 000000014001316e f   mfc100d:mfc100d.dll
 0001:00012174       ?WriteString@CStdioFile@@UEAAXPEBD@Z 0000000140013174 f   mfc100d:mfc100d.dll
 0001:0001217a       ?SeekToEnd@CFile@@QEAA_KXZ 000000014001317a f   mfc100d:mfc100d.dll
 0001:00012180       ?Open@CStdioFile@@UEAAHPEBDIPEAVCFileException@@@Z 0000000140013180 f   mfc100d:mfc100d.dll
 0001:00012186       ??0CStdioFile@@QEAA@XZ     0000000140013186 f   mfc100d:mfc100d.dll
 0001:0001218c       ?OnCreate@CWnd@@IEAAHPEAUtagCREATESTRUCTA@@@Z 000000014001318c f   mfc100d:mfc100d.dll
 0001:00012192       ?Concatenate@?$CSimpleStringT@D$00@ATL@@KAXAEAV12@PEBDH1H@Z 0000000140013192 f   mfc100d:mfc100d.dll
 0001:00012198       ?StringLength@?$CSimpleStringT@D$00@ATL@@SAHPEBD@Z 0000000140013198 f   mfc100d:mfc100d.dll
 0001:0001219e       ??0?$CStringT@DV?$StrTraitMFC_DLL@DV?$ChTraitsCRT@D@ATL@@@@@ATL@@QEAA@PEAUIAtlStringMgr@1@@Z 000000014001319e f   mfc100d:mfc100d.dll
 0001:000121a4       ?GetManager@?$CStringT@DV?$StrTraitMFC_DLL@DV?$ChTraitsCRT@D@ATL@@@@@ATL@@QEBAPEAUIAtlStringMgr@2@XZ 00000001400131a4 f   mfc100d:mfc100d.dll
 0001:000121aa       ?AfxThrowOleException@@YAXJ@Z 00000001400131aa f   mfc100d:mfc100d.dll
 0001:000121b0       ?GetThisClass@CDialog@@SAPEAUCRuntimeClass@@XZ 00000001400131b0 f   mfc100d:mfc100d.dll
 0001:000121b6       ?DDX_Text@@YAXPEAVCDataExchange@@HAEAK@Z 00000001400131b6 f   mfc100d:mfc100d.dll
 0001:000121bc       ?SetFont@CWnd@@QEAAXPEAVCFont@@H@Z 00000001400131bc f   mfc100d:mfc100d.dll
 0001:000121c2       ??2CObject@@SAPEAX_K@Z     00000001400131c2 f   mfc100d:mfc100d.dll
 0001:000121c8       ?OnCtlColor@CWnd@@IEAAPEAUHBRUSH__@@PEAVCDC@@PEAV1@I@Z 00000001400131c8 f   mfc100d:mfc100d.dll
 0001:000121ce       ??1CBrush@@UEAA@XZ         00000001400131ce f   mfc100d:mfc100d.dll
 0001:000121d4       ?PatBlt@CDC@@QEAAHHHHHK@Z  00000001400131d4 f   mfc100d:mfc100d.dll
 0001:000121da       ?SelectObject@CDC@@QEAAPEAVCBrush@@PEAV2@@Z 00000001400131da f   mfc100d:mfc100d.dll
 0001:000121e0       ??0CBrush@@QEAA@K@Z        00000001400131e0 f   mfc100d:mfc100d.dll
 0001:000121e6       ?OnClose@CWnd@@IEAAXXZ     00000001400131e6 f   mfc100d:mfc100d.dll
 0001:000121ec       ?OnLButtonUp@CWnd@@IEAAXIVCPoint@@@Z 00000001400131ec f   mfc100d:mfc100d.dll
 0001:000121f2       ??_V@YAXPEAX@Z             00000001400131f2 f   mfc100d:mfc100d.dll
 0001:000121f8       ??_U@YAPEAX_K@Z            00000001400131f8 f   mfc100d:mfc100d.dll
 0001:000121fe       ?AfxEndThread@@YAXIH@Z     00000001400131fe f   mfc100d:mfc100d.dll
 0001:00012204       ?ResumeThread@CWinThread@@QEAAKXZ 0000000140013204 f   mfc100d:mfc100d.dll
 0001:0001220a       ?SuspendThread@CWinThread@@QEAAKXZ 000000014001320a f   mfc100d:mfc100d.dll
 0001:00012210       ?GetThisClass@CWnd@@SAPEAUCRuntimeClass@@XZ 0000000140013210 f   mfc100d:mfc100d.dll
 0001:00012216       ??1CWnd@@UEAA@XZ           0000000140013216 f   mfc100d:mfc100d.dll
 0001:0001221c       ??0CWnd@@QEAA@XZ           000000014001321c f   mfc100d:mfc100d.dll
 0001:00012222       ?AssertValid@CWnd@@UEBAXXZ 0000000140013222 f   mfc100d:mfc100d.dll
 0001:00012228       ?Dump@CWnd@@UEBAXAEAVCDumpContext@@@Z 0000000140013228 f   mfc100d:mfc100d.dll
 0001:0001222e       ?PreTranslateMessage@CWnd@@UEAAHPEAUtagMSG@@@Z 000000014001322e f   mfc100d:mfc100d.dll
 0001:00012234       ?CheckAutoCenter@CWnd@@UEAAHXZ 0000000140013234 f   mfc100d:mfc100d.dll
 0001:0001223a       ?SetOccDialogInfo@CWnd@@MEAAHPEAU_AFX_OCC_DIALOG_INFO@@@Z 000000014001323a f   mfc100d:mfc100d.dll
 0001:00012240       ?GetOccDialogInfo@CWnd@@MEAAPEAU_AFX_OCC_DIALOG_INFO@@XZ 0000000140013240 f   mfc100d:mfc100d.dll
 0001:00012246       ?GetThisMessageMap@CWnd@@KAPEBUAFX_MSGMAP@@XZ 0000000140013246 f   mfc100d:mfc100d.dll
 0001:0001224c       ?UpdateWindow@CWnd@@QEAAXXZ 000000014001324c f   mfc100d:mfc100d.dll
 0001:00012252       ?CenterWindow@CWnd@@QEAAXPEAV1@@Z 0000000140013252 f   mfc100d:mfc100d.dll
 0001:00012258       ?AfxRegisterWndClass@@YAPEBDIPEAUHICON__@@PEAUHBRUSH__@@0@Z 0000000140013258 f   mfc100d:mfc100d.dll
 0001:0001225e       ?LoadStandardCursor@CWinApp@@QEBAPEAUHICON__@@PEBD@Z 000000014001325e f   mfc100d:mfc100d.dll
 0001:00012264       ?SelectObject@CDC@@UEAAPEAVCFont@@PEAV2@@Z 0000000140013264 f   mfc100d:mfc100d.dll
 0001:0001226a       ?SetTextColor@CDC@@UEAAKK@Z 000000014001326a f   mfc100d:mfc100d.dll
 0001:00012270       ?Find@?$CStringT@DV?$StrTraitMFC_DLL@DV?$ChTraitsCRT@D@ATL@@@@@ATL@@QEBAHPEBDH@Z 0000000140013270 f   mfc100d:mfc100d.dll
 0001:00012276       ?OnNcDestroy@CWnd@@IEAAXXZ 0000000140013276 f   mfc100d:mfc100d.dll
 0001:00012280       ??_Estringdispid@CComTypeInfoHolder@ATL@@QEAAPEAXI@Z 0000000140013280 f i mfcs100d:nolib.obj
 0001:00012310       ??1stringdispid@CComTypeInfoHolder@ATL@@QEAA@XZ 0000000140013310 f i mfcs100d:nolib.obj
 0001:00012330       ??1CComBSTR@ATL@@QEAA@XZ   0000000140013330 f i mfcs100d:nolib.obj
 0001:00012350       ??0type_info@@AEAA@AEBV0@@Z 0000000140013350 f   msvcrtd:ti_inst.obj
 0001:00012370       ??_Etype_info@@UEAAPEAXI@Z 0000000140013370 f i msvcrtd:ti_inst.obj
 0001:00012400       ??4type_info@@AEAAAEAV0@AEBV0@@Z 0000000140013400 f   msvcrtd:ti_inst.obj
 0001:00012410       __GSHandlerCheck_EH        0000000140013410 f   msvcrtd:gshandlereh.obj
 0001:000124d0       __security_check_cookie    00000001400134d0 f   msvcrtd:amdsecgs.obj
 0001:00012500       __chkstk                   0000000140013500 f   msvcrtd:chkstk.obj
 0001:00012500       _alloca_probe              0000000140013500     msvcrtd:chkstk.obj
 0001:0001254e       __CxxFrameHandler3         000000014001354e f   msvcrtd:MSVCR100D.dll
 0001:00012560       _onexit                    0000000140013560 f   msvcrtd:atonexit.obj
 0001:00012620       atexit                     0000000140013620 f   msvcrtd:atonexit.obj
 0001:00012654       memcpy                     0000000140013654 f   msvcrtd:MSVCR100D.dll
 0001:00012660       __GSHandlerCheck           0000000140013660 f   msvcrtd:gshandler.obj
 0001:000126a0       __GSHandlerCheckCommon     00000001400136a0 f   msvcrtd:gshandler.obj
 0001:00012798       fprintf_s                  0000000140013798 f   msvcrtd:MSVCR100D.dll
 0001:0001279e       clock                      000000014001379e f   msvcrtd:MSVCR100D.dll
 0001:000127a4       fprintf                    00000001400137a4 f   msvcrtd:MSVCR100D.dll
 0001:000127aa       sprintf                    00000001400137aa f   msvcrtd:MSVCR100D.dll
 0001:000127b0       strlen                     00000001400137b0 f   msvcrtd:MSVCR100D.dll
 0001:000127b6       fclose                     00000001400137b6 f   msvcrtd:MSVCR100D.dll
 0001:000127bc       exit                       00000001400137bc f   msvcrtd:MSVCR100D.dll
 0001:000127c2       memset                     00000001400137c2 f   msvcrtd:MSVCR100D.dll
 0001:000127c8       floorf                     00000001400137c8 f   msvcrtd:MSVCR100D.dll
 0001:000127ce       _CrtDbgReportW             00000001400137ce f   msvcrtd:MSVCR100D.dll
 0001:000127e0       __GSHandlerCheck_SEH       00000001400137e0 f   msvcrtd:gshandlerseh.obj
 0001:0001289e       _resetstkoflw              000000014001389e f   msvcrtd:MSVCR100D.dll
 0001:000128a4       memcpy_s                   00000001400138a4 f   msvcrtd:MSVCR100D.dll
 0001:000128aa       labs                       00000001400138aa f   msvcrtd:MSVCR100D.dll
 0001:000128b0       cos                        00000001400138b0 f   msvcrtd:MSVCR100D.dll
 0001:000128b6       sin                        00000001400138b6 f   msvcrtd:MSVCR100D.dll
 0001:000128bc       malloc                     00000001400138bc f   msvcrtd:MSVCR100D.dll
 0001:000128c2       free                       00000001400138c2 f   msvcrtd:MSVCR100D.dll
 0001:000128c8       vsprintf_s                 00000001400138c8 f   msvcrtd:MSVCR100D.dll
 0001:000128ce       strcpy_s                   00000001400138ce f   msvcrtd:MSVCR100D.dll
 0001:000128d4       _wassert                   00000001400138d4 f   msvcrtd:MSVCR100D.dll
 0001:000128da       strcpy                     00000001400138da f   msvcrtd:MSVCR100D.dll
 0001:000129f0       WinMainCRTStartup          00000001400139f0 f   msvcrtd:crtexew.obj
 0001:00012d80       NtCurrentTeb               0000000140013d80 f i msvcrtd:crtexew.obj
 0001:00012e30       ??_M@YAXPEAX_KHP6AX0@Z@Z   0000000140013e30 f   msvcrtd:ehvecdtr.obj
 0001:00012ee0       ?__ArrayUnwind@@YAXPEAX_KHP6AX0@Z@Z 0000000140013ee0 f   msvcrtd:ehvecdtr.obj
 0001:00012f70       __report_gsfailure         0000000140013f70 f   msvcrtd:gs_report.obj
 0001:000130ba       __C_specific_handler       00000001400140ba f   msvcrtd:MSVCR100D.dll
 0001:000130c0       _unlock                    00000001400140c0 f   msvcrtd:MSVCR100D.dll
 0001:000130c6       __dllonexit                00000001400140c6 f   msvcrtd:MSVCR100D.dll
 0001:000130cc       _lock                      00000001400140cc f   msvcrtd:MSVCR100D.dll
 0001:000130e0       ?__CxxUnhandledExceptionFilter@@YAJPEAU_EXCEPTION_POINTERS@@@Z 00000001400140e0 f   msvcrtd:unhandld.obj
 0001:00013160       __CxxSetUnhandledExceptionFilter 0000000140014160 f   msvcrtd:unhandld.obj
 0001:00013178       _configthreadlocale        0000000140014178 f   msvcrtd:MSVCR100D.dll
 0001:0001317e       __setusermatherr           000000014001417e f   msvcrtd:MSVCR100D.dll
 0001:00013190       _matherr                   0000000140014190 f   msvcrtd:merr.obj
 0001:000131a0       _setargv                   00000001400141a0 f   msvcrtd:dllargv.obj
 0001:000131b0       _RTC_Initialize            00000001400141b0 f   msvcrtd:_initsect_.obj
 0001:000131f0       _RTC_Terminate             00000001400141f0 f   msvcrtd:_initsect_.obj
 0001:0001322e       __set_app_type             000000014001422e f   msvcrtd:MSVCR100D.dll
 0001:00013234       _amsg_exit                 0000000140014234 f   msvcrtd:MSVCR100D.dll
 0001:0001323a       __getmainargs              000000014001423a f   msvcrtd:MSVCR100D.dll
 0001:00013240       __security_init_cookie     0000000140014240 f   msvcrtd:gs_support.obj
 0001:0001334e       _XcptFilter                000000014001434e f   msvcrtd:MSVCR100D.dll
 0001:00013354       _exit                      0000000140014354 f   msvcrtd:MSVCR100D.dll
 0001:0001335a       _cexit                     000000014001435a f   msvcrtd:MSVCR100D.dll
 0001:00013360       _ismbblead                 0000000140014360 f   msvcrtd:MSVCR100D.dll
 0001:00013366       _CrtSetCheckCount          0000000140014366 f   msvcrtd:MSVCR100D.dll
 0001:00013370       _ValidateImageBase         0000000140014370 f   msvcrtd:pesect.obj
 0001:000133f0       _FindPESection             00000001400143f0 f   msvcrtd:pesect.obj
 0001:000134a0       _IsNonwritableInCurrentImage 00000001400144a0 f   msvcrtd:pesect.obj
 0001:0001352e       _initterm                  000000014001452e f   msvcrtd:MSVCR100D.dll
 0001:00013534       _initterm_e                0000000140014534 f   msvcrtd:MSVCR100D.dll
 0001:0001353a       ?terminate@@YAXXZ          000000014001453a f   msvcrtd:MSVCR100D.dll
 0001:00013540       ?_type_info_dtor_internal_method@type_info@@QEAAXXZ 0000000140014540 f   msvcrtd:MSVCR100D.dll
 0001:00013540       ??1type_info@@UEAA@XZ      0000000140014540 f   msvcrtd:MSVCR100D.dll
 0001:00013546       __crt_debugger_hook        0000000140014546 f   msvcrtd:MSVCR100D.dll
 0001:0001354c       GetLocalTime               000000014001454c f   kernel32:KERNEL32.dll
 0001:00013552       GetDiskFreeSpaceExA        0000000140014552 f   kernel32:KERNEL32.dll
 0001:00013558       GetDiskFreeSpaceA          0000000140014558 f   kernel32:KERNEL32.dll
 0001:0001355e       QueryPerformanceCounter    000000014001455e f   kernel32:KERNEL32.dll
 0001:00013564       QueryPerformanceFrequency  0000000140014564 f   kernel32:KERNEL32.dll
 0001:0001356a       Sleep                      000000014001456a f   kernel32:KERNEL32.dll
 0001:00013570       CloseHandle                0000000140014570 f   kernel32:KERNEL32.dll
 0001:00013576       GetSystemInfo              0000000140014576 f   kernel32:KERNEL32.dll
 0001:0001357c       SizeofResource             000000014001457c f   kernel32:KERNEL32.dll
 0001:00013582       LockResource               0000000140014582 f   kernel32:KERNEL32.dll
 0001:00013588       LoadResource               0000000140014588 f   kernel32:KERNEL32.dll
 0001:0001358e       FindResourceA              000000014001458e f   kernel32:KERNEL32.dll
 0001:00013594       LeaveCriticalSection       0000000140014594 f   kernel32:KERNEL32.dll
 0001:0001359a       EnterCriticalSection       000000014001459a f   kernel32:KERNEL32.dll
 0001:000135a0       SetConsoleCursorInfo       00000001400145a0 f   kernel32:KERNEL32.dll
 0001:000135a6       GetStdHandle               00000001400145a6 f   kernel32:KERNEL32.dll
 0001:000135ac       SetEvent                   00000001400145ac f   kernel32:KERNEL32.dll
 0001:000135b2       PurgeComm                  00000001400145b2 f   kernel32:KERNEL32.dll
 0001:000135b8       SetCommState               00000001400145b8 f   kernel32:KERNEL32.dll
 0001:000135be       BuildCommDCBA              00000001400145be f   kernel32:KERNEL32.dll
 0001:000135c4       GetCommState               00000001400145c4 f   kernel32:KERNEL32.dll
 0001:000135ca       SetCommMask                00000001400145ca f   kernel32:KERNEL32.dll
 0001:000135d0       SetCommTimeouts            00000001400145d0 f   kernel32:KERNEL32.dll
 0001:000135d6       CreateFileA                00000001400145d6 f   kernel32:KERNEL32.dll
 0001:000135dc       InitializeCriticalSection  00000001400145dc f   kernel32:KERNEL32.dll
 0001:000135e2       CreateEventA               00000001400145e2 f   kernel32:KERNEL32.dll
 0001:000135e8       ResetEvent                 00000001400145e8 f   kernel32:KERNEL32.dll
 0001:000135ee       GetCommMask                00000001400145ee f   kernel32:KERNEL32.dll
 0001:000135f4       WaitForMultipleObjects     00000001400145f4 f   kernel32:KERNEL32.dll
 0001:000135fa       ClearCommError             00000001400145fa f   kernel32:KERNEL32.dll
 0001:00013600       GetLastError               0000000140014600 f   kernel32:KERNEL32.dll
 0001:00013606       WaitCommEvent              0000000140014606 f   kernel32:KERNEL32.dll
 0001:0001360c       LocalFree                  000000014001460c f   kernel32:KERNEL32.dll
 0001:00013612       FormatMessageA             0000000140014612 f   kernel32:KERNEL32.dll
 0001:00013618       GetOverlappedResult        0000000140014618 f   kernel32:KERNEL32.dll
 0001:0001361e       WriteFile                  000000014001461e f   kernel32:KERNEL32.dll
 0001:00013624       ReadFile                   0000000140014624 f   kernel32:KERNEL32.dll
 0001:0001362a       CreateThread               000000014001462a f   kernel32:KERNEL32.dll
 0001:00013630       EncodePointer              0000000140014630 f   kernel32:KERNEL32.dll
 0001:00013636       DecodePointer              0000000140014636 f   kernel32:KERNEL32.dll
 0001:0001363c       GetStartupInfoW            000000014001463c f   kernel32:KERNEL32.dll
 0001:00013642       TerminateProcess           0000000140014642 f   kernel32:KERNEL32.dll
 0001:00013648       GetCurrentProcess          0000000140014648 f   kernel32:KERNEL32.dll
 0001:0001364e       UnhandledExceptionFilter   000000014001464e f   kernel32:KERNEL32.dll
 0001:00013654       SetUnhandledExceptionFilter 0000000140014654 f   kernel32:KERNEL32.dll
 0001:0001365a       IsDebuggerPresent          000000014001465a f   kernel32:KERNEL32.dll
 0001:00013660       RtlVirtualUnwind           0000000140014660 f   kernel32:KERNEL32.dll
 0001:00013666       RtlLookupFunctionEntry     0000000140014666 f   kernel32:KERNEL32.dll
 0001:0001366c       RtlCaptureContext          000000014001466c f   kernel32:KERNEL32.dll
 0001:00013672       GetTickCount               0000000140014672 f   kernel32:KERNEL32.dll
 0001:00013678       GetCurrentThreadId         0000000140014678 f   kernel32:KERNEL32.dll
 0001:0001367e       GetCurrentProcessId        000000014001467e f   kernel32:KERNEL32.dll
 0001:00013684       GetSystemTimeAsFileTime    0000000140014684 f   kernel32:KERNEL32.dll
 0001:0001368a       GetCursorPos               000000014001468a f   user32:USER32.dll
 0001:00013690       DispatchMessageA           0000000140014690 f   user32:USER32.dll
 0001:00013696       TranslateMessage           0000000140014696 f   user32:USER32.dll
 0001:0001369c       PeekMessageA               000000014001469c f   user32:USER32.dll
 0001:000136a2       PostQuitMessage            00000001400146a2 f   user32:USER32.dll
 0001:000136a8       IsWindow                   00000001400146a8 f   user32:USER32.dll
 0001:000136ae       GetSystemMetrics           00000001400146ae f   user32:USER32.dll
 0001:000136b4       GetDlgCtrlID               00000001400146b4 f   user32:USER32.dll
 0001:000136ba       GetWindow                  00000001400146ba f   user32:USER32.dll
 0001:000136c0       SetDlgItemTextA            00000001400146c0 f   user32:USER32.dll
 0001:000136c6       SendMessageA               00000001400146c6 f   user32:USER32.dll
 0001:000136cc       MessageBoxA                00000001400146cc f   user32:USER32.dll
 0001:000136d2       SetCursor                  00000001400146d2 f   user32:USER32.dll
 0001:000136d8       LoadCursorA                00000001400146d8 f   user32:USER32.dll
 0001:000136de       CreateDIBSection           00000001400146de f   gdi32:GDI32.dll
 0001:000136e4       SetDIBColorTable           00000001400146e4 f   gdi32:GDI32.dll
 0001:000136ea       SelectObject               00000001400146ea f   gdi32:GDI32.dll
 0001:000136f0       CreateCompatibleDC         00000001400146f0 f   gdi32:GDI32.dll
 0001:000136f6       DeleteDC                   00000001400146f6 f   gdi32:GDI32.dll
 0001:000136fc       GetObjectA                 00000001400146fc f   gdi32:GDI32.dll
 0001:00013702       DeleteObject               0000000140014702 f   gdi32:GDI32.dll
 0001:00013708       StretchBlt                 0000000140014708 f   gdi32:GDI32.dll
 0001:0001370e       GetDIBColorTable           000000014001470e f   gdi32:GDI32.dll
 0001:00013714       CreateSolidBrush           0000000140014714 f   gdi32:GDI32.dll
 0001:0001371a       AlphaBlend                 000000014001471a f   msimg32:MSIMG32.dll
 0001:00013720       TransparentBlt             0000000140014720 f   msimg32:MSIMG32.dll
 0001:00013726       OpenSCManagerA             0000000140014726 f   advapi32:ADVAPI32.dll
 0001:0001372c       Shell_NotifyIconA          000000014001472c f   shell32:SHELL32.dll
 0001:00013740       ??0CSize@@QEAA@XZ          0000000140014740 f   atlsd:atltypes.obj
 0001:00013770       ??0CSize@@QEAA@HH@Z        0000000140014770 f   atlsd:atltypes.obj
 0001:000137a0       ??0CSize@@QEAA@UtagSIZE@@@Z 00000001400147a0 f   atlsd:atltypes.obj
 0001:000137c0       ??0CSize@@QEAA@UtagPOINT@@@Z 00000001400147c0 f   atlsd:atltypes.obj
 0001:000137e0       ??0CSize@@QEAA@K@Z         00000001400147e0 f   atlsd:atltypes.obj
 0001:00013820       ??8CSize@@QEBAHUtagSIZE@@@Z 0000000140014820 f   atlsd:atltypes.obj
 0001:00013870       ??9CSize@@QEBAHUtagSIZE@@@Z 0000000140014870 f   atlsd:atltypes.obj
 0001:000138c0       ??YCSize@@QEAAXUtagSIZE@@@Z 00000001400148c0 f   atlsd:atltypes.obj
 0001:00013900       ??ZCSize@@QEAAXUtagSIZE@@@Z 0000000140014900 f   atlsd:atltypes.obj
 0001:00013940       ?SetSize@CSize@@QEAAXHH@Z  0000000140014940 f   atlsd:atltypes.obj
 0001:00013970       ??HCSize@@QEBA?AV0@UtagSIZE@@@Z 0000000140014970 f   atlsd:atltypes.obj
 0001:000139c0       ??GCSize@@QEBA?AV0@UtagSIZE@@@Z 00000001400149c0 f   atlsd:atltypes.obj
 0001:00013a10       ??GCSize@@QEBA?AV0@XZ      0000000140014a10 f   atlsd:atltypes.obj
 0001:00013a50       ??HCSize@@QEBA?AVCPoint@@UtagPOINT@@@Z 0000000140014a50 f   atlsd:atltypes.obj
 0001:00013aa0       ??GCSize@@QEBA?AVCPoint@@UtagPOINT@@@Z 0000000140014aa0 f   atlsd:atltypes.obj
 0001:00013af0       ??HCSize@@QEBA?AVCRect@@PEBUtagRECT@@@Z 0000000140014af0 f   atlsd:atltypes.obj
 0001:00013b60       ??GCSize@@QEBA?AVCRect@@PEBUtagRECT@@@Z 0000000140014b60 f   atlsd:atltypes.obj
 0001:00013bd0       ??0CPoint@@QEAA@XZ         0000000140014bd0 f   atlsd:atltypes.obj
 0001:00013c00       ??0CPoint@@QEAA@HH@Z       0000000140014c00 f   atlsd:atltypes.obj
 0001:00013c30       ??0CPoint@@QEAA@UtagPOINT@@@Z 0000000140014c30 f   atlsd:atltypes.obj
 0001:00013c50       ??0CPoint@@QEAA@UtagSIZE@@@Z 0000000140014c50 f   atlsd:atltypes.obj
 0001:00013c70       ??0CPoint@@QEAA@_J@Z       0000000140014c70 f   atlsd:atltypes.obj
 0001:00013cb0       ?Offset@CPoint@@QEAAXHH@Z  0000000140014cb0 f   atlsd:atltypes.obj
 0001:00013cf0       ?Offset@CPoint@@QEAAXUtagPOINT@@@Z 0000000140014cf0 f   atlsd:atltypes.obj
 0001:00013d30       ?Offset@CPoint@@QEAAXUtagSIZE@@@Z 0000000140014d30 f   atlsd:atltypes.obj
 0001:00013d70       ?SetPoint@CPoint@@QEAAXHH@Z 0000000140014d70 f   atlsd:atltypes.obj
 0001:00013da0       ??8CPoint@@QEBAHUtagPOINT@@@Z 0000000140014da0 f   atlsd:atltypes.obj
 0001:00013df0       ??9CPoint@@QEBAHUtagPOINT@@@Z 0000000140014df0 f   atlsd:atltypes.obj
 0001:00013e40       ??YCPoint@@QEAAXUtagSIZE@@@Z 0000000140014e40 f   atlsd:atltypes.obj
 0001:00013e80       ??ZCPoint@@QEAAXUtagSIZE@@@Z 0000000140014e80 f   atlsd:atltypes.obj
 0001:00013ec0       ??YCPoint@@QEAAXUtagPOINT@@@Z 0000000140014ec0 f   atlsd:atltypes.obj
 0001:00013f00       ??ZCPoint@@QEAAXUtagPOINT@@@Z 0000000140014f00 f   atlsd:atltypes.obj
 0001:00013f40       ??HCPoint@@QEBA?AV0@UtagSIZE@@@Z 0000000140014f40 f   atlsd:atltypes.obj
 0001:00013f90       ??GCPoint@@QEBA?AV0@UtagSIZE@@@Z 0000000140014f90 f   atlsd:atltypes.obj
 0001:00013fe0       ??GCPoint@@QEBA?AV0@XZ     0000000140014fe0 f   atlsd:atltypes.obj
 0001:00014020       ??HCPoint@@QEBA?AV0@UtagPOINT@@@Z 0000000140015020 f   atlsd:atltypes.obj
 0001:00014070       ??GCPoint@@QEBA?AVCSize@@UtagPOINT@@@Z 0000000140015070 f   atlsd:atltypes.obj
 0001:000140c0       ??HCPoint@@QEBA?AVCRect@@PEBUtagRECT@@@Z 00000001400150c0 f   atlsd:atltypes.obj
 0001:00014130       ??GCPoint@@QEBA?AVCRect@@PEBUtagRECT@@@Z 0000000140015130 f   atlsd:atltypes.obj
 0001:000141a0       ??0CRect@@QEAA@XZ          00000001400151a0 f   atlsd:atltypes.obj
 0001:000141e0       ??0CRect@@QEAA@HHHH@Z      00000001400151e0 f   atlsd:atltypes.obj
 0001:00014230       ??0CRect@@QEAA@AEBUtagRECT@@@Z 0000000140015230 f   atlsd:atltypes.obj
 0001:00014260       ??0CRect@@QEAA@PEBUtagRECT@@@Z 0000000140015260 f   atlsd:atltypes.obj
 0001:00014290       ??0CRect@@QEAA@UtagPOINT@@UtagSIZE@@@Z 0000000140015290 f   atlsd:atltypes.obj
 0001:000142f0       ??0CRect@@QEAA@UtagPOINT@@0@Z 00000001400152f0 f   atlsd:atltypes.obj
 0001:00014340       ?Width@CRect@@QEBAHXZ      0000000140015340 f   atlsd:atltypes.obj
 0001:00014360       ?Height@CRect@@QEBAHXZ     0000000140015360 f   atlsd:atltypes.obj
 0001:00014380       ?Size@CRect@@QEBA?AVCSize@@XZ 0000000140015380 f   atlsd:atltypes.obj
 0001:000143d0       ?TopLeft@CRect@@QEAAAEAVCPoint@@XZ 00000001400153d0 f   atlsd:atltypes.obj
 0001:000143e0       ?BottomRight@CRect@@QEAAAEAVCPoint@@XZ 00000001400153e0 f   atlsd:atltypes.obj
 0001:000143f0       ?TopLeft@CRect@@QEBAAEBVCPoint@@XZ 00000001400153f0 f   atlsd:atltypes.obj
 0001:00014400       ?BottomRight@CRect@@QEBAAEBVCPoint@@XZ 0000000140015400 f   atlsd:atltypes.obj
 0001:00014410       ?CenterPoint@CRect@@QEBA?AVCPoint@@XZ 0000000140015410 f   atlsd:atltypes.obj
 0001:00014470       ?SwapLeftRight@CRect@@QEAAXXZ 0000000140015470 f   atlsd:atltypes.obj
 0001:00014490       ?SwapLeftRight@CRect@@SAXPEAUtagRECT@@@Z 0000000140015490 f   atlsd:atltypes.obj
 0001:000144d0       ??BCRect@@QEAAPEAUtagRECT@@XZ 00000001400154d0 f   atlsd:atltypes.obj
 0001:000144e0       ??BCRect@@QEBAPEBUtagRECT@@XZ 00000001400154e0 f   atlsd:atltypes.obj
 0001:000144f0       ?IsRectEmpty@CRect@@QEBAHXZ 00000001400154f0 f   atlsd:atltypes.obj
 0001:00014510       ?IsRectNull@CRect@@QEBAHXZ 0000000140015510 f   atlsd:atltypes.obj
 0001:00014560       ?PtInRect@CRect@@QEBAHUtagPOINT@@@Z 0000000140015560 f   atlsd:atltypes.obj
 0001:00014590       ?SetRect@CRect@@QEAAXHHHH@Z 0000000140015590 f   atlsd:atltypes.obj
 0001:000145d0       ?SetRect@CRect@@QEAAXUtagPOINT@@0@Z 00000001400155d0 f   atlsd:atltypes.obj
 0001:00014610       ?SetRectEmpty@CRect@@QEAAXXZ 0000000140015610 f   atlsd:atltypes.obj
 0001:00014630       ?CopyRect@CRect@@QEAAXPEBUtagRECT@@@Z 0000000140015630 f   atlsd:atltypes.obj
 0001:00014660       ?EqualRect@CRect@@QEBAHPEBUtagRECT@@@Z 0000000140015660 f   atlsd:atltypes.obj
 0001:00014690       ?InflateRect@CRect@@QEAAXHH@Z 0000000140015690 f   atlsd:atltypes.obj
 0001:000146c0       ?InflateRect@CRect@@QEAAXUtagSIZE@@@Z 00000001400156c0 f   atlsd:atltypes.obj
 0001:000146f0       ?DeflateRect@CRect@@QEAAXHH@Z 00000001400156f0 f   atlsd:atltypes.obj
 0001:00014730       ?DeflateRect@CRect@@QEAAXUtagSIZE@@@Z 0000000140015730 f   atlsd:atltypes.obj
 0001:00014760       ?OffsetRect@CRect@@QEAAXHH@Z 0000000140015760 f   atlsd:atltypes.obj
 0001:00014790       ?OffsetRect@CRect@@QEAAXUtagPOINT@@@Z 0000000140015790 f   atlsd:atltypes.obj
 0001:000147c0       ?OffsetRect@CRect@@QEAAXUtagSIZE@@@Z 00000001400157c0 f   atlsd:atltypes.obj
 0001:000147f0       ?MoveToY@CRect@@QEAAXH@Z   00000001400157f0 f   atlsd:atltypes.obj
 0001:00014830       ?MoveToX@CRect@@QEAAXH@Z   0000000140015830 f   atlsd:atltypes.obj
 0001:00014870       ?MoveToXY@CRect@@QEAAXHH@Z 0000000140015870 f   atlsd:atltypes.obj
 0001:000148b0       ?MoveToXY@CRect@@QEAAXUtagPOINT@@@Z 00000001400158b0 f   atlsd:atltypes.obj
 0001:000148e0       ?IntersectRect@CRect@@QEAAHPEBUtagRECT@@0@Z 00000001400158e0 f   atlsd:atltypes.obj
 0001:00014910       ?UnionRect@CRect@@QEAAHPEBUtagRECT@@0@Z 0000000140015910 f   atlsd:atltypes.obj
 0001:00014940       ??4CRect@@QEAAXAEBUtagRECT@@@Z 0000000140015940 f   atlsd:atltypes.obj
 0001:00014970       ??8CRect@@QEBAHAEBUtagRECT@@@Z 0000000140015970 f   atlsd:atltypes.obj
 0001:000149a0       ??9CRect@@QEBAHAEBUtagRECT@@@Z 00000001400159a0 f   atlsd:atltypes.obj
 0001:000149e0       ??YCRect@@QEAAXUtagPOINT@@@Z 00000001400159e0 f   atlsd:atltypes.obj
 0001:00014a10       ??YCRect@@QEAAXUtagSIZE@@@Z 0000000140015a10 f   atlsd:atltypes.obj
 0001:00014a40       ??YCRect@@QEAAXPEBUtagRECT@@@Z 0000000140015a40 f   atlsd:atltypes.obj
 0001:00014a70       ??ZCRect@@QEAAXUtagPOINT@@@Z 0000000140015a70 f   atlsd:atltypes.obj
 0001:00014aa0       ??ZCRect@@QEAAXUtagSIZE@@@Z 0000000140015aa0 f   atlsd:atltypes.obj
 0001:00014ad0       ??ZCRect@@QEAAXPEBUtagRECT@@@Z 0000000140015ad0 f   atlsd:atltypes.obj
 0001:00014b00       ??_4CRect@@QEAAXAEBUtagRECT@@@Z 0000000140015b00 f   atlsd:atltypes.obj
 0001:00014b30       ??_5CRect@@QEAAXAEBUtagRECT@@@Z 0000000140015b30 f   atlsd:atltypes.obj
 0001:00014b60       ??HCRect@@QEBA?AV0@UtagPOINT@@@Z 0000000140015b60 f   atlsd:atltypes.obj
 0001:00014c00       ??GCRect@@QEBA?AV0@UtagPOINT@@@Z 0000000140015c00 f   atlsd:atltypes.obj
 0001:00014ca0       ??HCRect@@QEBA?AV0@UtagSIZE@@@Z 0000000140015ca0 f   atlsd:atltypes.obj
 0001:00014d40       ??GCRect@@QEBA?AV0@UtagSIZE@@@Z 0000000140015d40 f   atlsd:atltypes.obj
 0001:00014de0       ??HCRect@@QEBA?AV0@PEBUtagRECT@@@Z 0000000140015de0 f   atlsd:atltypes.obj
 0001:00014e50       ??GCRect@@QEBA?AV0@PEBUtagRECT@@@Z 0000000140015e50 f   atlsd:atltypes.obj
 0001:00014ec0       ??ICRect@@QEBA?AV0@AEBUtagRECT@@@Z 0000000140015ec0 f   atlsd:atltypes.obj
 0001:00014f30       ??UCRect@@QEBA?AV0@AEBUtagRECT@@@Z 0000000140015f30 f   atlsd:atltypes.obj
 0001:00014fa0       ?SubtractRect@CRect@@QEAAHPEBUtagRECT@@0@Z 0000000140015fa0 f   atlsd:atltypes.obj
 0001:00014fd0       ?NormalizeRect@CRect@@QEAAXXZ 0000000140015fd0 f   atlsd:atltypes.obj
 0001:00015050       ?InflateRect@CRect@@QEAAXPEBUtagRECT@@@Z 0000000140016050 f   atlsd:atltypes.obj
 0001:000150c0       ?InflateRect@CRect@@QEAAXHHHH@Z 00000001400160c0 f   atlsd:atltypes.obj
 0001:00015130       ?DeflateRect@CRect@@QEAAXPEBUtagRECT@@@Z 0000000140016130 f   atlsd:atltypes.obj
 0001:000151a0       ?DeflateRect@CRect@@QEAAXHHHH@Z 00000001400161a0 f   atlsd:atltypes.obj
 0001:00015210       ?MulDiv@CRect@@QEBA?AV1@HH@Z 0000000140016210 f   atlsd:atltypes.obj
 0001:000152c0       ??0CTimeSpan@ATL@@QEAA@XZ  00000001400162c0 f   atlsd:atltime.obj
 0001:000152e0       ??0CTimeSpan@ATL@@QEAA@_J@Z 00000001400162e0 f   atlsd:atltime.obj
 0001:00015300       ??0CTimeSpan@ATL@@QEAA@JHHH@Z 0000000140016300 f   atlsd:atltime.obj
 0001:00015350       ?GetDays@CTimeSpan@ATL@@QEBA_JXZ 0000000140016350 f   atlsd:atltime.obj
 0001:00015370       ?GetTotalHours@CTimeSpan@ATL@@QEBA_JXZ 0000000140016370 f   atlsd:atltime.obj
 0001:00015390       ?GetHours@CTimeSpan@ATL@@QEBAJXZ 0000000140016390 f   atlsd:atltime.obj
 0001:000153d0       ?GetTotalMinutes@CTimeSpan@ATL@@QEBA_JXZ 00000001400163d0 f   atlsd:atltime.obj
 0001:000153f0       ?GetMinutes@CTimeSpan@ATL@@QEBAJXZ 00000001400163f0 f   atlsd:atltime.obj
 0001:00015430       ?GetTotalSeconds@CTimeSpan@ATL@@QEBA_JXZ 0000000140016430 f   atlsd:atltime.obj
 0001:00015440       ?GetSeconds@CTimeSpan@ATL@@QEBAJXZ 0000000140016440 f   atlsd:atltime.obj
 0001:00015480       ?GetTimeSpan@CTimeSpan@ATL@@QEBA_JXZ 0000000140016480 f   atlsd:atltime.obj
 0001:00015490       ??HCTimeSpan@ATL@@QEBA?AV01@V01@@Z 0000000140016490 f   atlsd:atltime.obj
 0001:000154d0       ??GCTimeSpan@ATL@@QEBA?AV01@V01@@Z 00000001400164d0 f   atlsd:atltime.obj
 0001:00015510       ??YCTimeSpan@ATL@@QEAAAEAV01@V01@@Z 0000000140016510 f   atlsd:atltime.obj
 0001:00015540       ??ZCTimeSpan@ATL@@QEAAAEAV01@V01@@Z 0000000140016540 f   atlsd:atltime.obj
 0001:00015570       ??8CTimeSpan@ATL@@QEBA_NV01@@Z 0000000140016570 f   atlsd:atltime.obj
 0001:000155b0       ??9CTimeSpan@ATL@@QEBA_NV01@@Z 00000001400165b0 f   atlsd:atltime.obj
 0001:000155f0       ??MCTimeSpan@ATL@@QEBA_NV01@@Z 00000001400165f0 f   atlsd:atltime.obj
 0001:00015630       ??OCTimeSpan@ATL@@QEBA_NV01@@Z 0000000140016630 f   atlsd:atltime.obj
 0001:00015670       ??NCTimeSpan@ATL@@QEBA_NV01@@Z 0000000140016670 f   atlsd:atltime.obj
 0001:000156b0       ??PCTimeSpan@ATL@@QEBA_NV01@@Z 00000001400166b0 f   atlsd:atltime.obj
 0001:000156f0       ?GetTickCount@CTime@ATL@@SA?AV12@XZ 00000001400166f0 f   atlsd:atltime.obj
 0001:00015720       ?IsValidFILETIME@CTime@ATL@@SAHAEBU_FILETIME@@@Z 0000000140016720 f   atlsd:atltime.obj
 0001:00015780       ??0CTime@ATL@@QEAA@XZ      0000000140016780 f   atlsd:atltime.obj
 0001:000157a0       ??0CTime@ATL@@QEAA@_J@Z    00000001400167a0 f   atlsd:atltime.obj
 0001:000157c0       ??0CTime@ATL@@QEAA@HHHHHHH@Z 00000001400167c0 f   atlsd:atltime.obj
 0001:00015c30       ??0CTime@ATL@@QEAA@GGH@Z   0000000140016c30 f   atlsd:atltime.obj
 0001:00015d70       ??0CTime@ATL@@QEAA@AEBU_SYSTEMTIME@@H@Z 0000000140016d70 f   atlsd:atltime.obj
 0001:00015e40       ??0CTime@ATL@@QEAA@AEBU_FILETIME@@H@Z 0000000140016e40 f   atlsd:atltime.obj
 0001:00015f00       ??4CTime@ATL@@QEAAAEAV01@_J@Z 0000000140016f00 f   atlsd:atltime.obj
 0001:00015f20       ??YCTime@ATL@@QEAAAEAV01@VCTimeSpan@1@@Z 0000000140016f20 f   atlsd:atltime.obj
 0001:00015f60       ??ZCTime@ATL@@QEAAAEAV01@VCTimeSpan@1@@Z 0000000140016f60 f   atlsd:atltime.obj
 0001:00015fa0       ??GCTime@ATL@@QEBA?AVCTimeSpan@1@V01@@Z 0000000140016fa0 f   atlsd:atltime.obj
 0001:00015fe0       ??GCTime@ATL@@QEBA?AV01@VCTimeSpan@1@@Z 0000000140016fe0 f   atlsd:atltime.obj
 0001:00016030       ??HCTime@ATL@@QEBA?AV01@VCTimeSpan@1@@Z 0000000140017030 f   atlsd:atltime.obj
 0001:00016070       ??8CTime@ATL@@QEBA_NV01@@Z 0000000140017070 f   atlsd:atltime.obj
 0001:000160b0       ??9CTime@ATL@@QEBA_NV01@@Z 00000001400170b0 f   atlsd:atltime.obj
 0001:000160f0       ??MCTime@ATL@@QEBA_NV01@@Z 00000001400170f0 f   atlsd:atltime.obj
 0001:00016130       ??OCTime@ATL@@QEBA_NV01@@Z 0000000140017130 f   atlsd:atltime.obj
 0001:00016170       ??NCTime@ATL@@QEBA_NV01@@Z 0000000140017170 f   atlsd:atltime.obj
 0001:000161b0       ??PCTime@ATL@@QEBA_NV01@@Z 00000001400171b0 f   atlsd:atltime.obj
 0001:000161f0       ?GetGmtTm@CTime@ATL@@QEBAPEAUtm@@PEAU3@@Z 00000001400171f0 f   atlsd:atltime.obj
 0001:00016300       ?GetLocalTm@CTime@ATL@@QEBAPEAUtm@@PEAU3@@Z 0000000140017300 f   atlsd:atltime.obj
 0001:00016410       ?GetAsSystemTime@CTime@ATL@@QEBA_NAEAU_SYSTEMTIME@@@Z 0000000140017410 f   atlsd:atltime.obj
 0001:000164f0       ?GetTime@CTime@ATL@@QEBA_JXZ 00000001400174f0 f   atlsd:atltime.obj
 0001:00016500       ?GetYear@CTime@ATL@@QEBAHXZ 0000000140017500 f   atlsd:atltime.obj
 0001:00016570       ?GetMonth@CTime@ATL@@QEBAHXZ 0000000140017570 f   atlsd:atltime.obj
 0001:000165e0       ?GetDay@CTime@ATL@@QEBAHXZ 00000001400175e0 f   atlsd:atltime.obj
 0001:00016650       ?GetHour@CTime@ATL@@QEBAHXZ 0000000140017650 f   atlsd:atltime.obj
 0001:000166c0       ?GetMinute@CTime@ATL@@QEBAHXZ 00000001400176c0 f   atlsd:atltime.obj
 0001:00016730       ?GetSecond@CTime@ATL@@QEBAHXZ 0000000140017730 f   atlsd:atltime.obj
 0001:000167a0       ?GetDayOfWeek@CTime@ATL@@QEBAHXZ 00000001400177a0 f   atlsd:atltime.obj
 0001:00016810       ??0CFileTimeSpan@ATL@@QEAA@XZ 0000000140017810 f   atlsd:atltime.obj
 0001:00016830       ??0CFileTimeSpan@ATL@@QEAA@AEBV01@@Z 0000000140017830 f   atlsd:atltime.obj
 0001:00016850       ??0CFileTimeSpan@ATL@@QEAA@_J@Z 0000000140017850 f   atlsd:atltime.obj
 0001:00016870       ??4CFileTimeSpan@ATL@@QEAAAEAV01@AEBV01@@Z 0000000140017870 f   atlsd:atltime.obj
 0001:00016890       ??YCFileTimeSpan@ATL@@QEAAAEAV01@V01@@Z 0000000140017890 f   atlsd:atltime.obj
 0001:000168c0       ??ZCFileTimeSpan@ATL@@QEAAAEAV01@V01@@Z 00000001400178c0 f   atlsd:atltime.obj
 0001:000168f0       ??HCFileTimeSpan@ATL@@QEBA?AV01@V01@@Z 00000001400178f0 f   atlsd:atltime.obj
 0001:00016930       ??GCFileTimeSpan@ATL@@QEBA?AV01@V01@@Z 0000000140017930 f   atlsd:atltime.obj
 0001:00016970       ??8CFileTimeSpan@ATL@@QEBA_NV01@@Z 0000000140017970 f   atlsd:atltime.obj
 0001:000169b0       ??9CFileTimeSpan@ATL@@QEBA_NV01@@Z 00000001400179b0 f   atlsd:atltime.obj
 0001:000169f0       ??MCFileTimeSpan@ATL@@QEBA_NV01@@Z 00000001400179f0 f   atlsd:atltime.obj
 0001:00016a30       ??OCFileTimeSpan@ATL@@QEBA_NV01@@Z 0000000140017a30 f   atlsd:atltime.obj
 0001:00016a70       ??NCFileTimeSpan@ATL@@QEBA_NV01@@Z 0000000140017a70 f   atlsd:atltime.obj
 0001:00016ab0       ??PCFileTimeSpan@ATL@@QEBA_NV01@@Z 0000000140017ab0 f   atlsd:atltime.obj
 0001:00016af0       ?GetTimeSpan@CFileTimeSpan@ATL@@QEBA_JXZ 0000000140017af0 f   atlsd:atltime.obj
 0001:00016b00       ?SetTimeSpan@CFileTimeSpan@ATL@@QEAAX_J@Z 0000000140017b00 f   atlsd:atltime.obj
 0001:00016b20       ??0CFileTime@ATL@@QEAA@XZ  0000000140017b20 f   atlsd:atltime.obj
 0001:00016b50       ??0CFileTime@ATL@@QEAA@AEBU_FILETIME@@@Z 0000000140017b50 f   atlsd:atltime.obj
 0001:00016b80       ??0CFileTime@ATL@@QEAA@_K@Z 0000000140017b80 f   atlsd:atltime.obj
 0001:00016bb0       ??4CFileTime@ATL@@QEAAAEAV01@AEBU_FILETIME@@@Z 0000000140017bb0 f   atlsd:atltime.obj
 0001:00016be0       ?GetTickCount@CFileTime@ATL@@SA?AV12@XZ 0000000140017be0 f   atlsd:atltime.obj
 0001:00016c20       ??YCFileTime@ATL@@QEAAAEAV01@VCFileTimeSpan@1@@Z 0000000140017c20 f   atlsd:atltime.obj
 0001:00016c70       ??ZCFileTime@ATL@@QEAAAEAV01@VCFileTimeSpan@1@@Z 0000000140017c70 f   atlsd:atltime.obj
 0001:00016cc0       ??HCFileTime@ATL@@QEBA?AV01@VCFileTimeSpan@1@@Z 0000000140017cc0 f   atlsd:atltime.obj
 0001:00016d10       ??GCFileTime@ATL@@QEBA?AV01@VCFileTimeSpan@1@@Z 0000000140017d10 f   atlsd:atltime.obj
 0001:00016d60       ??GCFileTime@ATL@@QEBA?AVCFileTimeSpan@1@V01@@Z 0000000140017d60 f   atlsd:atltime.obj
 0001:00016db0       ??8CFileTime@ATL@@QEBA_NV01@@Z 0000000140017db0 f   atlsd:atltime.obj
 0001:00016e00       ??9CFileTime@ATL@@QEBA_NV01@@Z 0000000140017e00 f   atlsd:atltime.obj
 0001:00016e50       ??MCFileTime@ATL@@QEBA_NV01@@Z 0000000140017e50 f   atlsd:atltime.obj
 0001:00016ea0       ??OCFileTime@ATL@@QEBA_NV01@@Z 0000000140017ea0 f   atlsd:atltime.obj
 0001:00016ef0       ??NCFileTime@ATL@@QEBA_NV01@@Z 0000000140017ef0 f   atlsd:atltime.obj
 0001:00016f40       ??PCFileTime@ATL@@QEBA_NV01@@Z 0000000140017f40 f   atlsd:atltime.obj
 0001:00016f90       ?GetTime@CFileTime@ATL@@QEBA_KXZ 0000000140017f90 f   atlsd:atltime.obj
 0001:00016fb0       ?SetTime@CFileTime@ATL@@QEAAX_K@Z 0000000140017fb0 f   atlsd:atltime.obj
 0001:00016fe0       ?UTCToLocal@CFileTime@ATL@@QEBA?AV12@XZ 0000000140017fe0 f   atlsd:atltime.obj
 0001:00017020       ?LocalToUTC@CFileTime@ATL@@QEBA?AV12@XZ 0000000140018020 f   atlsd:atltime.obj
 0001:00017060       ?_AtlRaiseException@ATL@@YAXKK@Z 0000000140018060 f i atlsd:atltime.obj
 0001:00017090       ??0CDCCache@CImage@ATL@@QEAA@XZ 0000000140018090 f i atlsd:atlimage.obj
 0001:000170d0       ??1CDCCache@CImage@ATL@@QEAA@XZ 00000001400180d0 f i atlsd:atlimage.obj
 0001:00017120       ??0CInitGDIPlus@CImage@ATL@@QEAA@XZ 0000000140018120 f i atlsd:atlimage2.obj
 0001:00017190       ??1CInitGDIPlus@CImage@ATL@@QEAA@XZ 0000000140018190 f i atlsd:atlimage2.obj
 0001:000171c0       ??0CTraceCategory@ATL@@QEAA@PEBDI@Z 00000001400181c0 f i atlsd:atltrace.obj
 0001:00017220       ?ChangeCategory@CTrace@ATL@@QEAA_N_KIW4ATLTRACESTATUS@2@@Z 0000000140018220 f i atlsd:atltrace.obj
 0001:00017270       ?RegisterCategory@CTrace@ATL@@QEAA_KPEBD@Z 0000000140018270 f i atlsd:atltrace.obj
 0001:000172a0       ??0CAtlAllocator@@QEAA@XZ  00000001400182a0 f i atlsd:Externs.obj
 0001:00017300       ??0CTraceSnapshot@@QEAA@XZ 0000000140018300 f i atlsd:Externs.obj
 0001:00017330       ??0?$CSimpleArray@UCModuleInfo@CTraceSnapshot@@V?$CSimpleArrayEqualHelper@UCModuleInfo@CTraceSnapshot@@@ATL@@@ATL@@QEAA@XZ 0000000140018330 f i atlsd:Externs.obj
 0001:00017360       ??0?$CSimpleArray@_KV?$CSimpleArrayEqualHelper@_K@ATL@@@ATL@@QEAA@XZ 0000000140018360 f i atlsd:Externs.obj
 0001:000174a0       ??0CAtlException@ATL@@QEAA@J@Z 00000001400184a0 f i atlsd:Externs.obj
 0001:000174c0       ?AtlCrtErrorCheck@ATL@@YAHH@Z 00000001400184c0 f i atlsd:Externs.obj
 0001:00017530       ??0CTrace@ATL@@AEAA@P6AHHPEBDH00ZZ@Z 0000000140018530 f i atlsd:Externs.obj
 0001:00017580       ??1CAtlAllocator@@QEAA@XZ  0000000140018580 f i atlsd:Externs.obj
 0001:000175b0       ??1CTraceSnapshot@@QEAA@XZ 00000001400185b0 f i atlsd:Externs.obj
 0001:000175e0       ??1?$CSimpleArray@UCModuleInfo@CTraceSnapshot@@V?$CSimpleArrayEqualHelper@UCModuleInfo@CTraceSnapshot@@@ATL@@@ATL@@QEAA@XZ 00000001400185e0 f i atlsd:Externs.obj
 0001:00017600       ??1?$CSimpleArray@_KV?$CSimpleArrayEqualHelper@_K@ATL@@@ATL@@QEAA@XZ 0000000140018600 f i atlsd:Externs.obj
 0001:00017620       ?RemoveAll@?$CSimpleArray@UCModuleInfo@CTraceSnapshot@@V?$CSimpleArrayEqualHelper@UCModuleInfo@CTraceSnapshot@@@ATL@@@ATL@@QEAAXXZ 0000000140018620 f i atlsd:Externs.obj
 0001:00017690       ?RemoveAll@?$CSimpleArray@_KV?$CSimpleArrayEqualHelper@_K@ATL@@@ATL@@QEAAXXZ 0000000140018690 f i atlsd:Externs.obj
 0001:00017700       ??1CTrace@ATL@@AEAA@XZ     0000000140018700 f i atlsd:Externs.obj
 0001:00017720       ?NotifyTool@ATL@@YAXXZ     0000000140018720 f   atlsd:AtlDebugAPI.obj
 0001:00017760       AtlTraceRegister           0000000140018760 f   atlsd:AtlDebugAPI.obj
 0001:00017800       AtlTraceUnregister         0000000140018800 f   atlsd:AtlDebugAPI.obj
 0001:00017840       AtlTraceRegisterCategoryA  0000000140018840 f   atlsd:AtlDebugAPI.obj
 0001:000178d0       AtlTraceRegisterCategoryU  00000001400188d0 f   atlsd:AtlDebugAPI.obj
 0001:00017930       AtlTraceModifyProcess      0000000140018930 f   atlsd:AtlDebugAPI.obj
 0001:00017a50       ?GetProcess@CAtlAllocator@@QEBAPEAVCAtlTraceProcess@@XZ 0000000140018a50 f i atlsd:AtlDebugAPI.obj
 0001:00017a60       AtlTraceModifyModule       0000000140018a60 f   atlsd:AtlDebugAPI.obj
 0001:00017ba0       AtlTraceModifyCategory     0000000140018ba0 f   atlsd:AtlDebugAPI.obj
 0001:00017ca0       AtlTraceGetProcess         0000000140018ca0 f   atlsd:AtlDebugAPI.obj
 0001:00017de0       AtlTraceGetModule          0000000140018de0 f   atlsd:AtlDebugAPI.obj
 0001:00017f60       AtlTraceGetCategory        0000000140018f60 f   atlsd:AtlDebugAPI.obj
 0001:000180a0       AtlTraceGetUpdateEventNameA 00000001400190a0 f   atlsd:AtlDebugAPI.obj
 0001:000180e0       AtlTraceGetUpdateEventNameA_s 00000001400190e0 f   atlsd:AtlDebugAPI.obj
 0001:00018120       AtlTraceGetUpdateEventNameU 0000000140019120 f   atlsd:AtlDebugAPI.obj
 0001:000181a0       AtlTraceGetUpdateEventNameU_s 00000001400191a0 f   atlsd:AtlDebugAPI.obj
 0001:00018230       AtlTraceVA                 0000000140019230 f   atlsd:AtlDebugAPI.obj
 0001:00018610       ?Name@CAtlTraceCategory@@QEBAPEB_WXZ 0000000140019610 f i atlsd:AtlDebugAPI.obj
 0001:00018620       AtlTraceVU                 0000000140019620 f   atlsd:AtlDebugAPI.obj
 0001:00018a30       AtlTraceOpenProcess        0000000140019a30 f   atlsd:AtlDebugAPI.obj
 0001:00018bb0       ??_GCAtlAllocator@@QEAAPEAXI@Z 0000000140019bb0 f i atlsd:AtlDebugAPI.obj
 0001:00018bf0       AtlTraceCloseProcess       0000000140019bf0 f   atlsd:AtlDebugAPI.obj
 0001:00018cd0       AtlTraceSnapshotProcess    0000000140019cd0 f   atlsd:AtlDebugAPI.obj
 0001:00018d70       AtlTraceGetProcessInfo     0000000140019d70 f   atlsd:AtlDebugAPI.obj
 0001:00018fa0       ?Path@CAtlTraceModuleInfo@@QEBAPEB_WXZ 0000000140019fa0 f i atlsd:AtlDebugAPI.obj
 0001:00018fb0       ?Name@CAtlTraceModuleInfo@@QEBAPEB_WXZ 0000000140019fb0 f i atlsd:AtlDebugAPI.obj
 0001:00018fd0       ?Id@CAtlTraceProcess@@QEBAKXZ 0000000140019fd0 f i atlsd:AtlDebugAPI.obj
 0001:00018ff0       AtlTraceGetModuleInfo      0000000140019ff0 f   atlsd:AtlDebugAPI.obj
 0001:00019240       AtlTraceGetCategoryInfo    000000014001a240 f   atlsd:AtlDebugAPI.obj
 0001:00019740       ?CrtDbgReport@CAtlTraceModule@@QEBAP6AHHPEBDH00ZZXZ 000000014001a740 f i atlsd:AtlDebugAPI.obj
 0001:00019760       ?_IsTracingEnabled@ATL@@YA_N_K0I@Z 000000014001a760 f   atlsd:AtlDebugAPI.obj
 0001:000197b0       ?GetSize@?$CSimpleArray@UCModuleInfo@CTraceSnapshot@@V?$CSimpleArrayEqualHelper@UCModuleInfo@CTraceSnapshot@@@ATL@@@ATL@@QEBAHXZ 000000014001a7b0 f i atlsd:AtlDebugAPI.obj
 0001:000197c0       ??A?$CSimpleArray@UCModuleInfo@CTraceSnapshot@@V?$CSimpleArrayEqualHelper@UCModuleInfo@CTraceSnapshot@@@ATL@@@ATL@@QEAAAEAUCModuleInfo@CTraceSnapshot@@H@Z 000000014001a7c0 f i atlsd:AtlDebugAPI.obj
 0001:00019850       ?strcpy_s@Checked@ATL@@YAXPEAD_KPEBD@Z 000000014001a850 f i atlsd:AtlDebugAPI.obj
 0001:00019890       ?wcscpy_s@Checked@ATL@@YAXPEA_W_KPEB_W@Z 000000014001a890 f i atlsd:AtlDebugAPI.obj
 0001:000198d0       ??0?$CA2WEX@$0IA@@ATL@@QEAA@PEBD@Z 000000014001a8d0 f i atlsd:AtlDebugAPI.obj
 0001:00019910       ?_AtlGetConversionACP@ATL@@YAIXZ 000000014001a910 f i atlsd:AtlDebugAPI.obj
 0001:00019920       ??1?$CA2WEX@$0IA@@ATL@@QEAA@XZ 000000014001a920 f i atlsd:AtlDebugAPI.obj
 0001:00019950       ??B?$CA2WEX@$0IA@@ATL@@QEBAPEA_WXZ 000000014001a950 f i atlsd:AtlDebugAPI.obj
 0001:00019960       ?Init@?$CA2WEX@$0IA@@ATL@@AEAAXPEBDI@Z 000000014001a960 f i atlsd:AtlDebugAPI.obj
 0001:00019ad0       ?AtlThrowLastWin32@ATL@@YAXXZ 000000014001aad0 f i atlsd:AtlDebugAPI.obj
 0001:00019b00       ??$AtlConvFreeMemory@_W@ATL@@YAXPEA_W0H@Z 000000014001ab00 f i atlsd:AtlDebugAPI.obj
 0001:00019b50       ??$AtlConvAllocMemory@_W@ATL@@YAXPEAPEA_WHPEA_WH@Z 000000014001ab50 f i atlsd:AtlDebugAPI.obj
 0001:00019db0       ?Init@CAtlAllocator@@QEAA_NPEBDK@Z 000000014001adb0 f   atlsd:Allocate.obj
 0001:0001a210       ?IncRef@CAtlTraceProcess@@QEAAIXZ 000000014001b210 f i atlsd:Allocate.obj
 0001:0001a240       ?Base@CAtlTraceProcess@@QEBAPEAXXZ 000000014001b240 f i atlsd:Allocate.obj
 0001:0001a260       ?Open@CAtlAllocator@@QEAA_NPEBD@Z 000000014001b260 f   atlsd:Allocate.obj
 0001:0001a3a0       ?Close@CAtlAllocator@@QEAAX_N@Z 000000014001b3a0 f   atlsd:Allocate.obj
 0001:0001a420       ?DecRef@CAtlTraceProcess@@QEAAIXZ 000000014001b420 f i atlsd:Allocate.obj
 0001:0001a450       ?GetModule@CAtlAllocator@@QEBAPEAVCAtlTraceModule@@H@Z 000000014001b450 f   atlsd:Allocate.obj
 0001:0001a510       ?ModuleCount@CAtlTraceProcess@@QEBAHXZ 000000014001b510 f i atlsd:Allocate.obj
 0001:0001a530       ?GetCategory@CAtlAllocator@@QEBAPEAVCAtlTraceCategory@@H@Z 000000014001b530 f   atlsd:Allocate.obj
 0001:0001a610       ?MaxSize@CAtlTraceProcess@@QEBA_KXZ 000000014001b610 f i atlsd:Allocate.obj
 0001:0001a630       ?CategoryCount@CAtlTraceProcess@@QEBAHXZ 000000014001b630 f i atlsd:Allocate.obj
 0001:0001a650       ?GetCategoryCount@CAtlAllocator@@QEBAHH@Z 000000014001b650 f   atlsd:Allocate.obj
 0001:0001a6f0       ?GetCategoryCount@CAtlAllocator@@QEBAHAEBVCAtlTraceModule@@@Z 000000014001b6f0 f   atlsd:Allocate.obj
 0001:0001a770       ?GetModuleCount@CAtlAllocator@@QEBAHXZ 000000014001b770 f   atlsd:Allocate.obj
 0001:0001a7e0       ?FindModule@CAtlAllocator@@QEBA_NPEB_WPEAI@Z 000000014001b7e0 f   atlsd:Allocate.obj
 0001:0001a880       ?AddModule@CAtlAllocator@@QEAAHPEAUHINSTANCE__@@@Z 000000014001b880 f   atlsd:Allocate.obj
 0001:0001aaf0       ?TryAllocate@CAtlTraceSettings@@QEAA_NXZ 000000014001baf0 f i atlsd:Allocate.obj
 0001:0001ab40       ?MarkValid@CAtlTraceSettings@@QEAAXJ@Z 000000014001bb40 f i atlsd:Allocate.obj
 0001:0001aba0       ?IncModuleCount@CAtlTraceProcess@@QEAAXI@Z 000000014001bba0 f i atlsd:Allocate.obj
 0001:0001abd0       ?AddCategory@CAtlAllocator@@QEAAHHPEB_W@Z 000000014001bbd0 f   atlsd:Allocate.obj
 0001:0001aec0       ?TryAddRef@CAtlTraceSettings@@QEAA_NXZ 000000014001bec0 f i atlsd:Allocate.obj
 0001:0001af10       ?Release@CAtlTraceSettings@@QEAAXXZ 000000014001bf10 f i atlsd:Allocate.obj
 0001:0001af50       ?IncCategoryCount@CAtlTraceProcess@@QEAAXI@Z 000000014001bf50 f i atlsd:Allocate.obj
 0001:0001af80       ?RemoveModule@CAtlAllocator@@QEAA_NH@Z 000000014001bf80 f   atlsd:Allocate.obj
 0001:0001b060       ?CleanUp@CAtlAllocator@@QEAAXXZ 000000014001c060 f   atlsd:Allocate.obj
 0001:0001b080       ?TakeSnapshot@CAtlAllocator@@QEAAXXZ 000000014001c080 f   atlsd:Allocate.obj
 0001:0001b320       ?ReleaseSnapshot@CAtlAllocator@@QEAAXXZ 000000014001c320 f   atlsd:Allocate.obj
 0001:0001b430       ?Add@?$CSimpleArray@UCModuleInfo@CTraceSnapshot@@V?$CSimpleArrayEqualHelper@UCModuleInfo@CTraceSnapshot@@@ATL@@@ATL@@QEAAHAEBUCModuleInfo@CTraceSnapshot@@@Z 000000014001c430 f i atlsd:Allocate.obj
 0001:0001b5b0       ?GetSize@?$CSimpleArray@_KV?$CSimpleArrayEqualHelper@_K@ATL@@@ATL@@QEBAHXZ 000000014001c5b0 f i atlsd:Allocate.obj
 0001:0001b5c0       ?Add@?$CSimpleArray@_KV?$CSimpleArrayEqualHelper@_K@ATL@@@ATL@@QEAAHAEB_K@Z 000000014001c5c0 f i atlsd:Allocate.obj
 0001:0001b740       ?RemoveAt@?$CSimpleArray@_KV?$CSimpleArrayEqualHelper@_K@ATL@@@ATL@@QEAAHH@Z 000000014001c740 f i atlsd:Allocate.obj
 0001:0001b850       ??A?$CSimpleArray@_KV?$CSimpleArrayEqualHelper@_K@ATL@@@ATL@@QEAAAEA_KH@Z 000000014001c850 f i atlsd:Allocate.obj
 0001:0001b8e0       ?InternalSetAtIndex@?$CSimpleArray@UCModuleInfo@CTraceSnapshot@@V?$CSimpleArrayEqualHelper@UCModuleInfo@CTraceSnapshot@@@ATL@@@ATL@@QEAAXHAEBUCModuleInfo@CTraceSnapshot@@@Z 000000014001c8e0 f i atlsd:Allocate.obj
 0001:0001b950       ?InternalSetAtIndex@?$CSimpleArray@_KV?$CSimpleArrayEqualHelper@_K@ATL@@@ATL@@QEAAXHAEB_K@Z 000000014001c950 f i atlsd:Allocate.obj
 0001:0001b9c0       ??0Wrapper@?$CSimpleArray@UCModuleInfo@CTraceSnapshot@@V?$CSimpleArrayEqualHelper@UCModuleInfo@CTraceSnapshot@@@ATL@@@ATL@@QEAA@AEBUCModuleInfo@CTraceSnapshot@@@Z 000000014001c9c0 f i atlsd:Allocate.obj
 0001:0001ba10       ??0Wrapper@?$CSimpleArray@_KV?$CSimpleArrayEqualHelper@_K@ATL@@@ATL@@QEAA@AEB_K@Z 000000014001ca10 f i atlsd:Allocate.obj
 0001:0001ba30       ??$?2UCModuleInfo@CTraceSnapshot@@@Wrapper@?$CSimpleArray@UCModuleInfo@CTraceSnapshot@@V?$CSimpleArrayEqualHelper@UCModuleInfo@CTraceSnapshot@@@ATL@@@ATL@@SAPEAX_KPEAUCModuleInfo@CTraceSnapshot@@@Z 000000014001ca30 f i atlsd:Allocate.obj
 0001:0001ba40       ??$?2_K@Wrapper@?$CSimpleArray@_KV?$CSimpleArrayEqualHelper@_K@ATL@@@ATL@@SAPEAX_KPEA_K@Z 000000014001ca40 f i atlsd:Allocate.obj
 0001:0001ba50       ?memmove_s@Checked@ATL@@YAXPEAX_KPEBX1@Z 000000014001ca50 f i atlsd:Allocate.obj
 0001:0001ba90       ??2@YAPEAX_KPEAX@Z         000000014001ca90 f i atlsd:Allocate.obj
 0001:0001baa0       ??0CAtlTraceModuleInfo@@QEAA@XZ 000000014001caa0 f   atlsd:AtlTraceModuleManager.obj
 0001:0001baf0       ?Reset@CAtlTraceModuleInfo@@QEAAXPEAUHINSTANCE__@@@Z 000000014001caf0 f   atlsd:AtlTraceModuleManager.obj
 0001:0001bc60       ??0CAtlTraceCategory@@QEAA@XZ 000000014001cc60 f   atlsd:AtlTraceModuleManager.obj
 0001:0001bcb0       ??0CAtlTraceSettings@@QEAA@XZ 000000014001ccb0 f i atlsd:AtlTraceModuleManager.obj
 0001:0001bcf0       ?Reset@CAtlTraceCategory@@QEAAXPEB_WJ@Z 000000014001ccf0 f   atlsd:AtlTraceModuleManager.obj
 0001:0001bd50       ??0CAtlTraceModule@@QEAA@XZ 000000014001cd50 f   atlsd:AtlTraceModuleManager.obj
 0001:0001bd90       ?CrtDbgReport@CAtlTraceModule@@QEAAXP6AHHPEBDH00ZZ@Z 000000014001cd90 f   atlsd:AtlTraceModuleManager.obj
 0001:0001bde0       ??0CAtlTraceProcess@@QEAA@_K@Z 000000014001cde0 f   atlsd:AtlTraceModuleManager.obj
 0001:0001bee0       ?GetNextCookie@CAtlTraceProcess@@QEAAJXZ 000000014001cee0 f   atlsd:AtlTraceModuleManager.obj
 0001:0001befe       CreateStreamOnHGlobal      000000014001cefe f   ole32:ole32.dll
 0001:0001bf04       SysFreeString              000000014001cf04 f   oleaut32:OLEAUT32.dll
 0001:0001bf0a       GdipDisposeImage           000000014001cf0a f   gdiplus:gdiplus.dll
 0001:0001bf10       GdipFree                   000000014001cf10 f   gdiplus:gdiplus.dll
 0001:0001bf16       GdipCloneImage             000000014001cf16 f   gdiplus:gdiplus.dll
 0001:0001bf1c       GdipAlloc                  000000014001cf1c f   gdiplus:gdiplus.dll
 0001:0001bf22       GdipCreateBitmapFromStream 000000014001cf22 f   gdiplus:gdiplus.dll
 0001:0001bf28       GdipCreateBitmapFromStreamICM 000000014001cf28 f   gdiplus:gdiplus.dll
 0001:0001bf2e       GdipGetImageGraphicsContext 000000014001cf2e f   gdiplus:gdiplus.dll
 0001:0001bf34       GdipDeleteGraphics         000000014001cf34 f   gdiplus:gdiplus.dll
 0001:0001bf3a       GdipDrawImageI             000000014001cf3a f   gdiplus:gdiplus.dll
 0001:0001bf40       GdipGetImageWidth          000000014001cf40 f   gdiplus:gdiplus.dll
 0001:0001bf46       GdipGetImageHeight         000000014001cf46 f   gdiplus:gdiplus.dll
 0001:0001bf4c       GdipGetImagePixelFormat    000000014001cf4c f   gdiplus:gdiplus.dll
 0001:0001bf52       GdipGetImagePaletteSize    000000014001cf52 f   gdiplus:gdiplus.dll
 0001:0001bf58       GdipGetImagePalette        000000014001cf58 f   gdiplus:gdiplus.dll
 0001:0001bf5e       GdipCreateBitmapFromScan0  000000014001cf5e f   gdiplus:gdiplus.dll
 0001:0001bf64       GdipBitmapLockBits         000000014001cf64 f   gdiplus:gdiplus.dll
 0001:0001bf6a       GdipBitmapUnlockBits       000000014001cf6a f   gdiplus:gdiplus.dll
 0001:0001bf70       GdiplusStartup             000000014001cf70 f   gdiplus:gdiplus.dll
 0001:0001bf76       GdiplusShutdown            000000014001cf76 f   gdiplus:gdiplus.dll
 0001:0001bf7c       ??2@YAPEAX_K@Z             000000014001cf7c f   mfc100d:mfc100d.dll
 0001:0001bf90       WinMain                    000000014001cf90 f   mfcs100d:appmodul.obj
 0001:0001bfd0       ?AfxInitialize@@YAHHK@Z    000000014001cfd0 f   mfcs100d:appmodul.obj
 0001:0001c03e       _time64                    000000014001d03e f   msvcrtd:MSVCR100D.dll
 0001:0001c044       _mktime64                  000000014001d044 f   msvcrtd:MSVCR100D.dll
 0001:0001c04a       _gmtime64_s                000000014001d04a f   msvcrtd:MSVCR100D.dll
 0001:0001c050       _localtime64_s             000000014001d050 f   msvcrtd:MSVCR100D.dll
 0001:0001c056       _snprintf_s                000000014001d056 f   msvcrtd:MSVCR100D.dll
 0001:0001c05c       _errno                     000000014001d05c f   msvcrtd:MSVCR100D.dll
 0001:0001c062       _CxxThrowException         000000014001d062 f   msvcrtd:MSVCR100D.dll
 0001:0001c068       _CrtDbgReport              000000014001d068 f   msvcrtd:MSVCR100D.dll
 0001:0001c06e       wcscpy                     000000014001d06e f   msvcrtd:MSVCR100D.dll
 0001:0001c074       _vsnprintf_s               000000014001d074 f   msvcrtd:MSVCR100D.dll
 0001:0001c07a       _vsnwprintf_s              000000014001d07a f   msvcrtd:MSVCR100D.dll
 0001:0001c080       _snwprintf_s               000000014001d080 f   msvcrtd:MSVCR100D.dll
 0001:0001c086       wcscpy_s                   000000014001d086 f   msvcrtd:MSVCR100D.dll
 0001:0001c08c       wcsncpy_s                  000000014001d08c f   msvcrtd:MSVCR100D.dll
 0001:0001c092       calloc                     000000014001d092 f   msvcrtd:MSVCR100D.dll
 0001:0001c098       _recalloc                  000000014001d098 f   msvcrtd:MSVCR100D.dll
 0001:0001c09e       memcmp                     000000014001d09e f   msvcrtd:MSVCR100D.dll
 0001:0001c0a4       _wcsicmp                   000000014001d0a4 f   msvcrtd:MSVCR100D.dll
 0001:0001c0aa       memmove_s                  000000014001d0aa f   msvcrtd:MSVCR100D.dll
 0001:0001c0b0       wcslen                     000000014001d0b0 f   msvcrtd:MSVCR100D.dll
 0001:0001c0b6       _setmbcp                   000000014001d0b6 f   msvcrtd:MSVCR100D.dll
 0001:0001c0bc       MulDiv                     000000014001d0bc f   kernel32:KERNEL32.dll
 0001:0001c0c2       FileTimeToSystemTime       000000014001d0c2 f   kernel32:KERNEL32.dll
 0001:0001c0c8       FileTimeToLocalFileTime    000000014001d0c8 f   kernel32:KERNEL32.dll
 0001:0001c0ce       LocalFileTimeToFileTime    000000014001d0ce f   kernel32:KERNEL32.dll
 0001:0001c0d4       RaiseException             000000014001d0d4 f   kernel32:KERNEL32.dll
 0001:0001c0da       InitializeCriticalSectionAndSpinCount 000000014001d0da f   kernel32:KERNEL32.dll
 0001:0001c0e0       DeleteCriticalSection      000000014001d0e0 f   kernel32:KERNEL32.dll
 0001:0001c0e6       OpenEventA                 000000014001d0e6 f   kernel32:KERNEL32.dll
 0001:0001c0ec       OutputDebugStringA         000000014001d0ec f   kernel32:KERNEL32.dll
 0001:0001c0f2       OutputDebugStringW         000000014001d0f2 f   kernel32:KERNEL32.dll
 0001:0001c0f8       MultiByteToWideChar        000000014001d0f8 f   kernel32:KERNEL32.dll
 0001:0001c0fe       lstrlenA                   000000014001d0fe f   kernel32:KERNEL32.dll
 0001:0001c104       VirtualAlloc               000000014001d104 f   kernel32:KERNEL32.dll
 0001:0001c10a       UnmapViewOfFile            000000014001d10a f   kernel32:KERNEL32.dll
 0001:0001c110       MapViewOfFile              000000014001d110 f   kernel32:KERNEL32.dll
 0001:0001c116       CreateFileMappingA         000000014001d116 f   kernel32:KERNEL32.dll
 0001:0001c11c       GetCurrentThread           000000014001d11c f   kernel32:KERNEL32.dll
 0001:0001c122       OpenFileMappingA           000000014001d122 f   kernel32:KERNEL32.dll
 0001:0001c128       GetModuleFileNameW         000000014001d128 f   kernel32:KERNEL32.dll
 0001:0001c12e       CopyRect                   000000014001d12e f   user32:USER32.dll
 0001:0001c134       IsRectEmpty                000000014001d134 f   user32:USER32.dll
 0001:0001c13a       PtInRect                   000000014001d13a f   user32:USER32.dll
 0001:0001c140       SetRect                    000000014001d140 f   user32:USER32.dll
 0001:0001c146       SetRectEmpty               000000014001d146 f   user32:USER32.dll
 0001:0001c14c       EqualRect                  000000014001d14c f   user32:USER32.dll
 0001:0001c152       InflateRect                000000014001d152 f   user32:USER32.dll
 0001:0001c158       OffsetRect                 000000014001d158 f   user32:USER32.dll
 0001:0001c15e       IntersectRect              000000014001d15e f   user32:USER32.dll
 0001:0001c164       UnionRect                  000000014001d164 f   user32:USER32.dll
 0001:0001c16a       SubtractRect               000000014001d16a f   user32:USER32.dll
 0001:0001c170       SetThreadToken             000000014001d170 f   advapi32:ADVAPI32.dll
 0001:0001c176       RevertToSelf               000000014001d176 f   advapi32:ADVAPI32.dll
 0001:0001c17c       OpenThreadToken            000000014001d17c f   advapi32:ADVAPI32.dll
 0001:0001c182       ?AfxWinMain@@YAHPEAUHINSTANCE__@@0PEADH@Z 000000014001d182 f   mfc100d:mfc100d.dll
 0001:0001c188       ?AfxGetModuleState@@YAPEAVAFX_MODULE_STATE@@XZ 000000014001d188 f   mfc100d:mfc100d.dll
 0002:00000000       __xc_a                     0000000140026000     msvcrtd:cinitexe.obj
 0002:000006a0       __xc_z                     00000001400266a0     msvcrtd:cinitexe.obj
 0002:000007b0       __xi_a                     00000001400267b0     msvcrtd:cinitexe.obj
 0002:00000ae0       __xi_z                     0000000140026ae0     msvcrtd:cinitexe.obj
 0002:00001584       ?_Min@?$AtlLimits@H@ATL@@2HB 0000000140027584     GigeCameraDemo.obj
 0002:00001588       ?_Max@?$AtlLimits@H@ATL@@2HB 0000000140027588     GigeCameraDemo.obj
 0002:0000158c       ?_Min@?$AtlLimits@I@ATL@@2IB 000000014002758c     GigeCameraDemo.obj
 0002:00001590       ?_Max@?$AtlLimits@I@ATL@@2IB 0000000140027590     GigeCameraDemo.obj
 0002:00001594       ?_Min@?$AtlLimits@J@ATL@@2JB 0000000140027594     GigeCameraDemo.obj
 0002:00001598       ?_Max@?$AtlLimits@J@ATL@@2JB 0000000140027598     GigeCameraDemo.obj
 0002:0000159c       ?_Min@?$AtlLimits@K@ATL@@2KB 000000014002759c     GigeCameraDemo.obj
 0002:000015a0       ?_Max@?$AtlLimits@K@ATL@@2KB 00000001400275a0     GigeCameraDemo.obj
 0002:000015a8       ?_Min@?$AtlLimits@_J@ATL@@2_JB 00000001400275a8     GigeCameraDemo.obj
 0002:000015b8       ?_Max@?$AtlLimits@_J@ATL@@2_JB 00000001400275b8     GigeCameraDemo.obj
 0002:000015c8       ?_Min@?$AtlLimits@_K@ATL@@2_KB 00000001400275c8     GigeCameraDemo.obj
 0002:000015d8       ?_Max@?$AtlLimits@_K@ATL@@2_KB 00000001400275d8     GigeCameraDemo.obj
 0002:000015e4       ?VT@?$CVarTypeInfo@D@ATL@@2GB 00000001400275e4     GigeCameraDemo.obj
 0002:000015e8       ?pmField@?$CVarTypeInfo@D@ATL@@2QEQtagVARIANT@@DEQ3@ 00000001400275e8     GigeCameraDemo.obj
 0002:000015ec       ?VT@?$CVarTypeInfo@E@ATL@@2GB 00000001400275ec     GigeCameraDemo.obj
 0002:000015f0       ?pmField@?$CVarTypeInfo@E@ATL@@2QEQtagVARIANT@@EEQ3@ 00000001400275f0     GigeCameraDemo.obj
 0002:000015f4       ?VT@?$CVarTypeInfo@PEAD@ATL@@2GB 00000001400275f4     GigeCameraDemo.obj
 0002:000015f8       ?pmField@?$CVarTypeInfo@PEAD@ATL@@2QEQtagVARIANT@@PEADEQ3@ 00000001400275f8     GigeCameraDemo.obj
 0002:000015fc       ?VT@?$CVarTypeInfo@PEAE@ATL@@2GB 00000001400275fc     GigeCameraDemo.obj
 0002:00001600       ?pmField@?$CVarTypeInfo@PEAE@ATL@@2QEQtagVARIANT@@PEAEEQ3@ 0000000140027600     GigeCameraDemo.obj
 0002:00001604       ?VT@?$CVarTypeInfo@F@ATL@@2GB 0000000140027604     GigeCameraDemo.obj
 0002:00001608       ?pmField@?$CVarTypeInfo@F@ATL@@2QEQtagVARIANT@@FEQ3@ 0000000140027608     GigeCameraDemo.obj
 0002:0000160c       ?VT@?$CVarTypeInfo@PEAF@ATL@@2GB 000000014002760c     GigeCameraDemo.obj
 0002:00001610       ?pmField@?$CVarTypeInfo@PEAF@ATL@@2QEQtagVARIANT@@PEAFEQ3@ 0000000140027610     GigeCameraDemo.obj
 0002:00001614       ?VT@?$CVarTypeInfo@G@ATL@@2GB 0000000140027614     GigeCameraDemo.obj
 0002:00001618       ?pmField@?$CVarTypeInfo@G@ATL@@2QEQtagVARIANT@@GEQ3@ 0000000140027618     GigeCameraDemo.obj
 0002:0000161c       ?VT@?$CVarTypeInfo@PEAG@ATL@@2GB 000000014002761c     GigeCameraDemo.obj
 0002:00001620       ?pmField@?$CVarTypeInfo@PEAG@ATL@@2QEQtagVARIANT@@PEAGEQ3@ 0000000140027620     GigeCameraDemo.obj
 0002:00001624       ?VT@?$CVarTypeInfo@H@ATL@@2GB 0000000140027624     GigeCameraDemo.obj
 0002:00001628       ?pmField@?$CVarTypeInfo@H@ATL@@2QEQtagVARIANT@@HEQ3@ 0000000140027628     GigeCameraDemo.obj
 0002:0000162c       ?VT@?$CVarTypeInfo@PEAH@ATL@@2GB 000000014002762c     GigeCameraDemo.obj
 0002:00001630       ?pmField@?$CVarTypeInfo@PEAH@ATL@@2QEQtagVARIANT@@PEAHEQ3@ 0000000140027630     GigeCameraDemo.obj
 0002:00001634       ?VT@?$CVarTypeInfo@I@ATL@@2GB 0000000140027634     GigeCameraDemo.obj
 0002:00001638       ?pmField@?$CVarTypeInfo@I@ATL@@2QEQtagVARIANT@@IEQ3@ 0000000140027638     GigeCameraDemo.obj
 0002:0000163c       ?VT@?$CVarTypeInfo@PEAI@ATL@@2GB 000000014002763c     GigeCameraDemo.obj
 0002:00001640       ?pmField@?$CVarTypeInfo@PEAI@ATL@@2QEQtagVARIANT@@PEAIEQ3@ 0000000140027640     GigeCameraDemo.obj
 0002:00001644       ?VT@?$CVarTypeInfo@J@ATL@@2GB 0000000140027644     GigeCameraDemo.obj
 0002:00001648       ?pmField@?$CVarTypeInfo@J@ATL@@2QEQtagVARIANT@@JEQ3@ 0000000140027648     GigeCameraDemo.obj
 0002:0000164c       ?VT@?$CVarTypeInfo@PEAJ@ATL@@2GB 000000014002764c     GigeCameraDemo.obj
 0002:00001650       ?pmField@?$CVarTypeInfo@PEAJ@ATL@@2QEQtagVARIANT@@PEAJEQ3@ 0000000140027650     GigeCameraDemo.obj
 0002:00001654       ?VT@?$CVarTypeInfo@K@ATL@@2GB 0000000140027654     GigeCameraDemo.obj
 0002:00001658       ?pmField@?$CVarTypeInfo@K@ATL@@2QEQtagVARIANT@@KEQ3@ 0000000140027658     GigeCameraDemo.obj
 0002:0000165c       ?VT@?$CVarTypeInfo@PEAK@ATL@@2GB 000000014002765c     GigeCameraDemo.obj
 0002:00001660       ?pmField@?$CVarTypeInfo@PEAK@ATL@@2QEQtagVARIANT@@PEAKEQ3@ 0000000140027660     GigeCameraDemo.obj
 0002:00001664       ?VT@?$CVarTypeInfo@_J@ATL@@2GB 0000000140027664     GigeCameraDemo.obj
 0002:00001668       ?pmField@?$CVarTypeInfo@_J@ATL@@2QEQtagVARIANT@@_JEQ3@ 0000000140027668     GigeCameraDemo.obj
 0002:0000166c       ?VT@?$CVarTypeInfo@PEA_J@ATL@@2GB 000000014002766c     GigeCameraDemo.obj
 0002:00001670       ?pmField@?$CVarTypeInfo@PEA_J@ATL@@2QEQtagVARIANT@@PEA_JEQ3@ 0000000140027670     GigeCameraDemo.obj
 0002:00001674       ?VT@?$CVarTypeInfo@_K@ATL@@2GB 0000000140027674     GigeCameraDemo.obj
 0002:00001678       ?pmField@?$CVarTypeInfo@_K@ATL@@2QEQtagVARIANT@@_KEQ3@ 0000000140027678     GigeCameraDemo.obj
 0002:0000167c       ?VT@?$CVarTypeInfo@PEA_K@ATL@@2GB 000000014002767c     GigeCameraDemo.obj
 0002:00001680       ?pmField@?$CVarTypeInfo@PEA_K@ATL@@2QEQtagVARIANT@@PEA_KEQ3@ 0000000140027680     GigeCameraDemo.obj
 0002:00001684       ?VT@?$CVarTypeInfo@M@ATL@@2GB 0000000140027684     GigeCameraDemo.obj
 0002:00001688       ?pmField@?$CVarTypeInfo@M@ATL@@2QEQtagVARIANT@@MEQ3@ 0000000140027688     GigeCameraDemo.obj
 0002:0000168c       ?VT@?$CVarTypeInfo@PEAM@ATL@@2GB 000000014002768c     GigeCameraDemo.obj
 0002:00001690       ?pmField@?$CVarTypeInfo@PEAM@ATL@@2QEQtagVARIANT@@PEAMEQ3@ 0000000140027690     GigeCameraDemo.obj
 0002:00001694       ?VT@?$CVarTypeInfo@N@ATL@@2GB 0000000140027694     GigeCameraDemo.obj
 0002:00001698       ?pmField@?$CVarTypeInfo@N@ATL@@2QEQtagVARIANT@@NEQ3@ 0000000140027698     GigeCameraDemo.obj
 0002:0000169c       ?VT@?$CVarTypeInfo@PEAN@ATL@@2GB 000000014002769c     GigeCameraDemo.obj
 0002:000016a0       ?pmField@?$CVarTypeInfo@PEAN@ATL@@2QEQtagVARIANT@@PEANEQ3@ 00000001400276a0     GigeCameraDemo.obj
 0002:000016a4       ?VT@?$CVarTypeInfo@PEAUtagVARIANT@@@ATL@@2GB 00000001400276a4     GigeCameraDemo.obj
 0002:000016a8       ?VT@?$CVarTypeInfo@PEA_W@ATL@@2GB 00000001400276a8     GigeCameraDemo.obj
 0002:000016b0       ?pmField@?$CVarTypeInfo@PEA_W@ATL@@2QEQtagVARIANT@@PEA_WEQ3@ 00000001400276b0     GigeCameraDemo.obj
 0002:000016b4       ?VT@?$CVarTypeInfo@PEAPEA_W@ATL@@2GB 00000001400276b4     GigeCameraDemo.obj
 0002:000016b8       ?pmField@?$CVarTypeInfo@PEAPEA_W@ATL@@2QEQtagVARIANT@@PEAPEA_WEQ3@ 00000001400276b8     GigeCameraDemo.obj
 0002:000016bc       ?VT@?$CVarTypeInfo@PEAUIUnknown@@@ATL@@2GB 00000001400276bc     GigeCameraDemo.obj
 0002:000016c0       ?pmField@?$CVarTypeInfo@PEAUIUnknown@@@ATL@@2QEQtagVARIANT@@PEAUIUnknown@@EQ3@ 00000001400276c0     GigeCameraDemo.obj
 0002:000016c4       ?VT@?$CVarTypeInfo@PEAPEAUIUnknown@@@ATL@@2GB 00000001400276c4     GigeCameraDemo.obj
 0002:000016c8       ?pmField@?$CVarTypeInfo@PEAPEAUIUnknown@@@ATL@@2QEQtagVARIANT@@PEAPEAUIUnknown@@EQ3@ 00000001400276c8     GigeCameraDemo.obj
 0002:000016cc       ?VT@?$CVarTypeInfo@PEAUIDispatch@@@ATL@@2GB 00000001400276cc     GigeCameraDemo.obj
 0002:000016d0       ?pmField@?$CVarTypeInfo@PEAUIDispatch@@@ATL@@2QEQtagVARIANT@@PEAUIDispatch@@EQ3@ 00000001400276d0     GigeCameraDemo.obj
 0002:000016d4       ?VT@?$CVarTypeInfo@PEAPEAUIDispatch@@@ATL@@2GB 00000001400276d4     GigeCameraDemo.obj
 0002:000016d8       ?pmField@?$CVarTypeInfo@PEAPEAUIDispatch@@@ATL@@2QEQtagVARIANT@@PEAPEAUIDispatch@@EQ3@ 00000001400276d8     GigeCameraDemo.obj
 0002:000016dc       ?VT@?$CVarTypeInfo@TtagCY@@@ATL@@2GB 00000001400276dc     GigeCameraDemo.obj
 0002:000016e0       ?pmField@?$CVarTypeInfo@TtagCY@@@ATL@@2QEQtagVARIANT@@TtagCY@@EQ3@ 00000001400276e0     GigeCameraDemo.obj
 0002:000016e4       ?VT@?$CVarTypeInfo@PEATtagCY@@@ATL@@2GB 00000001400276e4     GigeCameraDemo.obj
 0002:000016e8       ?pmField@?$CVarTypeInfo@PEATtagCY@@@ATL@@2QEQtagVARIANT@@PEATtagCY@@EQ3@ 00000001400276e8     GigeCameraDemo.obj
 0002:000016ec       ?c_bIsMFCDLLTraits@?$_MFCDLLTraitsCheck@DV?$StrTraitMFC_DLL@DV?$ChTraitsCRT@D@ATL@@@@@_CSTRING_IMPL_@ATL@@2_NB 00000001400276ec     GigeCameraDemo.obj
 0002:000016ed       ?c_bIsMFCDLLTraits@?$_MFCDLLTraitsCheck@_WV?$StrTraitMFC_DLL@_WV?$ChTraitsCRT@_W@ATL@@@@@_CSTRING_IMPL_@ATL@@2_NB 00000001400276ed     GigeCameraDemo.obj
 0002:000016f0       ?generic@CArchiveException@@2HB 00000001400276f0     GigeCameraDemo.obj
 0002:000016f4       ?generic@CFileException@@2HB 00000001400276f4     GigeCameraDemo.obj
 0002:000016f8       ?Millisecond@CFileTime@ATL@@2_KB 00000001400276f8     GigeCameraDemo.obj
 0002:00001708       ?Second@CFileTime@ATL@@2_KB 0000000140027708     GigeCameraDemo.obj
 0002:00001718       ?Minute@CFileTime@ATL@@2_KB 0000000140027718     GigeCameraDemo.obj
 0002:00001728       ?Hour@CFileTime@ATL@@2_KB  0000000140027728     GigeCameraDemo.obj
 0002:00001738       ?Day@CFileTime@ATL@@2_KB   0000000140027738     GigeCameraDemo.obj
 0002:00001748       ?Week@CFileTime@ATL@@2_KB  0000000140027748     GigeCameraDemo.obj
 0002:00001758       ?szInvalidDateTime@ATL@@3QEBDEB 0000000140027758     GigeCameraDemo.obj
 0002:00001768       ?szInvalidDateTimeSpan@ATL@@3QEBDEB 0000000140027768     GigeCameraDemo.obj
 0002:00001778       LIBID_ATLLib               0000000140027778     GigeCameraDemo.obj
 0002:00001790       CLSID_Registrar            0000000140027790     GigeCameraDemo.obj
 0002:000017a8       IID_IRegistrar             00000001400277a8     GigeCameraDemo.obj
 0002:000017c0       IID_IAxWinHostWindow       00000001400277c0     GigeCameraDemo.obj
 0002:000017d8       IID_IAxWinAmbientDispatch  00000001400277d8     GigeCameraDemo.obj
 0002:000017f0       IID_IInternalConnection    00000001400277f0     GigeCameraDemo.obj
 0002:00001808       IID_IDocHostUIHandlerDispatch 0000000140027808     GigeCameraDemo.obj
 0002:00001820       IID_IAxWinHostWindowLic    0000000140027820     GigeCameraDemo.obj
 0002:00001838       IID_IAxWinAmbientDispatchEx 0000000140027838     GigeCameraDemo.obj
 0002:0000184c       ?MAX_VALUE@CRegParser@ATL@@1HB 000000014002784c     GigeCameraDemo.obj
 0002:00001850       ?MAX_TYPE@CRegParser@ATL@@1HB 0000000140027850     GigeCameraDemo.obj
 0002:00001860       ?rgszNeverDelete@CRegParser@ATL@@1QBQEBDB 0000000140027860     GigeCameraDemo.obj
 0002:000018d4       ?cbNeverDelete@CRegParser@ATL@@1HB 00000001400278d4     GigeCameraDemo.obj
 0002:000018d8       ?c_bIsMFCDLLTraits@?$_MFCDLLTraitsCheck@DV?$StrTraitATL@DV?$ChTraitsCRT@D@ATL@@@ATL@@@_CSTRING_IMPL_@ATL@@2_NB 00000001400278d8     GigeCameraDemo.obj
 0002:000018d9       ?c_bIsMFCDLLTraits@?$_MFCDLLTraitsCheck@_WV?$StrTraitATL@_WV?$ChTraitsCRT@_W@ATL@@@ATL@@@_CSTRING_IMPL_@ATL@@2_NB 00000001400278d9     GigeCameraDemo.obj
 0002:000018e0       ?CLSID_WinFormsControl@@3U_GUID@@B 00000001400278e0     GigeCameraDemo.obj
 0002:000018f4       ?createAlphaChannel@CImage@ATL@@2KB 00000001400278f4     GigeCameraDemo.obj
 0002:000018f8       ?excludeGIF@CImage@ATL@@2KB 00000001400278f8     GigeCameraDemo.obj
 0002:000018fc       ?excludeBMP@CImage@ATL@@2KB 00000001400278fc     GigeCameraDemo.obj
 0002:00001900       ?excludeEMF@CImage@ATL@@2KB 0000000140027900     GigeCameraDemo.obj
 0002:00001904       ?excludeWMF@CImage@ATL@@2KB 0000000140027904     GigeCameraDemo.obj
 0002:00001908       ?excludeJPEG@CImage@ATL@@2KB 0000000140027908     GigeCameraDemo.obj
 0002:0000190c       ?excludePNG@CImage@ATL@@2KB 000000014002790c     GigeCameraDemo.obj
 0002:00001910       ?excludeTIFF@CImage@ATL@@2KB 0000000140027910     GigeCameraDemo.obj
 0002:00001914       ?excludeIcon@CImage@ATL@@2KB 0000000140027914     GigeCameraDemo.obj
 0002:00001918       ?excludeOther@CImage@ATL@@2KB 0000000140027918     GigeCameraDemo.obj
 0002:0000191c       ?excludeDefaultLoad@CImage@ATL@@2KB 000000014002791c     GigeCameraDemo.obj
 0002:00001920       ?excludeDefaultSave@CImage@ATL@@2KB 0000000140027920     GigeCameraDemo.obj
 0002:00001924       ?excludeValid@CImage@ATL@@2KB 0000000140027924     GigeCameraDemo.obj
 0002:00001928       ?value@?$integral_constant@_N$0A@@tr1@std@@2_NB 0000000140027928     GigeCameraDemo.obj
 0002:00001929       ?value@?$integral_constant@_N$00@tr1@std@@2_NB 0000000140027929     GigeCameraDemo.obj
 0002:00001930       ?value@?$integral_constant@_K$0A@@tr1@std@@2_KB 0000000140027930     GigeCameraDemo.obj
 0002:0000193c       ?_Rank@?$_Arithmetic_traits@_N@std@@2HB 000000014002793c     GigeCameraDemo.obj
 0002:00001940       ?_Rank@?$_Arithmetic_traits@D@std@@2HB 0000000140027940     GigeCameraDemo.obj
 0002:00001944       ?_Rank@?$_Arithmetic_traits@C@std@@2HB 0000000140027944     GigeCameraDemo.obj
 0002:00001948       ?_Rank@?$_Arithmetic_traits@E@std@@2HB 0000000140027948     GigeCameraDemo.obj
 0002:0000194c       ?_Rank@?$_Arithmetic_traits@F@std@@2HB 000000014002794c     GigeCameraDemo.obj
 0002:00001950       ?_Rank@?$_Arithmetic_traits@G@std@@2HB 0000000140027950     GigeCameraDemo.obj
 0002:00001954       ?_Rank@?$_Arithmetic_traits@H@std@@2HB 0000000140027954     GigeCameraDemo.obj
 0002:00001958       ?_Rank@?$_Arithmetic_traits@I@std@@2HB 0000000140027958     GigeCameraDemo.obj
 0002:0000195c       ?_Rank@?$_Arithmetic_traits@J@std@@2HB 000000014002795c     GigeCameraDemo.obj
 0002:00001960       ?_Rank@?$_Arithmetic_traits@K@std@@2HB 0000000140027960     GigeCameraDemo.obj
 0002:00001964       ?_Rank@?$_Arithmetic_traits@_J@std@@2HB 0000000140027964     GigeCameraDemo.obj
 0002:00001968       ?_Rank@?$_Arithmetic_traits@_K@std@@2HB 0000000140027968     GigeCameraDemo.obj
 0002:0000196c       ?_Rank@?$_Arithmetic_traits@M@std@@2HB 000000014002796c     GigeCameraDemo.obj
 0002:00001970       ?_Rank@?$_Arithmetic_traits@N@std@@2HB 0000000140027970     GigeCameraDemo.obj
 0002:00001974       ?_Rank@?$_Arithmetic_traits@O@std@@2HB 0000000140027974     GigeCameraDemo.obj
 0002:00001978       ?collate@?$_Locbase@H@std@@2HB 0000000140027978     GigeCameraDemo.obj
 0002:0000197c       ?ctype@?$_Locbase@H@std@@2HB 000000014002797c     GigeCameraDemo.obj
 0002:00001980       ?monetary@?$_Locbase@H@std@@2HB 0000000140027980     GigeCameraDemo.obj
 0002:00001984       ?numeric@?$_Locbase@H@std@@2HB 0000000140027984     GigeCameraDemo.obj
 0002:00001988       ?time@?$_Locbase@H@std@@2HB 0000000140027988     GigeCameraDemo.obj
 0002:0000198c       ?messages@?$_Locbase@H@std@@2HB 000000014002798c     GigeCameraDemo.obj
 0002:00001990       ?all@?$_Locbase@H@std@@2HB 0000000140027990     GigeCameraDemo.obj
 0002:00001994       ?none@?$_Locbase@H@std@@2HB 0000000140027994     GigeCameraDemo.obj
 0002:00001998       ?skipws@?$_Iosb@H@std@@2W4_Fmtflags@12@B 0000000140027998     GigeCameraDemo.obj
 0002:0000199c       ?unitbuf@?$_Iosb@H@std@@2W4_Fmtflags@12@B 000000014002799c     GigeCameraDemo.obj
 0002:000019a0       ?uppercase@?$_Iosb@H@std@@2W4_Fmtflags@12@B 00000001400279a0     GigeCameraDemo.obj
 0002:000019a4       ?showbase@?$_Iosb@H@std@@2W4_Fmtflags@12@B 00000001400279a4     GigeCameraDemo.obj
 0002:000019a8       ?showpoint@?$_Iosb@H@std@@2W4_Fmtflags@12@B 00000001400279a8     GigeCameraDemo.obj
 0002:000019ac       ?showpos@?$_Iosb@H@std@@2W4_Fmtflags@12@B 00000001400279ac     GigeCameraDemo.obj
 0002:000019b0       ?left@?$_Iosb@H@std@@2W4_Fmtflags@12@B 00000001400279b0     GigeCameraDemo.obj
 0002:000019b4       ?right@?$_Iosb@H@std@@2W4_Fmtflags@12@B 00000001400279b4     GigeCameraDemo.obj
 0002:000019b8       ?internal@?$_Iosb@H@std@@2W4_Fmtflags@12@B 00000001400279b8     GigeCameraDemo.obj
 0002:000019bc       ?dec@?$_Iosb@H@std@@2W4_Fmtflags@12@B 00000001400279bc     GigeCameraDemo.obj
 0002:000019c0       ?oct@?$_Iosb@H@std@@2W4_Fmtflags@12@B 00000001400279c0     GigeCameraDemo.obj
 0002:000019c4       ?hex@?$_Iosb@H@std@@2W4_Fmtflags@12@B 00000001400279c4     GigeCameraDemo.obj
 0002:000019c8       ?scientific@?$_Iosb@H@std@@2W4_Fmtflags@12@B 00000001400279c8     GigeCameraDemo.obj
 0002:000019cc       ?fixed@?$_Iosb@H@std@@2W4_Fmtflags@12@B 00000001400279cc     GigeCameraDemo.obj
 0002:000019d0       ?hexfloat@?$_Iosb@H@std@@2W4_Fmtflags@12@B 00000001400279d0     GigeCameraDemo.obj
 0002:000019d4       ?boolalpha@?$_Iosb@H@std@@2W4_Fmtflags@12@B 00000001400279d4     GigeCameraDemo.obj
 0002:000019d8       ?_Stdio@?$_Iosb@H@std@@2W4_Fmtflags@12@B 00000001400279d8     GigeCameraDemo.obj
 0002:000019dc       ?adjustfield@?$_Iosb@H@std@@2W4_Fmtflags@12@B 00000001400279dc     GigeCameraDemo.obj
 0002:000019e0       ?basefield@?$_Iosb@H@std@@2W4_Fmtflags@12@B 00000001400279e0     GigeCameraDemo.obj
 0002:000019e4       ?floatfield@?$_Iosb@H@std@@2W4_Fmtflags@12@B 00000001400279e4     GigeCameraDemo.obj
 0002:000019e8       ?goodbit@?$_Iosb@H@std@@2W4_Iostate@12@B 00000001400279e8     GigeCameraDemo.obj
 0002:000019ec       ?eofbit@?$_Iosb@H@std@@2W4_Iostate@12@B 00000001400279ec     GigeCameraDemo.obj
 0002:000019f0       ?failbit@?$_Iosb@H@std@@2W4_Iostate@12@B 00000001400279f0     GigeCameraDemo.obj
 0002:000019f4       ?badbit@?$_Iosb@H@std@@2W4_Iostate@12@B 00000001400279f4     GigeCameraDemo.obj
 0002:000019f8       ?_Hardfail@?$_Iosb@H@std@@2W4_Iostate@12@B 00000001400279f8     GigeCameraDemo.obj
 0002:000019fc       ?in@?$_Iosb@H@std@@2W4_Openmode@12@B 00000001400279fc     GigeCameraDemo.obj
 0002:00001a00       ?out@?$_Iosb@H@std@@2W4_Openmode@12@B 0000000140027a00     GigeCameraDemo.obj
 0002:00001a04       ?ate@?$_Iosb@H@std@@2W4_Openmode@12@B 0000000140027a04     GigeCameraDemo.obj
 0002:00001a08       ?app@?$_Iosb@H@std@@2W4_Openmode@12@B 0000000140027a08     GigeCameraDemo.obj
 0002:00001a0c       ?trunc@?$_Iosb@H@std@@2W4_Openmode@12@B 0000000140027a0c     GigeCameraDemo.obj
 0002:00001a10       ?_Nocreate@?$_Iosb@H@std@@2W4_Openmode@12@B 0000000140027a10     GigeCameraDemo.obj
 0002:00001a14       ?_Noreplace@?$_Iosb@H@std@@2W4_Openmode@12@B 0000000140027a14     GigeCameraDemo.obj
 0002:00001a18       ?binary@?$_Iosb@H@std@@2W4_Openmode@12@B 0000000140027a18     GigeCameraDemo.obj
 0002:00001a1c       ?beg@?$_Iosb@H@std@@2W4_Seekdir@12@B 0000000140027a1c     GigeCameraDemo.obj
 0002:00001a20       ?cur@?$_Iosb@H@std@@2W4_Seekdir@12@B 0000000140027a20     GigeCameraDemo.obj
 0002:00001a24       ?end@?$_Iosb@H@std@@2W4_Seekdir@12@B 0000000140027a24     GigeCameraDemo.obj
 0002:00001a78       ??_7CGigeCameraDemoApp@@6B@ 0000000140027a78     GigeCameraDemo.obj
 0002:00001d58       ??_7Thank_you@Define_the_symbol__ATL_MIXED@@6B@ 0000000140027d58     GigeCameraDemo.obj
 0002:000030e8       ??_7CAboutDlg@@6B@         00000001400290e8     GigeCameraDemoDlg.obj
 0002:000034f8       ??_7CGigeCameraDemoDlg@@6BCImageExWndEventHandler@@@ 00000001400294f8     GigeCameraDemoDlg.obj
 0002:00003548       ??_7CGigeCameraDemoDlg@@6BCDialog@@@ 0000000140029548     GigeCameraDemoDlg.obj
 0002:00003ca8       __real@3ff0000000000000    0000000140029ca8     GigeCameraDemoDlg.obj
 0002:00003cb8       __real@4090000000000000    0000000140029cb8     GigeCameraDemoDlg.obj
 0002:00003cc8       __real@43f0000000000000    0000000140029cc8     GigeCameraDemoDlg.obj
 0002:00003cd8       __real@bff0000000000000    0000000140029cd8     GigeCameraDemoDlg.obj
 0002:00003ce8       __real@4024000000000000    0000000140029ce8     GigeCameraDemoDlg.obj
 0002:00003cf8       __real@4059000000000000    0000000140029cf8     GigeCameraDemoDlg.obj
 0002:00003d04       __real@41ccafec            0000000140029d04     GigeCameraDemoDlg.obj
 0002:00003d08       __real@41bcac08            0000000140029d08     GigeCameraDemoDlg.obj
 0002:00003d0c       __real@3f000000            0000000140029d0c     GigeCameraDemoDlg.obj
 0002:00003d10       __real@42c80000            0000000140029d10     GigeCameraDemoDlg.obj
 0002:00003d20       ??_7Image@Gdiplus@@6B@     0000000140029d20     GigeCameraDemoDlg.obj
 0002:00003da8       ??_7Bitmap@Gdiplus@@6B@    0000000140029da8     GigeCameraDemoDlg.obj
 0002:00003dc0       ??_C@_1KC@MLLNJEJG@?$AAC?$AA?3?$AA?2?$AAP?$AAr?$AAo?$AAg?$AAr?$AAa?$AAm?$AA?5?$AAF?$AAi?$AAl?$AAe?$AAs?$AA?5?$AA?$CI?$AAx?$AA8?$AA6?$AA?$CJ?$AA?2?$AAM?$AAi?$AAc?$AAr?$AAo?$AAs?$AAo?$AAf?$AAt@ 0000000140029dc0     GigeCameraDemoDlg.obj
 0002:00003e88       ??_C@_1BM@GBBOFEAE@?$AA_?$AA_?$AAa?$AAt?$AAl?$AA_?$AAc?$AAo?$AAn?$AAd?$AAV?$AAa?$AAl?$AA?$AA@ 0000000140029e88     GigeCameraDemoDlg.obj
 0002:00003eb0       ??_C@_1KC@GOLGKCDC@?$AAC?$AA?3?$AA?2?$AAP?$AAr?$AAo?$AAg?$AAr?$AAa?$AAm?$AA?5?$AAF?$AAi?$AAl?$AAe?$AAs?$AA?5?$AA?$CI?$AAx?$AA8?$AA6?$AA?$CJ?$AA?2?$AAM?$AAi?$AAc?$AAr?$AAo?$AAs?$AAo?$AAf?$AAt@ 0000000140029eb0     GigeCameraDemoDlg.obj
 0002:00003f74       ??_C@_13COJANIEC@?$AA0?$AA?$AA@ 0000000140029f74     GigeCameraDemoDlg.obj
 0002:00003fb0       ??_C@_1CE@FGAHNDKN@?$AAp?$AAd?$AAw?$AAB?$AAi?$AAt?$AAf?$AAi?$AAe?$AAl?$AAd?$AAs?$AA?5?$AA?$CB?$AA?$DN?$AA?5?$AA0?$AA?$AA@ 0000000140029fb0     GigeCameraDemoDlg.obj
 0002:00003fe0       ??_C@_1CG@FEPGENGG@?$AAe?$AAC?$AAo?$AAm?$AAp?$AAr?$AAe?$AAs?$AAs?$AAi?$AAo?$AAn?$AA?5?$AA?$DN?$AA?$DN?$AA?5?$AA0?$AAL?$AA?$AA@ 0000000140029fe0     GigeCameraDemoDlg.obj
 0002:00004010       ??_C@_1EK@DBKJJCBD@?$AA?$CI?$AAn?$AAB?$AAP?$AAP?$AA?5?$AA?$DN?$AA?$DN?$AA?5?$AA3?$AA2?$AA?$CJ?$AA?5?$AA?$CG?$AA?$CG?$AA?5?$AA?$CI?$AAe?$AAC?$AAo?$AAm?$AAp?$AAr?$AAe?$AAs?$AAs?$AAi?$AAo?$AAn?$AA?5?$AA?$DN?$AA?$DN@ 000000014002a010     GigeCameraDemoDlg.obj
 0002:00004070       ??_C@_1FK@DGBDPDJC@?$AA?$CI?$AAe?$AAC?$AAo?$AAm?$AAp?$AAr?$AAe?$AAs?$AAs?$AAi?$AAo?$AAn?$AA?5?$AA?$DN?$AA?$DN?$AA?5?$AA0?$AAL?$AA?$CJ?$AA?5?$AA?$HM?$AA?$HM?$AA?5?$AA?$CI?$AAe?$AAC?$AAo?$AAm?$AAp?$AAr?$AAe@ 000000014002a070     GigeCameraDemoDlg.obj
 0002:000040e0       ??_C@_1BK@OEIAGODJ@?$AAh?$AAB?$AAi?$AAt?$AAm?$AAa?$AAp?$AA?5?$AA?$CB?$AA?$DN?$AA?5?$AA0?$AA?$AA@ 000000014002a0e0     GigeCameraDemoDlg.obj
 0002:00004100       ??_C@_1BO@FPAPNJH@?$AAm?$AA_?$AAh?$AAB?$AAi?$AAt?$AAm?$AAa?$AAp?$AA?5?$AA?$DN?$AA?$DN?$AA?5?$AA0?$AA?$AA@ 000000014002a100     GigeCameraDemoDlg.obj
 0002:00004128       ??_C@_1BO@CCJGHGOM@?$AAI?$AAs?$AAD?$AAI?$AAB?$AAS?$AAe?$AAc?$AAt?$AAi?$AAo?$AAn?$AA?$CI?$AA?$CJ?$AA?$AA@ 000000014002a128     GigeCameraDemoDlg.obj
 0002:00004150       ??_C@_1BO@DIGCJMPB@?$AAm?$AA_?$AAh?$AAB?$AAi?$AAt?$AAm?$AAa?$AAp?$AA?5?$AA?$CB?$AA?$DN?$AA?5?$AA0?$AA?$AA@ 000000014002a150     GigeCameraDemoDlg.obj
 0002:00004178       ??_C@_1BI@FKNEIGBJ@?$AAI?$AAs?$AAI?$AAn?$AAd?$AAe?$AAx?$AAe?$AAd?$AA?$CI?$AA?$CJ?$AA?$AA@ 000000014002a178     GigeCameraDemoDlg.obj
 0002:00004198       ??_C@_1CK@PJAJJCOE@?$AAh?$AAB?$AAi?$AAt?$AAm?$AAa?$AAp?$AA?5?$AA?$DN?$AA?$DN?$AA?5?$AAm?$AA_?$AAh?$AAB?$AAi?$AAt?$AAm?$AAa?$AAp?$AA?$AA@ 000000014002a198     GigeCameraDemoDlg.obj
 0002:000041d0       ??_C@_1BG@CIIAFDOP@?$AAm?$AA_?$AAh?$AAD?$AAC?$AA?5?$AA?$CB?$AA?$DN?$AA?5?$AA0?$AA?$AA@ 000000014002a1d0     GigeCameraDemoDlg.obj
 0002:000041f0       ??_C@_1DG@OLMOJPIN@?$AAn?$AAB?$AAy?$AAt?$AAe?$AAs?$AA?5?$AA?$DN?$AA?$DN?$AA?5?$AAs?$AAi?$AAz?$AAe?$AAo?$AAf?$AA?$CI?$AA?5?$AAB?$AAI?$AAT?$AAM?$AAA?$AAP?$AA?5?$AA?$CJ?$AA?$AA@ 000000014002a1f0     GigeCameraDemoDlg.obj
 0002:00004230       __real@4073900000000000    000000014002a230     GigeCameraDemoDlg.obj
 0002:00004240       __real@4071a00000000000    000000014002a240     GigeCameraDemoDlg.obj
 0002:00004250       __real@4069000000000000    000000014002a250     GigeCameraDemoDlg.obj
 0002:00004260       __real@400921fb53c8d4f1    000000014002a260     GigeCameraDemoDlg.obj
 0002:00004270       __real@4076800000000000    000000014002a270     GigeCameraDemoDlg.obj
 0002:00004280       __real@403b000000000000    000000014002a280     GigeCameraDemoDlg.obj
 0002:00004290       __real@4066800000000000    000000014002a290     GigeCameraDemoDlg.obj
 0002:000042a0       __real@4014000000000000    000000014002a2a0     GigeCameraDemoDlg.obj
 0002:000042b0       __real@400b0a3d70a3d70a    000000014002a2b0     GigeCameraDemoDlg.obj
 0002:000042c0       __real@4045800000000000    000000014002a2c0     GigeCameraDemoDlg.obj
 0002:000042d0       __real@4047000000000000    000000014002a2d0     GigeCameraDemoDlg.obj
 0002:000042e0       __real@4048000000000000    000000014002a2e0     GigeCameraDemoDlg.obj
 0002:000042f0       __real@4049000000000000    000000014002a2f0     GigeCameraDemoDlg.obj
 0002:00004300       __real@404a000000000000    000000014002a300     GigeCameraDemoDlg.obj
 0002:00004310       __real@404b800000000000    000000014002a310     GigeCameraDemoDlg.obj
 0002:00004328       ??_7CImage@ATL@@6B@        000000014002a328     GigeCameraDemoDlg.obj
 0002:00004338       ??_C@_1BG@BFBCDCIJ@?$AAm?$AA_?$AAh?$AAD?$AAC?$AA?5?$AA?$DN?$AA?$DN?$AA?5?$AA0?$AA?$AA@ 000000014002a338     GigeCameraDemoDlg.obj
 0002:00004358       ??_C@_1BO@KLINPEPF@?$AAn?$AAS?$AAr?$AAc?$AAH?$AAe?$AAi?$AAg?$AAh?$AAt?$AA?5?$AA?$DO?$AA?5?$AA0?$AA?$AA@ 000000014002a358     GigeCameraDemoDlg.obj
 0002:00004380       ??_C@_1BM@IGLCNFPH@?$AAn?$AAS?$AAr?$AAc?$AAW?$AAi?$AAd?$AAt?$AAh?$AA?5?$AA?$DO?$AA?5?$AA0?$AA?$AA@ 000000014002a380     GigeCameraDemoDlg.obj
 0002:000043a8       ??_C@_1CA@HHFCOIAG@?$AAn?$AAD?$AAe?$AAs?$AAt?$AAH?$AAe?$AAi?$AAg?$AAh?$AAt?$AA?5?$AA?$DO?$AA?5?$AA0?$AA?$AA@ 000000014002a3a8     GigeCameraDemoDlg.obj
 0002:000043d0       ??_C@_1BO@CBMCNAPL@?$AAn?$AAD?$AAe?$AAs?$AAt?$AAW?$AAi?$AAd?$AAt?$AAh?$AA?5?$AA?$DO?$AA?5?$AA0?$AA?$AA@ 000000014002a3d0     GigeCameraDemoDlg.obj
 0002:00004400       ??_C@_1IG@LGFCKCFO@?$AAm?$AA_?$AAi?$AAT?$AAr?$AAa?$AAn?$AAs?$AAp?$AAa?$AAr?$AAe?$AAn?$AAt?$AAC?$AAo?$AAl?$AAo?$AAr?$AA?5?$AA?$CB?$AA?$DN?$AA?5?$AA?9?$AA1?$AA?5?$AA?$HM?$AA?$HM?$AA?5?$AAm?$AA_?$AAc@ 000000014002a400     GigeCameraDemoDlg.obj
 0002:00004500       ??_C@_0BF@IAAKIJDJ@AtlThrow?3?5hr?5?$DN?50x?$CFx?6?$AA@ 000000014002a500     GigeCameraDemoDlg.obj
 0002:00004520       ??_C@_0FC@NMCOPCAP@C?3?2Program?5Files?5?$CIx86?$CJ?2Microsoft@ 000000014002a520     GigeCameraDemoDlg.obj
 0002:00004ee0       ?classCInputDialog@CInputDialog@@2UCRuntimeClass@@B 000000014002aee0     InputDialog.obj
 0002:00004f28       ??_7CInputDialog@@6B@      000000014002af28     InputDialog.obj
 0002:00005d78       ?classCMessageDialog@CMessageDialog@@2UCRuntimeClass@@B 000000014002bd78     MessageDialog.obj
 0002:00005dc8       ??_7CMessageDialog@@6B@    000000014002bdc8     MessageDialog.obj
 0002:00007140       ??_7CSerialPort@@6B@       000000014002d140     SerialPort.obj
 0002:00007c70       ?classCSplashWnd@CSplashWnd@@2UCRuntimeClass@@B 000000014002dc70     SplashWnd.obj
 0002:00007cb8       ??_7CSplashWnd@@6B@        000000014002dcb8     SplashWnd.obj
 0002:000080b8       ??_C@_07KJLOKDKB@TypeLib?$AA@ 000000014002e0b8     mfcs100d:nolib.obj
 0002:000080c0       ??_C@_08KEKAJNJI@Software?$AA@ 000000014002e0c0     mfcs100d:nolib.obj
 0002:000080cc       ??_C@_06FDHFNJBJ@SYSTEM?$AA@ 000000014002e0cc     mfcs100d:nolib.obj
 0002:000080d8       ??_C@_08LOPHEHKG@SECURITY?$AA@ 000000014002e0d8     mfcs100d:nolib.obj
 0002:000080e4       ??_C@_03DDIMFGBA@SAM?$AA@  000000014002e0e4     mfcs100d:nolib.obj
 0002:000080e8       ??_C@_04IHBFOLAC@Mime?$AA@ 000000014002e0e8     mfcs100d:nolib.obj
 0002:000080f0       ??_C@_08PPIOJEA@Hardware?$AA@ 000000014002e0f0     mfcs100d:nolib.obj
 0002:00008100       ??_C@_09JKPGEJCH@Interface?$AA@ 000000014002e100     mfcs100d:nolib.obj
 0002:00008110       ??_C@_08PICKODJL@FileType?$AA@ 000000014002e110     mfcs100d:nolib.obj
 0002:00008120       ??_C@_0BF@HDDNNDFH@Component?5Categories?$AA@ 000000014002e120     mfcs100d:nolib.obj
 0002:00008138       ??_C@_05GIBEAPNE@CLSID?$AA@ 000000014002e138     mfcs100d:nolib.obj
 0002:00008140       ??_C@_05PDIKPLII@AppID?$AA@ 000000014002e140     mfcs100d:nolib.obj
 0002:00008148       ??_C@_06JBKGCNBB@Delete?$AA@ 000000014002e148     mfcs100d:nolib.obj
 0002:00008150       ??_C@_08KAAPDIAN@NoRemove?$AA@ 000000014002e150     mfcs100d:nolib.obj
 0002:00008160       ??_C@_0M@DBGDLGLL@ForceRemove?$AA@ 000000014002e160     mfcs100d:nolib.obj
 0002:0000816c       ??_C@_03LAIAPFCB@Val?$AA@  000000014002e16c     mfcs100d:nolib.obj
 0002:00008170       ??_C@_01HMGJMAIH@B?$AA@    000000014002e170     mfcs100d:nolib.obj
 0002:00008174       ??_C@_01CKDDGHAB@D?$AA@    000000014002e174     mfcs100d:nolib.obj
 0002:00008178       ??_C@_01PLPBNMEI@M?$AA@    000000014002e178     mfcs100d:nolib.obj
 0002:0000817c       ??_C@_01CPLAODJH@S?$AA@    000000014002e17c     mfcs100d:nolib.obj
 0002:00008180       ??_C@_0BF@GPPHKJFN@Invalid?5DateTimeSpan?$AA@ 000000014002e180     mfcs100d:nolib.obj
 0002:00008198       ??_C@_0BB@KEKMKJPM@Invalid?5DateTime?$AA@ 000000014002e198     mfcs100d:nolib.obj
 0002:00008238       ??_7type_info@@6B@         000000014002e238     msvcrtd:ti_inst.obj
 0002:00008240       ??_C@_1GK@CJIHEMBP@?$AAf?$AA?3?$AA?2?$AAd?$AAd?$AA?2?$AAv?$AAc?$AAt?$AAo?$AAo?$AAl?$AAs?$AA?2?$AAc?$AAr?$AAt?$AA_?$AAb?$AAl?$AAd?$AA?2?$AAs?$AAe?$AAl?$AAf?$AA_?$AA6?$AA4?$AA_?$AAa?$AAm@ 000000014002e240     msvcrtd:crtexew.obj
 0002:000082b0       ??_C@_1FA@DALEHHGL@?$AA_?$AA_?$AAn?$AAa?$AAt?$AAi?$AAv?$AAe?$AA_?$AAs?$AAt?$AAa?$AAr?$AAt?$AAu?$AAp?$AA_?$AAs?$AAt?$AAa?$AAt?$AAe?$AA?5?$AA?$DN?$AA?$DN?$AA?5?$AA_?$AA_?$AAi?$AAn?$AAi?$AAt@ 000000014002e2b0     msvcrtd:crtexew.obj
 0002:00008310       ?ProcessDetach@NativeDll@<CrtImplementationDetails>@@0IB 000000014002e310     msvcrtd:unhandld.obj
 0002:00008314       ?ProcessAttach@NativeDll@<CrtImplementationDetails>@@0IB 000000014002e314     msvcrtd:unhandld.obj
 0002:00008318       ?ThreadAttach@NativeDll@<CrtImplementationDetails>@@0IB 000000014002e318     msvcrtd:unhandld.obj
 0002:0000831c       ?ThreadDetach@NativeDll@<CrtImplementationDetails>@@0IB 000000014002e31c     msvcrtd:unhandld.obj
 0002:00008320       ?ProcessVerifier@NativeDll@<CrtImplementationDetails>@@0IB 000000014002e320     msvcrtd:unhandld.obj
 0002:00008328       ??_C@_1BK@NHHHCKNA@?$AAm?$AA_?$AAt?$AAi?$AAm?$AAe?$AA?5?$AA?$CB?$AA?$DN?$AA?5?$AA?9?$AA1?$AA?$AA@ 000000014002e328     atlsd:atltime.obj
 0002:00008350       ??_C@_1GM@GOMCALCH@?$AAf?$AA?3?$AA?2?$AAd?$AAd?$AA?2?$AAv?$AAc?$AAt?$AAo?$AAo?$AAl?$AAs?$AA?2?$AAv?$AAc?$AA7?$AAl?$AAi?$AAb?$AAs?$AA?2?$AAs?$AAh?$AAi?$AAp?$AA?2?$AAa?$AAt?$AAl?$AAm?$AAf@ 000000014002e350     atlsd:atltime.obj
 0002:000083c0       ??_C@_1GM@OMLOBEGL@?$AAf?$AA?3?$AA?2?$AAd?$AAd?$AA?2?$AAv?$AAc?$AAt?$AAo?$AAo?$AAl?$AAs?$AA?2?$AAv?$AAc?$AA7?$AAl?$AAi?$AAb?$AAs?$AA?2?$AAs?$AAh?$AAi?$AAp?$AA?2?$AAa?$AAt?$AAl?$AAm?$AAf@ 000000014002e3c0     atlsd:atltime.obj
 0002:00008430       ??_C@_1M@HLGKFCJM@?$AAf?$AAa?$AAl?$AAs?$AAe?$AA?$AA@ 000000014002e430     atlsd:atltime.obj
 0002:00008440       ??_C@_0DG@BLHODJEO@f?3?2dd?2vctools?2vc7libs?2ship?2atlmf@ 000000014002e440     atlsd:atltime.obj
 0002:00008478       ??_C@_0BA@MKMIKKJB@atlTraceGeneral?$AA@ 000000014002e478     atlsd:atltrace.obj
 0002:00008488       ??_C@_0M@DGPFJEBB@atlTraceCOM?$AA@ 000000014002e488     atlsd:atltrace.obj
 0002:00008498       ??_C@_0L@LHELAKBP@atlTraceQI?$AA@ 000000014002e498     atlsd:atltrace.obj
 0002:000084a8       ??_C@_0BC@MALHFBAO@atlTraceRegistrar?$AA@ 000000014002e4a8     atlsd:atltrace.obj
 0002:000084c0       ??_C@_0BB@ILPPDKFL@atlTraceRefcount?$AA@ 000000014002e4c0     atlsd:atltrace.obj
 0002:000084d8       ??_C@_0BC@DGHHNKDC@atlTraceWindowing?$AA@ 000000014002e4d8     atlsd:atltrace.obj
 0002:000084f0       ??_C@_0BB@GHKJKKIE@atlTraceControls?$AA@ 000000014002e4f0     atlsd:atltrace.obj
 0002:00008508       ??_C@_0BA@DKOAAGGM@atlTraceHosting?$AA@ 000000014002e508     atlsd:atltrace.obj
 0002:00008518       ??_C@_0BB@BEBMGMDO@atlTraceDBClient?$AA@ 000000014002e518     atlsd:atltrace.obj
 0002:00008530       ??_C@_0BD@KOADKDIA@atlTraceDBProvider?$AA@ 000000014002e530     atlsd:atltrace.obj
 0002:00008548       ??_C@_0P@LNEGBOLO@atlTraceSnapin?$AA@ 000000014002e548     atlsd:atltrace.obj
 0002:00008558       ??_C@_0BA@MCBFIDIC@atlTraceNotImpl?$AA@ 000000014002e558     atlsd:atltrace.obj
 0002:00008568       ??_C@_0BD@PJPCCAKP@atlTraceAllocation?$AA@ 000000014002e568     atlsd:atltrace.obj
 0002:00008580       ??_C@_0BC@PGMFNIFA@atlTraceException?$AA@ 000000014002e580     atlsd:atltrace.obj
 0002:00008598       ??_C@_0N@BNNILHBE@atlTraceTime?$AA@ 000000014002e598     atlsd:atltrace.obj
 0002:000085a8       ??_C@_0O@MEOJAOKK@atlTraceCache?$AA@ 000000014002e5a8     atlsd:atltrace.obj
 0002:000085b8       ??_C@_0BA@IDBKCKK@atlTraceStencil?$AA@ 000000014002e5b8     atlsd:atltrace.obj
 0002:000085c8       ??_C@_0P@MBNHGHMI@atlTraceString?$AA@ 000000014002e5c8     atlsd:atltrace.obj
 0002:000085d8       ??_C@_0M@IOBBMAHG@atlTraceMap?$AA@ 000000014002e5d8     atlsd:atltrace.obj
 0002:000085e8       ??_C@_0N@FEAAACHD@atlTraceUtil?$AA@ 000000014002e5e8     atlsd:atltrace.obj
 0002:000085f8       ??_C@_0BB@DNJDADMG@atlTraceSecurity?$AA@ 000000014002e5f8     atlsd:atltrace.obj
 0002:00008610       ??_C@_0N@KLPNCFEE@atlTraceSync?$AA@ 000000014002e610     atlsd:atltrace.obj
 0002:00008620       ??_C@_0O@KHOBHOBJ@atlTraceISAPI?$AA@ 000000014002e620     atlsd:atltrace.obj
 0002:00008630       ??_C@_0N@BEIMPMHB@atlTraceUser?$AA@ 000000014002e630     atlsd:atltrace.obj
 0002:00008640       ??_C@_0O@MKGGJJCH@atlTraceUser2?$AA@ 000000014002e640     atlsd:atltrace.obj
 0002:00008650       ??_C@_0O@NDHNKIGG@atlTraceUser3?$AA@ 000000014002e650     atlsd:atltrace.obj
 0002:00008660       ??_C@_0O@JMDMDOKB@atlTraceUser4?$AA@ 000000014002e660     atlsd:atltrace.obj
 0002:00008670       ??_C@_06JMICFIKN@?$CFs_?$CF0x?$AA@ 000000014002e670     atlsd:Externs.obj
 0002:00008678       ??_C@_0CM@OGPEFHLG@AtlDebugAllocator_FileMappingNam@ 000000014002e678     atlsd:Externs.obj
 0002:000086a8       ??_C@_0CN@PLNFEEEE@AtlTraceModuleManager_ProcessAdd@ 000000014002e6a8     atlsd:Externs.obj
 0002:000086e0       ??_C@_1HO@MNFHLCLF@?$AAf?$AA?3?$AA?2?$AAd?$AAd?$AA?2?$AAv?$AAc?$AAt?$AAo?$AAo?$AAl?$AAs?$AA?2?$AAv?$AAc?$AA7?$AAl?$AAi?$AAb?$AAs?$AA?2?$AAs?$AAh?$AAi?$AAp?$AA?2?$AAa?$AAt?$AAl?$AAm?$AAf@ 000000014002e6e0     atlsd:AtlDebugAPI.obj
 0002:00008760       ??_C@_1BK@LIHAAANN@?$AAp?$AAM?$AAo?$AAd?$AAu?$AAl?$AAe?$AA?5?$AA?$CB?$AA?$DN?$AA?5?$AA0?$AA?$AA@ 000000014002e760     atlsd:AtlDebugAPI.obj
 0002:00008780       ??_C@_1BM@DFEBCPM@?$AAp?$AAP?$AAr?$AAo?$AAc?$AAe?$AAs?$AAs?$AA?5?$AA?$CB?$AA?$DN?$AA?5?$AA0?$AA?$AA@ 000000014002e780     atlsd:AtlDebugAPI.obj
 0002:0000879c       ??_C@_02DKCKIIND@?$CFs?$AA@ 000000014002e79c     atlsd:AtlDebugAPI.obj
 0002:000087a0       ??_C@_04FFDMEMDO@?$CFS?3?5?$AA@ 000000014002e7a0     atlsd:AtlDebugAPI.obj
 0002:000087a8       ??_C@_09IIMHCEDG@?$CFs?$CI?$CFd?$CJ?5?3?5?$AA@ 000000014002e7a8     atlsd:AtlDebugAPI.obj
 0002:000087b4       ??_C@_02KPKOKMHB@?$CFS?$AA@ 000000014002e7b4     atlsd:AtlDebugAPI.obj
 0002:000087b8       ??_C@_19JCANECJL@?$AA?$CF?$AAs?$AA?3?$AA?5?$AA?$AA@ 000000014002e7b8     atlsd:AtlDebugAPI.obj
 0002:000087c8       ??_C@_1BE@PGKGHBDF@?$AA?$CF?$AAS?$AA?$CI?$AA?$CF?$AAd?$AA?$CJ?$AA?5?$AA?3?$AA?5?$AA?$AA@ 000000014002e7c8     atlsd:AtlDebugAPI.obj
 0002:000087e0       ??_C@_1DA@NMHCLMEJ@?$AAp?$AAA?$AAl?$AAl?$AAo?$AAc?$AAa?$AAt?$AAo?$AAr?$AA?9?$AA?$DO?$AAm?$AA_?$AAb?$AAS?$AAn?$AAa?$AAp?$AAs?$AAh?$AAo?$AAt?$AA?$AA@ 000000014002e7e0     atlsd:AtlDebugAPI.obj
 0002:00008810       ??_C@_1CE@NDBHOLMF@?$AAp?$AAP?$AAr?$AAo?$AAc?$AAe?$AAs?$AAs?$AAI?$AAn?$AAf?$AAo?$AA?5?$AA?$CB?$AA?$DN?$AA?5?$AA0?$AA?$AA@ 000000014002e810     atlsd:AtlDebugAPI.obj
 0002:00008838       ??_C@_1CC@ONKAHKMP@?$AAp?$AAM?$AAo?$AAd?$AAu?$AAl?$AAe?$AAI?$AAn?$AAf?$AAo?$AA?5?$AA?$CB?$AA?$DN?$AA?5?$AA0?$AA?$AA@ 000000014002e838     atlsd:AtlDebugAPI.obj
 0002:00008860       ??_C@_1CG@BANGGBIE@?$AAp?$AAC?$AAa?$AAt?$AAe?$AAg?$AAo?$AAr?$AAy?$AAI?$AAn?$AAf?$AAo?$AA?5?$AA?$CB?$AA?$DN?$AA?5?$AA0?$AA?$AA@ 000000014002e860     atlsd:AtlDebugAPI.obj
 0002:00008888       ??_C@_1BC@JOPFIJLO@?$AAp?$AAP?$AAr?$AAo?$AAc?$AAe?$AAs?$AAs?$AA?$AA@ 000000014002e888     atlsd:AtlDebugAPI.obj
 0002:000088a0       ??_C@_1DM@CECLCIOA@?$AAp?$AAp?$AAC?$AAa?$AAt?$AAe?$AAg?$AAo?$AAr?$AAy?$AA?5?$AA?$CG?$AA?$CG?$AA?5?$AAp?$AAf?$AAn?$AAC?$AAr?$AAt?$AAD?$AAb?$AAg?$AAR?$AAe?$AAp?$AAo?$AAr?$AAt?$AA?$AA@ 000000014002e8a0     atlsd:AtlDebugAPI.obj
 0002:000088e0       ??_C@_1HA@EFGOBFOA@?$AAf?$AA?3?$AA?2?$AAd?$AAd?$AA?2?$AAv?$AAc?$AAt?$AAo?$AAo?$AAl?$AAs?$AA?2?$AAv?$AAc?$AA7?$AAl?$AAi?$AAb?$AAs?$AA?2?$AAs?$AAh?$AAi?$AAp?$AA?2?$AAa?$AAt?$AAl?$AAm?$AAf@ 000000014002e8e0     atlsd:AtlDebugAPI.obj
 0002:00008950       ??_C@_1EA@JHMKKLFC@?$AAn?$AAI?$AAn?$AAd?$AAe?$AAx?$AA?5?$AA?$DO?$AA?$DN?$AA?5?$AA0?$AA?5?$AA?$CG?$AA?$CG?$AA?5?$AAn?$AAI?$AAn?$AAd?$AAe?$AAx?$AA?5?$AA?$DM?$AA?5?$AAm?$AA_?$AAn?$AAS?$AAi?$AAz?$AAe?$AA?$AA@ 000000014002e950     atlsd:AtlDebugAPI.obj
 0002:00008990       ??_C@_1GI@CLJCGCPP@?$AAf?$AA?3?$AA?2?$AAd?$AAd?$AA?2?$AAv?$AAc?$AAt?$AAo?$AAo?$AAl?$AAs?$AA?2?$AAv?$AAc?$AA7?$AAl?$AAi?$AAb?$AAs?$AA?2?$AAs?$AAh?$AAi?$AAp?$AA?2?$AAa?$AAt?$AAl?$AAm?$AAf@ 000000014002e990     atlsd:AtlDebugAPI.obj
 0002:000089f8       ??_C@_1BC@PMINONJG@?$AAb?$AAS?$AAu?$AAc?$AAc?$AAe?$AAs?$AAs?$AA?$AA@ 000000014002e9f8     atlsd:Allocate.obj
 0002:00008a10       ??_C@_1HI@MDMANKNC@?$AAf?$AA?3?$AA?2?$AAd?$AAd?$AA?2?$AAv?$AAc?$AAt?$AAo?$AAo?$AAl?$AAs?$AA?2?$AAv?$AAc?$AA7?$AAl?$AAi?$AAb?$AAs?$AA?2?$AAs?$AAh?$AAi?$AAp?$AA?2?$AAa?$AAt?$AAl?$AAm?$AAf@ 000000014002ea10     atlsd:Allocate.obj
 0002:00008a88       ??_C@_1DG@LHMNHOH@?$AA?$CB?$AAm?$AA_?$AAh?$AAM?$AAa?$AAp?$AA?5?$AA?$CG?$AA?$CG?$AA?5?$AA?$CB?$AAm?$AA_?$AAp?$AAB?$AAu?$AAf?$AAf?$AAe?$AAr?$AAS?$AAt?$AAa?$AAr?$AAt?$AA?$AA@ 000000014002ea88     atlsd:Allocate.obj
 0002:00008ac0       ??_C@_1CC@JCNIBNON@?$AAi?$AAM?$AAo?$AAd?$AAu?$AAl?$AAe?$AA?5?$AA?$DM?$AA?5?$AAm?$AAo?$AAd?$AAc?$AAn?$AAt?$AA?$AA@ 000000014002eac0     atlsd:Allocate.obj
 0002:00008af0       ??_C@_1HO@KONLCGL@?$AA?$CI?$AAi?$AAC?$AAa?$AAt?$AAe?$AAg?$AAo?$AAr?$AAy?$AA?5?$AA?$DM?$AA?5?$AAm?$AA_?$AAp?$AAP?$AAr?$AAo?$AAc?$AAe?$AAs?$AAs?$AA?9?$AA?$DO?$AAC?$AAa?$AAt?$AAe?$AAg?$AAo?$AAr@ 000000014002eaf0     atlsd:Allocate.obj
 0002:00008b70       ??_C@_1BG@EIHNOMMF@?$AAm?$AA_?$AAp?$AAP?$AAr?$AAo?$AAc?$AAe?$AAs?$AAs?$AA?$AA@ 000000014002eb70     atlsd:Allocate.obj
 0002:00008b90       ??_C@_1IO@GJLKCBCE@?$AAf?$AA?3?$AA?2?$AAd?$AAd?$AA?2?$AAv?$AAc?$AAt?$AAo?$AAo?$AAl?$AAs?$AA?2?$AAv?$AAc?$AA7?$AAl?$AAi?$AAb?$AAs?$AA?2?$AAs?$AAh?$AAi?$AAp?$AA?2?$AAa?$AAt?$AAl?$AAm?$AAf@ 000000014002eb90     atlsd:Allocate.obj
 0002:00008c20       ??_C@_1BK@GFEAMNLJ@?$AAn?$AAC?$AAo?$AAo?$AAk?$AAi?$AAe?$AA?5?$AA?$CB?$AA?$DN?$AA?5?$AA0?$AA?$AA@ 000000014002ec20     atlsd:Allocate.obj
 0002:00008c40       ??_C@_1BO@OAGIAJOK@?$AAp?$AAC?$AAa?$AAt?$AAe?$AAg?$AAo?$AAr?$AAy?$AA?5?$AA?$CB?$AA?$DN?$AA?5?$AA0?$AA?$AA@ 000000014002ec40     atlsd:Allocate.obj
 0002:00008c60       ??_C@_11LOCGONAA@?$AA?$AA@ 000000014002ec60     atlsd:AtlTraceModuleManager.obj
 0002:00008ca8       ??_C@_0DH@EMOHNEGB@f?3?2dd?2vctools?2vc7libs?2ship?2atlmf@ 000000014002eca8     mfcs100d:appmodul.obj
 0002:00009330       ??_R4CGigeCameraDemoApp@@6B@ 000000014002f330     GigeCameraDemo.obj
 0002:00009360       ??_R3CGigeCameraDemoApp@@8 000000014002f360     GigeCameraDemo.obj
 0002:00009378       ??_R2CGigeCameraDemoApp@@8 000000014002f378     GigeCameraDemo.obj
 0002:000093b0       ??_R1A@?0A@EA@CGigeCameraDemoApp@@8 000000014002f3b0     GigeCameraDemo.obj
 0002:000093e0       ??_R1A@?0A@EA@CWinApp@@8   000000014002f3e0     GigeCameraDemo.obj
 0002:00009410       ??_R3CWinApp@@8            000000014002f410     GigeCameraDemo.obj
 0002:00009428       ??_R2CWinApp@@8            000000014002f428     GigeCameraDemo.obj
 0002:00009458       ??_R1A@?0A@EA@CWinThread@@8 000000014002f458     GigeCameraDemo.obj
 0002:00009488       ??_R3CWinThread@@8         000000014002f488     GigeCameraDemo.obj
 0002:000094a0       ??_R2CWinThread@@8         000000014002f4a0     GigeCameraDemo.obj
 0002:000094c8       ??_R1A@?0A@EA@CCmdTarget@@8 000000014002f4c8     GigeCameraDemo.obj
 0002:000094f8       ??_R3CCmdTarget@@8         000000014002f4f8     GigeCameraDemo.obj
 0002:00009510       ??_R2CCmdTarget@@8         000000014002f510     GigeCameraDemo.obj
 0002:00009528       ??_R1A@?0A@EA@CObject@@8   000000014002f528     GigeCameraDemo.obj
 0002:00009558       ??_R3CObject@@8            000000014002f558     GigeCameraDemo.obj
 0002:00009570       ??_R2CObject@@8            000000014002f570     GigeCameraDemo.obj
 0002:00009580       ??_R4Thank_you@Define_the_symbol__ATL_MIXED@@6B@ 000000014002f580     GigeCameraDemo.obj
 0002:000095b0       ??_R3Thank_you@Define_the_symbol__ATL_MIXED@@8 000000014002f5b0     GigeCameraDemo.obj
 0002:000095c8       ??_R2Thank_you@Define_the_symbol__ATL_MIXED@@8 000000014002f5c8     GigeCameraDemo.obj
 0002:000095d8       ??_R1A@?0A@EA@Thank_you@Define_the_symbol__ATL_MIXED@@8 000000014002f5d8     GigeCameraDemo.obj
 0002:00009608       ??_R4CAboutDlg@@6B@        000000014002f608     GigeCameraDemoDlg.obj
 0002:00009638       ??_R3CAboutDlg@@8          000000014002f638     GigeCameraDemoDlg.obj
 0002:00009650       ??_R2CAboutDlg@@8          000000014002f650     GigeCameraDemoDlg.obj
 0002:00009688       ??_R1A@?0A@EA@CAboutDlg@@8 000000014002f688     GigeCameraDemoDlg.obj
 0002:000096b8       ??_R1A@?0A@EA@CDialog@@8   000000014002f6b8     GigeCameraDemoDlg.obj
 0002:000096e8       ??_R3CDialog@@8            000000014002f6e8     GigeCameraDemoDlg.obj
 0002:00009700       ??_R2CDialog@@8            000000014002f700     GigeCameraDemoDlg.obj
 0002:00009730       ??_R1A@?0A@EA@CWnd@@8      000000014002f730     GigeCameraDemoDlg.obj
 0002:00009760       ??_R3CWnd@@8               000000014002f760     GigeCameraDemoDlg.obj
 0002:00009778       ??_R2CWnd@@8               000000014002f778     GigeCameraDemoDlg.obj
 0002:000097a0       ??_R4CGigeCameraDemoDlg@@6BCDialog@@@ 000000014002f7a0     GigeCameraDemoDlg.obj
 0002:000097d0       ??_R3CGigeCameraDemoDlg@@8 000000014002f7d0     GigeCameraDemoDlg.obj
 0002:000097e8       ??_R2CGigeCameraDemoDlg@@8 000000014002f7e8     GigeCameraDemoDlg.obj
 0002:00009830       ??_R1A@?0A@EA@CGigeCameraDemoDlg@@8 000000014002f830     GigeCameraDemoDlg.obj
 0002:00009860       ??_R1BBI@?0A@EA@CImageExWndEventHandler@@8 000000014002f860     GigeCameraDemoDlg.obj
 0002:00009890       ??_R3CImageExWndEventHandler@@8 000000014002f890     GigeCameraDemoDlg.obj
 0002:000098a8       ??_R2CImageExWndEventHandler@@8 000000014002f8a8     GigeCameraDemoDlg.obj
 0002:000098c0       ??_R1A@?0A@EA@CImageExWndEventHandler@@8 000000014002f8c0     GigeCameraDemoDlg.obj
 0002:000098f0       ??_R1A@?0A@EA@CImageViewportWndEventHandler@@8 000000014002f8f0     GigeCameraDemoDlg.obj
 0002:00009920       ??_R3CImageViewportWndEventHandler@@8 000000014002f920     GigeCameraDemoDlg.obj
 0002:00009938       ??_R2CImageViewportWndEventHandler@@8 000000014002f938     GigeCameraDemoDlg.obj
 0002:00009948       ??_R1BBI@?0A@EA@CImageViewportWndEventHandler@@8 000000014002f948     GigeCameraDemoDlg.obj
 0002:00009978       ??_R4CGigeCameraDemoDlg@@6BCImageExWndEventHandler@@@ 000000014002f978     GigeCameraDemoDlg.obj
 0002:000099a8       ??_R4Image@Gdiplus@@6B@    000000014002f9a8     GigeCameraDemoDlg.obj
 0002:000099d8       ??_R3Image@Gdiplus@@8      000000014002f9d8     GigeCameraDemoDlg.obj
 0002:000099f0       ??_R2Image@Gdiplus@@8      000000014002f9f0     GigeCameraDemoDlg.obj
 0002:00009a08       ??_R1A@?0A@EA@Image@Gdiplus@@8 000000014002fa08     GigeCameraDemoDlg.obj
 0002:00009a38       ??_R17?0A@EA@GdiplusBase@Gdiplus@@8 000000014002fa38     GigeCameraDemoDlg.obj
 0002:00009a68       ??_R3GdiplusBase@Gdiplus@@8 000000014002fa68     GigeCameraDemoDlg.obj
 0002:00009a80       ??_R2GdiplusBase@Gdiplus@@8 000000014002fa80     GigeCameraDemoDlg.obj
 0002:00009a90       ??_R1A@?0A@EA@GdiplusBase@Gdiplus@@8 000000014002fa90     GigeCameraDemoDlg.obj
 0002:00009ac0       ??_R4Bitmap@Gdiplus@@6B@   000000014002fac0     GigeCameraDemoDlg.obj
 0002:00009af0       ??_R3Bitmap@Gdiplus@@8     000000014002faf0     GigeCameraDemoDlg.obj
 0002:00009b08       ??_R2Bitmap@Gdiplus@@8     000000014002fb08     GigeCameraDemoDlg.obj
 0002:00009b30       ??_R1A@?0A@EA@Bitmap@Gdiplus@@8 000000014002fb30     GigeCameraDemoDlg.obj
 0002:00009b60       ??_R4CImage@ATL@@6B@       000000014002fb60     GigeCameraDemoDlg.obj
 0002:00009b90       ??_R3CImage@ATL@@8         000000014002fb90     GigeCameraDemoDlg.obj
 0002:00009ba8       ??_R2CImage@ATL@@8         000000014002fba8     GigeCameraDemoDlg.obj
 0002:00009bb8       ??_R1A@?0A@EA@CImage@ATL@@8 000000014002fbb8     GigeCameraDemoDlg.obj
 0002:00009be8       ??_R4CInputDialog@@6B@     000000014002fbe8     InputDialog.obj
 0002:00009c18       ??_R3CInputDialog@@8       000000014002fc18     InputDialog.obj
 0002:00009c30       ??_R2CInputDialog@@8       000000014002fc30     InputDialog.obj
 0002:00009c68       ??_R1A@?0A@EA@CInputDialog@@8 000000014002fc68     InputDialog.obj
 0002:00009c98       ??_R4CMessageDialog@@6B@   000000014002fc98     MessageDialog.obj
 0002:00009cc8       ??_R3CMessageDialog@@8     000000014002fcc8     MessageDialog.obj
 0002:00009ce0       ??_R2CMessageDialog@@8     000000014002fce0     MessageDialog.obj
 0002:00009d18       ??_R1A@?0A@EA@CMessageDialog@@8 000000014002fd18     MessageDialog.obj
 0002:00009d48       ??_R4CSerialPort@@6B@      000000014002fd48     SerialPort.obj
 0002:00009d78       ??_R3CSerialPort@@8        000000014002fd78     SerialPort.obj
 0002:00009d90       ??_R2CSerialPort@@8        000000014002fd90     SerialPort.obj
 0002:00009da0       ??_R1A@?0A@EA@CSerialPort@@8 000000014002fda0     SerialPort.obj
 0002:00009dd0       ??_R4CSplashWnd@@6B@       000000014002fdd0     SplashWnd.obj
 0002:00009e00       ??_R3CSplashWnd@@8         000000014002fe00     SplashWnd.obj
 0002:00009e18       ??_R2CSplashWnd@@8         000000014002fe18     SplashWnd.obj
 0002:00009e48       ??_R1A@?0A@EA@CSplashWnd@@8 000000014002fe48     SplashWnd.obj
 0002:00009e78       ??_R4type_info@@6B@        000000014002fe78     msvcrtd:ti_inst.obj
 0002:00009ea0       ??_R3type_info@@8          000000014002fea0     msvcrtd:ti_inst.obj
 0002:00009eb8       ??_R2type_info@@8          000000014002feb8     msvcrtd:ti_inst.obj
 0002:00009ec8       ??_R1A@?0A@EA@type_info@@8 000000014002fec8     msvcrtd:ti_inst.obj
 0002:0000a048       __rtc_iaa                  0000000140030048     msvcrtd:_initsect_.obj
 0002:0000a158       __rtc_izz                  0000000140030158     msvcrtd:_initsect_.obj
 0002:0000a268       __rtc_taa                  0000000140030268     msvcrtd:_initsect_.obj
 0002:0000a378       __rtc_tzz                  0000000140030378     msvcrtd:_initsect_.obj
 0002:0000cd40       _TI1?AVCAtlException@ATL@@ 0000000140032d40     atlsd:Externs.obj
 0002:0000cd60       _CTA1?AVCAtlException@ATL@@ 0000000140032d60     atlsd:Externs.obj
 0002:0000cd70       _CT??_R0?AVCAtlException@ATL@@@84 0000000140032d70     atlsd:Externs.obj
 0002:0000cea8       __pobjMapEntryFirst        0000000140032ea8     GigeCameraDemo.obj
 0002:0000cfb8       __pobjMapEntryLast         0000000140032fb8     GigeCameraDemo.obj
 0003:00000000       _pIncludeInitManaged       0000000140034000     GigeCameraDemo.obj
 0003:00000028       ??_R0?AVCGigeCameraDemoApp@@@8 0000000140034028     GigeCameraDemo.obj
 0003:00000060       ??_R0?AVCWinApp@@@8        0000000140034060     GigeCameraDemo.obj
 0003:00000088       ??_R0?AVCWinThread@@@8     0000000140034088     GigeCameraDemo.obj
 0003:000000b0       ??_R0?AVCCmdTarget@@@8     00000001400340b0     GigeCameraDemo.obj
 0003:000000d8       ??_R0?AVCObject@@@8        00000001400340d8     GigeCameraDemo.obj
 0003:00000100       ??_R0?AUThank_you@Define_the_symbol__ATL_MIXED@@@8 0000000140034100     GigeCameraDemo.obj
 0003:00000180       ??_R0?AVCAboutDlg@@@8      0000000140034180     GigeCameraDemoDlg.obj
 0003:000001a8       ??_R0?AVCDialog@@@8        00000001400341a8     GigeCameraDemoDlg.obj
 0003:000001d0       ??_R0?AVCWnd@@@8           00000001400341d0     GigeCameraDemoDlg.obj
 0003:000001f0       ??_R0?AVCGigeCameraDemoDlg@@@8 00000001400341f0     GigeCameraDemoDlg.obj
 0003:00000228       ??_R0?AVCImageExWndEventHandler@@@8 0000000140034228     GigeCameraDemoDlg.obj
 0003:00000260       ??_R0?AVCImageViewportWndEventHandler@@@8 0000000140034260     GigeCameraDemoDlg.obj
 0003:000002a8       ??_R0?AVImage@Gdiplus@@@8  00000001400342a8     GigeCameraDemoDlg.obj
 0003:000002d8       ??_R0?AVGdiplusBase@Gdiplus@@@8 00000001400342d8     GigeCameraDemoDlg.obj
 0003:00000310       ??_R0?AVBitmap@Gdiplus@@@8 0000000140034310     GigeCameraDemoDlg.obj
 0003:00000340       ??_R0?AVCImage@ATL@@@8     0000000140034340     GigeCameraDemoDlg.obj
 0003:00000368       ??_R0?AVCInputDialog@@@8   0000000140034368     InputDialog.obj
 0003:00000398       ??_R0?AVCMessageDialog@@@8 0000000140034398     MessageDialog.obj
 0003:000003c8       ??_R0?AVCSerialPort@@@8    00000001400343c8     SerialPort.obj
 0003:000003f0       ??_R0?AVCSplashWnd@@@8     00000001400343f0     SplashWnd.obj
 0003:00000420       ??_R0?AVtype_info@@@8      0000000140034420     msvcrtd:ti_inst.obj
 0003:00000440       __security_cookie          0000000140034440     msvcrtd:gs_cookie.obj
 0003:00000448       __security_cookie_complement 0000000140034448     msvcrtd:gs_cookie.obj
 0003:00000450       _fltused                   0000000140034450     msvcrtd:dllsupp.obj
 0003:00000454       __globallocalestatus       0000000140034454     msvcrtd:xthdloc.obj
 0003:00000458       __defaultmatherr           0000000140034458     msvcrtd:merr.obj
 0003:0000045c       __native_dllmain_reason    000000014003445c     msvcrtd:natstart.obj
 0003:00000460       __native_vcclrit_reason    0000000140034460     msvcrtd:natstart.obj
 0003:00000468       ?g_pszUpdateEventName@@3PEBDEB 0000000140034468     atlsd:Externs.obj
 0003:00000470       ?g_pszAllocFileMapName@@3PEBDEB 0000000140034470     atlsd:Externs.obj
 0003:00000478       ?g_pszKernelObjFmt@@3PEBDEB 0000000140034478     atlsd:Externs.obj
 0003:00000480       ??_R0?AVCAtlException@ATL@@@8 0000000140034480     atlsd:Externs.obj
 0003:000005e0       ?_pAtlAutoThreadModule@ATL@@3PEAUIAtlAutoThreadModule@1@EA 00000001400345e0     GigeCameraDemo.obj
 0003:000005f0       ?s_pfnPrevHook@CNoUIAssertHook@ATL@@0P6AHHPEADPEAH@ZEA 00000001400345f0     GigeCameraDemo.obj
 0003:000005f9       ?m_bInitFailed@CAtlBaseModule@ATL@@2_NA 00000001400345f9     GigeCameraDemo.obj
 0003:00000600       ?s_pLog@CFixedStringMgr@ATL@@2PEAVIFixedStringLog@2@EA 0000000140034600     GigeCameraDemo.obj
 0003:00000610       ?_pPerfRegFunc@ATL@@3P6AJPEAUHINSTANCE__@@@ZEA 0000000140034610     GigeCameraDemo.obj
 0003:00000620       ?_pPerfUnRegFunc@ATL@@3P6AJXZEA 0000000140034620     GigeCameraDemo.obj
 0003:00000629       ?_AtlRegisterPerUser@ATL@@3_NA 0000000140034629     GigeCameraDemo.obj
 0003:00000630       ?_pAtlModule@ATL@@3PEAVCAtlModule@1@EA 0000000140034630     GigeCameraDemo.obj
 0003:00000640       ?m_libid@CAtlModule@ATL@@2U_GUID@@A 0000000140034640     GigeCameraDemo.obj
 0003:00000658       ?_pModule@ATL@@3PEAVCComModule@1@EA 0000000140034658     GigeCameraDemo.obj
 0003:00000664       ?ATL_CREATE_OBJECT@CComApartment@ATL@@2IA 0000000140034664     GigeCameraDemo.obj
 0003:000006e0       ?theApp@@3VCGigeCameraDemoApp@@A 00000001400346e0     GigeCameraDemo.obj
 0003:00000898       ?clash@Define_the_symbol__ATL_MIXED@@3UThank_you@1@A 0000000140034898     GigeCameraDemo.obj
 0003:000008a1       ?clash@Inconsistent_definition_of_symbol__ATL_MIXED@@3U_Please_define_it_the_same_throughout_your_project@1@A 00000001400348a1     GigeCameraDemo.obj
 0003:000008d8       ?m_Buffers_1@@3PEAVSapBuffer@@EA 00000001400348d8     GigeCameraDemoDlg.obj
 0003:000008e0       ?m_wp@@3UtagWINDOWPLACEMENT@@A 00000001400348e0     GigeCameraDemoDlg.obj
 0003:00000910       ?listImageBuff_1@@3PAUtag_BuffNode@@A 0000000140034910     GigeCameraDemoDlg.obj
 0003:19003b10       ?m_cSavePath_2@@3PEADEA    0000000159037b10     GigeCameraDemoDlg.obj
 0003:19003b18       ?pImageBuff_1@@3PEADEA     0000000159037b18     GigeCameraDemoDlg.obj
 0003:19003b20       ?m_cSavePath_1@@3PEADEA    0000000159037b20     GigeCameraDemoDlg.obj
 0003:19003b28       ?pImageBuff_2@@3PEADEA     0000000159037b28     GigeCameraDemoDlg.obj
 0003:19003b30       ?listImageBuff_2@@3PAUtag_BuffNode@@A 0000000159037b30     GigeCameraDemoDlg.obj
 0003:32006d40       ?m_Buffers_2@@3PEAVSapBuffer@@EA 000000017203ad40     GigeCameraDemoDlg.obj
 0003:32006db0       ?m_bDirExit_1@@3_NA        000000017203adb0     GigeCameraDemoDlg.obj
 0003:32006db1       ?m_bDirExit_2@@3_NA        000000017203adb1     GigeCameraDemoDlg.obj
 0003:32006db8       ?m_strStorageFormat@@3V?$CStringT@DV?$StrTraitMFC_DLL@DV?$ChTraitsCRT@D@ATL@@@@@ATL@@A 000000017203adb8     GigeCameraDemoDlg.obj
 0003:34526ed0       ?m_nDataLength@@3HA        000000017455aed0     SerialPort.obj
 0003:34526f58       ?ExitFlag@@3_NA            000000017455af58     SplashWnd.obj
 0003:34526fe0       __afxForceEXCLUDE          000000017455afe0     mfcs100d:nolib.obj
 0003:34526fe4       ?WM_DESTROYMODELESS@CDHtmlDialog@@1IA 000000017455afe4     mfcs100d:nolib.obj
 0003:34526fe8       __afxForceSTDAFX           000000017455afe8     mfcs100d:stdafx.obj
 0003:34527590       _commode                   000000017455b590     msvcrtd:xncommod.obj
 0003:34527594       _fmode                     000000017455b594     msvcrtd:xtxtmode.obj
 0003:34527598       _dowildcard                000000017455b598     msvcrtd:wildcard.obj
 0003:3452759c       _newmode                   000000017455b59c     msvcrtd:_newmode.obj
 0003:345275a0       ?s_cache@CImage@ATL@@0VCDCCache@12@A 000000017455b5a0     atlsd:atlimage.obj
 0003:345275c0       ?s_initGDIPlus@CImage@ATL@@0VCInitGDIPlus@12@A 000000017455b5c0     atlsd:atlimage2.obj
 0003:345275f8       ?atlTraceGeneral@ATL@@3VCTraceCategory@1@A 000000017455b5f8     atlsd:atltrace.obj
 0003:34527600       ?atlTraceCOM@ATL@@3VCTraceCategory@1@A 000000017455b600     atlsd:atltrace.obj
 0003:34527608       ?atlTraceQI@ATL@@3VCTraceCategory@1@A 000000017455b608     atlsd:atltrace.obj
 0003:34527610       ?atlTraceRegistrar@ATL@@3VCTraceCategory@1@A 000000017455b610     atlsd:atltrace.obj
 0003:34527618       ?atlTraceRefcount@ATL@@3VCTraceCategory@1@A 000000017455b618     atlsd:atltrace.obj
 0003:34527620       ?atlTraceWindowing@ATL@@3VCTraceCategory@1@A 000000017455b620     atlsd:atltrace.obj
 0003:34527628       ?atlTraceControls@ATL@@3VCTraceCategory@1@A 000000017455b628     atlsd:atltrace.obj
 0003:34527630       ?atlTraceHosting@ATL@@3VCTraceCategory@1@A 000000017455b630     atlsd:atltrace.obj
 0003:34527638       ?atlTraceDBClient@ATL@@3VCTraceCategory@1@A 000000017455b638     atlsd:atltrace.obj
 0003:34527640       ?atlTraceDBProvider@ATL@@3VCTraceCategory@1@A 000000017455b640     atlsd:atltrace.obj
 0003:34527648       ?atlTraceSnapin@ATL@@3VCTraceCategory@1@A 000000017455b648     atlsd:atltrace.obj
 0003:34527650       ?atlTraceNotImpl@ATL@@3VCTraceCategory@1@A 000000017455b650     atlsd:atltrace.obj
 0003:34527658       ?atlTraceAllocation@ATL@@3VCTraceCategory@1@A 000000017455b658     atlsd:atltrace.obj
 0003:34527660       ?atlTraceException@ATL@@3VCTraceCategory@1@A 000000017455b660     atlsd:atltrace.obj
 0003:34527668       ?atlTraceTime@ATL@@3VCTraceCategory@1@A 000000017455b668     atlsd:atltrace.obj
 0003:34527670       ?atlTraceCache@ATL@@3VCTraceCategory@1@A 000000017455b670     atlsd:atltrace.obj
 0003:34527678       ?atlTraceStencil@ATL@@3VCTraceCategory@1@A 000000017455b678     atlsd:atltrace.obj
 0003:34527680       ?atlTraceString@ATL@@3VCTraceCategory@1@A 000000017455b680     atlsd:atltrace.obj
 0003:34527688       ?atlTraceMap@ATL@@3VCTraceCategory@1@A 000000017455b688     atlsd:atltrace.obj
 0003:34527690       ?atlTraceUtil@ATL@@3VCTraceCategory@1@A 000000017455b690     atlsd:atltrace.obj
 0003:34527698       ?atlTraceSecurity@ATL@@3VCTraceCategory@1@A 000000017455b698     atlsd:atltrace.obj
 0003:345276a0       ?atlTraceSync@ATL@@3VCTraceCategory@1@A 000000017455b6a0     atlsd:atltrace.obj
 0003:345276a8       ?atlTraceISAPI@ATL@@3VCTraceCategory@1@A 000000017455b6a8     atlsd:atltrace.obj
 0003:345276b0       ?atlTraceUser@ATL@@3VCTraceCategory@1@A 000000017455b6b0     atlsd:atltrace.obj
 0003:345276b8       ?atlTraceUser2@ATL@@3VCTraceCategory@1@A 000000017455b6b8     atlsd:atltrace.obj
 0003:345276c0       ?atlTraceUser3@ATL@@3VCTraceCategory@1@A 000000017455b6c0     atlsd:atltrace.obj
 0003:345276c8       ?atlTraceUser4@ATL@@3VCTraceCategory@1@A 000000017455b6c8     atlsd:atltrace.obj
 0003:345276d0       ?g_Allocator@@3VCAtlAllocator@@A 000000017455b6d0     atlsd:Externs.obj
 0003:34527728       ?s_trace@CTrace@ATL@@2V12@A 000000017455b728     atlsd:Externs.obj
 0003:34527738       ?_afxInitAppState@@3DA     000000017455b738     mfcs100d:appmodul.obj
 0003:3452773c       __native_startup_state     000000017455b73c     <common>
 0003:34527750       __native_startup_lock      000000017455b750     <common>
 0003:34527758       __dyn_tls_init_callback    000000017455b758     <common>
 0003:34527760       __onexitend                000000017455b760     <common>
 0003:34527778       __onexitbegin              000000017455b778     <common>
 0005:00000000       __IMPORT_DESCRIPTOR_SapClassBasic82 000000017455f000     SapClassBasic:SapClassBasic82.dll
 0005:00000014       __IMPORT_DESCRIPTOR_SapClassGui82D.NET_2010 000000017455f014     SapClassGuiD:SapClassGui82D.NET_2010.dll
 0005:00000028       __IMPORT_DESCRIPTOR_ZLBImage 000000017455f028     ZLBImage:ZLBImage.dll
 0005:0000003c       __IMPORT_DESCRIPTOR_ZLBCommon 000000017455f03c     ZLBCommon:ZLBCommon.dll
 0005:00000050       __IMPORT_DESCRIPTOR_mfc100d 000000017455f050     mfc100d:mfc100d.dll
 0005:00000064       __IMPORT_DESCRIPTOR_MSVCR100D 000000017455f064     msvcrtd:MSVCR100D.dll
 0005:00000078       __IMPORT_DESCRIPTOR_KERNEL32 000000017455f078     kernel32:KERNEL32.dll
 0005:0000008c       __IMPORT_DESCRIPTOR_USER32 000000017455f08c     user32:USER32.dll
 0005:000000a0       __IMPORT_DESCRIPTOR_GDI32  000000017455f0a0     gdi32:GDI32.dll
 0005:000000b4       __IMPORT_DESCRIPTOR_MSIMG32 000000017455f0b4     msimg32:MSIMG32.dll
 0005:000000c8       __IMPORT_DESCRIPTOR_ADVAPI32 000000017455f0c8     advapi32:ADVAPI32.dll
 0005:000000dc       __IMPORT_DESCRIPTOR_SHELL32 000000017455f0dc     shell32:SHELL32.dll
 0005:000000f0       __IMPORT_DESCRIPTOR_ole32  000000017455f0f0     ole32:ole32.dll
 0005:00000104       __IMPORT_DESCRIPTOR_OLEAUT32 000000017455f104     oleaut32:OLEAUT32.dll
 0005:00000118       __IMPORT_DESCRIPTOR_gdiplus 000000017455f118     gdiplus:gdiplus.dll
 0005:0000012c       __NULL_IMPORT_DESCRIPTOR   000000017455f12c     SapClassBasic:SapClassBasic82.dll
 0005:00001b00       __imp_RevertToSelf         0000000174560b00     advapi32:ADVAPI32.dll
 0005:00001b08       __imp_SetThreadToken       0000000174560b08     advapi32:ADVAPI32.dll
 0005:00001b10       __imp_OpenSCManagerA       0000000174560b10     advapi32:ADVAPI32.dll
 0005:00001b18       __imp_OpenThreadToken      0000000174560b18     advapi32:ADVAPI32.dll
 0005:00001b20       \177ADVAPI32_NULL_THUNK_DATA 0000000174560b20     advapi32:ADVAPI32.dll
 0005:00001b78       __imp_GetObjectA           0000000174560b78     gdi32:GDI32.dll
 0005:00001b80       __imp_DeleteObject         0000000174560b80     gdi32:GDI32.dll
 0005:00001b88       __imp_DeleteDC             0000000174560b88     gdi32:GDI32.dll
 0005:00001b90       __imp_GetDIBColorTable     0000000174560b90     gdi32:GDI32.dll
 0005:00001b98       __imp_CreateSolidBrush     0000000174560b98     gdi32:GDI32.dll
 0005:00001ba0       __imp_CreateCompatibleDC   0000000174560ba0     gdi32:GDI32.dll
 0005:00001ba8       __imp_SelectObject         0000000174560ba8     gdi32:GDI32.dll
 0005:00001bb0       __imp_SetDIBColorTable     0000000174560bb0     gdi32:GDI32.dll
 0005:00001bb8       __imp_StretchBlt           0000000174560bb8     gdi32:GDI32.dll
 0005:00001bc0       __imp_CreateDIBSection     0000000174560bc0     gdi32:GDI32.dll
 0005:00001bc8       \177GDI32_NULL_THUNK_DATA  0000000174560bc8     gdi32:GDI32.dll
 0005:00001c30       __imp_CreateFileMappingA   0000000174560c30     kernel32:KERNEL32.dll
 0005:00001c38       __imp_MapViewOfFile        0000000174560c38     kernel32:KERNEL32.dll
 0005:00001c40       __imp_UnmapViewOfFile      0000000174560c40     kernel32:KERNEL32.dll
 0005:00001c48       __imp_VirtualAlloc         0000000174560c48     kernel32:KERNEL32.dll
 0005:00001c50       __imp_lstrlenA             0000000174560c50     kernel32:KERNEL32.dll
 0005:00001c58       __imp_MultiByteToWideChar  0000000174560c58     kernel32:KERNEL32.dll
 0005:00001c60       __imp_OutputDebugStringW   0000000174560c60     kernel32:KERNEL32.dll
 0005:00001c68       __imp_OutputDebugStringA   0000000174560c68     kernel32:KERNEL32.dll
 0005:00001c70       __imp_OpenEventA           0000000174560c70     kernel32:KERNEL32.dll
 0005:00001c78       __imp_DeleteCriticalSection 0000000174560c78     kernel32:KERNEL32.dll
 0005:00001c80       __imp_InitializeCriticalSectionAndSpinCount 0000000174560c80     kernel32:KERNEL32.dll
 0005:00001c88       __imp_RaiseException       0000000174560c88     kernel32:KERNEL32.dll
 0005:00001c90       __imp_LocalFileTimeToFileTime 0000000174560c90     kernel32:KERNEL32.dll
 0005:00001c98       __imp_FileTimeToLocalFileTime 0000000174560c98     kernel32:KERNEL32.dll
 0005:00001ca0       __imp_FileTimeToSystemTime 0000000174560ca0     kernel32:KERNEL32.dll
 0005:00001ca8       __imp_MulDiv               0000000174560ca8     kernel32:KERNEL32.dll
 0005:00001cb0       __imp_FindResourceA        0000000174560cb0     kernel32:KERNEL32.dll
 0005:00001cb8       __imp_LeaveCriticalSection 0000000174560cb8     kernel32:KERNEL32.dll
 0005:00001cc0       __imp_EnterCriticalSection 0000000174560cc0     kernel32:KERNEL32.dll
 0005:00001cc8       __imp_SetConsoleCursorInfo 0000000174560cc8     kernel32:KERNEL32.dll
 0005:00001cd0       __imp_GetStdHandle         0000000174560cd0     kernel32:KERNEL32.dll
 0005:00001cd8       __imp_GetCurrentThread     0000000174560cd8     kernel32:KERNEL32.dll
 0005:00001ce0       __imp_PurgeComm            0000000174560ce0     kernel32:KERNEL32.dll
 0005:00001ce8       __imp_SetCommState         0000000174560ce8     kernel32:KERNEL32.dll
 0005:00001cf0       __imp_BuildCommDCBA        0000000174560cf0     kernel32:KERNEL32.dll
 0005:00001cf8       __imp_GetCommState         0000000174560cf8     kernel32:KERNEL32.dll
 0005:00001d00       __imp_SetCommMask          0000000174560d00     kernel32:KERNEL32.dll
 0005:00001d08       __imp_SetCommTimeouts      0000000174560d08     kernel32:KERNEL32.dll
 0005:00001d10       __imp_CreateFileA          0000000174560d10     kernel32:KERNEL32.dll
 0005:00001d18       __imp_InitializeCriticalSection 0000000174560d18     kernel32:KERNEL32.dll
 0005:00001d20       __imp_CreateEventA         0000000174560d20     kernel32:KERNEL32.dll
 0005:00001d28       __imp_ResetEvent           0000000174560d28     kernel32:KERNEL32.dll
 0005:00001d30       __imp_GetCommMask          0000000174560d30     kernel32:KERNEL32.dll
 0005:00001d38       __imp_WaitForMultipleObjects 0000000174560d38     kernel32:KERNEL32.dll
 0005:00001d40       __imp_ClearCommError       0000000174560d40     kernel32:KERNEL32.dll
 0005:00001d48       __imp_GetLastError         0000000174560d48     kernel32:KERNEL32.dll
 0005:00001d50       __imp_WaitCommEvent        0000000174560d50     kernel32:KERNEL32.dll
 0005:00001d58       __imp_LocalFree            0000000174560d58     kernel32:KERNEL32.dll
 0005:00001d60       __imp_FormatMessageA       0000000174560d60     kernel32:KERNEL32.dll
 0005:00001d68       __imp_OpenFileMappingA     0000000174560d68     kernel32:KERNEL32.dll
 0005:00001d70       __imp_GetOverlappedResult  0000000174560d70     kernel32:KERNEL32.dll
 0005:00001d78       __imp_WriteFile            0000000174560d78     kernel32:KERNEL32.dll
 0005:00001d80       __imp_GetModuleFileNameW   0000000174560d80     kernel32:KERNEL32.dll
 0005:00001d88       __imp_LoadResource         0000000174560d88     kernel32:KERNEL32.dll
 0005:00001d90       __imp_ReadFile             0000000174560d90     kernel32:KERNEL32.dll
 0005:00001d98       __imp_CreateThread         0000000174560d98     kernel32:KERNEL32.dll
 0005:00001da0       __imp_EncodePointer        0000000174560da0     kernel32:KERNEL32.dll
 0005:00001da8       __imp_LockResource         0000000174560da8     kernel32:KERNEL32.dll
 0005:00001db0       __imp_SizeofResource       0000000174560db0     kernel32:KERNEL32.dll
 0005:00001db8       __imp_GetSystemInfo        0000000174560db8     kernel32:KERNEL32.dll
 0005:00001dc0       __imp_CloseHandle          0000000174560dc0     kernel32:KERNEL32.dll
 0005:00001dc8       __imp_Sleep                0000000174560dc8     kernel32:KERNEL32.dll
 0005:00001dd0       __imp_QueryPerformanceFrequency 0000000174560dd0     kernel32:KERNEL32.dll
 0005:00001dd8       __imp_QueryPerformanceCounter 0000000174560dd8     kernel32:KERNEL32.dll
 0005:00001de0       __imp_GetDiskFreeSpaceA    0000000174560de0     kernel32:KERNEL32.dll
 0005:00001de8       __imp_GetDiskFreeSpaceExA  0000000174560de8     kernel32:KERNEL32.dll
 0005:00001df0       __imp_GetLocalTime         0000000174560df0     kernel32:KERNEL32.dll
 0005:00001df8       __imp_SetEvent             0000000174560df8     kernel32:KERNEL32.dll
 0005:00001e00       __imp_GetSystemTimeAsFileTime 0000000174560e00     kernel32:KERNEL32.dll
 0005:00001e08       __imp_GetCurrentProcessId  0000000174560e08     kernel32:KERNEL32.dll
 0005:00001e10       __imp_GetCurrentThreadId   0000000174560e10     kernel32:KERNEL32.dll
 0005:00001e18       __imp_GetTickCount         0000000174560e18     kernel32:KERNEL32.dll
 0005:00001e20       __imp_RtlCaptureContext    0000000174560e20     kernel32:KERNEL32.dll
 0005:00001e28       __imp_RtlLookupFunctionEntry 0000000174560e28     kernel32:KERNEL32.dll
 0005:00001e30       __imp_RtlVirtualUnwind     0000000174560e30     kernel32:KERNEL32.dll
 0005:00001e38       __imp_IsDebuggerPresent    0000000174560e38     kernel32:KERNEL32.dll
 0005:00001e40       __imp_SetUnhandledExceptionFilter 0000000174560e40     kernel32:KERNEL32.dll
 0005:00001e48       __imp_UnhandledExceptionFilter 0000000174560e48     kernel32:KERNEL32.dll
 0005:00001e50       __imp_GetCurrentProcess    0000000174560e50     kernel32:KERNEL32.dll
 0005:00001e58       __imp_TerminateProcess     0000000174560e58     kernel32:KERNEL32.dll
 0005:00001e60       __imp_GetStartupInfoW      0000000174560e60     kernel32:KERNEL32.dll
 0005:00001e68       __imp_DecodePointer        0000000174560e68     kernel32:KERNEL32.dll
 0005:00001e70       \177KERNEL32_NULL_THUNK_DATA 0000000174560e70     kernel32:KERNEL32.dll
 0005:00001f38       __imp_TransparentBlt       0000000174560f38     msimg32:MSIMG32.dll
 0005:00001f40       __imp_AlphaBlend           0000000174560f40     msimg32:MSIMG32.dll
 0005:00001f48       \177MSIMG32_NULL_THUNK_DATA 0000000174560f48     msimg32:MSIMG32.dll
 0005:00001fa0       __imp_memcpy               0000000174560fa0     msvcrtd:MSVCR100D.dll
 0005:00001fa8       __imp_fprintf_s            0000000174560fa8     msvcrtd:MSVCR100D.dll
 0005:00001fb0       __imp_clock                0000000174560fb0     msvcrtd:MSVCR100D.dll
 0005:00001fb8       __imp_fprintf              0000000174560fb8     msvcrtd:MSVCR100D.dll
 0005:00001fc0       __imp__time64              0000000174560fc0     msvcrtd:MSVCR100D.dll
 0005:00001fc8       __imp__mktime64            0000000174560fc8     msvcrtd:MSVCR100D.dll
 0005:00001fd0       __imp__gmtime64_s          0000000174560fd0     msvcrtd:MSVCR100D.dll
 0005:00001fd8       __imp__localtime64_s       0000000174560fd8     msvcrtd:MSVCR100D.dll
 0005:00001fe0       __imp__snprintf_s          0000000174560fe0     msvcrtd:MSVCR100D.dll
 0005:00001fe8       __imp__errno               0000000174560fe8     msvcrtd:MSVCR100D.dll
 0005:00001ff0       __imp__CxxThrowException   0000000174560ff0     msvcrtd:MSVCR100D.dll
 0005:00001ff8       __imp__CrtDbgReport        0000000174560ff8     msvcrtd:MSVCR100D.dll
 0005:00002000       __imp_wcscpy               0000000174561000     msvcrtd:MSVCR100D.dll
 0005:00002008       __imp__vsnprintf_s         0000000174561008     msvcrtd:MSVCR100D.dll
 0005:00002010       __imp__vsnwprintf_s        0000000174561010     msvcrtd:MSVCR100D.dll
 0005:00002018       __imp__snwprintf_s         0000000174561018     msvcrtd:MSVCR100D.dll
 0005:00002020       __imp_wcscpy_s             0000000174561020     msvcrtd:MSVCR100D.dll
 0005:00002028       __imp_wcsncpy_s            0000000174561028     msvcrtd:MSVCR100D.dll
 0005:00002030       __imp_calloc               0000000174561030     msvcrtd:MSVCR100D.dll
 0005:00002038       __imp__recalloc            0000000174561038     msvcrtd:MSVCR100D.dll
 0005:00002040       __imp_memcmp               0000000174561040     msvcrtd:MSVCR100D.dll
 0005:00002048       __imp__wcsicmp             0000000174561048     msvcrtd:MSVCR100D.dll
 0005:00002050       __imp_memmove_s            0000000174561050     msvcrtd:MSVCR100D.dll
 0005:00002058       __imp_wcslen               0000000174561058     msvcrtd:MSVCR100D.dll
 0005:00002060       __imp__setmbcp             0000000174561060     msvcrtd:MSVCR100D.dll
 0005:00002068       __imp_sprintf              0000000174561068     msvcrtd:MSVCR100D.dll
 0005:00002070       __imp_strlen               0000000174561070     msvcrtd:MSVCR100D.dll
 0005:00002078       __imp_fclose               0000000174561078     msvcrtd:MSVCR100D.dll
 0005:00002080       __imp_exit                 0000000174561080     msvcrtd:MSVCR100D.dll
 0005:00002088       __imp_memset               0000000174561088     msvcrtd:MSVCR100D.dll
 0005:00002090       __imp_floorf               0000000174561090     msvcrtd:MSVCR100D.dll
 0005:00002098       __imp__CrtDbgReportW       0000000174561098     msvcrtd:MSVCR100D.dll
 0005:000020a0       __imp__resetstkoflw        00000001745610a0     msvcrtd:MSVCR100D.dll
 0005:000020a8       __imp_memcpy_s             00000001745610a8     msvcrtd:MSVCR100D.dll
 0005:000020b0       __imp_labs                 00000001745610b0     msvcrtd:MSVCR100D.dll
 0005:000020b8       __imp_cos                  00000001745610b8     msvcrtd:MSVCR100D.dll
 0005:000020c0       __imp___crt_debugger_hook  00000001745610c0     msvcrtd:MSVCR100D.dll
 0005:000020c8       __imp_?_type_info_dtor_internal_method@type_info@@QEAAXXZ 00000001745610c8     msvcrtd:MSVCR100D.dll
 0005:000020d0       __imp_?terminate@@YAXXZ    00000001745610d0     msvcrtd:MSVCR100D.dll
 0005:000020d8       __imp__initterm_e          00000001745610d8     msvcrtd:MSVCR100D.dll
 0005:000020e0       __imp__initterm            00000001745610e0     msvcrtd:MSVCR100D.dll
 0005:000020e8       __imp__CrtSetCheckCount    00000001745610e8     msvcrtd:MSVCR100D.dll
 0005:000020f0       __imp__acmdln              00000001745610f0     msvcrtd:MSVCR100D.dll
 0005:000020f8       __imp__ismbblead           00000001745610f8     msvcrtd:MSVCR100D.dll
 0005:00002100       __imp__cexit               0000000174561100     msvcrtd:MSVCR100D.dll
 0005:00002108       __imp__exit                0000000174561108     msvcrtd:MSVCR100D.dll
 0005:00002110       __imp__XcptFilter          0000000174561110     msvcrtd:MSVCR100D.dll
 0005:00002118       __imp___getmainargs        0000000174561118     msvcrtd:MSVCR100D.dll
 0005:00002120       __imp__amsg_exit           0000000174561120     msvcrtd:MSVCR100D.dll
 0005:00002128       __imp___set_app_type       0000000174561128     msvcrtd:MSVCR100D.dll
 0005:00002130       __imp__fmode               0000000174561130     msvcrtd:MSVCR100D.dll
 0005:00002138       __imp__commode             0000000174561138     msvcrtd:MSVCR100D.dll
 0005:00002140       __imp___setusermatherr     0000000174561140     msvcrtd:MSVCR100D.dll
 0005:00002148       __imp__configthreadlocale  0000000174561148     msvcrtd:MSVCR100D.dll
 0005:00002150       __imp__onexit              0000000174561150     msvcrtd:MSVCR100D.dll
 0005:00002158       __imp__lock                0000000174561158     msvcrtd:MSVCR100D.dll
 0005:00002160       __imp___dllonexit          0000000174561160     msvcrtd:MSVCR100D.dll
 0005:00002168       __imp__unlock              0000000174561168     msvcrtd:MSVCR100D.dll
 0005:00002170       __imp___C_specific_handler 0000000174561170     msvcrtd:MSVCR100D.dll
 0005:00002178       __imp_strcpy               0000000174561178     msvcrtd:MSVCR100D.dll
 0005:00002180       __imp__wassert             0000000174561180     msvcrtd:MSVCR100D.dll
 0005:00002188       __imp_strcpy_s             0000000174561188     msvcrtd:MSVCR100D.dll
 0005:00002190       __imp_vsprintf_s           0000000174561190     msvcrtd:MSVCR100D.dll
 0005:00002198       __imp_free                 0000000174561198     msvcrtd:MSVCR100D.dll
 0005:000021a0       __imp_malloc               00000001745611a0     msvcrtd:MSVCR100D.dll
 0005:000021a8       __imp_sin                  00000001745611a8     msvcrtd:MSVCR100D.dll
 0005:000021b0       __imp___CxxFrameHandler3   00000001745611b0     msvcrtd:MSVCR100D.dll
 0005:000021b8       \177MSVCR100D_NULL_THUNK_DATA 00000001745611b8     msvcrtd:MSVCR100D.dll
 0005:00002278       __imp_SysFreeString        0000000174561278     oleaut32:OLEAUT32.dll
 0005:00002280       \177OLEAUT32_NULL_THUNK_DATA 0000000174561280     oleaut32:OLEAUT32.dll
 0005:000022d8       __imp_Shell_NotifyIconA    00000001745612d8     shell32:SHELL32.dll
 0005:000022e0       \177SHELL32_NULL_THUNK_DATA 00000001745612e0     shell32:SHELL32.dll
 0005:00002338       __imp_?GetContext@SapXferCallbackInfo@@QEBAPEAXXZ 0000000174561338     SapClassBasic:SapClassBasic82.dll
 0005:00002340       __imp_?SetCycleMode@SapXferPair@@QEAAHH@Z 0000000174561340     SapClassBasic:SapClassBasic82.dll
 0005:00002348       __imp_?GetWidth@SapBuffer@@QEBAHXZ 0000000174561348     SapClassBasic:SapClassBasic82.dll
 0005:00002350       __imp_??BSapManager@@QEBAHXZ 0000000174561350     SapClassBasic:SapClassBasic82.dll
 0005:00002358       __imp_?GetBuffer@SapView@@QEBAPEAVSapBuffer@@XZ 0000000174561358     SapClassBasic:SapClassBasic82.dll
 0005:00002360       __imp_?GetHeight@SapBuffer@@QEBAHXZ 0000000174561360     SapClassBasic:SapClassBasic82.dll
 0005:00002368       __imp_?GetEventCount@SapXferCallbackInfo@@QEBAHXZ 0000000174561368     SapClassBasic:SapClassBasic82.dll
 0005:00002370       __imp_??0SapLocation@@QEAA@HH@Z 0000000174561370     SapClassBasic:SapClassBasic82.dll
 0005:00002378       __imp_?GetPair@SapTransfer@@QEAAPEAVSapXferPair@@H@Z 0000000174561378     SapClassBasic:SapClassBasic82.dll
 0005:00002380       __imp_??0SapAcquisition@@QEAA@VSapLocation@@@Z 0000000174561380     SapClassBasic:SapClassBasic82.dll
 0005:00002388       __imp_??1SapAcquisition@@UEAA@XZ 0000000174561388     SapClassBasic:SapClassBasic82.dll
 0005:00002390       \177SapClassBasic82_NULL_THUNK_DATA 0000000174561390     SapClassBasic:SapClassBasic82.dll
 0005:000023f8       __imp_??1CImageExWnd@@UEAA@XZ 00000001745613f8     SapClassGuiD:SapClassGui82D.NET_2010.dll
 0005:00002400       __imp_??0CAbortDlg@@QEAA@PEAVCWnd@@PEAVSapTransfer@@H@Z 0000000174561400     SapClassGuiD:SapClassGui82D.NET_2010.dll
 0005:00002408       __imp_??1CAbortDlg@@UEAA@XZ 0000000174561408     SapClassGuiD:SapClassGui82D.NET_2010.dll
 0005:00002410       __imp_??0CViewDlg@@QEAA@PEAVCWnd@@PEAVSapView@@@Z 0000000174561410     SapClassGuiD:SapClassGui82D.NET_2010.dll
 0005:00002418       __imp_?Refresh@CImageExWnd@@QEAAXXZ 0000000174561418     SapClassGuiD:SapClassGui82D.NET_2010.dll
 0005:00002420       __imp_??1CViewDlg@@UEAA@XZ 0000000174561420     SapClassGuiD:SapClassGui82D.NET_2010.dll
 0005:00002428       __imp_?GetPixelString@CImageExWnd@@QEBA?AV?$CStringT@DV?$StrTraitMFC_DLL@DV?$ChTraitsCRT@D@ATL@@@@@ATL@@VCPoint@@@Z 0000000174561428     SapClassGuiD:SapClassGui82D.NET_2010.dll
 0005:00002430       __imp_?InteractiveMarkerChanged@CImageExWndEventHandler@@UEAAXH@Z 0000000174561430     SapClassGuiD:SapClassGui82D.NET_2010.dll
 0005:00002438       __imp_?MarkerChanged@CImageExWndEventHandler@@UEAAXXZ 0000000174561438     SapClassGuiD:SapClassGui82D.NET_2010.dll
 0005:00002440       __imp_?ViewChanged@CImageViewportWndEventHandler@@UEAAXXZ 0000000174561440     SapClassGuiD:SapClassGui82D.NET_2010.dll
 0005:00002448       __imp_?RoiChanged@CImageViewportWndEventHandler@@UEAAXXZ 0000000174561448     SapClassGuiD:SapClassGui82D.NET_2010.dll
 0005:00002450       __imp_??0CImageExWnd@@QEAA@XZ 0000000174561450     SapClassGuiD:SapClassGui82D.NET_2010.dll
 0005:00002458       __imp_??0CImageExWndEventHandler@@QEAA@XZ 0000000174561458     SapClassGuiD:SapClassGui82D.NET_2010.dll
 0005:00002460       __imp_?ScaleChanged@CImageViewportWndEventHandler@@UEAAXXZ 0000000174561460     SapClassGuiD:SapClassGui82D.NET_2010.dll
 0005:00002468       \177SapClassGui82D.NET_2010_NULL_THUNK_DATA 0000000174561468     SapClassGuiD:SapClassGui82D.NET_2010.dll
 0005:000024d0       __imp_IsRectEmpty          00000001745614d0     user32:USER32.dll
 0005:000024d8       __imp_PtInRect             00000001745614d8     user32:USER32.dll
 0005:000024e0       __imp_SetRect              00000001745614e0     user32:USER32.dll
 0005:000024e8       __imp_SetRectEmpty         00000001745614e8     user32:USER32.dll
 0005:000024f0       __imp_EqualRect            00000001745614f0     user32:USER32.dll
 0005:000024f8       __imp_InflateRect          00000001745614f8     user32:USER32.dll
 0005:00002500       __imp_OffsetRect           0000000174561500     user32:USER32.dll
 0005:00002508       __imp_IntersectRect        0000000174561508     user32:USER32.dll
 0005:00002510       __imp_UnionRect            0000000174561510     user32:USER32.dll
 0005:00002518       __imp_CopyRect             0000000174561518     user32:USER32.dll
 0005:00002520       __imp_LoadCursorA          0000000174561520     user32:USER32.dll
 0005:00002528       __imp_SetCursor            0000000174561528     user32:USER32.dll
 0005:00002530       __imp_MessageBoxA          0000000174561530     user32:USER32.dll
 0005:00002538       __imp_SendMessageA         0000000174561538     user32:USER32.dll
 0005:00002540       __imp_SetDlgItemTextA      0000000174561540     user32:USER32.dll
 0005:00002548       __imp_GetWindow            0000000174561548     user32:USER32.dll
 0005:00002550       __imp_GetDlgCtrlID         0000000174561550     user32:USER32.dll
 0005:00002558       __imp_GetSystemMetrics     0000000174561558     user32:USER32.dll
 0005:00002560       __imp_IsWindow             0000000174561560     user32:USER32.dll
 0005:00002568       __imp_PostQuitMessage      0000000174561568     user32:USER32.dll
 0005:00002570       __imp_PeekMessageA         0000000174561570     user32:USER32.dll
 0005:00002578       __imp_TranslateMessage     0000000174561578     user32:USER32.dll
 0005:00002580       __imp_DispatchMessageA     0000000174561580     user32:USER32.dll
 0005:00002588       __imp_GetCursorPos         0000000174561588     user32:USER32.dll
 0005:00002590       __imp_SubtractRect         0000000174561590     user32:USER32.dll
 0005:00002598       \177USER32_NULL_THUNK_DATA 0000000174561598     user32:USER32.dll
 0005:00002618       __imp_ZLBIniReadString     0000000174561618     ZLBCommon:ZLBCommon.dll
 0005:00002620       __imp_ZLBCreateDirectory   0000000174561620     ZLBCommon:ZLBCommon.dll
 0005:00002628       __imp_ZLBIsPathExist       0000000174561628     ZLBCommon:ZLBCommon.dll
 0005:00002630       __imp_ZLBIniReadDouble     0000000174561630     ZLBCommon:ZLBCommon.dll
 0005:00002638       __imp_ZLBIniReadInt        0000000174561638     ZLBCommon:ZLBCommon.dll
 0005:00002640       __imp_ZLBIniFile           0000000174561640     ZLBCommon:ZLBCommon.dll
 0005:00002648       __imp_ZLBGetCurrentPath    0000000174561648     ZLBCommon:ZLBCommon.dll
 0005:00002650       \177ZLBCommon_NULL_THUNK_DATA 0000000174561650     ZLBCommon:ZLBCommon.dll
 0005:000026b0       __imp_ZLBSaveImage         00000001745616b0     ZLBImage:ZLBImage.dll
 0005:000026b8       \177ZLBImage_NULL_THUNK_DATA 00000001745616b8     ZLBImage:ZLBImage.dll
 0005:00002710       __imp_GdiplusStartup       0000000174561710     gdiplus:gdiplus.dll
 0005:00002718       __imp_GdipBitmapUnlockBits 0000000174561718     gdiplus:gdiplus.dll
 0005:00002720       __imp_GdipBitmapLockBits   0000000174561720     gdiplus:gdiplus.dll
 0005:00002728       __imp_GdipCreateBitmapFromScan0 0000000174561728     gdiplus:gdiplus.dll
 0005:00002730       __imp_GdipGetImagePalette  0000000174561730     gdiplus:gdiplus.dll
 0005:00002738       __imp_GdipGetImagePaletteSize 0000000174561738     gdiplus:gdiplus.dll
 0005:00002740       __imp_GdipGetImagePixelFormat 0000000174561740     gdiplus:gdiplus.dll
 0005:00002748       __imp_GdipGetImageHeight   0000000174561748     gdiplus:gdiplus.dll
 0005:00002750       __imp_GdipGetImageWidth    0000000174561750     gdiplus:gdiplus.dll
 0005:00002758       __imp_GdipDrawImageI       0000000174561758     gdiplus:gdiplus.dll
 0005:00002760       __imp_GdipDeleteGraphics   0000000174561760     gdiplus:gdiplus.dll
 0005:00002768       __imp_GdipGetImageGraphicsContext 0000000174561768     gdiplus:gdiplus.dll
 0005:00002770       __imp_GdipCreateBitmapFromStreamICM 0000000174561770     gdiplus:gdiplus.dll
 0005:00002778       __imp_GdipCreateBitmapFromStream 0000000174561778     gdiplus:gdiplus.dll
 0005:00002780       __imp_GdipAlloc            0000000174561780     gdiplus:gdiplus.dll
 0005:00002788       __imp_GdipCloneImage       0000000174561788     gdiplus:gdiplus.dll
 0005:00002790       __imp_GdipFree             0000000174561790     gdiplus:gdiplus.dll
 0005:00002798       __imp_GdipDisposeImage     0000000174561798     gdiplus:gdiplus.dll
 0005:000027a0       __imp_GdiplusShutdown      00000001745617a0     gdiplus:gdiplus.dll
 0005:000027a8       \177gdiplus_NULL_THUNK_DATA 00000001745617a8     gdiplus:gdiplus.dll
 0005:00002818       __imp_?GetSafeHdc@CDC@@QEBAPEAUHDC__@@XZ 0000000174561818     mfc100d:mfc100d.dll
 0005:00002820       __imp_??0CPaintDC@@QEAA@PEAVCWnd@@@Z 0000000174561820     mfc100d:mfc100d.dll
 0005:00002828       __imp_?IsIconic@CWnd@@QEBAHXZ 0000000174561828     mfc100d:mfc100d.dll
 0005:00002830       __imp_?InvalidateRect@CWnd@@QEAAXPEBUtagRECT@@H@Z 0000000174561830     mfc100d:mfc100d.dll
 0005:00002838       __imp_??4?$CStringT@DV?$StrTraitMFC_DLL@DV?$ChTraitsCRT@D@ATL@@@@@ATL@@QEAAAEAV01@AEBV01@@Z 0000000174561838     mfc100d:mfc100d.dll
 0005:00002840       __imp_?OnDestroy@CWnd@@IEAAXXZ 0000000174561840     mfc100d:mfc100d.dll
 0005:00002848       __imp_?ShowWindow@CWnd@@QEAAHH@Z 0000000174561848     mfc100d:mfc100d.dll
 0005:00002850       __imp_?MoveWindow@CWnd@@QEAAXPEBUtagRECT@@H@Z 0000000174561850     mfc100d:mfc100d.dll
 0005:00002858       __imp_?ScreenToClient@CWnd@@QEBAXPEAUtagRECT@@@Z 0000000174561858     mfc100d:mfc100d.dll
 0005:00002860       __imp_?GetWindowRect@CWnd@@QEBAXPEAUtagRECT@@@Z 0000000174561860     mfc100d:mfc100d.dll
 0005:00002868       __imp_?GetDlgItem@CWnd@@QEBAPEAV1@H@Z 0000000174561868     mfc100d:mfc100d.dll
 0005:00002870       __imp_?OnSize@CWnd@@IEAAXIHH@Z 0000000174561870     mfc100d:mfc100d.dll
 0005:00002878       __imp_?OnEndSession@CDialog@@IEAAXH@Z 0000000174561878     mfc100d:mfc100d.dll
 0005:00002880       __imp_?OnQueryEndSession@CDialog@@IEAAHXZ 0000000174561880     mfc100d:mfc100d.dll
 0005:00002888       __imp_?EnableWindow@CWnd@@QEAAHH@Z 0000000174561888     mfc100d:mfc100d.dll
 0005:00002890       __imp_?MessageBoxA@CWnd@@QEAAHPEBD0I@Z 0000000174561890     mfc100d:mfc100d.dll
 0005:00002898       __imp_?GetBuffer@?$CSimpleStringT@D$00@ATL@@QEAAPEADXZ 0000000174561898     mfc100d:mfc100d.dll
 0005:000028a0       __imp_?GetBuffer@?$CSimpleStringT@D$00@ATL@@QEAAPEADH@Z 00000001745618a0     mfc100d:mfc100d.dll
 0005:000028a8       __imp_?SetWindowPos@CWnd@@QEAAHPEBV1@HHHHI@Z 00000001745618a8     mfc100d:mfc100d.dll
 0005:000028b0       __imp_?wndTopMost@CWnd@@2V1@B 00000001745618b0     mfc100d:mfc100d.dll
 0005:000028b8       __imp_?EndDialog@CDialog@@QEAAXH@Z 00000001745618b8     mfc100d:mfc100d.dll
 0005:000028c0       __imp_?UpdateData@CWnd@@QEAAHH@Z 00000001745618c0     mfc100d:mfc100d.dll
 0005:000028c8       __imp_?SetTimer@CWnd@@QEAA_K_KIP6AXPEAUHWND__@@I0K@Z@Z 00000001745618c8     mfc100d:mfc100d.dll
 0005:000028d0       __imp_?OnNcPaint@CWnd@@IEAAXXZ 00000001745618d0     mfc100d:mfc100d.dll
 0005:000028d8       __imp_?OnTimer@CWnd@@IEAAX_K@Z 00000001745618d8     mfc100d:mfc100d.dll
 0005:000028e0       __imp_?GetForegroundWindow@CWnd@@SAPEAV1@XZ 00000001745618e0     mfc100d:mfc100d.dll
 0005:000028e8       __imp_?KillTimer@CWnd@@QEAAH_K@Z 00000001745618e8     mfc100d:mfc100d.dll
 0005:000028f0       __imp_?MoveWindow@CWnd@@QEAAXHHHHH@Z 00000001745618f0     mfc100d:mfc100d.dll
 0005:000028f8       __imp_?ModifyStyle@CWnd@@QEAAHKKI@Z 00000001745618f8     mfc100d:mfc100d.dll
 0005:00002900       __imp_?AfxThrowInvalidArgException@@YAXXZ 0000000174561900     mfc100d:mfc100d.dll
 0005:00002908       __imp_?AfxThrowMemoryException@@YAXXZ 0000000174561908     mfc100d:mfc100d.dll
 0005:00002910       __imp_??3CObject@@SAXPEAXPEBDH@Z 0000000174561910     mfc100d:mfc100d.dll
 0005:00002918       __imp_??1CDC@@UEAA@XZ      0000000174561918     mfc100d:mfc100d.dll
 0005:00002920       __imp_??1CBitmap@@UEAA@XZ  0000000174561920     mfc100d:mfc100d.dll
 0005:00002928       __imp_??1CFont@@UEAA@XZ    0000000174561928     mfc100d:mfc100d.dll
 0005:00002930       __imp_??1CPen@@UEAA@XZ     0000000174561930     mfc100d:mfc100d.dll
 0005:00002938       __imp_?OnGesturePressAndTap@CWnd@@MEAAHVCPoint@@J@Z 0000000174561938     mfc100d:mfc100d.dll
 0005:00002940       __imp_?BitBlt@CDC@@QEAAHHHHHPEAV1@HHK@Z 0000000174561940     mfc100d:mfc100d.dll
 0005:00002948       __imp_?Mid@?$CStringT@DV?$StrTraitMFC_DLL@DV?$ChTraitsCRT@D@ATL@@@@@ATL@@QEBA?AV12@HH@Z 0000000174561948     mfc100d:mfc100d.dll
 0005:00002950       __imp_?Find@?$CStringT@DV?$StrTraitMFC_DLL@DV?$ChTraitsCRT@D@ATL@@@@@ATL@@QEBAHDH@Z 0000000174561950     mfc100d:mfc100d.dll
 0005:00002958       __imp_?LineTo@CDC@@QEAAHHH@Z 0000000174561958     mfc100d:mfc100d.dll
 0005:00002960       __imp_?MoveTo@CDC@@QEAA?AVCPoint@@HH@Z 0000000174561960     mfc100d:mfc100d.dll
 0005:00002968       __imp_?SelectObject@CDC@@QEAAPEAVCPen@@PEAV2@@Z 0000000174561968     mfc100d:mfc100d.dll
 0005:00002970       __imp_??0CPen@@QEAA@HHK@Z  0000000174561970     mfc100d:mfc100d.dll
 0005:00002978       __imp_?DeleteObject@CGdiObject@@QEAAHXZ 0000000174561978     mfc100d:mfc100d.dll
 0005:00002980       __imp_?DrawTextA@CDC@@QEAAHAEBV?$CStringT@DV?$StrTraitMFC_DLL@DV?$ChTraitsCRT@D@ATL@@@@@ATL@@PEAUtagRECT@@I@Z 0000000174561980     mfc100d:mfc100d.dll
 0005:00002988       __imp_?SetBkMode@CDC@@QEAAHH@Z 0000000174561988     mfc100d:mfc100d.dll
 0005:00002990       __imp_?CreateFontA@CFont@@QEAAHHHHHHEEEEEEEEPEBD@Z 0000000174561990     mfc100d:mfc100d.dll
 0005:00002998       __imp_??0CFont@@QEAA@XZ    0000000174561998     mfc100d:mfc100d.dll
 0005:000029a0       __imp_?SelectObject@CDC@@QEAAPEAVCBitmap@@PEAV2@@Z 00000001745619a0     mfc100d:mfc100d.dll
 0005:000029a8       __imp_?CreateCompatibleBitmap@CBitmap@@QEAAHPEAVCDC@@HH@Z 00000001745619a8     mfc100d:mfc100d.dll
 0005:000029b0       __imp_??0CBitmap@@QEAA@XZ  00000001745619b0     mfc100d:mfc100d.dll
 0005:000029b8       __imp_?CreateCompatibleDC@CDC@@QEAAHPEAV1@@Z 00000001745619b8     mfc100d:mfc100d.dll
 0005:000029c0       __imp_??2CObject@@SAPEAX_KPEBDH@Z 00000001745619c0     mfc100d:mfc100d.dll
 0005:000029c8       __imp_?GetDC@CWnd@@QEAAPEAVCDC@@XZ 00000001745619c8     mfc100d:mfc100d.dll
 0005:000029d0       __imp_??0CDC@@QEAA@XZ      00000001745619d0     mfc100d:mfc100d.dll
 0005:000029d8       __imp_?OnLButtonDown@CWnd@@IEAAXIVCPoint@@@Z 00000001745619d8     mfc100d:mfc100d.dll
 0005:000029e0       __imp_?AppendChar@?$CSimpleStringT@D$00@ATL@@QEAAXD@Z 00000001745619e0     mfc100d:mfc100d.dll
 0005:000029e8       __imp_?Delete@?$CStringT@DV?$StrTraitMFC_DLL@DV?$ChTraitsCRT@D@ATL@@@@@ATL@@QEAAHHH@Z 00000001745619e8     mfc100d:mfc100d.dll
 0005:000029f0       __imp_?OnEraseBkgnd@CWnd@@IEAAHPEAVCDC@@@Z 00000001745619f0     mfc100d:mfc100d.dll
 0005:000029f8       __imp_??1CStdioFile@@UEAA@XZ 00000001745619f8     mfc100d:mfc100d.dll
 0005:00002a00       __imp_?Close@CStdioFile@@UEAAXXZ 0000000174561a00     mfc100d:mfc100d.dll
 0005:00002a08       __imp_?WriteString@CStdioFile@@UEAAXPEBD@Z 0000000174561a08     mfc100d:mfc100d.dll
 0005:00002a10       __imp_?SeekToEnd@CFile@@QEAA_KXZ 0000000174561a10     mfc100d:mfc100d.dll
 0005:00002a18       __imp_?Open@CStdioFile@@UEAAHPEBDIPEAVCFileException@@@Z 0000000174561a18     mfc100d:mfc100d.dll
 0005:00002a20       __imp_??0CStdioFile@@QEAA@XZ 0000000174561a20     mfc100d:mfc100d.dll
 0005:00002a28       __imp_?OnCreate@CWnd@@IEAAHPEAUtagCREATESTRUCTA@@@Z 0000000174561a28     mfc100d:mfc100d.dll
 0005:00002a30       __imp_?Concatenate@?$CSimpleStringT@D$00@ATL@@KAXAEAV12@PEBDH1H@Z 0000000174561a30     mfc100d:mfc100d.dll
 0005:00002a38       __imp_?StringLength@?$CSimpleStringT@D$00@ATL@@SAHPEBD@Z 0000000174561a38     mfc100d:mfc100d.dll
 0005:00002a40       __imp_??0?$CStringT@DV?$StrTraitMFC_DLL@DV?$ChTraitsCRT@D@ATL@@@@@ATL@@QEAA@PEAUIAtlStringMgr@1@@Z 0000000174561a40     mfc100d:mfc100d.dll
 0005:00002a48       __imp_?GetManager@?$CStringT@DV?$StrTraitMFC_DLL@DV?$ChTraitsCRT@D@ATL@@@@@ATL@@QEBAPEAUIAtlStringMgr@2@XZ 0000000174561a48     mfc100d:mfc100d.dll
 0005:00002a50       __imp_?AfxThrowOleException@@YAXJ@Z 0000000174561a50     mfc100d:mfc100d.dll
 0005:00002a58       __imp_?GetThisClass@CDialog@@SAPEAUCRuntimeClass@@XZ 0000000174561a58     mfc100d:mfc100d.dll
 0005:00002a60       __imp_?DDX_Text@@YAXPEAVCDataExchange@@HAEAK@Z 0000000174561a60     mfc100d:mfc100d.dll
 0005:00002a68       __imp_?SetFont@CWnd@@QEAAXPEAVCFont@@H@Z 0000000174561a68     mfc100d:mfc100d.dll
 0005:00002a70       __imp_??2CObject@@SAPEAX_K@Z 0000000174561a70     mfc100d:mfc100d.dll
 0005:00002a78       __imp_?OnCtlColor@CWnd@@IEAAPEAUHBRUSH__@@PEAVCDC@@PEAV1@I@Z 0000000174561a78     mfc100d:mfc100d.dll
 0005:00002a80       __imp_??1CBrush@@UEAA@XZ   0000000174561a80     mfc100d:mfc100d.dll
 0005:00002a88       __imp_?PatBlt@CDC@@QEAAHHHHHK@Z 0000000174561a88     mfc100d:mfc100d.dll
 0005:00002a90       __imp_?SelectObject@CDC@@QEAAPEAVCBrush@@PEAV2@@Z 0000000174561a90     mfc100d:mfc100d.dll
 0005:00002a98       __imp_??0CBrush@@QEAA@K@Z  0000000174561a98     mfc100d:mfc100d.dll
 0005:00002aa0       __imp_?OnClose@CWnd@@IEAAXXZ 0000000174561aa0     mfc100d:mfc100d.dll
 0005:00002aa8       __imp_?OnLButtonUp@CWnd@@IEAAXIVCPoint@@@Z 0000000174561aa8     mfc100d:mfc100d.dll
 0005:00002ab0       __imp_??_V@YAXPEAX@Z       0000000174561ab0     mfc100d:mfc100d.dll
 0005:00002ab8       __imp_??_U@YAPEAX_K@Z      0000000174561ab8     mfc100d:mfc100d.dll
 0005:00002ac0       __imp_?AfxEndThread@@YAXIH@Z 0000000174561ac0     mfc100d:mfc100d.dll
 0005:00002ac8       __imp_?ResumeThread@CWinThread@@QEAAKXZ 0000000174561ac8     mfc100d:mfc100d.dll
 0005:00002ad0       __imp_?SuspendThread@CWinThread@@QEAAKXZ 0000000174561ad0     mfc100d:mfc100d.dll
 0005:00002ad8       __imp_?GetThisClass@CWnd@@SAPEAUCRuntimeClass@@XZ 0000000174561ad8     mfc100d:mfc100d.dll
 0005:00002ae0       __imp_??1CWnd@@UEAA@XZ     0000000174561ae0     mfc100d:mfc100d.dll
 0005:00002ae8       __imp_??0CWnd@@QEAA@XZ     0000000174561ae8     mfc100d:mfc100d.dll
 0005:00002af0       __imp_?AssertValid@CWnd@@UEBAXXZ 0000000174561af0     mfc100d:mfc100d.dll
 0005:00002af8       __imp_?Dump@CWnd@@UEBAXAEAVCDumpContext@@@Z 0000000174561af8     mfc100d:mfc100d.dll
 0005:00002b00       __imp_?PreTranslateMessage@CWnd@@UEAAHPEAUtagMSG@@@Z 0000000174561b00     mfc100d:mfc100d.dll
 0005:00002b08       __imp_?CheckAutoCenter@CWnd@@UEAAHXZ 0000000174561b08     mfc100d:mfc100d.dll
 0005:00002b10       __imp_?SetOccDialogInfo@CWnd@@MEAAHPEAU_AFX_OCC_DIALOG_INFO@@@Z 0000000174561b10     mfc100d:mfc100d.dll
 0005:00002b18       __imp_?GetOccDialogInfo@CWnd@@MEAAPEAU_AFX_OCC_DIALOG_INFO@@XZ 0000000174561b18     mfc100d:mfc100d.dll
 0005:00002b20       __imp_?GetThisMessageMap@CWnd@@KAPEBUAFX_MSGMAP@@XZ 0000000174561b20     mfc100d:mfc100d.dll
 0005:00002b28       __imp_?UpdateWindow@CWnd@@QEAAXXZ 0000000174561b28     mfc100d:mfc100d.dll
 0005:00002b30       __imp_?CenterWindow@CWnd@@QEAAXPEAV1@@Z 0000000174561b30     mfc100d:mfc100d.dll
 0005:00002b38       __imp_?AfxRegisterWndClass@@YAPEBDIPEAUHICON__@@PEAUHBRUSH__@@0@Z 0000000174561b38     mfc100d:mfc100d.dll
 0005:00002b40       __imp_?LoadStandardCursor@CWinApp@@QEBAPEAUHICON__@@PEBD@Z 0000000174561b40     mfc100d:mfc100d.dll
 0005:00002b48       __imp_?SelectObject@CDC@@UEAAPEAVCFont@@PEAV2@@Z 0000000174561b48     mfc100d:mfc100d.dll
 0005:00002b50       __imp_?SetTextColor@CDC@@UEAAKK@Z 0000000174561b50     mfc100d:mfc100d.dll
 0005:00002b58       __imp_?Find@?$CStringT@DV?$StrTraitMFC_DLL@DV?$ChTraitsCRT@D@ATL@@@@@ATL@@QEBAHPEBDH@Z 0000000174561b58     mfc100d:mfc100d.dll
 0005:00002b60       __imp_?OnNcDestroy@CWnd@@IEAAXXZ 0000000174561b60     mfc100d:mfc100d.dll
 0005:00002b68       __imp_?OnGestureTwoFingerTap@CWnd@@MEAAHVCPoint@@@Z 0000000174561b68     mfc100d:mfc100d.dll
 0005:00002b70       __imp_?OnGestureRotate@CWnd@@MEAAHVCPoint@@N@Z 0000000174561b70     mfc100d:mfc100d.dll
 0005:00002b78       __imp_?OnGesturePan@CWnd@@MEAAHVCPoint@@0@Z 0000000174561b78     mfc100d:mfc100d.dll
 0005:00002b80       __imp_?OnGestureZoom@CWnd@@MEAAHVCPoint@@J@Z 0000000174561b80     mfc100d:mfc100d.dll
 0005:00002b88       __imp_?GetGestureStatus@CWnd@@MEAAKVCPoint@@@Z 0000000174561b88     mfc100d:mfc100d.dll
 0005:00002b90       __imp_?OnTouchInput@CWnd@@MEAAHVCPoint@@HHPEAUtagTOUCHINPUT@@@Z 0000000174561b90     mfc100d:mfc100d.dll
 0005:00002b98       __imp_?OnTouchInputs@CWnd@@MEAAHIPEAUtagTOUCHINPUT@@@Z 0000000174561b98     mfc100d:mfc100d.dll
 0005:00002ba0       __imp_?OnChildNotify@CWnd@@MEAAHI_K_JPEA_J@Z 0000000174561ba0     mfc100d:mfc100d.dll
 0005:00002ba8       __imp_?PostNcDestroy@CWnd@@MEAAXXZ 0000000174561ba8     mfc100d:mfc100d.dll
 0005:00002bb0       __imp_?DefWindowProcA@CWnd@@MEAA_JI_K_J@Z 0000000174561bb0     mfc100d:mfc100d.dll
 0005:00002bb8       __imp_?OnWndMsg@CWnd@@MEAAHI_K_JPEA_J@Z 0000000174561bb8     mfc100d:mfc100d.dll
 0005:00002bc0       __imp_?WindowProc@CWnd@@MEAA_JI_K_J@Z 0000000174561bc0     mfc100d:mfc100d.dll
 0005:00002bc8       __imp_?OnAmbientProperty@CWnd@@UEAAHPEAVCOleControlSite@@JPEAUtagVARIANT@@@Z 0000000174561bc8     mfc100d:mfc100d.dll
 0005:00002bd0       __imp_?PreTranslateMessage@CDialog@@UEAAHPEAUtagMSG@@@Z 0000000174561bd0     mfc100d:mfc100d.dll
 0005:00002bd8       __imp_?EndModalState@CWnd@@UEAAXXZ 0000000174561bd8     mfc100d:mfc100d.dll
 0005:00002be0       __imp_?SendMessageA@CWnd@@QEBA_JI_K_J@Z 0000000174561be0     mfc100d:mfc100d.dll
 0005:00002be8       __imp_??B?$CSimpleStringT@D$00@ATL@@QEBAPEBDXZ 0000000174561be8     mfc100d:mfc100d.dll
 0005:00002bf0       __imp_?OnNotify@CWnd@@MEAAH_K_JPEA_J@Z 0000000174561bf0     mfc100d:mfc100d.dll
 0005:00002bf8       __imp_?OnCommand@CWnd@@MEAAH_K_J@Z 0000000174561bf8     mfc100d:mfc100d.dll
 0005:00002c00       __imp_?CreateAccessibleProxy@CWnd@@UEAAJ_K_JPEA_J@Z 0000000174561c00     mfc100d:mfc100d.dll
 0005:00002c08       __imp_?SetProxy@CWnd@@UEAAJPEAUIAccessibleProxy@@@Z 0000000174561c08     mfc100d:mfc100d.dll
 0005:00002c10       __imp_?put_accValue@CWnd@@UEAAJUtagVARIANT@@PEA_W@Z 0000000174561c10     mfc100d:mfc100d.dll
 0005:00002c18       __imp_?put_accName@CWnd@@UEAAJUtagVARIANT@@PEA_W@Z 0000000174561c18     mfc100d:mfc100d.dll
 0005:00002c20       __imp_?FindNextFileA@CFileFind@@UEAAHXZ 0000000174561c20     mfc100d:mfc100d.dll
 0005:00002c28       __imp_?accHitTest@CWnd@@UEAAJJJPEAUtagVARIANT@@@Z 0000000174561c28     mfc100d:mfc100d.dll
 0005:00002c30       __imp_?accNavigate@CWnd@@UEAAJJUtagVARIANT@@PEAU2@@Z 0000000174561c30     mfc100d:mfc100d.dll
 0005:00002c38       __imp_?accLocation@CWnd@@UEAAJPEAJ000UtagVARIANT@@@Z 0000000174561c38     mfc100d:mfc100d.dll
 0005:00002c40       __imp_?accSelect@CWnd@@UEAAJJUtagVARIANT@@@Z 0000000174561c40     mfc100d:mfc100d.dll
 0005:00002c48       __imp_?get_accDefaultAction@CWnd@@UEAAJUtagVARIANT@@PEAPEA_W@Z 0000000174561c48     mfc100d:mfc100d.dll
 0005:00002c50       __imp_?get_accSelection@CWnd@@UEAAJPEAUtagVARIANT@@@Z 0000000174561c50     mfc100d:mfc100d.dll
 0005:00002c58       __imp_?get_accFocus@CWnd@@UEAAJPEAUtagVARIANT@@@Z 0000000174561c58     mfc100d:mfc100d.dll
 0005:00002c60       __imp_?get_accKeyboardShortcut@CWnd@@UEAAJUtagVARIANT@@PEAPEA_W@Z 0000000174561c60     mfc100d:mfc100d.dll
 0005:00002c68       __imp_?get_accHelpTopic@CWnd@@UEAAJPEAPEA_WUtagVARIANT@@PEAJ@Z 0000000174561c68     mfc100d:mfc100d.dll
 0005:00002c70       __imp_?get_accHelp@CWnd@@UEAAJUtagVARIANT@@PEAPEA_W@Z 0000000174561c70     mfc100d:mfc100d.dll
 0005:00002c78       __imp_?get_accState@CWnd@@UEAAJUtagVARIANT@@PEAU2@@Z 0000000174561c78     mfc100d:mfc100d.dll
 0005:00002c80       __imp_?get_accRole@CWnd@@UEAAJUtagVARIANT@@PEAU2@@Z 0000000174561c80     mfc100d:mfc100d.dll
 0005:00002c88       __imp_?get_accDescription@CWnd@@UEAAJUtagVARIANT@@PEAPEA_W@Z 0000000174561c88     mfc100d:mfc100d.dll
 0005:00002c90       __imp_?get_accValue@CWnd@@UEAAJUtagVARIANT@@PEAPEA_W@Z 0000000174561c90     mfc100d:mfc100d.dll
 0005:00002c98       __imp_?get_accName@CWnd@@UEAAJUtagVARIANT@@PEAPEA_W@Z 0000000174561c98     mfc100d:mfc100d.dll
 0005:00002ca0       __imp_?get_accChild@CWnd@@UEAAJUtagVARIANT@@PEAPEAUIDispatch@@@Z 0000000174561ca0     mfc100d:mfc100d.dll
 0005:00002ca8       __imp_?get_accChildCount@CWnd@@UEAAJPEAJ@Z 0000000174561ca8     mfc100d:mfc100d.dll
 0005:00002cb0       __imp_?get_accParent@CWnd@@UEAAJPEAPEAUIDispatch@@@Z 0000000174561cb0     mfc100d:mfc100d.dll
 0005:00002cb8       __imp_?EnsureStdObj@CWnd@@UEAAJXZ 0000000174561cb8     mfc100d:mfc100d.dll
 0005:00002cc0       __imp_?OnDrawIconicThumbnailOrLivePreview@CWnd@@UEAAXAEAVCDC@@VCRect@@VCSize@@HAEAH@Z 0000000174561cc0     mfc100d:mfc100d.dll
 0005:00002cc8       __imp_?EndModalLoop@CWnd@@UEAAXH@Z 0000000174561cc8     mfc100d:mfc100d.dll
 0005:00002cd0       __imp_?ContinueModal@CWnd@@UEAAHXZ 0000000174561cd0     mfc100d:mfc100d.dll
 0005:00002cd8       __imp_?WinHelpInternal@CWnd@@UEAAX_KI@Z 0000000174561cd8     mfc100d:mfc100d.dll
 0005:00002ce0       __imp_?HtmlHelpA@CWnd@@UEAAX_KI@Z 0000000174561ce0     mfc100d:mfc100d.dll
 0005:00002ce8       __imp_?WinHelpA@CWnd@@UEAAX_KI@Z 0000000174561ce8     mfc100d:mfc100d.dll
 0005:00002cf0       __imp_?GetScrollBarCtrl@CWnd@@UEBAPEAVCScrollBar@@H@Z 0000000174561cf0     mfc100d:mfc100d.dll
 0005:00002cf8       __imp_?OnToolHitTest@CWnd@@UEBA_JVCPoint@@PEAUtagTOOLINFOA@@@Z 0000000174561cf8     mfc100d:mfc100d.dll
 0005:00002d00       __imp_?SetMenu@CWnd@@UEAAHPEAVCMenu@@@Z 0000000174561d00     mfc100d:mfc100d.dll
 0005:00002d08       __imp_?GetMenu@CWnd@@UEBAPEAVCMenu@@XZ 0000000174561d08     mfc100d:mfc100d.dll
 0005:00002d10       __imp_?CalcWindowRect@CWnd@@UEAAXPEAUtagRECT@@I@Z 0000000174561d10     mfc100d:mfc100d.dll
 0005:00002d18       __imp_?PreCreateWindow@CWnd@@UEAAHAEAUtagCREATESTRUCTA@@@Z 0000000174561d18     mfc100d:mfc100d.dll
 0005:00002d20       __imp_?DestroyWindow@CWnd@@UEAAHXZ 0000000174561d20     mfc100d:mfc100d.dll
 0005:00002d28       __imp_?CreateEx@CWnd@@UEAAHKPEBD0KHHHHPEAUHWND__@@PEAUHMENU__@@PEAX@Z 0000000174561d28     mfc100d:mfc100d.dll
 0005:00002d30       __imp_?CreateEx@CWnd@@UEAAHKPEBD0KAEBUtagRECT@@PEAV1@IPEAX@Z 0000000174561d30     mfc100d:mfc100d.dll
 0005:00002d38       __imp_?Create@CWnd@@UEAAHPEBD0KAEBUtagRECT@@PEAV1@IPEAUCCreateContext@@@Z 0000000174561d38     mfc100d:mfc100d.dll
 0005:00002d40       __imp_?PreSubclassWindow@CWnd@@UEAAXXZ 0000000174561d40     mfc100d:mfc100d.dll
 0005:00002d48       __imp_?GetInterfaceMap@CWnd@@MEBAPEBUAFX_INTERFACEMAP@@XZ 0000000174561d48     mfc100d:mfc100d.dll
 0005:00002d50       __imp_?OnFinalRelease@CWnd@@UEAAXXZ 0000000174561d50     mfc100d:mfc100d.dll
 0005:00002d58       __imp_?OnCmdMsg@CDialog@@UEAAHIHPEAXPEAUAFX_CMDHANDLERINFO@@@Z 0000000174561d58     mfc100d:mfc100d.dll
 0005:00002d60       __imp_?Dump@CDialog@@UEBAXAEAVCDumpContext@@@Z 0000000174561d60     mfc100d:mfc100d.dll
 0005:00002d68       __imp_?AssertValid@CDialog@@UEBAXXZ 0000000174561d68     mfc100d:mfc100d.dll
 0005:00002d70       __imp_?GetRuntimeClass@CDialog@@UEBAPEAUCRuntimeClass@@XZ 0000000174561d70     mfc100d:mfc100d.dll
 0005:00002d78       __imp_??0CDialog@@QEAA@IPEAVCWnd@@@Z 0000000174561d78     mfc100d:mfc100d.dll
 0005:00002d80       __imp_??1?$CStringT@DV?$StrTraitMFC_DLL@DV?$ChTraitsCRT@D@ATL@@@@@ATL@@QEAA@XZ 0000000174561d80     mfc100d:mfc100d.dll
 0005:00002d88       __imp_??1CComboBox@@UEAA@XZ 0000000174561d88     mfc100d:mfc100d.dll
 0005:00002d90       __imp_??1CButton@@UEAA@XZ  0000000174561d90     mfc100d:mfc100d.dll
 0005:00002d98       __imp_??1CEdit@@UEAA@XZ    0000000174561d98     mfc100d:mfc100d.dll
 0005:00002da0       __imp_??1CStatic@@UEAA@XZ  0000000174561da0     mfc100d:mfc100d.dll
 0005:00002da8       __imp_??1CDialog@@UEAA@XZ  0000000174561da8     mfc100d:mfc100d.dll
 0005:00002db0       __imp_?AfxEnableControlContainer@@YAXPEAVCOccManager@@@Z 0000000174561db0     mfc100d:mfc100d.dll
 0005:00002db8       __imp_?DoModal@CDialog@@UEAA_JXZ 0000000174561db8     mfc100d:mfc100d.dll
 0005:00002dc0       __imp_??1CWinApp@@UEAA@XZ  0000000174561dc0     mfc100d:mfc100d.dll
 0005:00002dc8       __imp_??3CObject@@SAXPEAX@Z 0000000174561dc8     mfc100d:mfc100d.dll
 0005:00002dd0       __imp_?LoadSysPolicies@CWinApp@@UEAAHXZ 0000000174561dd0     mfc100d:mfc100d.dll
 0005:00002dd8       __imp_?LoadAppLangResourceDLL@CWinApp@@UEAAPEAUHINSTANCE__@@XZ 0000000174561dd8     mfc100d:mfc100d.dll
 0005:00002de0       __imp_?RestartInstance@CWinApp@@UEAAHXZ 0000000174561de0     mfc100d:mfc100d.dll
 0005:00002de8       __imp_?IsTaskbarInteractionEnabled@CWinApp@@UEAAHXZ 0000000174561de8     mfc100d:mfc100d.dll
 0005:00002df0       __imp_?GetDataRecoveryHandler@CWinApp@@UEAAPEAVCDataRecoveryHandler@@XZ 0000000174561df0     mfc100d:mfc100d.dll
 0005:00002df8       __imp_?ApplicationRecoveryCallback@CWinApp@@UEAAKPEAX@Z 0000000174561df8     mfc100d:mfc100d.dll
 0005:00002e00       __imp_?RegisterWithRestartManager@CWinApp@@UEAAJHAEBV?$CStringT@DV?$StrTraitMFC_DLL@DV?$ChTraitsCRT@D@ATL@@@@@ATL@@@Z 0000000174561e00     mfc100d:mfc100d.dll
 0005:00002e08       __imp_?RegisterWithRestartManager@CWinApp@@UEAAJPEB_WKP6AKPEAX@Z1KK@Z 0000000174561e08     mfc100d:mfc100d.dll
 0005:00002e10       __imp_?WinHelpInternal@CWinApp@@UEAAX_KI@Z 0000000174561e10     mfc100d:mfc100d.dll
 0005:00002e18       __imp_?HtmlHelpA@CWinApp@@UEAAX_KI@Z 0000000174561e18     mfc100d:mfc100d.dll
 0005:00002e20       __imp_?WinHelpA@CWinApp@@UEAAX_KI@Z 0000000174561e20     mfc100d:mfc100d.dll
 0005:00002e28       __imp_?OnDDECommand@CWinApp@@UEAAHPEAD@Z 0000000174561e28     mfc100d:mfc100d.dll
 0005:00002e30       __imp_?DoWaitCursor@CWinApp@@UEAAXH@Z 0000000174561e30     mfc100d:mfc100d.dll
 0005:00002e38       __imp_?DoMessageBox@CWinApp@@UEAAHPEBDII@Z 0000000174561e38     mfc100d:mfc100d.dll
 0005:00002e40       __imp_?SaveAllModified@CWinApp@@UEAAHXZ 0000000174561e40     mfc100d:mfc100d.dll
 0005:00002e48       __imp_?InitApplication@CWinApp@@UEAAHXZ 0000000174561e48     mfc100d:mfc100d.dll
 0005:00002e50       __imp_?AddToRecentFileList@CWinApp@@UEAAXPEBD@Z 0000000174561e50     mfc100d:mfc100d.dll
 0005:00002e58       __imp_?OpenDocumentFile@CWinApp@@UEAAPEAVCDocument@@PEBD@Z 0000000174561e58     mfc100d:mfc100d.dll
 0005:00002e60       __imp_?OpenDocumentFile@CWinApp@@UEAAPEAVCDocument@@PEBDH@Z 0000000174561e60     mfc100d:mfc100d.dll
 0005:00002e68       __imp_?Unregister@CWinApp@@UEAAHXZ 0000000174561e68     mfc100d:mfc100d.dll
 0005:00002e70       __imp_?Register@CWinApp@@UEAAHXZ 0000000174561e70     mfc100d:mfc100d.dll
 0005:00002e78       __imp_?InitLibId@CWinApp@@UEAAXXZ 0000000174561e78     mfc100d:mfc100d.dll
 0005:00002e80       __imp_?WriteProfileBinary@CWinApp@@UEAAHPEBD0PEAEI@Z 0000000174561e80     mfc100d:mfc100d.dll
 0005:00002e88       __imp_?GetProfileBinary@CWinApp@@UEAAHPEBD0PEAPEAEPEAI@Z 0000000174561e88     mfc100d:mfc100d.dll
 0005:00002e90       __imp_?Open@CFile@@UEAAHPEBDIPEAVCFileException@@@Z 0000000174561e90     mfc100d:mfc100d.dll
 0005:00002e98       __imp_?Write@CFile@@UEAAXPEBXI@Z 0000000174561e98     mfc100d:mfc100d.dll
 0005:00002ea0       __imp_?Close@CFile@@UEAAXXZ 0000000174561ea0     mfc100d:mfc100d.dll
 0005:00002ea8       __imp_??1CFile@@UEAA@XZ    0000000174561ea8     mfc100d:mfc100d.dll
 0005:00002eb0       __imp_??2@YAPEAX_KPEBDH@Z  0000000174561eb0     mfc100d:mfc100d.dll
 0005:00002eb8       __imp_??0CMenu@@QEAA@XZ    0000000174561eb8     mfc100d:mfc100d.dll
 0005:00002ec0       __imp_?LoadMenuA@CMenu@@QEAAHI@Z 0000000174561ec0     mfc100d:mfc100d.dll
 0005:00002ec8       __imp_?GetSubMenu@CMenu@@QEBAPEAV1@H@Z 0000000174561ec8     mfc100d:mfc100d.dll
 0005:00002ed0       __imp_?SetForegroundWindow@CWnd@@QEAAHXZ 0000000174561ed0     mfc100d:mfc100d.dll
 0005:00002ed8       __imp_?TrackPopupMenu@CMenu@@QEAAHIHHPEAVCWnd@@PEBUtagRECT@@@Z 0000000174561ed8     mfc100d:mfc100d.dll
 0005:00002ee0       __imp_?PostMessageA@CWnd@@QEAAHI_K_J@Z 0000000174561ee0     mfc100d:mfc100d.dll
 0005:00002ee8       __imp_?DestroyMenu@CMenu@@QEAAHXZ 0000000174561ee8     mfc100d:mfc100d.dll
 0005:00002ef0       __imp_??1CMenu@@UEAA@XZ    0000000174561ef0     mfc100d:mfc100d.dll
 0005:00002ef8       __imp_?DDX_Control@@YAXPEAVCDataExchange@@HAEAVCWnd@@@Z 0000000174561ef8     mfc100d:mfc100d.dll
 0005:00002f00       __imp_??0CStatic@@QEAA@XZ  0000000174561f00     mfc100d:mfc100d.dll
 0005:00002f08       __imp_?WriteProfileStringA@CWinApp@@UEAAHPEBD00@Z 0000000174561f08     mfc100d:mfc100d.dll
 0005:00002f10       __imp_?GetProfileStringA@CWinApp@@UEAA?AV?$CStringT@DV?$StrTraitMFC_DLL@DV?$ChTraitsCRT@D@ATL@@@@@ATL@@PEBD00@Z 0000000174561f10     mfc100d:mfc100d.dll
 0005:00002f18       __imp_?WriteProfileInt@CWinApp@@UEAAHPEBD0H@Z 0000000174561f18     mfc100d:mfc100d.dll
 0005:00002f20       __imp_?GetProfileIntA@CWinApp@@UEAAIPEBD0H@Z 0000000174561f20     mfc100d:mfc100d.dll
 0005:00002f28       __imp_?Delete@CWinThread@@UEAAXXZ 0000000174561f28     mfc100d:mfc100d.dll
 0005:00002f30       __imp_?GetMainWnd@CWinThread@@UEAAPEAVCWnd@@XZ 0000000174561f30     mfc100d:mfc100d.dll
 0005:00002f38       __imp_?ProcessMessageFilter@CWinThread@@UEAAHHPEAUtagMSG@@@Z 0000000174561f38     mfc100d:mfc100d.dll
 0005:00002f40       __imp_?ProcessWndProcException@CWinApp@@UEAA_JPEAVCException@@PEBUtagMSG@@@Z 0000000174561f40     mfc100d:mfc100d.dll
 0005:00002f48       __imp_?ExitInstance@CWinApp@@UEAAHXZ 0000000174561f48     mfc100d:mfc100d.dll
 0005:00002f50       __imp_?IsIdleMessage@CWinThread@@UEAAHPEAUtagMSG@@@Z 0000000174561f50     mfc100d:mfc100d.dll
 0005:00002f58       __imp_?OnIdle@CWinApp@@UEAAHJ@Z 0000000174561f58     mfc100d:mfc100d.dll
 0005:00002f60       __imp_?PumpMessage@CWinThread@@UEAAHXZ 0000000174561f60     mfc100d:mfc100d.dll
 0005:00002f68       __imp_?PreTranslateMessage@CWinThread@@UEAAHPEAUtagMSG@@@Z 0000000174561f68     mfc100d:mfc100d.dll
 0005:00002f70       __imp_?Run@CWinApp@@UEAAHXZ 0000000174561f70     mfc100d:mfc100d.dll
 0005:00002f78       __imp_?GetConnectionHook@CCmdTarget@@MEAAPEAUIConnectionPoint@@AEBU_GUID@@@Z 0000000174561f78     mfc100d:mfc100d.dll
 0005:00002f80       __imp_?GetExtraConnectionPoints@CCmdTarget@@MEAAHPEAVCPtrArray@@@Z 0000000174561f80     mfc100d:mfc100d.dll
 0005:00002f88       __imp_?GetInterfaceHook@CCmdTarget@@UEAAPEAUIUnknown@@PEBX@Z 0000000174561f88     mfc100d:mfc100d.dll
 0005:00002f90       __imp_?OnCreateAggregates@CCmdTarget@@UEAAHXZ 0000000174561f90     mfc100d:mfc100d.dll
 0005:00002f98       __imp_?AfxWinMain@@YAHPEAUHINSTANCE__@@0PEADH@Z 0000000174561f98     mfc100d:mfc100d.dll
 0005:00002fa0       __imp_?GetEventSinkMap@CCmdTarget@@MEBAPEBUAFX_EVENTSINKMAP@@XZ 0000000174561fa0     mfc100d:mfc100d.dll
 0005:00002fa8       __imp_?GetInterfaceMap@CCmdTarget@@MEBAPEBUAFX_INTERFACEMAP@@XZ 0000000174561fa8     mfc100d:mfc100d.dll
 0005:00002fb0       __imp_?GetConnectionMap@CCmdTarget@@MEBAPEBUAFX_CONNECTIONMAP@@XZ 0000000174561fb0     mfc100d:mfc100d.dll
 0005:00002fb8       __imp_?GetClientRect@CWnd@@QEBAXPEAUtagRECT@@@Z 0000000174561fb8     mfc100d:mfc100d.dll
 0005:00002fc0       __imp_?DrawIcon@CDC@@QEAAHHHPEAUHICON__@@@Z 0000000174561fc0     mfc100d:mfc100d.dll
 0005:00002fc8       __imp_??1CPaintDC@@UEAA@XZ 0000000174561fc8     mfc100d:mfc100d.dll
 0005:00002fd0       __imp_?OnPaint@CDialog@@IEAAXXZ 0000000174561fd0     mfc100d:mfc100d.dll
 0005:00002fd8       __imp_?OnSysCommand@CWnd@@IEAAXI_J@Z 0000000174561fd8     mfc100d:mfc100d.dll
 0005:00002fe0       __imp_??0CWaitCursor@@QEAA@XZ 0000000174561fe0     mfc100d:mfc100d.dll
 0005:00002fe8       __imp_??1CWaitCursor@@QEAA@XZ 0000000174561fe8     mfc100d:mfc100d.dll
 0005:00002ff0       __imp_?Format@?$CStringT@DV?$StrTraitMFC_DLL@DV?$ChTraitsCRT@D@ATL@@@@@ATL@@QEAAXPEBDZZ 0000000174561ff0     mfc100d:mfc100d.dll
 0005:00002ff8       __imp_?GetSystemMenu@CWnd@@QEBAPEAVCMenu@@H@Z 0000000174561ff8     mfc100d:mfc100d.dll
 0005:00003000       __imp_?LoadStringA@?$CStringT@DV?$StrTraitMFC_DLL@DV?$ChTraitsCRT@D@ATL@@@@@ATL@@QEAAHI@Z 0000000174562000     mfc100d:mfc100d.dll
 0005:00003008       __imp_?IsEmpty@?$CSimpleStringT@D$00@ATL@@QEBA_NXZ 0000000174562008     mfc100d:mfc100d.dll
 0005:00003010       __imp_?AppendMenuA@CMenu@@QEAAHI_KPEBD@Z 0000000174562010     mfc100d:mfc100d.dll
 0005:00003018       __imp_?EnableMenuItem@CMenu@@QEAAIII@Z 0000000174562018     mfc100d:mfc100d.dll
 0005:00003020       __imp_?SetIcon@CWnd@@QEAAPEAUHICON__@@PEAU2@H@Z 0000000174562020     mfc100d:mfc100d.dll
 0005:00003028       __imp_?GetSafeHwnd@CWnd@@QEBAPEAUHWND__@@XZ 0000000174562028     mfc100d:mfc100d.dll
 0005:00003030       __imp_?AfxBeginThread@@YAPEAVCWinThread@@P6AIPEAX@Z0HIKPEAU_SECURITY_ATTRIBUTES@@@Z 0000000174562030     mfc100d:mfc100d.dll
 0005:00003038       __imp_?Left@?$CStringT@DV?$StrTraitMFC_DLL@DV?$ChTraitsCRT@D@ATL@@@@@ATL@@QEBA?AV12@H@Z 0000000174562038     mfc100d:mfc100d.dll
 0005:00003040       __imp_??0CFileFind@@QEAA@XZ 0000000174562040     mfc100d:mfc100d.dll
 0005:00003048       __imp_?BeginModalState@CWnd@@UEAAXXZ 0000000174562048     mfc100d:mfc100d.dll
 0005:00003050       __imp_?FindFile@CFileFind@@UEAAHPEBDK@Z 0000000174562050     mfc100d:mfc100d.dll
 0005:00003058       __imp_??2@YAPEAX_K@Z       0000000174562058     mfc100d:mfc100d.dll
 0005:00003060       __imp_?GetDispatchMap@CCmdTarget@@MEBAPEBUAFX_DISPMAP@@XZ 0000000174562060     mfc100d:mfc100d.dll
 0005:00003068       __imp_?GetCommandMap@CCmdTarget@@MEBAPEBUAFX_OLECMDMAP@@XZ 0000000174562068     mfc100d:mfc100d.dll
 0005:00003070       __imp_?GetTypeLib@CCmdTarget@@UEAAJKPEAPEAUITypeLib@@@Z 0000000174562070     mfc100d:mfc100d.dll
 0005:00003078       __imp_?GetTypeLibCache@CCmdTarget@@UEAAPEAVCTypeLibCache@@XZ 0000000174562078     mfc100d:mfc100d.dll
 0005:00003080       __imp_?GetTypeInfoCount@CCmdTarget@@UEAAIXZ 0000000174562080     mfc100d:mfc100d.dll
 0005:00003088       __imp_?GetDispatchIID@CCmdTarget@@UEAAHPEAU_GUID@@@Z 0000000174562088     mfc100d:mfc100d.dll
 0005:00003090       __imp_?IsInvokeAllowed@CCmdTarget@@UEAAHJ@Z 0000000174562090     mfc100d:mfc100d.dll
 0005:00003098       __imp_?OnFinalRelease@CCmdTarget@@UEAAXXZ 0000000174562098     mfc100d:mfc100d.dll
 0005:000030a0       __imp_?OnCmdMsg@CCmdTarget@@UEAAHIHPEAXPEAUAFX_CMDHANDLERINFO@@@Z 00000001745620a0     mfc100d:mfc100d.dll
 0005:000030a8       __imp_?Dump@CWinApp@@UEBAXAEAVCDumpContext@@@Z 00000001745620a8     mfc100d:mfc100d.dll
 0005:000030b0       __imp_?AssertValid@CWinApp@@UEBAXXZ 00000001745620b0     mfc100d:mfc100d.dll
 0005:000030b8       __imp_?Serialize@CObject@@UEAAXAEAVCArchive@@@Z 00000001745620b8     mfc100d:mfc100d.dll
 0005:000030c0       __imp_?GetRuntimeClass@CWinApp@@UEBAPEAUCRuntimeClass@@XZ 00000001745620c0     mfc100d:mfc100d.dll
 0005:000030c8       __imp_??0CWinApp@@QEAA@PEBD@Z 00000001745620c8     mfc100d:mfc100d.dll
 0005:000030d0       __imp_?GetThisMessageMap@CWinApp@@KAPEBUAFX_MSGMAP@@XZ 00000001745620d0     mfc100d:mfc100d.dll
 0005:000030d8       __imp_??3@YAXPEAX@Z        00000001745620d8     mfc100d:mfc100d.dll
 0005:000030e0       __imp_?IsDots@CFileFind@@UEBAHXZ 00000001745620e0     mfc100d:mfc100d.dll
 0005:000030e8       __imp_?IsDirectory@CFileFind@@QEBAHXZ 00000001745620e8     mfc100d:mfc100d.dll
 0005:000030f0       __imp_??1CFileFind@@UEAA@XZ 00000001745620f0     mfc100d:mfc100d.dll
 0005:000030f8       __imp_?AfxAssertFailedLine@@YAHPEBDH@Z 00000001745620f8     mfc100d:mfc100d.dll
 0005:00003100       __imp_??0?$CStringT@DV?$StrTraitMFC_DLL@DV?$ChTraitsCRT@D@ATL@@@@@ATL@@QEAA@AEBV01@@Z 0000000174562100     mfc100d:mfc100d.dll
 0005:00003108       __imp_??Y?$CStringT@DV?$StrTraitMFC_DLL@DV?$ChTraitsCRT@D@ATL@@@@@ATL@@QEAAAEAV01@AEBV?$CSimpleStringT@D$00@1@@Z 0000000174562108     mfc100d:mfc100d.dll
 0005:00003110       __imp_?SetWindowTextA@CWnd@@QEAAXPEBD@Z 0000000174562110     mfc100d:mfc100d.dll
 0005:00003118       __imp_?GetLength@?$CSimpleStringT@D$00@ATL@@QEBAHXZ 0000000174562118     mfc100d:mfc100d.dll
 0005:00003120       __imp_?accDoDefaultAction@CWnd@@UEAAJUtagVARIANT@@@Z 0000000174562120     mfc100d:mfc100d.dll
 0005:00003128       __imp_??0CFile@@QEAA@XZ    0000000174562128     mfc100d:mfc100d.dll
 0005:00003130       __imp_??0?$CStringT@DV?$StrTraitMFC_DLL@DV?$ChTraitsCRT@D@ATL@@@@@ATL@@QEAA@XZ 0000000174562130     mfc100d:mfc100d.dll
 0005:00003138       __imp_??0CButton@@QEAA@XZ  0000000174562138     mfc100d:mfc100d.dll
 0005:00003140       __imp_??0CEdit@@QEAA@XZ    0000000174562140     mfc100d:mfc100d.dll
 0005:00003148       __imp_??0CComboBox@@QEAA@XZ 0000000174562148     mfc100d:mfc100d.dll
 0005:00003150       __imp_??0?$CStringT@DV?$StrTraitMFC_DLL@DV?$ChTraitsCRT@D@ATL@@@@@ATL@@QEAA@PEBD@Z 0000000174562150     mfc100d:mfc100d.dll
 0005:00003158       __imp_?AfxGetApp@@YAPEAVCWinApp@@XZ 0000000174562158     mfc100d:mfc100d.dll
 0005:00003160       __imp_?LoadIconA@CWinApp@@QEBAPEAUHICON__@@I@Z 0000000174562160     mfc100d:mfc100d.dll
 0005:00003168       __imp_??4?$CStringT@DV?$StrTraitMFC_DLL@DV?$ChTraitsCRT@D@ATL@@@@@ATL@@QEAAAEAV01@PEBD@Z 0000000174562168     mfc100d:mfc100d.dll
 0005:00003170       __imp_?GetThisMessageMap@CDialog@@KAPEBUAFX_MSGMAP@@XZ 0000000174562170     mfc100d:mfc100d.dll
 0005:00003178       __imp_?DoDataExchange@CWnd@@MEAAXPEAVCDataExchange@@@Z 0000000174562178     mfc100d:mfc100d.dll
 0005:00003180       __imp_?PreInitDialog@CDialog@@MEAAXXZ 0000000174562180     mfc100d:mfc100d.dll
 0005:00003188       __imp_?OnCancel@CDialog@@MEAAXXZ 0000000174562188     mfc100d:mfc100d.dll
 0005:00003190       __imp_?OnOK@CDialog@@MEAAXXZ 0000000174562190     mfc100d:mfc100d.dll
 0005:00003198       __imp_?OnSetFont@CDialog@@UEAAXPEAVCFont@@@Z 0000000174562198     mfc100d:mfc100d.dll
 0005:000031a0       __imp_?OnInitDialog@CDialog@@UEAAHXZ 00000001745621a0     mfc100d:mfc100d.dll
 0005:000031a8       __imp_?CreateIndirect@CDialog@@UEAAHPEBUDLGTEMPLATE@@PEAVCWnd@@PEAX@Z 00000001745621a8     mfc100d:mfc100d.dll
 0005:000031b0       __imp_?CreateIndirect@CDialog@@UEAAHPEAXPEAVCWnd@@@Z 00000001745621b0     mfc100d:mfc100d.dll
 0005:000031b8       __imp_?Create@CDialog@@UEAAHPEBDPEAVCWnd@@@Z 00000001745621b8     mfc100d:mfc100d.dll
 0005:000031c0       __imp_?Create@CDialog@@UEAAHIPEAVCWnd@@@Z 00000001745621c0     mfc100d:mfc100d.dll
 0005:000031c8       __imp_?GetOccDialogInfo@CDialog@@MEAAPEAU_AFX_OCC_DIALOG_INFO@@XZ 00000001745621c8     mfc100d:mfc100d.dll
 0005:000031d0       __imp_?SetOccDialogInfo@CDialog@@MEAAHPEAU_AFX_OCC_DIALOG_INFO@@@Z 00000001745621d0     mfc100d:mfc100d.dll
 0005:000031d8       __imp_?CreateControlSite@CWnd@@MEAAHPEAVCOleControlContainer@@PEAPEAVCOleControlSite@@IAEBU_GUID@@@Z 00000001745621d8     mfc100d:mfc100d.dll
 0005:000031e0       __imp_?CreateControlContainer@CWnd@@MEAAHPEAPEAVCOleControlContainer@@@Z 00000001745621e0     mfc100d:mfc100d.dll
 0005:000031e8       __imp_?IsFrameWnd@CWnd@@UEBAHXZ 00000001745621e8     mfc100d:mfc100d.dll
 0005:000031f0       __imp_?GetSuperWndProcAddr@CWnd@@MEAAPEAP6A_JPEAUHWND__@@I_K_J@ZXZ 00000001745621f0     mfc100d:mfc100d.dll
 0005:000031f8       __imp_?CheckAutoCenter@CDialog@@UEAAHXZ 00000001745621f8     mfc100d:mfc100d.dll
 0005:00003200       __imp_?DeleteDC@CDC@@QEAAHXZ 0000000174562200     mfc100d:mfc100d.dll
 0005:00003208       __imp_?AfxGetModuleState@@YAPEAVAFX_MODULE_STATE@@XZ 0000000174562208     mfc100d:mfc100d.dll
 0005:00003210       \177mfc100d_NULL_THUNK_DATA 0000000174562210     mfc100d:mfc100d.dll
 0005:00003460       __imp_CreateStreamOnHGlobal 0000000174562460     ole32:ole32.dll
 0005:00003468       \177ole32_NULL_THUNK_DATA  0000000174562468     ole32:ole32.dll

 entry point at        0001:000129f0

