 GigeCameraDemo

 Timestamp is 5acb09bc (Mon Apr 09 14:35:40 2018)

 Preferred load address is 0000000140000000

 Start         Length     Name                   Class
 0001:00000000 00021affH .text                   CODE
 0001:00021b00 00002c28H .text$x                 CODE
 0001:00024730 000018bcH .text$yc                CODE
 0001:00025ff0 000010d5H .text$yd                CODE
 0002:00000000 00000109H .CRT$XCA                DATA
 0002:00000110 00000109H .CRT$XCAA               DATA
 0002:00000220 0000011cH .CRT$XCC                DATA
 0002:00000340 00000220H .CRT$XCL                DATA
 0002:00000560 0000013fH .CRT$XCU                DATA
 0002:000006a0 00000109H .CRT$XCZ                DATA
 0002:000007b0 00000109H .CRT$XIA                DATA
 0002:000008c0 00000109H .CRT$XIAA               DATA
 0002:000009d0 00000109H .CRT$XIY                DATA
 0002:00000ae0 00000109H .CRT$XIZ                DATA
 0002:00000bf0 00009103H .rdata                  DATA
 0002:00009cf4 0000018dH .rdata$debug            DATA
 0002:00009e88 00001128H .rdata$r                DATA
 0002:0000afb0 00000109H .rtc$IAA                DATA
 0002:0000b0c0 00000109H .rtc$IZZ                DATA
 0002:0000b1d0 00000109H .rtc$TAA                DATA
 0002:0000b2e0 00000109H .rtc$TZZ                DATA
 0002:0000b3f0 00002ad8H .xdata                  DATA
 0002:0000dec8 00000164H .xdata$x                DATA
 0002:0000e030 00000109H ATL$__a                 DATA
 0002:0000e140 00000109H ATL$__z                 DATA
 0002:0000e249 00000000H .edata                  DATA
 0003:00000000 00000744H .data                   DATA
 0003:00000750 345271a0H .bss                    DATA
 0004:00000000 00001e30H .pdata                  DATA
 0005:00000000 0000012cH .idata$2                DATA
 0005:0000012c 00000014H .idata$3                DATA
 0005:00000140 000024b0H .idata$4                DATA
 0005:000025f0 000024b0H .idata$5                DATA
 0005:00004aa0 00004997H .idata$6                DATA
 0006:00000000 00001253H .rsrc$01                DATA
 0006:00001260 000ca613H .rsrc$02                DATA

  Address         Publics by Value              Rva+Base               Lib:Object

 0000:00000000       ___safe_se_handler_count   0000000000000000     <absolute>
 0000:00000000       ___safe_se_handler_table   0000000000000000     <absolute>
 0000:00000000       __ImageBase                0000000140000000     <linker-defined>
 0001:00000a00       ?_AfxInitManaged@@YAHXZ    0000000140001a00 f i GigeCameraDemo.obj
 0001:00000a10       ??_H@YAXPEAX_KHP6APEAX0@Z@Z 0000000140001a10 f i GigeCameraDemo.obj
 0001:00000a80       ?GetMessageMap@CGigeCameraDemoApp@@MEBAPEBUAFX_MSGMAP@@XZ 0000000140001a80 f   GigeCameraDemo.obj
 0001:00000aa0       ?GetThisMessageMap@CGigeCameraDemoApp@@KAPEBUAFX_MSGMAP@@XZ 0000000140001aa0 f   GigeCameraDemo.obj
 0001:00000ab0       ??0CGigeCameraDemoApp@@QEAA@XZ 0000000140001ab0 f   GigeCameraDemo.obj
 0001:00000af0       ?InitInstance@CGigeCameraDemoApp@@UEAAHXZ 0000000140001af0 f   GigeCameraDemo.obj
 0001:00000bd0       ?SupportsRestartManager@CWinApp@@UEBAHXZ 0000000140001bd0 f i GigeCameraDemo.obj
 0001:00000bf0       ?SupportsApplicationRecovery@CWinApp@@UEBAHXZ 0000000140001bf0 f i GigeCameraDemo.obj
 0001:00000c10       ?SupportsAutosaveAtRestart@CWinApp@@UEBAHXZ 0000000140001c10 f i GigeCameraDemo.obj
 0001:00000c30       ?SupportsAutosaveAtInterval@CWinApp@@UEBAHXZ 0000000140001c30 f i GigeCameraDemo.obj
 0001:00000c50       ?ReopenPreviousFilesAtRestart@CWinApp@@UEBAHXZ 0000000140001c50 f i GigeCameraDemo.obj
 0001:00000c70       ?RestoreAutosavedFilesAtRestart@CWinApp@@UEBAHXZ 0000000140001c70 f i GigeCameraDemo.obj
 0001:00000c90       ?GetApplicationRestartFlags@CWinApp@@UEAAKXZ 0000000140001c90 f i GigeCameraDemo.obj
 0001:00000ca0       ?GetApplicationRecoveryParameter@CWinApp@@UEAAPEAXXZ 0000000140001ca0 f i GigeCameraDemo.obj
 0001:00000cb0       ?GetApplicationRecoveryPingInterval@CWinApp@@UEAAKXZ 0000000140001cb0 f i GigeCameraDemo.obj
 0001:00000cc0       ??_ECGigeCameraDemoApp@@UEAAPEAXI@Z 0000000140001cc0 f i GigeCameraDemo.obj
 0001:00000cc0       ??_GCGigeCameraDemoApp@@UEAAPEAXI@Z 0000000140001cc0 f i GigeCameraDemo.obj
 0001:00000d10       ??1CGigeCameraDemoApp@@UEAA@XZ 0000000140001d10 f i GigeCameraDemo.obj
 0001:00000d30       ??1CGigeCameraDemoDlg@@UEAA@XZ 0000000140001d30 f i GigeCameraDemo.obj
 0001:00001030       ??0Thank_you@Define_the_symbol__ATL_MIXED@@QEAA@XZ 0000000140002030 f i GigeCameraDemo.obj
 0001:00001050       ?one@Thank_you@Define_the_symbol__ATL_MIXED@@UEAAXXZ 0000000140002050 f i GigeCameraDemo.obj
 0001:00001060       ??0CAboutDlg@@QEAA@XZ      0000000140002060 f   GigeCameraDemoDlg.obj
 0001:000010a0       ?DoDataExchange@CAboutDlg@@MEAAXPEAVCDataExchange@@@Z 00000001400020a0 f   GigeCameraDemoDlg.obj
 0001:000010d0       ?GetMessageMap@CAboutDlg@@MEBAPEBUAFX_MSGMAP@@XZ 00000001400020d0 f   GigeCameraDemoDlg.obj
 0001:000010f0       ?GetThisMessageMap@CAboutDlg@@KAPEBUAFX_MSGMAP@@XZ 00000001400020f0 f   GigeCameraDemoDlg.obj
 0001:00001100       ??0CGigeCameraDemoDlg@@QEAA@PEAVCWnd@@@Z 0000000140002100 f   GigeCameraDemoDlg.obj
 0001:00001ad0       ?DoDataExchange@CGigeCameraDemoDlg@@MEAAXPEAVCDataExchange@@@Z 0000000140002ad0 f   GigeCameraDemoDlg.obj
 0001:00001b50       ?GetMessageMap@CGigeCameraDemoDlg@@MEBAPEBUAFX_MSGMAP@@XZ 0000000140002b50 f   GigeCameraDemoDlg.obj
 0001:00001b70       ?GetThisMessageMap@CGigeCameraDemoDlg@@KAPEBUAFX_MSGMAP@@XZ 0000000140002b70 f   GigeCameraDemoDlg.obj
 0001:00001b80       ?onShowTask@CGigeCameraDemoDlg@@IEAA_J_K_J@Z 0000000140002b80 f   GigeCameraDemoDlg.obj
 0001:00001cd0       ?PushImageToMyBuffer@@YA_NQEAUtag_BuffNode@@PEADHHHHH@Z 0000000140002cd0 f   GigeCameraDemoDlg.obj
 0001:00001cf0       ?PushImageToMyBuffer_1@@YA_NQEAUtag_BuffNode@@PEADHHHHH@Z 0000000140002cf0 f   GigeCameraDemoDlg.obj
 0001:00001ed0       ?PushImageToMyBuffer_2@@YA_NQEAUtag_BuffNode@@PEADHHHHH@Z 0000000140002ed0 f   GigeCameraDemoDlg.obj
 0001:000020b0       ?CreateFile2@@YAHV?$CStringT@DV?$StrTraitMFC_DLL@DV?$ChTraitsCRT@D@ATL@@@@@ATL@@0H@Z 00000001400030b0 f   GigeCameraDemoDlg.obj
 0001:000021b0       ?SaveImageData@@YAKPEAX@Z  00000001400031b0 f   GigeCameraDemoDlg.obj
 0001:000021e0       ?SaveImageData_1@@YAKPEAX@Z 00000001400031e0 f   GigeCameraDemoDlg.obj
 0001:000024f0       ?SaveImageData_2@@YAKPEAX@Z 00000001400034f0 f   GigeCameraDemoDlg.obj
 0001:00002800       ?XferCallback_1@CGigeCameraDemoDlg@@SAXPEAVSapXferCallbackInfo@@@Z 0000000140003800 f   GigeCameraDemoDlg.obj
 0001:00002b10       ?XferCallback_2@CGigeCameraDemoDlg@@SAXPEAVSapXferCallbackInfo@@@Z 0000000140003b10 f   GigeCameraDemoDlg.obj
 0001:00002f40       ?PixelChanged@CGigeCameraDemoDlg@@UEAAXHH@Z 0000000140003f40 f   GigeCameraDemoDlg.obj
 0001:00003100       ?GetPathUseSpace@@YA_KPEBD@Z 0000000140004100 f   GigeCameraDemoDlg.obj
 0001:000031a0       ?GetDirFileCount@@YA_KV?$CStringT@DV?$StrTraitMFC_DLL@DV?$ChTraitsCRT@D@ATL@@@@@ATL@@@Z 00000001400041a0 f   GigeCameraDemoDlg.obj
 0001:000032a0       ?ReadFreeSpace@@YANV?$CStringT@DV?$StrTraitMFC_DLL@DV?$ChTraitsCRT@D@ATL@@@@@ATL@@@Z 00000001400042a0 f   GigeCameraDemoDlg.obj
 0001:000033f0       ?OnReceiveData@CGigeCameraDemoDlg@@IEAA_J_K_J@Z 00000001400043f0 f   GigeCameraDemoDlg.obj
 0001:00003640       ?us_Delay@@YAXK@Z          0000000140004640 f   GigeCameraDemoDlg.obj
 0001:000036d0       ?CheckMessageQueue@@YAHXZ  00000001400046d0 f   GigeCameraDemoDlg.obj
 0001:00003730       ?delay_time@@YAXK@Z        0000000140004730 f   GigeCameraDemoDlg.obj
 0001:000037d0       ?OnInitDialog@CGigeCameraDemoDlg@@MEAAHXZ 00000001400047d0 f   GigeCameraDemoDlg.obj
 0001:00004de0       ?IsUserAdmin@CGigeCameraDemoDlg@@QEAAHXZ 0000000140005de0 f   GigeCameraDemoDlg.obj
 0001:00004e30       ?CreateObjects_1@CGigeCameraDemoDlg@@QEAAHXZ 0000000140005e30 f   GigeCameraDemoDlg.obj
 0001:000050b0       ?CreateObjects_2@CGigeCameraDemoDlg@@QEAAHXZ 00000001400060b0 f   GigeCameraDemoDlg.obj
 0001:00005330       ?DestroyObjects_1@CGigeCameraDemoDlg@@QEAAHXZ 0000000140006330 f   GigeCameraDemoDlg.obj
 0001:00005460       ?DestroyObjects_2@CGigeCameraDemoDlg@@QEAAHXZ 0000000140006460 f   GigeCameraDemoDlg.obj
 0001:00005590       ?OnSysCommand@CGigeCameraDemoDlg@@IEAAXI_J@Z 0000000140006590 f   GigeCameraDemoDlg.obj
 0001:00005610       ?OnPaint@CGigeCameraDemoDlg@@IEAAXXZ 0000000140006610 f   GigeCameraDemoDlg.obj
 0001:00005780       ?OnDestroy@CGigeCameraDemoDlg@@IEAAXXZ 0000000140006780 f   GigeCameraDemoDlg.obj
 0001:00005c50       ?OnSize@CGigeCameraDemoDlg@@IEAAXIHH@Z 0000000140006c50 f   GigeCameraDemoDlg.obj
 0001:00005f80       ?OnQueryDragIcon@CGigeCameraDemoDlg@@IEAAPEAUHICON__@@XZ 0000000140006f80 f   GigeCameraDemoDlg.obj
 0001:00005fa0       ?OnEndSession@CGigeCameraDemoDlg@@IEAAXH@Z 0000000140006fa0 f   GigeCameraDemoDlg.obj
 0001:00005fe0       ?OnQueryEndSession@CGigeCameraDemoDlg@@IEAAHXZ 0000000140006fe0 f   GigeCameraDemoDlg.obj
 0001:00006010       ?UpdateMenu@CGigeCameraDemoDlg@@QEAAXXZ 0000000140007010 f   GigeCameraDemoDlg.obj
 0001:00006170       ?DoEvents@@YA_NXZ          0000000140007170 f   GigeCameraDemoDlg.obj
 0001:00006200       ?OnTest@CGigeCameraDemoDlg@@IEAAXXZ 0000000140007200 f   GigeCameraDemoDlg.obj
 0001:000062e0       ?ReadParamFromIniFile@CGigeCameraDemoDlg@@QEAA_NXZ 00000001400072e0 f   GigeCameraDemoDlg.obj
 0001:00006880       ?WriteParamFileIniFile@CGigeCameraDemoDlg@@QEAA_NXZ 0000000140007880 f   GigeCameraDemoDlg.obj
 0001:00006910       ?OnMainitemShow@CGigeCameraDemoDlg@@QEAAXXZ 0000000140007910 f   GigeCameraDemoDlg.obj
 0001:00006970       ?OnMainitemHide@CGigeCameraDemoDlg@@QEAAXXZ 0000000140007970 f   GigeCameraDemoDlg.obj
 0001:00006990       ?OnMainitemExit@CGigeCameraDemoDlg@@QEAAXXZ 0000000140007990 f   GigeCameraDemoDlg.obj
 0001:000069c0       ?FitToWindow@CGigeCameraDemoDlg@@QEAAXPEAVSapView@@@Z 00000001400079c0 f   GigeCameraDemoDlg.obj
 0001:00006c40       ?OnGrab@CGigeCameraDemoDlg@@IEAAXXZ 0000000140007c40 f   GigeCameraDemoDlg.obj
 0001:00006f50       ?OnFreeze@CGigeCameraDemoDlg@@IEAAXXZ 0000000140007f50 f   GigeCameraDemoDlg.obj
 0001:000071e0       ?OnNcPaint@CGigeCameraDemoDlg@@QEAAXXZ 00000001400081e0 f   GigeCameraDemoDlg.obj
 0001:00007200       ?OnTimer@CGigeCameraDemoDlg@@QEAAX_K@Z 0000000140008200 f   GigeCameraDemoDlg.obj
 0001:00007950       ?OnMainitemTest@CGigeCameraDemoDlg@@QEAAXXZ 0000000140008950 f   GigeCameraDemoDlg.obj
 0001:00007970       ?OnBnClickedReturn@CGigeCameraDemoDlg@@QEAAXXZ 0000000140008970 f   GigeCameraDemoDlg.obj
 0001:00007ab0       ?ImageFrom_IDResource@CGigeCameraDemoDlg@@QEAAXIPEBDPEAVCImage@ATL@@@Z 0000000140008ab0 f   GigeCameraDemoDlg.obj
 0001:00007bb0       ?RefreshUI@CGigeCameraDemoDlg@@QEAAXXZ 0000000140008bb0 f   GigeCameraDemoDlg.obj
 0001:000089e0       ?OnLButtonDown@CGigeCameraDemoDlg@@QEAAXIVCPoint@@@Z 00000001400099e0 f   GigeCameraDemoDlg.obj
 0001:000095c0       ?OnEraseBkgnd@CGigeCameraDemoDlg@@QEAAHPEAVCDC@@@Z 000000014000a5c0 f   GigeCameraDemoDlg.obj
 0001:00009610       ?WritePosInfo@CGigeCameraDemoDlg@@QEAAXH@Z 000000014000a610 f   GigeCameraDemoDlg.obj
 0001:000098b0       ?SetUI@CGigeCameraDemoDlg@@QEAAXXZ 000000014000a8b0 f   GigeCameraDemoDlg.obj
 0001:00009ed0       ?OnCreate@CGigeCameraDemoDlg@@QEAAHPEAUtagCREATESTRUCTA@@@Z 000000014000aed0 f   GigeCameraDemoDlg.obj
 0001:00009f10       ?HideCursor@CGigeCameraDemoDlg@@QEAAXXZ 000000014000af10 f   GigeCameraDemoDlg.obj
 0001:0000c300       ??_ECAboutDlg@@UEAAPEAXI@Z 000000014000d300 f i GigeCameraDemoDlg.obj
 0001:0000c300       ??_GCAboutDlg@@UEAAPEAXI@Z 000000014000d300 f i GigeCameraDemoDlg.obj
 0001:0000c350       ??1CAboutDlg@@UEAA@XZ      000000014000d350 f i GigeCameraDemoDlg.obj
 0001:0000c370       ??_GCGigeCameraDemoDlg@@UEAAPEAXI@Z 000000014000d370 f i GigeCameraDemoDlg.obj
 0001:0000c370       ??_ECGigeCameraDemoDlg@@UEAAPEAXI@Z 000000014000d370 f i GigeCameraDemoDlg.obj
 0001:0000c3c0       ??_GSapAcqDeviceToBuf@@UEAAPEAXI@Z 000000014000d3c0 f i GigeCameraDemoDlg.obj
 0001:0000c3c0       ??_ESapAcqDeviceToBuf@@UEAAPEAXI@Z 000000014000d3c0 f i GigeCameraDemoDlg.obj
 0001:0000c410       ??_GSapAcqDevice@@UEAAPEAXI@Z 000000014000d410 f i GigeCameraDemoDlg.obj
 0001:0000c410       ??_ESapAcqDevice@@UEAAPEAXI@Z 000000014000d410 f i GigeCameraDemoDlg.obj
 0001:0000c460       ??_ESapBufferWithTrash@@UEAAPEAXI@Z 000000014000d460 f i GigeCameraDemoDlg.obj
 0001:0000c460       ??_GSapBufferWithTrash@@UEAAPEAXI@Z 000000014000d460 f i GigeCameraDemoDlg.obj
 0001:0000c4b0       ??_GSapView@@UEAAPEAXI@Z   000000014000d4b0 f i GigeCameraDemoDlg.obj
 0001:0000c4b0       ??_ESapView@@UEAAPEAXI@Z   000000014000d4b0 f i GigeCameraDemoDlg.obj
 0001:0000c500       ?floor@@YAMM@Z             000000014000d500 f i GigeCameraDemoDlg.obj
 0001:0000c530       ?Load@CImage@ATL@@QEAAJPEAUIStream@@@Z 000000014000d530 f i GigeCameraDemoDlg.obj
 0001:0000c5d0       ?GetLastStatus@Image@Gdiplus@@QEBA?AW4Status@2@XZ 000000014000d5d0 f i GigeCameraDemoDlg.obj
 0001:0000c610       ??1Bitmap@Gdiplus@@UEAA@XZ 000000014000d610 f i GigeCameraDemoDlg.obj
 0001:0000c630       ??1Image@Gdiplus@@UEAA@XZ  000000014000d630 f i GigeCameraDemoDlg.obj
 0001:0000c670       ??_EImage@Gdiplus@@UEAAPEAXI@Z 000000014000d670 f i GigeCameraDemoDlg.obj
 0001:0000c670       ??_GImage@Gdiplus@@UEAAPEAXI@Z 000000014000d670 f i GigeCameraDemoDlg.obj
 0001:0000c6c0       ??3GdiplusBase@Gdiplus@@SAXPEAX@Z 000000014000d6c0 f i GigeCameraDemoDlg.obj
 0001:0000c6e0       ?Clone@Image@Gdiplus@@UEAAPEAV12@XZ 000000014000d6e0 f i GigeCameraDemoDlg.obj
 0001:0000c790       ??2GdiplusBase@Gdiplus@@SAPEAX_K@Z 000000014000d790 f i GigeCameraDemoDlg.obj
 0001:0000c7b0       ?SetStatus@Image@Gdiplus@@IEBA?AW4Status@2@W432@@Z 000000014000d7b0 f i GigeCameraDemoDlg.obj
 0001:0000c7f0       ??0Image@Gdiplus@@IEAA@PEAVGpImage@1@W4Status@1@@Z 000000014000d7f0 f i GigeCameraDemoDlg.obj
 0001:0000c850       ?SetNativeImage@Image@Gdiplus@@IEAAXPEAVGpImage@2@@Z 000000014000d850 f i GigeCameraDemoDlg.obj
 0001:0000c870       ??0Bitmap@Gdiplus@@QEAA@PEAUIStream@@H@Z 000000014000d870 f i GigeCameraDemoDlg.obj
 0001:0000c930       ??0Image@Gdiplus@@IEAA@XZ  000000014000d930 f i GigeCameraDemoDlg.obj
 0001:0000c950       ??_EBitmap@Gdiplus@@UEAAPEAXI@Z 000000014000d950 f i GigeCameraDemoDlg.obj
 0001:0000c950       ??_GBitmap@Gdiplus@@UEAAPEAXI@Z 000000014000d950 f i GigeCameraDemoDlg.obj
 0001:0000c9a0       ?CreateFromGdiplusBitmap@CImage@ATL@@AEAAJAEAVBitmap@Gdiplus@@@Z 000000014000d9a0 f i GigeCameraDemoDlg.obj
 0001:0000d0a0       ?_AtlVerifyStackAvailable@_ATL_SAFE_ALLOCA_IMPL@ATL@@YA_N_K@Z 000000014000e0a0 f i GigeCameraDemoDlg.obj
 0001:0000d1b0       ?memcpy_s@Checked@ATL@@YAXPEAX_KPEBX1@Z 000000014000e1b0 f i GigeCameraDemoDlg.obj
 0001:0000d200       ?AfxCrtErrorCheck@@YAHH@Z  000000014000e200 f i GigeCameraDemoDlg.obj
 0001:0000d270       ??0Rect@Gdiplus@@QEAA@HHHH@Z 000000014000e270 f i GigeCameraDemoDlg.obj
 0001:0000d2d0       ?GetPixelFormatSize@Gdiplus@@YAIH@Z 000000014000e2d0 f i GigeCameraDemoDlg.obj
 0001:0000d2f0       ?IsIndexedPixelFormat@Gdiplus@@YAHH@Z 000000014000e2f0 f i GigeCameraDemoDlg.obj
 0001:0000d330       ?IsAlphaPixelFormat@Gdiplus@@YAHH@Z 000000014000e330 f i GigeCameraDemoDlg.obj
 0001:0000d370       ??0Graphics@Gdiplus@@QEAA@PEAVImage@1@@Z 000000014000e370 f i GigeCameraDemoDlg.obj
 0001:0000d3e0       ??1Graphics@Gdiplus@@QEAA@XZ 000000014000e3e0 f i GigeCameraDemoDlg.obj
 0001:0000d410       ?DrawImage@Graphics@Gdiplus@@QEAA?AW4Status@2@PEAVImage@2@HH@Z 000000014000e410 f i GigeCameraDemoDlg.obj
 0001:0000d490       ?SetNativeGraphics@Graphics@Gdiplus@@IEAAXPEAVGpGraphics@2@@Z 000000014000e490 f i GigeCameraDemoDlg.obj
 0001:0000d4b0       ?SetStatus@Graphics@Gdiplus@@IEBA?AW4Status@2@W432@@Z 000000014000e4b0 f i GigeCameraDemoDlg.obj
 0001:0000d4f0       ?GetWidth@Image@Gdiplus@@QEAAIXZ 000000014000e4f0 f i GigeCameraDemoDlg.obj
 0001:0000d540       ?GetHeight@Image@Gdiplus@@QEAAIXZ 000000014000e540 f i GigeCameraDemoDlg.obj
 0001:0000d590       ?GetPixelFormat@Image@Gdiplus@@QEAAHXZ 000000014000e590 f i GigeCameraDemoDlg.obj
 0001:0000d5d0       ?GetPaletteSize@Image@Gdiplus@@QEAAHXZ 000000014000e5d0 f i GigeCameraDemoDlg.obj
 0001:0000d620       ?GetPalette@Image@Gdiplus@@QEAA?AW4Status@2@PEAUColorPalette@2@H@Z 000000014000e620 f i GigeCameraDemoDlg.obj
 0001:0000d670       ??0Bitmap@Gdiplus@@QEAA@HHHHPEAE@Z 000000014000e670 f i GigeCameraDemoDlg.obj
 0001:0000d730       ?LockBits@Bitmap@Gdiplus@@QEAA?AW4Status@2@PEBVRect@2@IHPEAVBitmapData@2@@Z 000000014000e730 f i GigeCameraDemoDlg.obj
 0001:0000d7a0       ?UnlockBits@Bitmap@Gdiplus@@QEAA?AW4Status@2@PEAVBitmapData@2@@Z 000000014000e7a0 f i GigeCameraDemoDlg.obj
 0001:0000d7e0       ?Create@CImage@ATL@@QEAAHHHHK@Z 000000014000e7e0 f i GigeCameraDemoDlg.obj
 0001:0000d840       ?CreateEx@CImage@ATL@@QEAAHHHHKPEBKK@Z 000000014000e840 f i GigeCameraDemoDlg.obj
 0001:0000dbe0       ?Attach@CImage@ATL@@QEAAXPEAUHBITMAP__@@W4DIBOrientation@12@@Z 000000014000ebe0 f i GigeCameraDemoDlg.obj
 0001:0000dcc0       ?GetBits@CImage@ATL@@QEAAPEAXXZ 000000014000ecc0 f i GigeCameraDemoDlg.obj
 0001:0000dd90       ?GetHeight@CImage@ATL@@QEBAHXZ 000000014000ed90 f i GigeCameraDemoDlg.obj
 0001:0000de10       ?GetPitch@CImage@ATL@@QEBAHXZ 000000014000ee10 f i GigeCameraDemoDlg.obj
 0001:0000dee0       ?GetWidth@CImage@ATL@@QEBAHXZ 000000014000eee0 f i GigeCameraDemoDlg.obj
 0001:0000df60       ?IsDIBSection@CImage@ATL@@QEBA_NXZ 000000014000ef60 f i GigeCameraDemoDlg.obj
 0001:0000df80       ?SetColorTable@CImage@ATL@@QEAAXIIPEBUtagRGBQUAD@@@Z 000000014000ef80 f i GigeCameraDemoDlg.obj
 0001:0000e0e0       ?GetDC@CImage@ATL@@QEBAPEAUHDC__@@XZ 000000014000f0e0 f i GigeCameraDemoDlg.obj
 0001:0000e1c0       ?GetDC@CDCCache@CImage@ATL@@QEAAPEAUHDC__@@XZ 000000014000f1c0 f i GigeCameraDemoDlg.obj
 0001:0000e240       ?IsIndexed@CImage@ATL@@QEBA_NXZ 000000014000f240 f i GigeCameraDemoDlg.obj
 0001:0000e330       ?ReleaseDC@CImage@ATL@@QEBAXXZ 000000014000f330 f i GigeCameraDemoDlg.obj
 0001:0000e460       ?ReleaseDC@CDCCache@CImage@ATL@@QEAAXPEAUHDC__@@@Z 000000014000f460 f i GigeCameraDemoDlg.obj
 0001:0000e500       ?UpdateBitmapInfo@CImage@ATL@@AEAAXW4DIBOrientation@12@@Z 000000014000f500 f i GigeCameraDemoDlg.obj
 0001:0000e7b0       ?abs@@YAJJ@Z               000000014000f7b0 f i GigeCameraDemoDlg.obj
 0001:0000e7d0       ?ComputePitch@CImage@ATL@@CAHHH@Z 000000014000f7d0 f i GigeCameraDemoDlg.obj
 0001:0000e800       ?InitGDIPlus@CImage@ATL@@CA_NXZ 000000014000f800 f i GigeCameraDemoDlg.obj
 0001:0000e830       ?Init@CInitGDIPlus@CImage@ATL@@QEAA_NXZ 000000014000f830 f i GigeCameraDemoDlg.obj
 0001:0000e8e0       ??0GdiplusStartupInput@Gdiplus@@QEAA@P6AXW4DebugEventLevel@1@PEAD@ZHH@Z 000000014000f8e0 f i GigeCameraDemoDlg.obj
 0001:0000e940       ??0CImage@ATL@@QEAA@XZ     000000014000f940 f i GigeCameraDemoDlg.obj
 0001:0000ea40       ?IncreaseCImageCount@CInitGDIPlus@CImage@ATL@@QEAAXXZ 000000014000fa40 f i GigeCameraDemoDlg.obj
 0001:0000eaa0       ??_GCImage@ATL@@UEAAPEAXI@Z 000000014000faa0 f i GigeCameraDemoDlg.obj
 0001:0000eaa0       ??_ECImage@ATL@@UEAAPEAXI@Z 000000014000faa0 f i GigeCameraDemoDlg.obj
 0001:0000eaf0       ??1CImage@ATL@@UEAA@XZ     000000014000faf0 f i GigeCameraDemoDlg.obj
 0001:0000eb30       ?DecreaseCImageCount@CInitGDIPlus@CImage@ATL@@QEAAXXZ 000000014000fb30 f i GigeCameraDemoDlg.obj
 0001:0000ebb0       ?ReleaseGDIPlus@CInitGDIPlus@CImage@ATL@@QEAAXXZ 000000014000fbb0 f i GigeCameraDemoDlg.obj
 0001:0000ec20       ?Destroy@CImage@ATL@@QEAAXXZ 000000014000fc20 f i GigeCameraDemoDlg.obj
 0001:0000ec70       ?Detach@CImage@ATL@@QEAAPEAUHBITMAP__@@XZ 000000014000fc70 f i GigeCameraDemoDlg.obj
 0001:0000ede0       ?Draw@CImage@ATL@@QEBAHPEAUHDC__@@AEBUtagRECT@@@Z 000000014000fde0 f i GigeCameraDemoDlg.obj
 0001:0000ee90       ?Draw@CImage@ATL@@QEBAHPEAUHDC__@@HHHHHHHH@Z 000000014000fe90 f i GigeCameraDemoDlg.obj
 0001:0000f340       ?IsTransparencySupported@CImage@ATL@@SAHXZ 0000000140010340 f i GigeCameraDemoDlg.obj
 0001:0000f350       ?GetTransparentRGB@CImage@ATL@@AEBAKXZ 0000000140010350 f i GigeCameraDemoDlg.obj
 0001:0000f490       ??0?$CAtlSafeAllocBufferManager@VCCRTAllocator@ATL@@@_ATL_SAFE_ALLOCA_IMPL@ATL@@QEAA@XZ 0000000140010490 f i GigeCameraDemoDlg.obj
 0001:0000f4b0       ?Allocate@?$CAtlSafeAllocBufferManager@VCCRTAllocator@ATL@@@_ATL_SAFE_ALLOCA_IMPL@ATL@@QEAAPEAX_K@Z 00000001400104b0 f i GigeCameraDemoDlg.obj
 0001:0000f530       ?Allocate@CCRTAllocator@ATL@@SAPEAX_K@Z 0000000140010530 f i GigeCameraDemoDlg.obj
 0001:0000f550       ??1?$CAtlSafeAllocBufferManager@VCCRTAllocator@ATL@@@_ATL_SAFE_ALLOCA_IMPL@ATL@@QEAA@XZ 0000000140010550 f i GigeCameraDemoDlg.obj
 0001:0000f5b0       ?Free@CCRTAllocator@ATL@@SAXPEAX@Z 00000001400105b0 f i GigeCameraDemoDlg.obj
 0001:0000f5d0       ??HATL@@YA?AV?$CStringT@DV?$StrTraitMFC_DLL@DV?$ChTraitsCRT@D@ATL@@@@@0@AEBV10@PEBD@Z 00000001400105d0 f i GigeCameraDemoDlg.obj
 0001:0000f6c0       ??HATL@@YA?AV?$CStringT@DV?$StrTraitMFC_DLL@DV?$ChTraitsCRT@D@ATL@@@@@0@PEBDAEBV10@@Z 00000001400106c0 f i GigeCameraDemoDlg.obj
 0001:0000f7c0       ?GetData@CAtlSafeAllocBufferNode@?$CAtlSafeAllocBufferManager@VCCRTAllocator@ATL@@@_ATL_SAFE_ALLOCA_IMPL@ATL@@QEAAPEAXXZ 00000001400107c0 f i GigeCameraDemoDlg.obj
 0001:0000f7e0       ??$AtlAdd@_K@ATL@@YAJPEA_K_K1@Z 00000001400107e0 f i GigeCameraDemoDlg.obj
 0001:0000f850       HRESULT_FROM_WIN32         0000000140010850 f i GigeCameraDemoDlg.obj
 0001:0000f8a0       ??$AtlAlignUp@I@ATL@@YAIIK@Z 00000001400108a0 f i GigeCameraDemoDlg.obj
 0001:0000f8d0       ??$sprintf_s@$0EAA@@@YAHAEAY0EAA@DPEBDZZ 00000001400108d0 f i GigeCameraDemoDlg.obj
 0001:0000f930       ??$sprintf_s@$09@@YAHAEAY09DPEBDZZ 0000000140010930 f i GigeCameraDemoDlg.obj
 0001:0000f990       ??$strcpy_s@$0IA@@@YAHAEAY0IA@DPEBD@Z 0000000140010990 f i GigeCameraDemoDlg.obj
 0001:0000f9d0       ??$sprintf_s@$0CAA@@@YAHAEAY0CAA@DPEBDZZ 00000001400109d0 f i GigeCameraDemoDlg.obj
 0001:0000fa30       ??$AtlAddThrow@_K@ATL@@YA_K_K0@Z 0000000140010a30 f i GigeCameraDemoDlg.obj
 0001:0000fa80       ?AtlThrowImpl@ATL@@YAXJ@Z  0000000140010a80 f i GigeCameraDemoDlg.obj
 0001:0000fb10       ??0CTraceFileAndLineInfo@ATL@@QEAA@PEBDH@Z 0000000140010b10 f i GigeCameraDemoDlg.obj
 0001:0000fb50       ??RCTraceFileAndLineInfo@ATL@@QEBAX_KIPEBDZZ 0000000140010b50 f i GigeCameraDemoDlg.obj
 0001:0000fbe0       ?TraceV@CTrace@ATL@@QEBAXPEBDH_KI0PEAD@Z 0000000140010be0 f i GigeCameraDemoDlg.obj
 0001:0000fc50       ??BCTraceCategory@ATL@@QEBA_KXZ 0000000140010c50 f i GigeCameraDemoDlg.obj
 0001:0000fc70       ?_GetBaseClass@CInputDialog@@KAPEAUCRuntimeClass@@XZ 0000000140010c70 f   InputDialog.obj
 0001:0000fc90       ?GetThisClass@CInputDialog@@SAPEAUCRuntimeClass@@XZ 0000000140010c90 f   InputDialog.obj
 0001:0000fca0       ?GetRuntimeClass@CInputDialog@@UEBAPEAUCRuntimeClass@@XZ 0000000140010ca0 f   InputDialog.obj
 0001:0000fcc0       ??0CInputDialog@@QEAA@PEAVCWnd@@@Z 0000000140010cc0 f   InputDialog.obj
 0001:0000fd10       ??1CInputDialog@@UEAA@XZ   0000000140010d10 f   InputDialog.obj
 0001:0000fd40       ?DoDataExchange@CInputDialog@@MEAAXPEAVCDataExchange@@@Z 0000000140010d40 f   InputDialog.obj
 0001:0000fd90       ?GetMessageMap@CInputDialog@@MEBAPEBUAFX_MSGMAP@@XZ 0000000140010d90 f   InputDialog.obj
 0001:0000fdb0       ?GetThisMessageMap@CInputDialog@@KAPEBUAFX_MSGMAP@@XZ 0000000140010db0 f   InputDialog.obj
 0001:0000fdc0       ?OnBnClickedOk@CInputDialog@@QEAAXXZ 0000000140010dc0 f   InputDialog.obj
 0001:0000fe50       ??_GCInputDialog@@UEAAPEAXI@Z 0000000140010e50 f i InputDialog.obj
 0001:0000fe50       ??_ECInputDialog@@UEAAPEAXI@Z 0000000140010e50 f i InputDialog.obj
 0001:0000fea0       ?_GetBaseClass@CMessageDialog@@KAPEAUCRuntimeClass@@XZ 0000000140010ea0 f   MessageDialog.obj
 0001:0000fec0       ?GetThisClass@CMessageDialog@@SAPEAUCRuntimeClass@@XZ 0000000140010ec0 f   MessageDialog.obj
 0001:0000fed0       ?GetRuntimeClass@CMessageDialog@@UEBAPEAUCRuntimeClass@@XZ 0000000140010ed0 f   MessageDialog.obj
 0001:0000fef0       ??0CMessageDialog@@QEAA@PEAVCWnd@@@Z 0000000140010ef0 f   MessageDialog.obj
 0001:0000ff60       ??1CMessageDialog@@UEAA@XZ 0000000140010f60 f   MessageDialog.obj
 0001:0000ffb0       ?DoDataExchange@CMessageDialog@@MEAAXPEAVCDataExchange@@@Z 0000000140010fb0 f   MessageDialog.obj
 0001:0000ffe0       ?GetMessageMap@CMessageDialog@@MEBAPEBUAFX_MSGMAP@@XZ 0000000140010fe0 f   MessageDialog.obj
 0001:00010000       ?GetThisMessageMap@CMessageDialog@@KAPEBUAFX_MSGMAP@@XZ 0000000140011000 f   MessageDialog.obj
 0001:00010010       ?Response@CMessageDialog@@QEAA_J_K_J@Z 0000000140011010 f   MessageDialog.obj
 0001:000100f0       ?OnCtlColor@CMessageDialog@@QEAAPEAUHBRUSH__@@PEAVCDC@@PEAVCWnd@@I@Z 00000001400110f0 f   MessageDialog.obj
 0001:000102c0       ?OnEraseBkgnd@CMessageDialog@@QEAAHPEAVCDC@@@Z 00000001400112c0 f   MessageDialog.obj
 0001:000103c0       ?OnCreate@CMessageDialog@@QEAAHPEAUtagCREATESTRUCTA@@@Z 00000001400113c0 f   MessageDialog.obj
 0001:00010440       ?OnClose@CMessageDialog@@QEAAXXZ 0000000140011440 f   MessageDialog.obj
 0001:00010480       ?OnPaint@CMessageDialog@@QEAAXXZ 0000000140011480 f   MessageDialog.obj
 0001:000104e0       ?OnBnClickedOk@CMessageDialog@@QEAAXXZ 00000001400114e0 f   MessageDialog.obj
 0001:00010500       ?OnInitDialog@CMessageDialog@@UEAAHXZ 0000000140011500 f   MessageDialog.obj
 0001:00010530       ?OnTimer@CMessageDialog@@QEAAX_K@Z 0000000140011530 f   MessageDialog.obj
 0001:00010560       ?OnLButtonUp@CMessageDialog@@QEAAXIVCPoint@@@Z 0000000140011560 f   MessageDialog.obj
 0001:00010750       ??_GCMessageDialog@@UEAAPEAXI@Z 0000000140011750 f i MessageDialog.obj
 0001:00010750       ??_ECMessageDialog@@UEAAPEAXI@Z 0000000140011750 f i MessageDialog.obj
 0001:000107a0       ??0CSerialPort@@QEAA@XZ    00000001400117a0 f   SerialPort.obj
 0001:00010840       ??1CSerialPort@@UEAA@XZ    0000000140011840 f   SerialPort.obj
 0001:000108c0       ?InitPort@CSerialPort@@QEAAHPEAVCWnd@@IIDIIKI@Z 00000001400118c0 f   SerialPort.obj
 0001:00010f10       ?CommThread@CSerialPort@@KAIPEAX@Z 0000000140011f10 f   SerialPort.obj
 0001:00011220       ?StartMonitoring@CSerialPort@@QEAAHXZ 0000000140012220 f   SerialPort.obj
 0001:000112b0       ?RestartMonitoring@CSerialPort@@QEAAHXZ 00000001400122b0 f   SerialPort.obj
 0001:00011300       ?StopMonitoring@CSerialPort@@QEAAHXZ 0000000140012300 f   SerialPort.obj
 0001:00011350       ?ProcessErrorMessage@CSerialPort@@IEAAXPEAD@Z 0000000140012350 f   SerialPort.obj
 0001:00011420       ?WriteChar@CSerialPort@@KAXPEAV1@H@Z 0000000140012420 f   SerialPort.obj
 0001:00011650       ?ReceiveChar@CSerialPort@@KAXPEAV1@U_COMSTAT@@@Z 0000000140012650 f   SerialPort.obj
 0001:00011820       ?WriteToPort@CSerialPort@@QEAAXPEAD@Z 0000000140012820 f   SerialPort.obj
 0001:000118a0       ?WriteToPort@CSerialPort@@QEAAXPEADH@Z 00000001400128a0 f   SerialPort.obj
 0001:00011960       ?GetDCB@CSerialPort@@QEAA?AU_DCB@@XZ 0000000140012960 f   SerialPort.obj
 0001:000119b0       ?GetCommEvents@CSerialPort@@QEAAKXZ 00000001400129b0 f   SerialPort.obj
 0001:000119d0       ?GetWriteBufferSize@CSerialPort@@QEAAKXZ 00000001400129d0 f   SerialPort.obj
 0001:000119f0       ?GetPortNO@CSerialPort@@QEAAHXZ 00000001400129f0 f   SerialPort.obj
 0001:00011ea0       ??_ECSerialPort@@UEAAPEAXI@Z 0000000140012ea0 f i SerialPort.obj
 0001:00011ea0       ??_GCSerialPort@@UEAAPEAXI@Z 0000000140012ea0 f i SerialPort.obj
 0001:00011ef0       ??RCTraceFileAndLineInfo@ATL@@QEBAXPEBDZZ 0000000140012ef0 f i SerialPort.obj
 0001:00011f90       ?_GetBaseClass@CSplashWnd@@KAPEAUCRuntimeClass@@XZ 0000000140012f90 f   SplashWnd.obj
 0001:00011fb0       ?GetThisClass@CSplashWnd@@SAPEAUCRuntimeClass@@XZ 0000000140012fb0 f   SplashWnd.obj
 0001:00011fc0       ?GetRuntimeClass@CSplashWnd@@UEBAPEAUCRuntimeClass@@XZ 0000000140012fc0 f   SplashWnd.obj
 0001:00011fe0       ??0CSplashWnd@@QEAA@XZ     0000000140012fe0 f   SplashWnd.obj
 0001:000120f0       ??1CSplashWnd@@UEAA@XZ     00000001400130f0 f   SplashWnd.obj
 0001:000121a0       ?GetMessageMap@CSplashWnd@@MEBAPEBUAFX_MSGMAP@@XZ 00000001400131a0 f   SplashWnd.obj
 0001:000121c0       ?GetThisMessageMap@CSplashWnd@@KAPEBUAFX_MSGMAP@@XZ 00000001400131c0 f   SplashWnd.obj
 0001:000121d0       ?DeleteSplash@CSplashWnd@@QEAAXXZ 00000001400131d0 f   SplashWnd.obj
 0001:000121f0       ?CreateSplash@CSplashWnd@@QEAAXXZ 00000001400131f0 f   SplashWnd.obj
 0001:000122f0       ?OnPaint@CSplashWnd@@IEAAXXZ 00000001400132f0 f   SplashWnd.obj
 0001:000124f0       ?ImageFrom_IDResource@CSplashWnd@@QEAAXIPEBDPEAVCImage@ATL@@@Z 00000001400134f0 f   SplashWnd.obj
 0001:000125f0       ?SetInfo@CSplashWnd@@QEAAXV?$CStringT@DV?$StrTraitMFC_DLL@DV?$ChTraitsCRT@D@ATL@@@@@ATL@@@Z 00000001400135f0 f   SplashWnd.obj
 0001:00012640       ?On_Timer@@YAKPEAX@Z       0000000140013640 f   SplashWnd.obj
 0001:00012f50       ?OnNcDestroy@CSplashWnd@@QEAAXXZ 0000000140013f50 f   SplashWnd.obj
 0001:00012f80       ?HideCursor@CSplashWnd@@QEAAXXZ 0000000140013f80 f   SplashWnd.obj
 0001:000133c0       ??_ECSplashWnd@@UEAAPEAXI@Z 00000001400143c0 f i SplashWnd.obj
 0001:000133c0       ??_GCSplashWnd@@UEAAPEAXI@Z 00000001400143c0 f i SplashWnd.obj
 0001:00013404       ??1SapAcquisition@@UEAA@XZ 0000000140014404 f   SapClassBasic:SapClassBasic82.dll
 0001:0001340a       ??0SapAcquisition@@QEAA@VSapLocation@@@Z 000000014001440a f   SapClassBasic:SapClassBasic82.dll
 0001:00013410       ??0SapLocation@@QEAA@HH@Z  0000000140014410 f   SapClassBasic:SapClassBasic82.dll
 0001:00013416       ?GetEventCount@SapXferCallbackInfo@@QEBAHXZ 0000000140014416 f   SapClassBasic:SapClassBasic82.dll
 0001:0001341c       ?GetHeight@SapBuffer@@QEBAHXZ 000000014001441c f   SapClassBasic:SapClassBasic82.dll
 0001:00013422       ?GetWidth@SapBuffer@@QEBAHXZ 0000000140014422 f   SapClassBasic:SapClassBasic82.dll
 0001:00013428       ?GetContext@SapXferCallbackInfo@@QEBAPEAXXZ 0000000140014428 f   SapClassBasic:SapClassBasic82.dll
 0001:0001342e       ??0SapView@@QEAA@PEAVSapBuffer@@PEAUHWND__@@P6AXPEAVSapViewCallbackInfo@@@ZPEAX@Z 000000014001442e f   SapClassBasic:SapClassBasic82.dll
 0001:00013434       ??0SapAcqDeviceToBuf@@QEAA@PEAVSapAcqDevice@@PEAVSapBuffer@@P6AXPEAVSapXferCallbackInfo@@@ZPEAX@Z 0000000140014434 f   SapClassBasic:SapClassBasic82.dll
 0001:0001343a       ??0SapBufferWithTrash@@QEAA@HPEAVSapXferNode@@HVSapLocation@@@Z 000000014001443a f   SapClassBasic:SapClassBasic82.dll
 0001:00013440       ??0SapAcqDevice@@QEAA@VSapLocation@@PEBD@Z 0000000140014440 f   SapClassBasic:SapClassBasic82.dll
 0001:00013446       ?GetServerSerialNumber@SapManager@@SAHHPEAD@Z 0000000140014446 f   SapClassBasic:SapClassBasic82.dll
 0001:0001344c       ?GetResourceCount@SapManager@@SAHHH@Z 000000014001444c f   SapClassBasic:SapClassBasic82.dll
 0001:00013452       ?DetectAllServers@SapManager@@SAHH@Z 0000000140014452 f   SapClassBasic:SapClassBasic82.dll
 0001:00013458       ?GetServerCount@SapManager@@SAHXZ 0000000140014458 f   SapClassBasic:SapClassBasic82.dll
 0001:0001345e       ?Create@SapAcqDevice@@UEAAHXZ 000000014001445e f   SapClassBasic:SapClassBasic82.dll
 0001:00013464       ?Destroy@SapAcqDevice@@UEAAHXZ 0000000140014464 f   SapClassBasic:SapClassBasic82.dll
 0001:0001346a       ?GetXferParams@SapXferNode@@UEBA?AVSapXferParams@@H@Z 000000014001446a f   SapClassBasic:SapClassBasic82.dll
 0001:00013470       ?GetInputXferParams@SapXferNode@@UEBA?AVSapXferParams@@H@Z 0000000140014470 f   SapClassBasic:SapClassBasic82.dll
 0001:00013476       ?GetOutputXferParams@SapXferNode@@UEBA?AVSapXferParams@@H@Z 0000000140014476 f   SapClassBasic:SapClassBasic82.dll
 0001:0001347c       ?SetSrcNode@SapXferNode@@UEAAHPEAV1@H@Z 000000014001447c f   SapClassBasic:SapClassBasic82.dll
 0001:00013482       ?SetXferParams@SapXferNode@@UEAAHVSapXferParams@@H@Z 0000000140014482 f   SapClassBasic:SapClassBasic82.dll
 0001:00013488       ?SetInputXferParams@SapXferNode@@UEAAHVSapXferParams@@H@Z 0000000140014488 f   SapClassBasic:SapClassBasic82.dll
 0001:0001348e       ?SetOutputXferParams@SapXferNode@@UEAAHVSapXferParams@@H@Z 000000014001448e f   SapClassBasic:SapClassBasic82.dll
 0001:00013494       ?GetHandle@SapXferNode@@UEBAPEAU__CORHANDLE@@H@Z 0000000140014494 f   SapClassBasic:SapClassBasic82.dll
 0001:0001349a       ?GetHandle@SapXferNode@@UEBAPEAU__CORHANDLE@@XZ 000000014001449a f   SapClassBasic:SapClassBasic82.dll
 0001:000134a0       ?GetXferParamsFromSrcNode@SapXferNode@@UEAAXXZ 00000001400144a0 f   SapClassBasic:SapClassBasic82.dll
 0001:000134a6       ?GetXferNodeType@SapAcqDevice@@UEAA?AW4XferNodeType@SapXferNode@@XZ 00000001400144a6 f   SapClassBasic:SapClassBasic82.dll
 0001:000134ac       ?IsBuffer@SapXferNode@@UEAAHXZ 00000001400144ac f   SapClassBasic:SapClassBasic82.dll
 0001:000134b2       ??ASapXferNode@@UEBAPEAU__CORHANDLE@@H@Z 00000001400144b2 f   SapClassBasic:SapClassBasic82.dll
 0001:000134b8       ?GetCount@SapXferNode@@UEBAHXZ 00000001400144b8 f   SapClassBasic:SapClassBasic82.dll
 0001:000134be       ?GetIndex@SapXferNode@@UEBAHXZ 00000001400144be f   SapClassBasic:SapClassBasic82.dll
 0001:000134c4       ?SetIndex@SapXferNode@@UEAAHH@Z 00000001400144c4 f   SapClassBasic:SapClassBasic82.dll
 0001:000134ca       ?ResetIndex@SapXferNode@@UEAAXXZ 00000001400144ca f   SapClassBasic:SapClassBasic82.dll
 0001:000134d0       ?Next@SapXferNode@@UEAAXXZ 00000001400144d0 f   SapClassBasic:SapClassBasic82.dll
 0001:000134d6       ?GetTrash@SapXferNode@@UEBAPEAU__CORHANDLE@@XZ 00000001400144d6 f   SapClassBasic:SapClassBasic82.dll
 0001:000134dc       ?Empty@SapXferNode@@UEAAHH@Z 00000001400144dc f   SapClassBasic:SapClassBasic82.dll
 0001:000134e2       ?Empty@SapXferNode@@UEAAHXZ 00000001400144e2 f   SapClassBasic:SapClassBasic82.dll
 0001:000134e8       ?EmptyAll@SapXferNode@@UEAAHXZ 00000001400144e8 f   SapClassBasic:SapClassBasic82.dll
 0001:000134ee       ?Create@SapBufferWithTrash@@UEAAHXZ 00000001400144ee f   SapClassBasic:SapClassBasic82.dll
 0001:000134f4       ?Destroy@SapBufferWithTrash@@UEAAHXZ 00000001400144f4 f   SapClassBasic:SapClassBasic82.dll
 0001:000134fa       ?GetHandle@SapBuffer@@UEBAPEAU__CORHANDLE@@H@Z 00000001400144fa f   SapClassBasic:SapClassBasic82.dll
 0001:00013500       ?GetHandle@SapBuffer@@UEBAPEAU__CORHANDLE@@XZ 0000000140014500 f   SapClassBasic:SapClassBasic82.dll
 0001:00013506       ?GetXferNodeType@SapBuffer@@UEAA?AW4XferNodeType@SapXferNode@@XZ 0000000140014506 f   SapClassBasic:SapClassBasic82.dll
 0001:0001350c       ??ASapBuffer@@UEBAPEAU__CORHANDLE@@H@Z 000000014001450c f   SapClassBasic:SapClassBasic82.dll
 0001:00013512       ?GetCount@SapBuffer@@UEBAHXZ 0000000140014512 f   SapClassBasic:SapClassBasic82.dll
 0001:00013518       ?GetIndex@SapBuffer@@UEBAHXZ 0000000140014518 f   SapClassBasic:SapClassBasic82.dll
 0001:0001351e       ?SetIndex@SapBuffer@@UEAAHH@Z 000000014001451e f   SapClassBasic:SapClassBasic82.dll
 0001:00013524       ?ResetIndex@SapBuffer@@UEAAXXZ 0000000140014524 f   SapClassBasic:SapClassBasic82.dll
 0001:0001352a       ?Next@SapBuffer@@UEAAXXZ   000000014001452a f   SapClassBasic:SapClassBasic82.dll
 0001:00013530       ?GetTrash@SapBufferWithTrash@@UEBAPEAU__CORHANDLE@@XZ 0000000140014530 f   SapClassBasic:SapClassBasic82.dll
 0001:00013536       ?Empty@SapBuffer@@UEAAHH@Z 0000000140014536 f   SapClassBasic:SapClassBasic82.dll
 0001:0001353c       ?Empty@SapBuffer@@UEAAHXZ  000000014001453c f   SapClassBasic:SapClassBasic82.dll
 0001:00013542       ?EmptyAll@SapBuffer@@UEAAHXZ 0000000140014542 f   SapClassBasic:SapClassBasic82.dll
 0001:00013548       ?SetCount@SapBuffer@@UEAAHH@Z 0000000140014548 f   SapClassBasic:SapClassBasic82.dll
 0001:0001354e       ?SetWidth@SapBuffer@@UEAAHH@Z 000000014001454e f   SapClassBasic:SapClassBasic82.dll
 0001:00013554       ?SetHeight@SapBuffer@@UEAAHH@Z 0000000140014554 f   SapClassBasic:SapClassBasic82.dll
 0001:0001355a       ?SetFormat@SapBuffer@@UEAAHH@Z 000000014001455a f   SapClassBasic:SapClassBasic82.dll
 0001:00013560       ?SetType@SapBuffer@@UEAAHH@Z 0000000140014560 f   SapClassBasic:SapClassBasic82.dll
 0001:00013566       ?SetPixelDepth@SapBuffer@@UEAAHH@Z 0000000140014566 f   SapClassBasic:SapClassBasic82.dll
 0001:0001356c       ?SetVirtualAddress@SapBuffer@@UEAAHQEAPEAX@Z 000000014001456c f   SapClassBasic:SapClassBasic82.dll
 0001:00013572       ?SetPhysicalAddress@SapBuffer@@UEAAHQEA_K@Z 0000000140014572 f   SapClassBasic:SapClassBasic82.dll
 0001:00013578       ?SetParameters@SapBuffer@@UEAAHHQEA_KHHHH@Z 0000000140014578 f   SapClassBasic:SapClassBasic82.dll
 0001:0001357e       ?SetParameters@SapBuffer@@UEAAHHQEAPEAXHHHH@Z 000000014001457e f   SapClassBasic:SapClassBasic82.dll
 0001:00013584       ?SetParameters@SapBuffer@@UEAAHHHHHH@Z 0000000140014584 f   SapClassBasic:SapClassBasic82.dll
 0001:0001358a       ?SetParametersFromFile@SapBuffer@@UEAAHPEBDH@Z 000000014001458a f   SapClassBasic:SapClassBasic82.dll
 0001:00013590       ?SetFrameRate@SapBuffer@@UEAAXM@Z 0000000140014590 f   SapClassBasic:SapClassBasic82.dll
 0001:00013596       ?GetAddress@SapBuffer@@UEAAHH_K0PEAXPEAPEAX@Z 0000000140014596 f   SapClassBasic:SapClassBasic82.dll
 0001:0001359c       ?GetAddress@SapBuffer@@UEAAHH_K0PEAPEAX@Z 000000014001459c f   SapClassBasic:SapClassBasic82.dll
 0001:000135a2       ?GetAddress@SapBuffer@@UEAAH_K0PEAXPEAPEAX@Z 00000001400145a2 f   SapClassBasic:SapClassBasic82.dll
 0001:000135a8       ?GetAddress@SapBuffer@@UEAAH_K0PEAPEAX@Z 00000001400145a8 f   SapClassBasic:SapClassBasic82.dll
 0001:000135ae       ?GetAddress@SapBuffer@@UEAAHHPEAXPEAPEAX@Z 00000001400145ae f   SapClassBasic:SapClassBasic82.dll
 0001:000135b4       ?GetAddress@SapBuffer@@UEAAHHPEAPEAX@Z 00000001400145b4 f   SapClassBasic:SapClassBasic82.dll
 0001:000135ba       ?GetAddress@SapBuffer@@UEAAHPEAXPEAPEAX@Z 00000001400145ba f   SapClassBasic:SapClassBasic82.dll
 0001:000135c0       ?GetAddress@SapBuffer@@UEAAHPEAPEAX@Z 00000001400145c0 f   SapClassBasic:SapClassBasic82.dll
 0001:000135c6       ?ReleaseAddress@SapBuffer@@UEAAHHPEAX@Z 00000001400145c6 f   SapClassBasic:SapClassBasic82.dll
 0001:000135cc       ?ReleaseAddress@SapBuffer@@UEAAHPEAX@Z 00000001400145cc f   SapClassBasic:SapClassBasic82.dll
 0001:000135d2       ?IsMapped@SapBuffer@@UEAAHXZ 00000001400145d2 f   SapClassBasic:SapClassBasic82.dll
 0001:000135d8       ?IsMapped@SapBuffer@@UEAAHH@Z 00000001400145d8 f   SapClassBasic:SapClassBasic82.dll
 0001:000135de       ?GetCounterStamp@SapBuffer@@UEAAHHPEAH@Z 00000001400145de f   SapClassBasic:SapClassBasic82.dll
 0001:000135e4       ?GetCounterStamp@SapBuffer@@UEAAHPEAH@Z 00000001400145e4 f   SapClassBasic:SapClassBasic82.dll
 0001:000135ea       ?GetHostCounterStamp@SapBuffer@@UEAAHHPEA_K@Z 00000001400145ea f   SapClassBasic:SapClassBasic82.dll
 0001:000135f0       ?GetHostCounterStamp@SapBuffer@@UEAAHPEA_K@Z 00000001400145f0 f   SapClassBasic:SapClassBasic82.dll
 0001:000135f6       ?GetDeviceTimeStamp@SapBuffer@@UEAAHHPEA_K@Z 00000001400145f6 f   SapClassBasic:SapClassBasic82.dll
 0001:000135fc       ?GetDeviceTimeStamp@SapBuffer@@UEAAHPEA_K@Z 00000001400145fc f   SapClassBasic:SapClassBasic82.dll
 0001:00013602       ?GetSpaceUsed@SapBuffer@@UEAAHHPEAH@Z 0000000140014602 f   SapClassBasic:SapClassBasic82.dll
 0001:00013608       ?GetSpaceUsed@SapBuffer@@UEAAHPEAH@Z 0000000140014608 f   SapClassBasic:SapClassBasic82.dll
 0001:0001360e       ?GetHandles@SapBuffer@@UEBAPEAPEAU__CORHANDLE@@XZ 000000014001460e f   SapClassBasic:SapClassBasic82.dll
 0001:00013614       ?IsCapabilityValid@SapBuffer@@UEAAHH@Z 0000000140014614 f   SapClassBasic:SapClassBasic82.dll
 0001:0001361a       ?GetCapability@SapBuffer@@UEAAHHHPEAX@Z 000000014001461a f   SapClassBasic:SapClassBasic82.dll
 0001:00013620       ?GetCapability@SapBuffer@@UEAAHHPEAX@Z 0000000140014620 f   SapClassBasic:SapClassBasic82.dll
 0001:00013626       ?IsParameterValid@SapBuffer@@UEAAHHH@Z 0000000140014626 f   SapClassBasic:SapClassBasic82.dll
 0001:0001362c       ?IsParameterValid@SapBuffer@@UEAAHH@Z 000000014001462c f   SapClassBasic:SapClassBasic82.dll
 0001:00013632       ?GetParameter@SapBuffer@@UEAAHHHPEAX@Z 0000000140014632 f   SapClassBasic:SapClassBasic82.dll
 0001:00013638       ?GetParameter@SapBuffer@@UEAAHHPEAX@Z 0000000140014638 f   SapClassBasic:SapClassBasic82.dll
 0001:0001363e       ?SetParameter@SapBuffer@@UEAAHHHPEAX@Z 000000014001463e f   SapClassBasic:SapClassBasic82.dll
 0001:00013644       ?SetParameter@SapBuffer@@UEAAHHPEAX@Z 0000000140014644 f   SapClassBasic:SapClassBasic82.dll
 0001:0001364a       ?SetParameter@SapBuffer@@UEAAHHHH@Z 000000014001464a f   SapClassBasic:SapClassBasic82.dll
 0001:00013650       ?SetParameter@SapBuffer@@UEAAHHH@Z 0000000140014650 f   SapClassBasic:SapClassBasic82.dll
 0001:00013656       ?GetParent@SapBuffer@@UEAAPEAV1@XZ 0000000140014656 f   SapClassBasic:SapClassBasic82.dll
 0001:0001365c       ?GetRoot@SapBuffer@@UEAAPEAV1@XZ 000000014001465c f   SapClassBasic:SapClassBasic82.dll
 0001:00013662       ?SetState@SapBuffer@@UEAAHHH@Z 0000000140014662 f   SapClassBasic:SapClassBasic82.dll
 0001:00013668       ?SetState@SapBuffer@@UEAAHH@Z 0000000140014668 f   SapClassBasic:SapClassBasic82.dll
 0001:0001366e       ?SetAllState@SapBuffer@@UEAAHH@Z 000000014001466e f   SapClassBasic:SapClassBasic82.dll
 0001:00013674       ?GetState@SapBuffer@@UEAAHHPEAH@Z 0000000140014674 f   SapClassBasic:SapClassBasic82.dll
 0001:0001367a       ?GetState@SapBuffer@@UEAAHPEAH@Z 000000014001467a f   SapClassBasic:SapClassBasic82.dll
 0001:00013680       ?GetNumPages@SapBuffer@@UEAAHPEAH@Z 0000000140014680 f   SapClassBasic:SapClassBasic82.dll
 0001:00013686       ?SetPage@SapBuffer@@UEAAHHH@Z 0000000140014686 f   SapClassBasic:SapClassBasic82.dll
 0001:0001368c       ?SetPage@SapBuffer@@UEAAHH@Z 000000014001468c f   SapClassBasic:SapClassBasic82.dll
 0001:00013692       ?SetAllPage@SapBuffer@@UEAAHH@Z 0000000140014692 f   SapClassBasic:SapClassBasic82.dll
 0001:00013698       ?GetPage@SapBuffer@@UEAAHHPEAH@Z 0000000140014698 f   SapClassBasic:SapClassBasic82.dll
 0001:0001369e       ?GetPage@SapBuffer@@UEAAHPEAH@Z 000000014001469e f   SapClassBasic:SapClassBasic82.dll
 0001:000136a4       ?IsMultiFormat@SapBuffer@@UEAAHXZ 00000001400146a4 f   SapClassBasic:SapClassBasic82.dll
 0001:000136aa       ?GetPageFormat@SapBuffer@@UEAAHPEAH@Z 00000001400146aa f   SapClassBasic:SapClassBasic82.dll
 0001:000136b0       ?Clear@SapBuffer@@UEAAHHVSapData@@@Z 00000001400146b0 f   SapClassBasic:SapClassBasic82.dll
 0001:000136b6       ?Clear@SapBuffer@@UEAAHVSapData@@@Z 00000001400146b6 f   SapClassBasic:SapClassBasic82.dll
 0001:000136bc       ?Clear@SapBuffer@@UEAAHH@Z 00000001400146bc f   SapClassBasic:SapClassBasic82.dll
 0001:000136c2       ?Clear@SapBuffer@@UEAAHXZ  00000001400146c2 f   SapClassBasic:SapClassBasic82.dll
 0001:000136c8       ?Load@SapBuffer@@UEAAHPEBD0HH@Z 00000001400146c8 f   SapClassBasic:SapClassBasic82.dll
 0001:000136ce       ?Load@SapBuffer@@UEAAHPEBDHHH0@Z 00000001400146ce f   SapClassBasic:SapClassBasic82.dll
 0001:000136d4       ?Save@SapBuffer@@UEAAHPEBD0HH@Z 00000001400146d4 f   SapClassBasic:SapClassBasic82.dll
 0001:000136da       ?Read@SapBuffer@@UEAAHH_KHPEAX@Z 00000001400146da f   SapClassBasic:SapClassBasic82.dll
 0001:000136e0       ?Read@SapBuffer@@UEAAH_KHPEAX@Z 00000001400146e0 f   SapClassBasic:SapClassBasic82.dll
 0001:000136e6       ?ReadElement@SapBuffer@@UEAAHHHPEAH00@Z 00000001400146e6 f   SapClassBasic:SapClassBasic82.dll
 0001:000136ec       ?ReadElement@SapBuffer@@UEAAHHHHPEAVSapData@@@Z 00000001400146ec f   SapClassBasic:SapClassBasic82.dll
 0001:000136f2       ?ReadElement@SapBuffer@@UEAAHHHPEAVSapData@@@Z 00000001400146f2 f   SapClassBasic:SapClassBasic82.dll
 0001:000136f8       ?ReadElement@SapBuffer@@UEAAHHHHPEAX@Z 00000001400146f8 f   SapClassBasic:SapClassBasic82.dll
 0001:000136fe       ?ReadElement@SapBuffer@@UEAAHHHPEAX@Z 00000001400146fe f   SapClassBasic:SapClassBasic82.dll
 0001:00013704       ?ReadLine@SapBuffer@@UEAAHHHHHHPEAXPEAH@Z 0000000140014704 f   SapClassBasic:SapClassBasic82.dll
 0001:0001370a       ?ReadLine@SapBuffer@@UEAAHHHHHPEAXPEAH@Z 000000014001470a f   SapClassBasic:SapClassBasic82.dll
 0001:00013710       ?ReadRect@SapBuffer@@UEAAHHHHHHPEAX@Z 0000000140014710 f   SapClassBasic:SapClassBasic82.dll
 0001:00013716       ?ReadRect@SapBuffer@@UEAAHHHHHPEAX@Z 0000000140014716 f   SapClassBasic:SapClassBasic82.dll
 0001:0001371c       ?Write@SapBuffer@@UEAAHH_KHPEBX@Z 000000014001471c f   SapClassBasic:SapClassBasic82.dll
 0001:00013722       ?Write@SapBuffer@@UEAAH_KHPEBX@Z 0000000140014722 f   SapClassBasic:SapClassBasic82.dll
 0001:00013728       ?WriteElement@SapBuffer@@UEAAHHHHVSapData@@@Z 0000000140014728 f   SapClassBasic:SapClassBasic82.dll
 0001:0001372e       ?WriteElement@SapBuffer@@UEAAHHHVSapData@@@Z 000000014001472e f   SapClassBasic:SapClassBasic82.dll
 0001:00013734       ?WriteElement@SapBuffer@@UEAAHHHHPEBX@Z 0000000140014734 f   SapClassBasic:SapClassBasic82.dll
 0001:0001373a       ?WriteElement@SapBuffer@@UEAAHHHPEBX@Z 000000014001473a f   SapClassBasic:SapClassBasic82.dll
 0001:00013740       ?WriteLine@SapBuffer@@UEAAHHHHHHPEBXPEAH@Z 0000000140014740 f   SapClassBasic:SapClassBasic82.dll
 0001:00013746       ?WriteLine@SapBuffer@@UEAAHHHHHPEBXPEAH@Z 0000000140014746 f   SapClassBasic:SapClassBasic82.dll
 0001:0001374c       ?WriteRect@SapBuffer@@UEAAHHHHHHPEBX@Z 000000014001474c f   SapClassBasic:SapClassBasic82.dll
 0001:00013752       ?WriteRect@SapBuffer@@UEAAHHHHHPEBX@Z 0000000140014752 f   SapClassBasic:SapClassBasic82.dll
 0001:00013758       ?Copy@SapBuffer@@UEAAHPEAV1@HH@Z 0000000140014758 f   SapClassBasic:SapClassBasic82.dll
 0001:0001375e       ?Copy@SapBuffer@@UEAAHPEAV1@@Z 000000014001475e f   SapClassBasic:SapClassBasic82.dll
 0001:00013764       ?CopyAll@SapBuffer@@UEAAHPEAV1@@Z 0000000140014764 f   SapClassBasic:SapClassBasic82.dll
 0001:0001376a       ?CopyRect@SapBuffer@@UEAAHPEAV1@HHHHHHHH@Z 000000014001476a f   SapClassBasic:SapClassBasic82.dll
 0001:00013770       ?ColorConvert@SapBuffer@@UEAAHPEAV1@HHHHVSapDataFRGB@@PEAVSapLut@@@Z 0000000140014770 f   SapClassBasic:SapClassBasic82.dll
 0001:00013776       ?ColorConvert@SapBuffer@@UEAAHPEAV1@HHVSapDataFRGB@@PEAVSapLut@@@Z 0000000140014776 f   SapClassBasic:SapClassBasic82.dll
 0001:0001377c       ?ColorWhiteBalance@SapBuffer@@UEAAHHHPEAVSapDataFRGB@@@Z 000000014001477c f   SapClassBasic:SapClassBasic82.dll
 0001:00013782       ?ColorWhiteBalance@SapBuffer@@UEAAHHPEAVSapDataFRGB@@@Z 0000000140014782 f   SapClassBasic:SapClassBasic82.dll
 0001:00013788       ?SplitComponents@SapBuffer@@UEAAHPEAV1@00H@Z 0000000140014788 f   SapClassBasic:SapClassBasic82.dll
 0001:0001378e       ?SplitComponents@SapBuffer@@UEAAHPEAV1@00@Z 000000014001478e f   SapClassBasic:SapClassBasic82.dll
 0001:00013794       ?SplitComponents@SapBuffer@@UEAAHPEAV1@H@Z 0000000140014794 f   SapClassBasic:SapClassBasic82.dll
 0001:0001379a       ?SplitComponents@SapBuffer@@UEAAHPEAV1@@Z 000000014001479a f   SapClassBasic:SapClassBasic82.dll
 0001:000137a0       ?MergeComponents@SapBuffer@@UEAAHPEAV1@00H@Z 00000001400147a0 f   SapClassBasic:SapClassBasic82.dll
 0001:000137a6       ?MergeComponents@SapBuffer@@UEAAHPEAV1@00@Z 00000001400147a6 f   SapClassBasic:SapClassBasic82.dll
 0001:000137ac       ?MergeComponents@SapBuffer@@UEAAHPEAV1@H@Z 00000001400147ac f   SapClassBasic:SapClassBasic82.dll
 0001:000137b2       ?MergeComponents@SapBuffer@@UEAAHPEAV1@@Z 00000001400147b2 f   SapClassBasic:SapClassBasic82.dll
 0001:000137b8       ?Register@SapBuffer@@UEAAHPEBD@Z 00000001400147b8 f   SapClassBasic:SapClassBasic82.dll
 0001:000137be       ?Unregister@SapBuffer@@UEAAHXZ 00000001400147be f   SapClassBasic:SapClassBasic82.dll
 0001:000137c4       ?GetNumRoi@SapBuffer@@UEBAHXZ 00000001400147c4 f   SapClassBasic:SapClassBasic82.dll
 0001:000137ca       ?GetRoi@SapBuffer@@UEBAQEAUtagRECT@@H@Z 00000001400147ca f   SapClassBasic:SapClassBasic82.dll
 0001:000137d0       ?AddRoi@SapBuffer@@UEAAHUtagRECT@@@Z 00000001400147d0 f   SapClassBasic:SapClassBasic82.dll
 0001:000137d6       ?RemoveAllRoi@SapBuffer@@UEAAHXZ 00000001400147d6 f   SapClassBasic:SapClassBasic82.dll
 0001:000137dc       ?GetChild@SapBuffer@@UEBAPEAU__CORHANDLE@@HH@Z 00000001400147dc f   SapClassBasic:SapClassBasic82.dll
 0001:000137e2       ?BayerConvert@SapBuffer@@UEAAHPEAV1@HHHHVSapDataFRGB@@PEAVSapLut@@@Z 00000001400147e2 f   SapClassBasic:SapClassBasic82.dll
 0001:000137e8       ?BayerConvert@SapBuffer@@UEAAHPEAV1@HHVSapDataFRGB@@PEAVSapLut@@@Z 00000001400147e8 f   SapClassBasic:SapClassBasic82.dll
 0001:000137ee       ?BayerWhiteBalance@SapBuffer@@UEAAHHHPEAVSapDataFRGB@@@Z 00000001400147ee f   SapClassBasic:SapClassBasic82.dll
 0001:000137f4       ?BayerWhiteBalance@SapBuffer@@UEAAHHPEAVSapDataFRGB@@@Z 00000001400147f4 f   SapClassBasic:SapClassBasic82.dll
 0001:000137fa       ?Construct@SapBuffer@@MEAAXPEBDPEAVSapDisplay@@@Z 00000001400147fa f   SapClassBasic:SapClassBasic82.dll
 0001:00013800       ?GetTrashType@SapBufferWithTrash@@UEAAHXZ 0000000140014800 f   SapClassBasic:SapClassBasic82.dll
 0001:00013806       ?SetTrashType@SapBufferWithTrash@@UEAAHH@Z 0000000140014806 f   SapClassBasic:SapClassBasic82.dll
 0001:0001380c       ?Construct@SapBufferWithTrash@@MEAAXXZ 000000014001480c f   SapClassBasic:SapClassBasic82.dll
 0001:00013812       ?Create@SapTransfer@@UEAAHXZ 0000000140014812 f   SapClassBasic:SapClassBasic82.dll
 0001:00013818       ?Destroy@SapTransfer@@UEAAHXZ 0000000140014818 f   SapClassBasic:SapClassBasic82.dll
 0001:0001381e       ?Connect@SapTransfer@@UEAAHXZ 000000014001481e f   SapClassBasic:SapClassBasic82.dll
 0001:00013824       ?Disconnect@SapTransfer@@UEAAHXZ 0000000140014824 f   SapClassBasic:SapClassBasic82.dll
 0001:0001382a       ?GetHandle@SapTransfer@@UEBAPEAU__CORHANDLE@@XZ 000000014001482a f   SapClassBasic:SapClassBasic82.dll
 0001:00013830       ?GetCallback@SapTransfer@@UEBAP6AXPEAVSapXferCallbackInfo@@@ZXZ 0000000140014830 f   SapClassBasic:SapClassBasic82.dll
 0001:00013836       ?GetTrashCallback@SapTransfer@@UEBAP6AXPEAVSapXferCallbackInfo@@@ZXZ 0000000140014836 f   SapClassBasic:SapClassBasic82.dll
 0001:0001383c       ?GetContext@SapTransfer@@UEBAPEAXXZ 000000014001483c f   SapClassBasic:SapClassBasic82.dll
 0001:00013842       ?IsGrabbing@SapTransfer@@UEBAHXZ 0000000140014842 f   SapClassBasic:SapClassBasic82.dll
 0001:00013848       ?IsAutoEmpty@SapTransfer@@UEBAHXZ 0000000140014848 f   SapClassBasic:SapClassBasic82.dll
 0001:0001384e       ?IsAutoConnect@SapTransfer@@UEBAHXZ 000000014001484e f   SapClassBasic:SapClassBasic82.dll
 0001:00013854       ?IsConnected@SapTransfer@@UEBAHXZ 0000000140014854 f   SapClassBasic:SapClassBasic82.dll
 0001:0001385a       ?GetStartMode@SapTransfer@@UEBAHXZ 000000014001485a f   SapClassBasic:SapClassBasic82.dll
 0001:00013860       ?IsCycleModeAvailable@SapTransfer@@UEAAHHH@Z 0000000140014860 f   SapClassBasic:SapClassBasic82.dll
 0001:00013866       ?GetConnectTimeout@SapTransfer@@UEBAHXZ 0000000140014866 f   SapClassBasic:SapClassBasic82.dll
 0001:0001386c       ?SetCallbackInfo@SapTransfer@@UEAAHPEAVSapXferPair@@@Z 000000014001486c f   SapClassBasic:SapClassBasic82.dll
 0001:00013872       ?SetCallbackInfo@SapTransfer@@UEAAHP6AXPEAVSapXferCallbackInfo@@@ZPEAX@Z 0000000140014872 f   SapClassBasic:SapClassBasic82.dll
 0001:00013878       ?SetTrashCallbackInfo@SapTransfer@@UEAAHPEAVSapXferPair@@@Z 0000000140014878 f   SapClassBasic:SapClassBasic82.dll
 0001:0001387e       ?SetTrashCallbackInfo@SapTransfer@@UEAAHP6AXPEAVSapXferCallbackInfo@@@Z@Z 000000014001487e f   SapClassBasic:SapClassBasic82.dll
 0001:00013884       ?SetAutoEmpty@SapTransfer@@UEAAXH@Z 0000000140014884 f   SapClassBasic:SapClassBasic82.dll
 0001:0001388a       ?SetAutoConnect@SapTransfer@@UEAAXH@Z 000000014001488a f   SapClassBasic:SapClassBasic82.dll
 0001:00013890       ?IsCapabilityValid@SapTransfer@@UEAAHH@Z 0000000140014890 f   SapClassBasic:SapClassBasic82.dll
 0001:00013896       ?IsParameterValid@SapTransfer@@UEAAHH@Z 0000000140014896 f   SapClassBasic:SapClassBasic82.dll
 0001:0001389c       ?GetCapability@SapTransfer@@UEAAHHPEAX@Z 000000014001489c f   SapClassBasic:SapClassBasic82.dll
 0001:000138a2       ?GetParameter@SapTransfer@@UEAAHHPEAX@Z 00000001400148a2 f   SapClassBasic:SapClassBasic82.dll
 0001:000138a8       ?SetParameter@SapTransfer@@UEAAHHPEAX@Z 00000001400148a8 f   SapClassBasic:SapClassBasic82.dll
 0001:000138ae       ?SetParameter@SapTransfer@@UEAAHHH@Z 00000001400148ae f   SapClassBasic:SapClassBasic82.dll
 0001:000138b4       ?Select@SapTransfer@@UEAAHPEAVSapXferPair@@HH@Z 00000001400148b4 f   SapClassBasic:SapClassBasic82.dll
 0001:000138ba       ?Select@SapTransfer@@UEAAHHHH@Z 00000001400148ba f   SapClassBasic:SapClassBasic82.dll
 0001:000138c0       ?SetStartMode@SapTransfer@@MEAAHXZ 00000001400148c0 f   SapClassBasic:SapClassBasic82.dll
 0001:000138c6       ?SetStartMode@SapTransfer@@UEAAHH@Z 00000001400148c6 f   SapClassBasic:SapClassBasic82.dll
 0001:000138cc       ?SetConnectTimeout@SapTransfer@@UEAAHH@Z 00000001400148cc f   SapClassBasic:SapClassBasic82.dll
 0001:000138d2       ?UpdateFrameRateStatistics@SapAcqDeviceToBuf@@UEAAHXZ 00000001400148d2 f   SapClassBasic:SapClassBasic82.dll
 0001:000138d8       ?SetEventType@SapTransfer@@UEAAHPEAVSapXferPair@@@Z 00000001400148d8 f   SapClassBasic:SapClassBasic82.dll
 0001:000138de       ?SetEventCountSource@SapTransfer@@UEAAHPEAVSapXferPair@@@Z 00000001400148de f   SapClassBasic:SapClassBasic82.dll
 0001:000138e4       ?SetCycleMode@SapTransfer@@UEAAHPEAVSapXferPair@@@Z 00000001400148e4 f   SapClassBasic:SapClassBasic82.dll
 0001:000138ea       ?SetFlipMode@SapTransfer@@UEAAHPEAVSapXferPair@@@Z 00000001400148ea f   SapClassBasic:SapClassBasic82.dll
 0001:000138f0       ?SetCounterStampTimeBase@SapTransfer@@UEAAHPEAVSapXferPair@@@Z 00000001400148f0 f   SapClassBasic:SapClassBasic82.dll
 0001:000138f6       ?SetFlatFieldCycleMode@SapTransfer@@UEAAHPEAVSapXferPair@@@Z 00000001400148f6 f   SapClassBasic:SapClassBasic82.dll
 0001:000138fc       ?SetDynamicLutCycleMode@SapTransfer@@UEAAHPEAVSapXferPair@@@Z 00000001400148fc f   SapClassBasic:SapClassBasic82.dll
 0001:00013902       ?SetFramesPerCallback@SapTransfer@@UEAAHPEAVSapXferPair@@@Z 0000000140014902 f   SapClassBasic:SapClassBasic82.dll
 0001:00013908       ?SetFramesOnBoard@SapTransfer@@UEAAHPEAVSapXferPair@@@Z 0000000140014908 f   SapClassBasic:SapClassBasic82.dll
 0001:0001390e       ?SetRelativeBufferIndex@SapTransfer@@UEAAHPEAVSapXferPair@@@Z 000000014001490e f   SapClassBasic:SapClassBasic82.dll
 0001:00013914       ?SetNbInputFrames@SapTransfer@@UEAAHPEAVSapXferPair@@@Z 0000000140014914 f   SapClassBasic:SapClassBasic82.dll
 0001:0001391a       ?SetNbOutputFrames@SapTransfer@@UEAAHPEAVSapXferPair@@@Z 000000014001491a f   SapClassBasic:SapClassBasic82.dll
 0001:00013920       ?RegisterCallback@SapTransfer@@UEAAHHP6AXPEAVSapXferCallbackInfo@@@ZPEAXI@Z 0000000140014920 f   SapClassBasic:SapClassBasic82.dll
 0001:00013926       ?UnregisterCallback@SapTransfer@@UEAAHXZ 0000000140014926 f   SapClassBasic:SapClassBasic82.dll
 0001:0001392c       ?UpdateParameters@SapTransfer@@UEAAHXZ 000000014001492c f   SapClassBasic:SapClassBasic82.dll
 0001:00013932       ?Snap@SapTransfer@@UEAAHH@Z 0000000140014932 f   SapClassBasic:SapClassBasic82.dll
 0001:00013938       ?Grab@SapTransfer@@UEAAHXZ 0000000140014938 f   SapClassBasic:SapClassBasic82.dll
 0001:0001393e       ?Freeze@SapTransfer@@UEAAHXZ 000000014001493e f   SapClassBasic:SapClassBasic82.dll
 0001:00013944       ?Abort@SapTransfer@@UEAAHXZ 0000000140014944 f   SapClassBasic:SapClassBasic82.dll
 0001:0001394a       ?Wait@SapTransfer@@UEAAHH@Z 000000014001494a f   SapClassBasic:SapClassBasic82.dll
 0001:00013950       ?Init@SapTransfer@@UEAAHH@Z 0000000140014950 f   SapClassBasic:SapClassBasic82.dll
 0001:00013956       ?XferIsCycleModeAvailable@SapTransfer@@MEAAHPEAVSapXferPair@@H@Z 0000000140014956 f   SapClassBasic:SapClassBasic82.dll
 0001:0001395c       ?CreatePair@SapTransfer@@MEAAHH@Z 000000014001495c f   SapClassBasic:SapClassBasic82.dll
 0001:00013962       ?DestroyPair@SapTransfer@@MEAAHH@Z 0000000140014962 f   SapClassBasic:SapClassBasic82.dll
 0001:00013968       ?GetCapabilities@SapTransfer@@MEAAHH@Z 0000000140014968 f   SapClassBasic:SapClassBasic82.dll
 0001:0001396e       ?SetParameters@SapTransfer@@MEAAHXZ 000000014001496e f   SapClassBasic:SapClassBasic82.dll
 0001:00013974       ?SetParameters@SapTransfer@@MEAAHH@Z 0000000140014974 f   SapClassBasic:SapClassBasic82.dll
 0001:0001397a       ?FindPairIndex@SapTransfer@@MEAAHPEAVSapXferPair@@PEAH@Z 000000014001497a f   SapClassBasic:SapClassBasic82.dll
 0001:00013980       ?Create@SapView@@UEAAHXZ   0000000140014980 f   SapClassBasic:SapClassBasic82.dll
 0001:00013986       ?Destroy@SapView@@UEAAHXZ  0000000140014986 f   SapClassBasic:SapClassBasic82.dll
 0001:0001398c       ?GetHandle@SapView@@UEBAPEAU__CORHANDLE@@H@Z 000000014001498c f   SapClassBasic:SapClassBasic82.dll
 0001:00013992       ?GetHandle@SapView@@UEBAPEAU__CORHANDLE@@XZ 0000000140014992 f   SapClassBasic:SapClassBasic82.dll
 0001:00013998       ?IsAutoEmpty@SapView@@UEBAHXZ 0000000140014998 f   SapClassBasic:SapClassBasic82.dll
 0001:0001399e       ?SetDisplay@SapView@@UEAAHPEAVSapDisplay@@@Z 000000014001499e f   SapClassBasic:SapClassBasic82.dll
 0001:000139a4       ?SetBuffer@SapView@@UEAAHPEAVSapBuffer@@@Z 00000001400149a4 f   SapClassBasic:SapClassBasic82.dll
 0001:000139aa       ?SetWindow@SapView@@UEAAHPEAUHWND__@@@Z 00000001400149aa f   SapClassBasic:SapClassBasic82.dll
 0001:000139b0       ?SetCallbackInfo@SapView@@UEAAHP6AXPEAVSapViewCallbackInfo@@@ZPEAX@Z 00000001400149b0 f   SapClassBasic:SapClassBasic82.dll
 0001:000139b6       ?GetWidth@SapView@@UEAAHXZ 00000001400149b6 f   SapClassBasic:SapClassBasic82.dll
 0001:000139bc       ?GetHeight@SapView@@UEAAHXZ 00000001400149bc f   SapClassBasic:SapClassBasic82.dll
 0001:000139c2       ?GetViewArea@SapView@@UEAAHPEAH0@Z 00000001400149c2 f   SapClassBasic:SapClassBasic82.dll
 0001:000139c8       ?IsCapabilityValid@SapView@@UEAAHH@Z 00000001400149c8 f   SapClassBasic:SapClassBasic82.dll
 0001:000139ce       ?GetCapability@SapView@@UEAAHHPEAX@Z 00000001400149ce f   SapClassBasic:SapClassBasic82.dll
 0001:000139d4       ?IsParameterValid@SapView@@UEAAHH@Z 00000001400149d4 f   SapClassBasic:SapClassBasic82.dll
 0001:000139da       ?GetParameter@SapView@@UEAAHHPEAX@Z 00000001400149da f   SapClassBasic:SapClassBasic82.dll
 0001:000139e0       ?SetParameter@SapView@@UEAAHHPEAX@Z 00000001400149e0 f   SapClassBasic:SapClassBasic82.dll
 0001:000139e6       ?SetParameter@SapView@@UEAAHHH@Z 00000001400149e6 f   SapClassBasic:SapClassBasic82.dll
 0001:000139ec       ?SetWindowTitle@SapView@@UEAAHPEBD@Z 00000001400149ec f   SapClassBasic:SapClassBasic82.dll
 0001:000139f2       ?GetWindowTitle@SapView@@UEAAHPEAD@Z 00000001400149f2 f   SapClassBasic:SapClassBasic82.dll
 0001:000139f8       ?SetOverlayMode@SapView@@UEAAHH@Z 00000001400149f8 f   SapClassBasic:SapClassBasic82.dll
 0001:000139fe       ?SetKeyColor@SapView@@MEAAHXZ 00000001400149fe f   SapClassBasic:SapClassBasic82.dll
 0001:00013a04       ?SetKeyColor@SapView@@UEAAHVSapDataRGB@@@Z 0000000140014a04 f   SapClassBasic:SapClassBasic82.dll
 0001:00013a0a       ?GetDC@SapView@@UEAAHPEAPEAUHDC__@@@Z 0000000140014a0a f   SapClassBasic:SapClassBasic82.dll
 0001:00013a10       ?ReleaseDC@SapView@@UEAAHXZ 0000000140014a10 f   SapClassBasic:SapClassBasic82.dll
 0001:00013a16       ?Init@SapView@@UEAAXXZ     0000000140014a16 f   SapClassBasic:SapClassBasic82.dll
 0001:00013a1c       ?Show@SapView@@UEAAXH@Z    0000000140014a1c f   SapClassBasic:SapClassBasic82.dll
 0001:00013a22       ?Show@SapView@@UEAAXXZ     0000000140014a22 f   SapClassBasic:SapClassBasic82.dll
 0001:00013a28       ?ShowNext@SapView@@UEAAXXZ 0000000140014a28 f   SapClassBasic:SapClassBasic82.dll
 0001:00013a2e       ?Hide@SapView@@UEAAXXZ     0000000140014a2e f   SapClassBasic:SapClassBasic82.dll
 0001:00013a34       ?HasRange@SapView@@UEAAHXZ 0000000140014a34 f   SapClassBasic:SapClassBasic82.dll
 0001:00013a3a       ?GetRange@SapView@@UEAAHXZ 0000000140014a3a f   SapClassBasic:SapClassBasic82.dll
 0001:00013a40       ?GetRangeMinMax@SapView@@UEAAXPEAH0@Z 0000000140014a40 f   SapClassBasic:SapClassBasic82.dll
 0001:00013a46       ?SetRange@SapView@@UEAAHH@Z 0000000140014a46 f   SapClassBasic:SapClassBasic82.dll
 0001:00013a4c       ?SetScalingMode@SapView@@UEAAHAEBVSapViewScaleParams@@0H@Z 0000000140014a4c f   SapClassBasic:SapClassBasic82.dll
 0001:00013a52       ?SetScalingMode@SapView@@UEAAHMMH@Z 0000000140014a52 f   SapClassBasic:SapClassBasic82.dll
 0001:00013a58       ?SetScalingMode@SapView@@UEAAHW4ScalingMode@1@HH@Z 0000000140014a58 f   SapClassBasic:SapClassBasic82.dll
 0001:00013a5e       ?SetAutoEmpty@SapView@@UEAAXH@Z 0000000140014a5e f   SapClassBasic:SapClassBasic82.dll
 0001:00013a64       ?SetImmediateMode@SapView@@UEAAXH@Z 0000000140014a64 f   SapClassBasic:SapClassBasic82.dll
 0001:00013a6a       ?SetThreadPriority@SapView@@UEAAXH@Z 0000000140014a6a f   SapClassBasic:SapClassBasic82.dll
 0001:00013a70       ?ApplyLut@SapView@@UEAAHXZ 0000000140014a70 f   SapClassBasic:SapClassBasic82.dll
 0001:00013a76       ?OnPaint@SapView@@UEAAXXZ  0000000140014a76 f   SapClassBasic:SapClassBasic82.dll
 0001:00013a7c       ?OnMove@SapView@@UEAAXXZ   0000000140014a7c f   SapClassBasic:SapClassBasic82.dll
 0001:00013a82       ?OnSize@SapView@@UEAAXH@Z  0000000140014a82 f   SapClassBasic:SapClassBasic82.dll
 0001:00013a88       ?OnHScroll@SapView@@UEAAXH@Z 0000000140014a88 f   SapClassBasic:SapClassBasic82.dll
 0001:00013a8e       ?OnVScroll@SapView@@UEAAXH@Z 0000000140014a8e f   SapClassBasic:SapClassBasic82.dll
 0001:00013a94       ?GetHandles@SapView@@UEBAPEAPEAU__CORHANDLE@@XZ 0000000140014a94 f   SapClassBasic:SapClassBasic82.dll
 0001:00013a9a       ??ASapView@@UEBAPEAU__CORHANDLE@@H@Z 0000000140014a9a f   SapClassBasic:SapClassBasic82.dll
 0001:00013aa0       ?SetBuffers@SapView@@UEAAHPEAVSapBuffer@@@Z 0000000140014aa0 f   SapClassBasic:SapClassBasic82.dll
 0001:00013aa6       ?DoShow@SapView@@MEAAXXZ   0000000140014aa6 f   SapClassBasic:SapClassBasic82.dll
 0001:00013aac       ?Next@SapView@@MEAAXXZ     0000000140014aac f   SapClassBasic:SapClassBasic82.dll
 0001:00013ab2       ?SetScrollPosAndRange@SapView@@MEAAXXZ 0000000140014ab2 f   SapClassBasic:SapClassBasic82.dll
 0001:00013ab8       ?LoadLut@SapView@@MEAAHXZ  0000000140014ab8 f   SapClassBasic:SapClassBasic82.dll
 0001:00013abe       ??1SapAcqDeviceToBuf@@UEAA@XZ 0000000140014abe f   SapClassBasic:SapClassBasic82.dll
 0001:00013ac4       ??1SapAcqDevice@@UEAA@XZ   0000000140014ac4 f   SapClassBasic:SapClassBasic82.dll
 0001:00013aca       ??1SapBufferWithTrash@@UEAA@XZ 0000000140014aca f   SapClassBasic:SapClassBasic82.dll
 0001:00013ad0       ??1SapView@@UEAA@XZ        0000000140014ad0 f   SapClassBasic:SapClassBasic82.dll
 0001:00013ad6       ?SetCycleMode@SapXferPair@@QEAAHH@Z 0000000140014ad6 f   SapClassBasic:SapClassBasic82.dll
 0001:00013adc       ?GetPair@SapTransfer@@QEAAPEAVSapXferPair@@H@Z 0000000140014adc f   SapClassBasic:SapClassBasic82.dll
 0001:00013ae2       ??BSapManager@@QEBAHXZ     0000000140014ae2 f   SapClassBasic:SapClassBasic82.dll
 0001:00013ae8       ?GetBuffer@SapView@@QEBAPEAVSapBuffer@@XZ 0000000140014ae8 f   SapClassBasic:SapClassBasic82.dll
 0001:00013aee       ??1CImageExWnd@@UEAA@XZ    0000000140014aee f   SapClassGuiD:SapClassGui82D.NET_2010.dll
 0001:00013af4       ??0CImageExWnd@@QEAA@XZ    0000000140014af4 f   SapClassGuiD:SapClassGui82D.NET_2010.dll
 0001:00013afa       ??0CImageExWndEventHandler@@QEAA@XZ 0000000140014afa f   SapClassGuiD:SapClassGui82D.NET_2010.dll
 0001:00013b00       ?ScaleChanged@CImageViewportWndEventHandler@@UEAAXXZ 0000000140014b00 f   SapClassGuiD:SapClassGui82D.NET_2010.dll
 0001:00013b06       ?RoiChanged@CImageViewportWndEventHandler@@UEAAXXZ 0000000140014b06 f   SapClassGuiD:SapClassGui82D.NET_2010.dll
 0001:00013b0c       ?ViewChanged@CImageViewportWndEventHandler@@UEAAXXZ 0000000140014b0c f   SapClassGuiD:SapClassGui82D.NET_2010.dll
 0001:00013b12       ?MarkerChanged@CImageExWndEventHandler@@UEAAXXZ 0000000140014b12 f   SapClassGuiD:SapClassGui82D.NET_2010.dll
 0001:00013b18       ?InteractiveMarkerChanged@CImageExWndEventHandler@@UEAAXH@Z 0000000140014b18 f   SapClassGuiD:SapClassGui82D.NET_2010.dll
 0001:00013b1e       ?GetPixelString@CImageExWnd@@QEBA?AV?$CStringT@DV?$StrTraitMFC_DLL@DV?$ChTraitsCRT@D@ATL@@@@@ATL@@VCPoint@@@Z 0000000140014b1e f   SapClassGuiD:SapClassGui82D.NET_2010.dll
 0001:00013b24       ?Reset@CImageExWnd@@QEAAXXZ 0000000140014b24 f   SapClassGuiD:SapClassGui82D.NET_2010.dll
 0001:00013b2a       ?AttachSapView@CImageExWnd@@QEAA_NPEAVSapView@@@Z 0000000140014b2a f   SapClassGuiD:SapClassGui82D.NET_2010.dll
 0001:00013b30       ??1CViewDlg@@UEAA@XZ       0000000140014b30 f   SapClassGuiD:SapClassGui82D.NET_2010.dll
 0001:00013b36       ?Refresh@CImageExWnd@@QEAAXXZ 0000000140014b36 f   SapClassGuiD:SapClassGui82D.NET_2010.dll
 0001:00013b3c       ??0CViewDlg@@QEAA@PEAVCWnd@@PEAVSapView@@@Z 0000000140014b3c f   SapClassGuiD:SapClassGui82D.NET_2010.dll
 0001:00013b42       ??1CAbortDlg@@UEAA@XZ      0000000140014b42 f   SapClassGuiD:SapClassGui82D.NET_2010.dll
 0001:00013b48       ??0CAbortDlg@@QEAA@PEAVCWnd@@PEAVSapTransfer@@H@Z 0000000140014b48 f   SapClassGuiD:SapClassGui82D.NET_2010.dll
 0001:00013b4e       ZLBSaveImage               0000000140014b4e f   ZLBImage:ZLBImage.dll
 0001:00013b54       ZLBCreateDirectory         0000000140014b54 f   ZLBCommon:ZLBCommon.dll
 0001:00013b5a       ZLBGetFormatTime           0000000140014b5a f   ZLBCommon:ZLBCommon.dll
 0001:00013b60       ZLBIsPathExist             0000000140014b60 f   ZLBCommon:ZLBCommon.dll
 0001:00013b66       ZLBIniReadDouble           0000000140014b66 f   ZLBCommon:ZLBCommon.dll
 0001:00013b6c       ZLBIniReadString           0000000140014b6c f   ZLBCommon:ZLBCommon.dll
 0001:00013b72       ZLBIniReadInt              0000000140014b72 f   ZLBCommon:ZLBCommon.dll
 0001:00013b78       ZLBIniFile                 0000000140014b78 f   ZLBCommon:ZLBCommon.dll
 0001:00013b7e       ZLBGetCurrentPath          0000000140014b7e f   ZLBCommon:ZLBCommon.dll
 0001:00013b84       ??3@YAXPEAX@Z              0000000140014b84 f   mfc100d:mfc100d.dll
 0001:00013b8a       ?GetThisMessageMap@CWinApp@@KAPEBUAFX_MSGMAP@@XZ 0000000140014b8a f   mfc100d:mfc100d.dll
 0001:00013b90       ??0CWinApp@@QEAA@PEBD@Z    0000000140014b90 f   mfc100d:mfc100d.dll
 0001:00013b96       ?GetRuntimeClass@CWinApp@@UEBAPEAUCRuntimeClass@@XZ 0000000140014b96 f   mfc100d:mfc100d.dll
 0001:00013b9c       ?Serialize@CObject@@UEAAXAEAVCArchive@@@Z 0000000140014b9c f   mfc100d:mfc100d.dll
 0001:00013ba2       ?AssertValid@CWinApp@@UEBAXXZ 0000000140014ba2 f   mfc100d:mfc100d.dll
 0001:00013ba8       ?Dump@CWinApp@@UEBAXAEAVCDumpContext@@@Z 0000000140014ba8 f   mfc100d:mfc100d.dll
 0001:00013bae       ?OnCmdMsg@CCmdTarget@@UEAAHIHPEAXPEAUAFX_CMDHANDLERINFO@@@Z 0000000140014bae f   mfc100d:mfc100d.dll
 0001:00013bb4       ?OnFinalRelease@CCmdTarget@@UEAAXXZ 0000000140014bb4 f   mfc100d:mfc100d.dll
 0001:00013bba       ?IsInvokeAllowed@CCmdTarget@@UEAAHJ@Z 0000000140014bba f   mfc100d:mfc100d.dll
 0001:00013bc0       ?GetDispatchIID@CCmdTarget@@UEAAHPEAU_GUID@@@Z 0000000140014bc0 f   mfc100d:mfc100d.dll
 0001:00013bc6       ?GetTypeInfoCount@CCmdTarget@@UEAAIXZ 0000000140014bc6 f   mfc100d:mfc100d.dll
 0001:00013bcc       ?GetTypeLibCache@CCmdTarget@@UEAAPEAVCTypeLibCache@@XZ 0000000140014bcc f   mfc100d:mfc100d.dll
 0001:00013bd2       ?GetTypeLib@CCmdTarget@@UEAAJKPEAPEAUITypeLib@@@Z 0000000140014bd2 f   mfc100d:mfc100d.dll
 0001:00013bd8       ?GetCommandMap@CCmdTarget@@MEBAPEBUAFX_OLECMDMAP@@XZ 0000000140014bd8 f   mfc100d:mfc100d.dll
 0001:00013bde       ?GetDispatchMap@CCmdTarget@@MEBAPEBUAFX_DISPMAP@@XZ 0000000140014bde f   mfc100d:mfc100d.dll
 0001:00013be4       ?GetConnectionMap@CCmdTarget@@MEBAPEBUAFX_CONNECTIONMAP@@XZ 0000000140014be4 f   mfc100d:mfc100d.dll
 0001:00013bea       ?GetInterfaceMap@CCmdTarget@@MEBAPEBUAFX_INTERFACEMAP@@XZ 0000000140014bea f   mfc100d:mfc100d.dll
 0001:00013bf0       ?GetEventSinkMap@CCmdTarget@@MEBAPEBUAFX_EVENTSINKMAP@@XZ 0000000140014bf0 f   mfc100d:mfc100d.dll
 0001:00013bf6       ?OnCreateAggregates@CCmdTarget@@UEAAHXZ 0000000140014bf6 f   mfc100d:mfc100d.dll
 0001:00013bfc       ?GetInterfaceHook@CCmdTarget@@UEAAPEAUIUnknown@@PEBX@Z 0000000140014bfc f   mfc100d:mfc100d.dll
 0001:00013c02       ?GetExtraConnectionPoints@CCmdTarget@@MEAAHPEAVCPtrArray@@@Z 0000000140014c02 f   mfc100d:mfc100d.dll
 0001:00013c08       ?GetConnectionHook@CCmdTarget@@MEAAPEAUIConnectionPoint@@AEBU_GUID@@@Z 0000000140014c08 f   mfc100d:mfc100d.dll
 0001:00013c0e       ?Run@CWinApp@@UEAAHXZ      0000000140014c0e f   mfc100d:mfc100d.dll
 0001:00013c14       ?PreTranslateMessage@CWinThread@@UEAAHPEAUtagMSG@@@Z 0000000140014c14 f   mfc100d:mfc100d.dll
 0001:00013c1a       ?PumpMessage@CWinThread@@UEAAHXZ 0000000140014c1a f   mfc100d:mfc100d.dll
 0001:00013c20       ?OnIdle@CWinApp@@UEAAHJ@Z  0000000140014c20 f   mfc100d:mfc100d.dll
 0001:00013c26       ?IsIdleMessage@CWinThread@@UEAAHPEAUtagMSG@@@Z 0000000140014c26 f   mfc100d:mfc100d.dll
 0001:00013c2c       ?ExitInstance@CWinApp@@UEAAHXZ 0000000140014c2c f   mfc100d:mfc100d.dll
 0001:00013c32       ?ProcessWndProcException@CWinApp@@UEAA_JPEAVCException@@PEBUtagMSG@@@Z 0000000140014c32 f   mfc100d:mfc100d.dll
 0001:00013c38       ?ProcessMessageFilter@CWinThread@@UEAAHHPEAUtagMSG@@@Z 0000000140014c38 f   mfc100d:mfc100d.dll
 0001:00013c3e       ?GetMainWnd@CWinThread@@UEAAPEAVCWnd@@XZ 0000000140014c3e f   mfc100d:mfc100d.dll
 0001:00013c44       ?Delete@CWinThread@@UEAAXXZ 0000000140014c44 f   mfc100d:mfc100d.dll
 0001:00013c4a       ?GetProfileIntA@CWinApp@@UEAAIPEBD0H@Z 0000000140014c4a f   mfc100d:mfc100d.dll
 0001:00013c50       ?WriteProfileInt@CWinApp@@UEAAHPEBD0H@Z 0000000140014c50 f   mfc100d:mfc100d.dll
 0001:00013c56       ?GetProfileStringA@CWinApp@@UEAA?AV?$CStringT@DV?$StrTraitMFC_DLL@DV?$ChTraitsCRT@D@ATL@@@@@ATL@@PEBD00@Z 0000000140014c56 f   mfc100d:mfc100d.dll
 0001:00013c5c       ?WriteProfileStringA@CWinApp@@UEAAHPEBD00@Z 0000000140014c5c f   mfc100d:mfc100d.dll
 0001:00013c62       ?GetProfileBinary@CWinApp@@UEAAHPEBD0PEAPEAEPEAI@Z 0000000140014c62 f   mfc100d:mfc100d.dll
 0001:00013c68       ?WriteProfileBinary@CWinApp@@UEAAHPEBD0PEAEI@Z 0000000140014c68 f   mfc100d:mfc100d.dll
 0001:00013c6e       ?InitLibId@CWinApp@@UEAAXXZ 0000000140014c6e f   mfc100d:mfc100d.dll
 0001:00013c74       ?Register@CWinApp@@UEAAHXZ 0000000140014c74 f   mfc100d:mfc100d.dll
 0001:00013c7a       ?Unregister@CWinApp@@UEAAHXZ 0000000140014c7a f   mfc100d:mfc100d.dll
 0001:00013c80       ?OpenDocumentFile@CWinApp@@UEAAPEAVCDocument@@PEBDH@Z 0000000140014c80 f   mfc100d:mfc100d.dll
 0001:00013c86       ?OpenDocumentFile@CWinApp@@UEAAPEAVCDocument@@PEBD@Z 0000000140014c86 f   mfc100d:mfc100d.dll
 0001:00013c8c       ?AddToRecentFileList@CWinApp@@UEAAXPEBD@Z 0000000140014c8c f   mfc100d:mfc100d.dll
 0001:00013c92       ?InitApplication@CWinApp@@UEAAHXZ 0000000140014c92 f   mfc100d:mfc100d.dll
 0001:00013c98       ?SaveAllModified@CWinApp@@UEAAHXZ 0000000140014c98 f   mfc100d:mfc100d.dll
 0001:00013c9e       ?DoMessageBox@CWinApp@@UEAAHPEBDII@Z 0000000140014c9e f   mfc100d:mfc100d.dll
 0001:00013ca4       ?DoWaitCursor@CWinApp@@UEAAXH@Z 0000000140014ca4 f   mfc100d:mfc100d.dll
 0001:00013caa       ?OnDDECommand@CWinApp@@UEAAHPEAD@Z 0000000140014caa f   mfc100d:mfc100d.dll
 0001:00013cb0       ?WinHelpA@CWinApp@@UEAAX_KI@Z 0000000140014cb0 f   mfc100d:mfc100d.dll
 0001:00013cb6       ?HtmlHelpA@CWinApp@@UEAAX_KI@Z 0000000140014cb6 f   mfc100d:mfc100d.dll
 0001:00013cbc       ?WinHelpInternal@CWinApp@@UEAAX_KI@Z 0000000140014cbc f   mfc100d:mfc100d.dll
 0001:00013cc2       ?RegisterWithRestartManager@CWinApp@@UEAAJPEB_WKP6AKPEAX@Z1KK@Z 0000000140014cc2 f   mfc100d:mfc100d.dll
 0001:00013cc8       ?RegisterWithRestartManager@CWinApp@@UEAAJHAEBV?$CStringT@DV?$StrTraitMFC_DLL@DV?$ChTraitsCRT@D@ATL@@@@@ATL@@@Z 0000000140014cc8 f   mfc100d:mfc100d.dll
 0001:00013cce       ?ApplicationRecoveryCallback@CWinApp@@UEAAKPEAX@Z 0000000140014cce f   mfc100d:mfc100d.dll
 0001:00013cd4       ?GetDataRecoveryHandler@CWinApp@@UEAAPEAVCDataRecoveryHandler@@XZ 0000000140014cd4 f   mfc100d:mfc100d.dll
 0001:00013cda       ?IsTaskbarInteractionEnabled@CWinApp@@UEAAHXZ 0000000140014cda f   mfc100d:mfc100d.dll
 0001:00013ce0       ?RestartInstance@CWinApp@@UEAAHXZ 0000000140014ce0 f   mfc100d:mfc100d.dll
 0001:00013ce6       ?LoadAppLangResourceDLL@CWinApp@@UEAAPEAUHINSTANCE__@@XZ 0000000140014ce6 f   mfc100d:mfc100d.dll
 0001:00013cec       ?LoadSysPolicies@CWinApp@@UEAAHXZ 0000000140014cec f   mfc100d:mfc100d.dll
 0001:00013cf2       ??3CObject@@SAXPEAX@Z      0000000140014cf2 f   mfc100d:mfc100d.dll
 0001:00013cf8       ??1CWinApp@@UEAA@XZ        0000000140014cf8 f   mfc100d:mfc100d.dll
 0001:00013cfe       ?DoModal@CDialog@@UEAA_JXZ 0000000140014cfe f   mfc100d:mfc100d.dll
 0001:00013d04       ?AfxEnableControlContainer@@YAXPEAVCOccManager@@@Z 0000000140014d04 f   mfc100d:mfc100d.dll
 0001:00013d0a       ??1CDialog@@UEAA@XZ        0000000140014d0a f   mfc100d:mfc100d.dll
 0001:00013d10       ??1CStatic@@UEAA@XZ        0000000140014d10 f   mfc100d:mfc100d.dll
 0001:00013d16       ??1CEdit@@UEAA@XZ          0000000140014d16 f   mfc100d:mfc100d.dll
 0001:00013d1c       ??1CButton@@UEAA@XZ        0000000140014d1c f   mfc100d:mfc100d.dll
 0001:00013d22       ??1CComboBox@@UEAA@XZ      0000000140014d22 f   mfc100d:mfc100d.dll
 0001:00013d28       ??1?$CStringT@DV?$StrTraitMFC_DLL@DV?$ChTraitsCRT@D@ATL@@@@@ATL@@QEAA@XZ 0000000140014d28 f   mfc100d:mfc100d.dll
 0001:00013d2e       ??0CDialog@@QEAA@IPEAVCWnd@@@Z 0000000140014d2e f   mfc100d:mfc100d.dll
 0001:00013d34       ?GetRuntimeClass@CDialog@@UEBAPEAUCRuntimeClass@@XZ 0000000140014d34 f   mfc100d:mfc100d.dll
 0001:00013d3a       ?AssertValid@CDialog@@UEBAXXZ 0000000140014d3a f   mfc100d:mfc100d.dll
 0001:00013d40       ?Dump@CDialog@@UEBAXAEAVCDumpContext@@@Z 0000000140014d40 f   mfc100d:mfc100d.dll
 0001:00013d46       ?OnCmdMsg@CDialog@@UEAAHIHPEAXPEAUAFX_CMDHANDLERINFO@@@Z 0000000140014d46 f   mfc100d:mfc100d.dll
 0001:00013d4c       ?OnFinalRelease@CWnd@@UEAAXXZ 0000000140014d4c f   mfc100d:mfc100d.dll
 0001:00013d52       ?GetInterfaceMap@CWnd@@MEBAPEBUAFX_INTERFACEMAP@@XZ 0000000140014d52 f   mfc100d:mfc100d.dll
 0001:00013d58       ?PreSubclassWindow@CWnd@@UEAAXXZ 0000000140014d58 f   mfc100d:mfc100d.dll
 0001:00013d5e       ?Create@CWnd@@UEAAHPEBD0KAEBUtagRECT@@PEAV1@IPEAUCCreateContext@@@Z 0000000140014d5e f   mfc100d:mfc100d.dll
 0001:00013d64       ?CreateEx@CWnd@@UEAAHKPEBD0KAEBUtagRECT@@PEAV1@IPEAX@Z 0000000140014d64 f   mfc100d:mfc100d.dll
 0001:00013d6a       ?CreateEx@CWnd@@UEAAHKPEBD0KHHHHPEAUHWND__@@PEAUHMENU__@@PEAX@Z 0000000140014d6a f   mfc100d:mfc100d.dll
 0001:00013d70       ?DestroyWindow@CWnd@@UEAAHXZ 0000000140014d70 f   mfc100d:mfc100d.dll
 0001:00013d76       ?PreCreateWindow@CWnd@@UEAAHAEAUtagCREATESTRUCTA@@@Z 0000000140014d76 f   mfc100d:mfc100d.dll
 0001:00013d7c       ?CalcWindowRect@CWnd@@UEAAXPEAUtagRECT@@I@Z 0000000140014d7c f   mfc100d:mfc100d.dll
 0001:00013d82       ?GetMenu@CWnd@@UEBAPEAVCMenu@@XZ 0000000140014d82 f   mfc100d:mfc100d.dll
 0001:00013d88       ?SetMenu@CWnd@@UEAAHPEAVCMenu@@@Z 0000000140014d88 f   mfc100d:mfc100d.dll
 0001:00013d8e       ?OnToolHitTest@CWnd@@UEBA_JVCPoint@@PEAUtagTOOLINFOA@@@Z 0000000140014d8e f   mfc100d:mfc100d.dll
 0001:00013d94       ?GetScrollBarCtrl@CWnd@@UEBAPEAVCScrollBar@@H@Z 0000000140014d94 f   mfc100d:mfc100d.dll
 0001:00013d9a       ?WinHelpA@CWnd@@UEAAX_KI@Z 0000000140014d9a f   mfc100d:mfc100d.dll
 0001:00013da0       ?HtmlHelpA@CWnd@@UEAAX_KI@Z 0000000140014da0 f   mfc100d:mfc100d.dll
 0001:00013da6       ?WinHelpInternal@CWnd@@UEAAX_KI@Z 0000000140014da6 f   mfc100d:mfc100d.dll
 0001:00013dac       ?ContinueModal@CWnd@@UEAAHXZ 0000000140014dac f   mfc100d:mfc100d.dll
 0001:00013db2       ?EndModalLoop@CWnd@@UEAAXH@Z 0000000140014db2 f   mfc100d:mfc100d.dll
 0001:00013db8       ?OnDrawIconicThumbnailOrLivePreview@CWnd@@UEAAXAEAVCDC@@VCRect@@VCSize@@HAEAH@Z 0000000140014db8 f   mfc100d:mfc100d.dll
 0001:00013dbe       ?EnsureStdObj@CWnd@@UEAAJXZ 0000000140014dbe f   mfc100d:mfc100d.dll
 0001:00013dc4       ?get_accParent@CWnd@@UEAAJPEAPEAUIDispatch@@@Z 0000000140014dc4 f   mfc100d:mfc100d.dll
 0001:00013dca       ?get_accChildCount@CWnd@@UEAAJPEAJ@Z 0000000140014dca f   mfc100d:mfc100d.dll
 0001:00013dd0       ?get_accChild@CWnd@@UEAAJUtagVARIANT@@PEAPEAUIDispatch@@@Z 0000000140014dd0 f   mfc100d:mfc100d.dll
 0001:00013dd6       ?get_accName@CWnd@@UEAAJUtagVARIANT@@PEAPEA_W@Z 0000000140014dd6 f   mfc100d:mfc100d.dll
 0001:00013ddc       ?get_accValue@CWnd@@UEAAJUtagVARIANT@@PEAPEA_W@Z 0000000140014ddc f   mfc100d:mfc100d.dll
 0001:00013de2       ?get_accDescription@CWnd@@UEAAJUtagVARIANT@@PEAPEA_W@Z 0000000140014de2 f   mfc100d:mfc100d.dll
 0001:00013de8       ?get_accRole@CWnd@@UEAAJUtagVARIANT@@PEAU2@@Z 0000000140014de8 f   mfc100d:mfc100d.dll
 0001:00013dee       ?get_accState@CWnd@@UEAAJUtagVARIANT@@PEAU2@@Z 0000000140014dee f   mfc100d:mfc100d.dll
 0001:00013df4       ?get_accHelp@CWnd@@UEAAJUtagVARIANT@@PEAPEA_W@Z 0000000140014df4 f   mfc100d:mfc100d.dll
 0001:00013dfa       ?get_accHelpTopic@CWnd@@UEAAJPEAPEA_WUtagVARIANT@@PEAJ@Z 0000000140014dfa f   mfc100d:mfc100d.dll
 0001:00013e00       ?get_accKeyboardShortcut@CWnd@@UEAAJUtagVARIANT@@PEAPEA_W@Z 0000000140014e00 f   mfc100d:mfc100d.dll
 0001:00013e06       ?get_accFocus@CWnd@@UEAAJPEAUtagVARIANT@@@Z 0000000140014e06 f   mfc100d:mfc100d.dll
 0001:00013e0c       ?get_accSelection@CWnd@@UEAAJPEAUtagVARIANT@@@Z 0000000140014e0c f   mfc100d:mfc100d.dll
 0001:00013e12       ?get_accDefaultAction@CWnd@@UEAAJUtagVARIANT@@PEAPEA_W@Z 0000000140014e12 f   mfc100d:mfc100d.dll
 0001:00013e18       ?accSelect@CWnd@@UEAAJJUtagVARIANT@@@Z 0000000140014e18 f   mfc100d:mfc100d.dll
 0001:00013e1e       ?accLocation@CWnd@@UEAAJPEAJ000UtagVARIANT@@@Z 0000000140014e1e f   mfc100d:mfc100d.dll
 0001:00013e24       ?accNavigate@CWnd@@UEAAJJUtagVARIANT@@PEAU2@@Z 0000000140014e24 f   mfc100d:mfc100d.dll
 0001:00013e2a       ?accHitTest@CWnd@@UEAAJJJPEAUtagVARIANT@@@Z 0000000140014e2a f   mfc100d:mfc100d.dll
 0001:00013e30       ?accDoDefaultAction@CWnd@@UEAAJUtagVARIANT@@@Z 0000000140014e30 f   mfc100d:mfc100d.dll
 0001:00013e36       ?put_accName@CWnd@@UEAAJUtagVARIANT@@PEA_W@Z 0000000140014e36 f   mfc100d:mfc100d.dll
 0001:00013e3c       ?put_accValue@CWnd@@UEAAJUtagVARIANT@@PEA_W@Z 0000000140014e3c f   mfc100d:mfc100d.dll
 0001:00013e42       ?SetProxy@CWnd@@UEAAJPEAUIAccessibleProxy@@@Z 0000000140014e42 f   mfc100d:mfc100d.dll
 0001:00013e48       ?CreateAccessibleProxy@CWnd@@UEAAJ_K_JPEA_J@Z 0000000140014e48 f   mfc100d:mfc100d.dll
 0001:00013e4e       ?OnCommand@CWnd@@MEAAH_K_J@Z 0000000140014e4e f   mfc100d:mfc100d.dll
 0001:00013e54       ?OnNotify@CWnd@@MEAAH_K_JPEA_J@Z 0000000140014e54 f   mfc100d:mfc100d.dll
 0001:00013e5a       ?GetSuperWndProcAddr@CWnd@@MEAAPEAP6A_JPEAUHWND__@@I_K_J@ZXZ 0000000140014e5a f   mfc100d:mfc100d.dll
 0001:00013e60       ?BeginModalState@CWnd@@UEAAXXZ 0000000140014e60 f   mfc100d:mfc100d.dll
 0001:00013e66       ?EndModalState@CWnd@@UEAAXXZ 0000000140014e66 f   mfc100d:mfc100d.dll
 0001:00013e6c       ?PreTranslateMessage@CDialog@@UEAAHPEAUtagMSG@@@Z 0000000140014e6c f   mfc100d:mfc100d.dll
 0001:00013e72       ?OnAmbientProperty@CWnd@@UEAAHPEAVCOleControlSite@@JPEAUtagVARIANT@@@Z 0000000140014e72 f   mfc100d:mfc100d.dll
 0001:00013e78       ?WindowProc@CWnd@@MEAA_JI_K_J@Z 0000000140014e78 f   mfc100d:mfc100d.dll
 0001:00013e7e       ?OnWndMsg@CWnd@@MEAAHI_K_JPEA_J@Z 0000000140014e7e f   mfc100d:mfc100d.dll
 0001:00013e84       ?DefWindowProcA@CWnd@@MEAA_JI_K_J@Z 0000000140014e84 f   mfc100d:mfc100d.dll
 0001:00013e8a       ?PostNcDestroy@CWnd@@MEAAXXZ 0000000140014e8a f   mfc100d:mfc100d.dll
 0001:00013e90       ?OnChildNotify@CWnd@@MEAAHI_K_JPEA_J@Z 0000000140014e90 f   mfc100d:mfc100d.dll
 0001:00013e96       ?OnTouchInputs@CWnd@@MEAAHIPEAUtagTOUCHINPUT@@@Z 0000000140014e96 f   mfc100d:mfc100d.dll
 0001:00013e9c       ?OnTouchInput@CWnd@@MEAAHVCPoint@@HHPEAUtagTOUCHINPUT@@@Z 0000000140014e9c f   mfc100d:mfc100d.dll
 0001:00013ea2       ?GetGestureStatus@CWnd@@MEAAKVCPoint@@@Z 0000000140014ea2 f   mfc100d:mfc100d.dll
 0001:00013ea8       ?OnGestureZoom@CWnd@@MEAAHVCPoint@@J@Z 0000000140014ea8 f   mfc100d:mfc100d.dll
 0001:00013eae       ?OnGesturePan@CWnd@@MEAAHVCPoint@@0@Z 0000000140014eae f   mfc100d:mfc100d.dll
 0001:00013eb4       ?OnGestureRotate@CWnd@@MEAAHVCPoint@@N@Z 0000000140014eb4 f   mfc100d:mfc100d.dll
 0001:00013eba       ?OnGestureTwoFingerTap@CWnd@@MEAAHVCPoint@@@Z 0000000140014eba f   mfc100d:mfc100d.dll
 0001:00013ec0       ?OnGesturePressAndTap@CWnd@@MEAAHVCPoint@@J@Z 0000000140014ec0 f   mfc100d:mfc100d.dll
 0001:00013ec6       ?CheckAutoCenter@CDialog@@UEAAHXZ 0000000140014ec6 f   mfc100d:mfc100d.dll
 0001:00013ecc       ?IsFrameWnd@CWnd@@UEBAHXZ  0000000140014ecc f   mfc100d:mfc100d.dll
 0001:00013ed2       ?CreateControlContainer@CWnd@@MEAAHPEAPEAVCOleControlContainer@@@Z 0000000140014ed2 f   mfc100d:mfc100d.dll
 0001:00013ed8       ?CreateControlSite@CWnd@@MEAAHPEAVCOleControlContainer@@PEAPEAVCOleControlSite@@IAEBU_GUID@@@Z 0000000140014ed8 f   mfc100d:mfc100d.dll
 0001:00013ede       ?SetOccDialogInfo@CDialog@@MEAAHPEAU_AFX_OCC_DIALOG_INFO@@@Z 0000000140014ede f   mfc100d:mfc100d.dll
 0001:00013ee4       ?GetOccDialogInfo@CDialog@@MEAAPEAU_AFX_OCC_DIALOG_INFO@@XZ 0000000140014ee4 f   mfc100d:mfc100d.dll
 0001:00013eea       ?Create@CDialog@@UEAAHIPEAVCWnd@@@Z 0000000140014eea f   mfc100d:mfc100d.dll
 0001:00013ef0       ?Create@CDialog@@UEAAHPEBDPEAVCWnd@@@Z 0000000140014ef0 f   mfc100d:mfc100d.dll
 0001:00013ef6       ?CreateIndirect@CDialog@@UEAAHPEAXPEAVCWnd@@@Z 0000000140014ef6 f   mfc100d:mfc100d.dll
 0001:00013efc       ?CreateIndirect@CDialog@@UEAAHPEBUDLGTEMPLATE@@PEAVCWnd@@PEAX@Z 0000000140014efc f   mfc100d:mfc100d.dll
 0001:00013f02       ?OnInitDialog@CDialog@@UEAAHXZ 0000000140014f02 f   mfc100d:mfc100d.dll
 0001:00013f08       ?OnSetFont@CDialog@@UEAAXPEAVCFont@@@Z 0000000140014f08 f   mfc100d:mfc100d.dll
 0001:00013f0e       ?OnOK@CDialog@@MEAAXXZ     0000000140014f0e f   mfc100d:mfc100d.dll
 0001:00013f14       ?OnCancel@CDialog@@MEAAXXZ 0000000140014f14 f   mfc100d:mfc100d.dll
 0001:00013f1a       ?PreInitDialog@CDialog@@MEAAXXZ 0000000140014f1a f   mfc100d:mfc100d.dll
 0001:00013f20       ?DoDataExchange@CWnd@@MEAAXPEAVCDataExchange@@@Z 0000000140014f20 f   mfc100d:mfc100d.dll
 0001:00013f26       ?GetThisMessageMap@CDialog@@KAPEBUAFX_MSGMAP@@XZ 0000000140014f26 f   mfc100d:mfc100d.dll
 0001:00013f2c       ??4?$CStringT@DV?$StrTraitMFC_DLL@DV?$ChTraitsCRT@D@ATL@@@@@ATL@@QEAAAEAV01@PEBD@Z 0000000140014f2c f   mfc100d:mfc100d.dll
 0001:00013f32       ?LoadIconA@CWinApp@@QEBAPEAUHICON__@@I@Z 0000000140014f32 f   mfc100d:mfc100d.dll
 0001:00013f38       ?AfxGetApp@@YAPEAVCWinApp@@XZ 0000000140014f38 f   mfc100d:mfc100d.dll
 0001:00013f3e       ??0?$CStringT@DV?$StrTraitMFC_DLL@DV?$ChTraitsCRT@D@ATL@@@@@ATL@@QEAA@PEBD@Z 0000000140014f3e f   mfc100d:mfc100d.dll
 0001:00013f44       ??0CComboBox@@QEAA@XZ      0000000140014f44 f   mfc100d:mfc100d.dll
 0001:00013f4a       ??0CEdit@@QEAA@XZ          0000000140014f4a f   mfc100d:mfc100d.dll
 0001:00013f50       ??0CButton@@QEAA@XZ        0000000140014f50 f   mfc100d:mfc100d.dll
 0001:00013f56       ??0?$CStringT@DV?$StrTraitMFC_DLL@DV?$ChTraitsCRT@D@ATL@@@@@ATL@@QEAA@XZ 0000000140014f56 f   mfc100d:mfc100d.dll
 0001:00013f5c       ??0CStatic@@QEAA@XZ        0000000140014f5c f   mfc100d:mfc100d.dll
 0001:00013f62       ?DDX_Control@@YAXPEAVCDataExchange@@HAEAVCWnd@@@Z 0000000140014f62 f   mfc100d:mfc100d.dll
 0001:00013f68       ??1CMenu@@UEAA@XZ          0000000140014f68 f   mfc100d:mfc100d.dll
 0001:00013f6e       ?DestroyMenu@CMenu@@QEAAHXZ 0000000140014f6e f   mfc100d:mfc100d.dll
 0001:00013f74       ?PostMessageA@CWnd@@QEAAHI_K_J@Z 0000000140014f74 f   mfc100d:mfc100d.dll
 0001:00013f7a       ?TrackPopupMenu@CMenu@@QEAAHIHHPEAVCWnd@@PEBUtagRECT@@@Z 0000000140014f7a f   mfc100d:mfc100d.dll
 0001:00013f80       ?SetForegroundWindow@CWnd@@QEAAHXZ 0000000140014f80 f   mfc100d:mfc100d.dll
 0001:00013f86       ?GetSubMenu@CMenu@@QEBAPEAV1@H@Z 0000000140014f86 f   mfc100d:mfc100d.dll
 0001:00013f8c       ?LoadMenuA@CMenu@@QEAAHI@Z 0000000140014f8c f   mfc100d:mfc100d.dll
 0001:00013f92       ??0CMenu@@QEAA@XZ          0000000140014f92 f   mfc100d:mfc100d.dll
 0001:00013f98       ??2@YAPEAX_KPEBDH@Z        0000000140014f98 f   mfc100d:mfc100d.dll
 0001:00013f9e       ??1CFile@@UEAA@XZ          0000000140014f9e f   mfc100d:mfc100d.dll
 0001:00013fa4       ?Close@CFile@@UEAAXXZ      0000000140014fa4 f   mfc100d:mfc100d.dll
 0001:00013faa       ?Write@CFile@@UEAAXPEBXI@Z 0000000140014faa f   mfc100d:mfc100d.dll
 0001:00013fb0       ?Open@CFile@@UEAAHPEBDIPEAVCFileException@@@Z 0000000140014fb0 f   mfc100d:mfc100d.dll
 0001:00013fb6       ??B?$CSimpleStringT@D$00@ATL@@QEBAPEBDXZ 0000000140014fb6 f   mfc100d:mfc100d.dll
 0001:00013fbc       ??0CFile@@QEAA@XZ          0000000140014fbc f   mfc100d:mfc100d.dll
 0001:00013fc2       ?GetLength@?$CSimpleStringT@D$00@ATL@@QEBAHXZ 0000000140014fc2 f   mfc100d:mfc100d.dll
 0001:00013fc8       ?SetWindowTextA@CWnd@@QEAAXPEBD@Z 0000000140014fc8 f   mfc100d:mfc100d.dll
 0001:00013fce       ??Y?$CStringT@DV?$StrTraitMFC_DLL@DV?$ChTraitsCRT@D@ATL@@@@@ATL@@QEAAAEAV01@AEBV?$CSimpleStringT@D$00@1@@Z 0000000140014fce f   mfc100d:mfc100d.dll
 0001:00013fd4       ??0?$CStringT@DV?$StrTraitMFC_DLL@DV?$ChTraitsCRT@D@ATL@@@@@ATL@@QEAA@AEBV01@@Z 0000000140014fd4 f   mfc100d:mfc100d.dll
 0001:00013fda       ?AfxAssertFailedLine@@YAHPEBDH@Z 0000000140014fda f   mfc100d:mfc100d.dll
 0001:00013fe0       ??1CFileFind@@UEAA@XZ      0000000140014fe0 f   mfc100d:mfc100d.dll
 0001:00013fe6       ?IsDirectory@CFileFind@@QEBAHXZ 0000000140014fe6 f   mfc100d:mfc100d.dll
 0001:00013fec       ?IsDots@CFileFind@@UEBAHXZ 0000000140014fec f   mfc100d:mfc100d.dll
 0001:00013ff2       ?FindNextFileA@CFileFind@@UEAAHXZ 0000000140014ff2 f   mfc100d:mfc100d.dll
 0001:00013ff8       ?FindFile@CFileFind@@UEAAHPEBDK@Z 0000000140014ff8 f   mfc100d:mfc100d.dll
 0001:00013ffe       ??0CFileFind@@QEAA@XZ      0000000140014ffe f   mfc100d:mfc100d.dll
 0001:00014004       ?Left@?$CStringT@DV?$StrTraitMFC_DLL@DV?$ChTraitsCRT@D@ATL@@@@@ATL@@QEBA?AV12@H@Z 0000000140015004 f   mfc100d:mfc100d.dll
 0001:0001400a       ??3@YAXPEAXPEBDH@Z         000000014001500a f   mfc100d:mfc100d.dll
 0001:00014010       ?SetTimer@CWnd@@QEAA_K_KIP6AXPEAUHWND__@@I0K@Z@Z 0000000140015010 f   mfc100d:mfc100d.dll
 0001:00014016       ?EndDialog@CDialog@@QEAAXH@Z 0000000140015016 f   mfc100d:mfc100d.dll
 0001:0001401c       ?AfxGetInstanceHandle@@YAPEAUHINSTANCE__@@XZ 000000014001501c f   mfc100d:mfc100d.dll
 0001:00014022       ?GetClientRect@CWnd@@QEBAXPEAUtagRECT@@@Z 0000000140015022 f   mfc100d:mfc100d.dll
 0001:00014028       ?InvalidateRect@CWnd@@QEAAXPEBUtagRECT@@H@Z 0000000140015028 f   mfc100d:mfc100d.dll
 0001:0001402e       ??4?$CStringT@DV?$StrTraitMFC_DLL@DV?$ChTraitsCRT@D@ATL@@@@@ATL@@QEAAAEAV01@AEBV01@@Z 000000014001502e f   mfc100d:mfc100d.dll
 0001:00014034       ?Format@?$CStringT@DV?$StrTraitMFC_DLL@DV?$ChTraitsCRT@D@ATL@@@@@ATL@@QEAAXPEBDZZ 0000000140015034 f   mfc100d:mfc100d.dll
 0001:0001403a       ?GetBuffer@?$CSimpleStringT@D$00@ATL@@QEAAPEADXZ 000000014001503a f   mfc100d:mfc100d.dll
 0001:00014040       ?ShowWindow@CWnd@@QEAAHH@Z 0000000140015040 f   mfc100d:mfc100d.dll
 0001:00014046       ?MoveWindow@CWnd@@QEAAXHHHHH@Z 0000000140015046 f   mfc100d:mfc100d.dll
 0001:0001404c       ?GetDlgItem@CWnd@@QEBAPEAV1@H@Z 000000014001504c f   mfc100d:mfc100d.dll
 0001:00014052       ?GetStyle@CWnd@@QEBAKXZ    0000000140015052 f   mfc100d:mfc100d.dll
 0001:00014058       ?SetIcon@CWnd@@QEAAPEAUHICON__@@PEAU2@H@Z 0000000140015058 f   mfc100d:mfc100d.dll
 0001:0001405e       ?EnableMenuItem@CMenu@@QEAAIII@Z 000000014001505e f   mfc100d:mfc100d.dll
 0001:00014064       ?AppendMenuA@CMenu@@QEAAHI_KPEBD@Z 0000000140015064 f   mfc100d:mfc100d.dll
 0001:0001406a       ?IsEmpty@?$CSimpleStringT@D$00@ATL@@QEBA_NXZ 000000014001506a f   mfc100d:mfc100d.dll
 0001:00014070       ?LoadStringA@?$CStringT@DV?$StrTraitMFC_DLL@DV?$ChTraitsCRT@D@ATL@@@@@ATL@@QEAAHI@Z 0000000140015070 f   mfc100d:mfc100d.dll
 0001:00014076       ?GetSystemMenu@CWnd@@QEBAPEAVCMenu@@H@Z 0000000140015076 f   mfc100d:mfc100d.dll
 0001:0001407c       ??1CWaitCursor@@QEAA@XZ    000000014001507c f   mfc100d:mfc100d.dll
 0001:00014082       ??0CWaitCursor@@QEAA@XZ    0000000140015082 f   mfc100d:mfc100d.dll
 0001:00014088       ?OnSysCommand@CWnd@@IEAAXI_J@Z 0000000140015088 f   mfc100d:mfc100d.dll
 0001:0001408e       ?OnPaint@CDialog@@IEAAXXZ  000000014001508e f   mfc100d:mfc100d.dll
 0001:00014094       ??1CPaintDC@@UEAA@XZ       0000000140015094 f   mfc100d:mfc100d.dll
 0001:0001409a       ?DrawIcon@CDC@@QEAAHHHPEAUHICON__@@@Z 000000014001509a f   mfc100d:mfc100d.dll
 0001:000140a0       ?SendMessageA@CWnd@@QEBA_JI_K_J@Z 00000001400150a0 f   mfc100d:mfc100d.dll
 0001:000140a6       ?GetSafeHdc@CDC@@QEBAPEAUHDC__@@XZ 00000001400150a6 f   mfc100d:mfc100d.dll
 0001:000140ac       ??0CPaintDC@@QEAA@PEAVCWnd@@@Z 00000001400150ac f   mfc100d:mfc100d.dll
 0001:000140b2       ?IsIconic@CWnd@@QEBAHXZ    00000001400150b2 f   mfc100d:mfc100d.dll
 0001:000140b8       ?OnDestroy@CWnd@@IEAAXXZ   00000001400150b8 f   mfc100d:mfc100d.dll
 0001:000140be       ?MoveWindow@CWnd@@QEAAXPEBUtagRECT@@H@Z 00000001400150be f   mfc100d:mfc100d.dll
 0001:000140c4       ?ScreenToClient@CWnd@@QEBAXPEAUtagRECT@@@Z 00000001400150c4 f   mfc100d:mfc100d.dll
 0001:000140ca       ?GetWindowRect@CWnd@@QEBAXPEAUtagRECT@@@Z 00000001400150ca f   mfc100d:mfc100d.dll
 0001:000140d0       ?OnSize@CWnd@@IEAAXIHH@Z   00000001400150d0 f   mfc100d:mfc100d.dll
 0001:000140d6       ?OnEndSession@CDialog@@IEAAXH@Z 00000001400150d6 f   mfc100d:mfc100d.dll
 0001:000140dc       ?OnQueryEndSession@CDialog@@IEAAHXZ 00000001400150dc f   mfc100d:mfc100d.dll
 0001:000140e2       ?EnableWindow@CWnd@@QEAAHH@Z 00000001400150e2 f   mfc100d:mfc100d.dll
 0001:000140e8       ?MessageBoxA@CWnd@@QEAAHPEBD0I@Z 00000001400150e8 f   mfc100d:mfc100d.dll
 0001:000140ee       ?GetBuffer@?$CSimpleStringT@D$00@ATL@@QEAAPEADH@Z 00000001400150ee f   mfc100d:mfc100d.dll
 0001:000140f4       ?SetWindowPos@CWnd@@QEAAHPEBV1@HHHHI@Z 00000001400150f4 f   mfc100d:mfc100d.dll
 0001:000140fa       ?UpdateData@CWnd@@QEAAHH@Z 00000001400150fa f   mfc100d:mfc100d.dll
 0001:00014100       ?OnNcPaint@CWnd@@IEAAXXZ   0000000140015100 f   mfc100d:mfc100d.dll
 0001:00014106       ?OnTimer@CWnd@@IEAAX_K@Z   0000000140015106 f   mfc100d:mfc100d.dll
 0001:0001410c       ?GetForegroundWindow@CWnd@@SAPEAV1@XZ 000000014001510c f   mfc100d:mfc100d.dll
 0001:00014112       ?KillTimer@CWnd@@QEAAH_K@Z 0000000140015112 f   mfc100d:mfc100d.dll
 0001:00014118       ?ModifyStyle@CWnd@@QEAAHKKI@Z 0000000140015118 f   mfc100d:mfc100d.dll
 0001:0001411e       ?AfxThrowInvalidArgException@@YAXXZ 000000014001511e f   mfc100d:mfc100d.dll
 0001:00014124       ?AfxThrowMemoryException@@YAXXZ 0000000140015124 f   mfc100d:mfc100d.dll
 0001:0001412a       ??3CObject@@SAXPEAXPEBDH@Z 000000014001512a f   mfc100d:mfc100d.dll
 0001:00014130       ??1CDC@@UEAA@XZ            0000000140015130 f   mfc100d:mfc100d.dll
 0001:00014136       ??1CBitmap@@UEAA@XZ        0000000140015136 f   mfc100d:mfc100d.dll
 0001:0001413c       ??1CFont@@UEAA@XZ          000000014001513c f   mfc100d:mfc100d.dll
 0001:00014142       ??1CPen@@UEAA@XZ           0000000140015142 f   mfc100d:mfc100d.dll
 0001:00014148       ?DeleteDC@CDC@@QEAAHXZ     0000000140015148 f   mfc100d:mfc100d.dll
 0001:0001414e       ?BitBlt@CDC@@QEAAHHHHHPEAV1@HHK@Z 000000014001514e f   mfc100d:mfc100d.dll
 0001:00014154       ?Mid@?$CStringT@DV?$StrTraitMFC_DLL@DV?$ChTraitsCRT@D@ATL@@@@@ATL@@QEBA?AV12@HH@Z 0000000140015154 f   mfc100d:mfc100d.dll
 0001:0001415a       ?Find@?$CStringT@DV?$StrTraitMFC_DLL@DV?$ChTraitsCRT@D@ATL@@@@@ATL@@QEBAHDH@Z 000000014001515a f   mfc100d:mfc100d.dll
 0001:00014160       ?LineTo@CDC@@QEAAHHH@Z     0000000140015160 f   mfc100d:mfc100d.dll
 0001:00014166       ?MoveTo@CDC@@QEAA?AVCPoint@@HH@Z 0000000140015166 f   mfc100d:mfc100d.dll
 0001:0001416c       ?SelectObject@CDC@@QEAAPEAVCPen@@PEAV2@@Z 000000014001516c f   mfc100d:mfc100d.dll
 0001:00014172       ??0CPen@@QEAA@HHK@Z        0000000140015172 f   mfc100d:mfc100d.dll
 0001:00014178       ?DeleteObject@CGdiObject@@QEAAHXZ 0000000140015178 f   mfc100d:mfc100d.dll
 0001:0001417e       ?DrawTextA@CDC@@QEAAHAEBV?$CStringT@DV?$StrTraitMFC_DLL@DV?$ChTraitsCRT@D@ATL@@@@@ATL@@PEAUtagRECT@@I@Z 000000014001517e f   mfc100d:mfc100d.dll
 0001:00014184       ?SetBkMode@CDC@@QEAAHH@Z   0000000140015184 f   mfc100d:mfc100d.dll
 0001:0001418a       ?CreateFontA@CFont@@QEAAHHHHHHEEEEEEEEPEBD@Z 000000014001518a f   mfc100d:mfc100d.dll
 0001:00014190       ??0CFont@@QEAA@XZ          0000000140015190 f   mfc100d:mfc100d.dll
 0001:00014196       ?SelectObject@CDC@@QEAAPEAVCBitmap@@PEAV2@@Z 0000000140015196 f   mfc100d:mfc100d.dll
 0001:0001419c       ?CreateCompatibleBitmap@CBitmap@@QEAAHPEAVCDC@@HH@Z 000000014001519c f   mfc100d:mfc100d.dll
 0001:000141a2       ??0CBitmap@@QEAA@XZ        00000001400151a2 f   mfc100d:mfc100d.dll
 0001:000141a8       ?CreateCompatibleDC@CDC@@QEAAHPEAV1@@Z 00000001400151a8 f   mfc100d:mfc100d.dll
 0001:000141ae       ??2CObject@@SAPEAX_KPEBDH@Z 00000001400151ae f   mfc100d:mfc100d.dll
 0001:000141b4       ?GetDC@CWnd@@QEAAPEAVCDC@@XZ 00000001400151b4 f   mfc100d:mfc100d.dll
 0001:000141ba       ??0CDC@@QEAA@XZ            00000001400151ba f   mfc100d:mfc100d.dll
 0001:000141c0       ?OnLButtonDown@CWnd@@IEAAXIVCPoint@@@Z 00000001400151c0 f   mfc100d:mfc100d.dll
 0001:000141c6       ?AppendChar@?$CSimpleStringT@D$00@ATL@@QEAAXD@Z 00000001400151c6 f   mfc100d:mfc100d.dll
 0001:000141cc       ?Delete@?$CStringT@DV?$StrTraitMFC_DLL@DV?$ChTraitsCRT@D@ATL@@@@@ATL@@QEAAHHH@Z 00000001400151cc f   mfc100d:mfc100d.dll
 0001:000141d2       ?OnEraseBkgnd@CWnd@@IEAAHPEAVCDC@@@Z 00000001400151d2 f   mfc100d:mfc100d.dll
 0001:000141d8       ??1CStdioFile@@UEAA@XZ     00000001400151d8 f   mfc100d:mfc100d.dll
 0001:000141de       ?Close@CStdioFile@@UEAAXXZ 00000001400151de f   mfc100d:mfc100d.dll
 0001:000141e4       ?WriteString@CStdioFile@@UEAAXPEBD@Z 00000001400151e4 f   mfc100d:mfc100d.dll
 0001:000141ea       ?SeekToEnd@CFile@@QEAA_KXZ 00000001400151ea f   mfc100d:mfc100d.dll
 0001:000141f0       ?Open@CStdioFile@@UEAAHPEBDIPEAVCFileException@@@Z 00000001400151f0 f   mfc100d:mfc100d.dll
 0001:000141f6       ??0CStdioFile@@QEAA@XZ     00000001400151f6 f   mfc100d:mfc100d.dll
 0001:000141fc       ?OnCreate@CWnd@@IEAAHPEAUtagCREATESTRUCTA@@@Z 00000001400151fc f   mfc100d:mfc100d.dll
 0001:00014202       ?Concatenate@?$CSimpleStringT@D$00@ATL@@KAXAEAV12@PEBDH1H@Z 0000000140015202 f   mfc100d:mfc100d.dll
 0001:00014208       ?StringLength@?$CSimpleStringT@D$00@ATL@@SAHPEBD@Z 0000000140015208 f   mfc100d:mfc100d.dll
 0001:0001420e       ??0?$CStringT@DV?$StrTraitMFC_DLL@DV?$ChTraitsCRT@D@ATL@@@@@ATL@@QEAA@PEAUIAtlStringMgr@1@@Z 000000014001520e f   mfc100d:mfc100d.dll
 0001:00014214       ?GetManager@?$CStringT@DV?$StrTraitMFC_DLL@DV?$ChTraitsCRT@D@ATL@@@@@ATL@@QEBAPEAUIAtlStringMgr@2@XZ 0000000140015214 f   mfc100d:mfc100d.dll
 0001:0001421a       ?AfxThrowOleException@@YAXJ@Z 000000014001521a f   mfc100d:mfc100d.dll
 0001:00014220       ?GetThisClass@CDialog@@SAPEAUCRuntimeClass@@XZ 0000000140015220 f   mfc100d:mfc100d.dll
 0001:00014226       ?DDX_Text@@YAXPEAVCDataExchange@@HAEAK@Z 0000000140015226 f   mfc100d:mfc100d.dll
 0001:0001422c       ?SetFont@CWnd@@QEAAXPEAVCFont@@H@Z 000000014001522c f   mfc100d:mfc100d.dll
 0001:00014232       ??2CObject@@SAPEAX_K@Z     0000000140015232 f   mfc100d:mfc100d.dll
 0001:00014238       ?OnCtlColor@CWnd@@IEAAPEAUHBRUSH__@@PEAVCDC@@PEAV1@I@Z 0000000140015238 f   mfc100d:mfc100d.dll
 0001:0001423e       ??1CBrush@@UEAA@XZ         000000014001523e f   mfc100d:mfc100d.dll
 0001:00014244       ?PatBlt@CDC@@QEAAHHHHHK@Z  0000000140015244 f   mfc100d:mfc100d.dll
 0001:0001424a       ?SelectObject@CDC@@QEAAPEAVCBrush@@PEAV2@@Z 000000014001524a f   mfc100d:mfc100d.dll
 0001:00014250       ??0CBrush@@QEAA@K@Z        0000000140015250 f   mfc100d:mfc100d.dll
 0001:00014256       ?OnClose@CWnd@@IEAAXXZ     0000000140015256 f   mfc100d:mfc100d.dll
 0001:0001425c       ?OnLButtonUp@CWnd@@IEAAXIVCPoint@@@Z 000000014001525c f   mfc100d:mfc100d.dll
 0001:00014262       ??_V@YAXPEAX@Z             0000000140015262 f   mfc100d:mfc100d.dll
 0001:00014268       ??_U@YAPEAX_K@Z            0000000140015268 f   mfc100d:mfc100d.dll
 0001:0001426e       ?AfxEndThread@@YAXIH@Z     000000014001526e f   mfc100d:mfc100d.dll
 0001:00014274       ?AfxBeginThread@@YAPEAVCWinThread@@P6AIPEAX@Z0HIKPEAU_SECURITY_ATTRIBUTES@@@Z 0000000140015274 f   mfc100d:mfc100d.dll
 0001:0001427a       ?ResumeThread@CWinThread@@QEAAKXZ 000000014001527a f   mfc100d:mfc100d.dll
 0001:00014280       ?SuspendThread@CWinThread@@QEAAKXZ 0000000140015280 f   mfc100d:mfc100d.dll
 0001:00014286       ?GetThisClass@CWnd@@SAPEAUCRuntimeClass@@XZ 0000000140015286 f   mfc100d:mfc100d.dll
 0001:0001428c       ??1CWnd@@UEAA@XZ           000000014001528c f   mfc100d:mfc100d.dll
 0001:00014292       ??0CWnd@@QEAA@XZ           0000000140015292 f   mfc100d:mfc100d.dll
 0001:00014298       ?AssertValid@CWnd@@UEBAXXZ 0000000140015298 f   mfc100d:mfc100d.dll
 0001:0001429e       ?Dump@CWnd@@UEBAXAEAVCDumpContext@@@Z 000000014001529e f   mfc100d:mfc100d.dll
 0001:000142a4       ?PreTranslateMessage@CWnd@@UEAAHPEAUtagMSG@@@Z 00000001400152a4 f   mfc100d:mfc100d.dll
 0001:000142aa       ?CheckAutoCenter@CWnd@@UEAAHXZ 00000001400152aa f   mfc100d:mfc100d.dll
 0001:000142b0       ?SetOccDialogInfo@CWnd@@MEAAHPEAU_AFX_OCC_DIALOG_INFO@@@Z 00000001400152b0 f   mfc100d:mfc100d.dll
 0001:000142b6       ?GetOccDialogInfo@CWnd@@MEAAPEAU_AFX_OCC_DIALOG_INFO@@XZ 00000001400152b6 f   mfc100d:mfc100d.dll
 0001:000142bc       ?GetThisMessageMap@CWnd@@KAPEBUAFX_MSGMAP@@XZ 00000001400152bc f   mfc100d:mfc100d.dll
 0001:000142c2       ?UpdateWindow@CWnd@@QEAAXXZ 00000001400152c2 f   mfc100d:mfc100d.dll
 0001:000142c8       ?CenterWindow@CWnd@@QEAAXPEAV1@@Z 00000001400152c8 f   mfc100d:mfc100d.dll
 0001:000142ce       ?AfxRegisterWndClass@@YAPEBDIPEAUHICON__@@PEAUHBRUSH__@@0@Z 00000001400152ce f   mfc100d:mfc100d.dll
 0001:000142d4       ?LoadStandardCursor@CWinApp@@QEBAPEAUHICON__@@PEBD@Z 00000001400152d4 f   mfc100d:mfc100d.dll
 0001:000142da       ?SelectObject@CDC@@UEAAPEAVCFont@@PEAV2@@Z 00000001400152da f   mfc100d:mfc100d.dll
 0001:000142e0       ?SetTextColor@CDC@@UEAAKK@Z 00000001400152e0 f   mfc100d:mfc100d.dll
 0001:000142e6       ?Find@?$CStringT@DV?$StrTraitMFC_DLL@DV?$ChTraitsCRT@D@ATL@@@@@ATL@@QEBAHPEBDH@Z 00000001400152e6 f   mfc100d:mfc100d.dll
 0001:000142ec       ?OnNcDestroy@CWnd@@IEAAXXZ 00000001400152ec f   mfc100d:mfc100d.dll
 0001:00014300       ??_Estringdispid@CComTypeInfoHolder@ATL@@QEAAPEAXI@Z 0000000140015300 f i mfcs100d:nolib.obj
 0001:00014390       ??1stringdispid@CComTypeInfoHolder@ATL@@QEAA@XZ 0000000140015390 f i mfcs100d:nolib.obj
 0001:000143b0       ??1CComBSTR@ATL@@QEAA@XZ   00000001400153b0 f i mfcs100d:nolib.obj
 0001:000143d0       ??0type_info@@AEAA@AEBV0@@Z 00000001400153d0 f   msvcrtd:ti_inst.obj
 0001:000143f0       ??_Etype_info@@UEAAPEAXI@Z 00000001400153f0 f i msvcrtd:ti_inst.obj
 0001:00014480       ??4type_info@@AEAAAEAV0@AEBV0@@Z 0000000140015480 f   msvcrtd:ti_inst.obj
 0001:00014490       __GSHandlerCheck_EH        0000000140015490 f   msvcrtd:gshandlereh.obj
 0001:00014550       __security_check_cookie    0000000140015550 f   msvcrtd:amdsecgs.obj
 0001:00014580       _alloca_probe              0000000140015580     msvcrtd:chkstk.obj
 0001:00014580       __chkstk                   0000000140015580 f   msvcrtd:chkstk.obj
 0001:000145ce       __CxxFrameHandler3         00000001400155ce f   msvcrtd:MSVCR100D.dll
 0001:000145e0       _onexit                    00000001400155e0 f   msvcrtd:atonexit.obj
 0001:000146a0       atexit                     00000001400156a0 f   msvcrtd:atonexit.obj
 0001:000146d4       memcpy                     00000001400156d4 f   msvcrtd:MSVCR100D.dll
 0001:000146e0       __GSHandlerCheck           00000001400156e0 f   msvcrtd:gshandler.obj
 0001:00014720       __GSHandlerCheckCommon     0000000140015720 f   msvcrtd:gshandler.obj
 0001:00014818       fprintf_s                  0000000140015818 f   msvcrtd:MSVCR100D.dll
 0001:0001481e       clock                      000000014001581e f   msvcrtd:MSVCR100D.dll
 0001:00014824       fprintf                    0000000140015824 f   msvcrtd:MSVCR100D.dll
 0001:0001482a       sprintf                    000000014001582a f   msvcrtd:MSVCR100D.dll
 0001:00014830       strlen                     0000000140015830 f   msvcrtd:MSVCR100D.dll
 0001:00014836       strcmp                     0000000140015836 f   msvcrtd:MSVCR100D.dll
 0001:0001483c       memset                     000000014001583c f   msvcrtd:MSVCR100D.dll
 0001:00014842       fclose                     0000000140015842 f   msvcrtd:MSVCR100D.dll
 0001:00014848       exit                       0000000140015848 f   msvcrtd:MSVCR100D.dll
 0001:0001484e       floorf                     000000014001584e f   msvcrtd:MSVCR100D.dll
 0001:00014854       _CrtDbgReportW             0000000140015854 f   msvcrtd:MSVCR100D.dll
 0001:00014860       __GSHandlerCheck_SEH       0000000140015860 f   msvcrtd:gshandlerseh.obj
 0001:0001491e       _resetstkoflw              000000014001591e f   msvcrtd:MSVCR100D.dll
 0001:00014924       memcpy_s                   0000000140015924 f   msvcrtd:MSVCR100D.dll
 0001:0001492a       labs                       000000014001592a f   msvcrtd:MSVCR100D.dll
 0001:00014930       cos                        0000000140015930 f   msvcrtd:MSVCR100D.dll
 0001:00014936       sin                        0000000140015936 f   msvcrtd:MSVCR100D.dll
 0001:0001493c       malloc                     000000014001593c f   msvcrtd:MSVCR100D.dll
 0001:00014942       free                       0000000140015942 f   msvcrtd:MSVCR100D.dll
 0001:00014948       vsprintf_s                 0000000140015948 f   msvcrtd:MSVCR100D.dll
 0001:0001494e       strcpy_s                   000000014001594e f   msvcrtd:MSVCR100D.dll
 0001:00014954       _wassert                   0000000140015954 f   msvcrtd:MSVCR100D.dll
 0001:0001495a       strcpy                     000000014001595a f   msvcrtd:MSVCR100D.dll
 0001:00014a70       WinMainCRTStartup          0000000140015a70 f   msvcrtd:crtexew.obj
 0001:00014e00       NtCurrentTeb               0000000140015e00 f i msvcrtd:crtexew.obj
 0001:00014eb0       ??_M@YAXPEAX_KHP6AX0@Z@Z   0000000140015eb0 f   msvcrtd:ehvecdtr.obj
 0001:00014f60       ?__ArrayUnwind@@YAXPEAX_KHP6AX0@Z@Z 0000000140015f60 f   msvcrtd:ehvecdtr.obj
 0001:00014ff0       __report_gsfailure         0000000140015ff0 f   msvcrtd:gs_report.obj
 0001:0001513a       __C_specific_handler       000000014001613a f   msvcrtd:MSVCR100D.dll
 0001:00015140       _unlock                    0000000140016140 f   msvcrtd:MSVCR100D.dll
 0001:00015146       __dllonexit                0000000140016146 f   msvcrtd:MSVCR100D.dll
 0001:0001514c       _lock                      000000014001614c f   msvcrtd:MSVCR100D.dll
 0001:00015160       ?__CxxUnhandledExceptionFilter@@YAJPEAU_EXCEPTION_POINTERS@@@Z 0000000140016160 f   msvcrtd:unhandld.obj
 0001:000151e0       __CxxSetUnhandledExceptionFilter 00000001400161e0 f   msvcrtd:unhandld.obj
 0001:000151f8       _configthreadlocale        00000001400161f8 f   msvcrtd:MSVCR100D.dll
 0001:000151fe       __setusermatherr           00000001400161fe f   msvcrtd:MSVCR100D.dll
 0001:00015210       _matherr                   0000000140016210 f   msvcrtd:merr.obj
 0001:00015220       _setargv                   0000000140016220 f   msvcrtd:dllargv.obj
 0001:00015230       _RTC_Initialize            0000000140016230 f   msvcrtd:_initsect_.obj
 0001:00015270       _RTC_Terminate             0000000140016270 f   msvcrtd:_initsect_.obj
 0001:000152ae       __set_app_type             00000001400162ae f   msvcrtd:MSVCR100D.dll
 0001:000152b4       _amsg_exit                 00000001400162b4 f   msvcrtd:MSVCR100D.dll
 0001:000152ba       __getmainargs              00000001400162ba f   msvcrtd:MSVCR100D.dll
 0001:000152c0       __security_init_cookie     00000001400162c0 f   msvcrtd:gs_support.obj
 0001:000153ce       _XcptFilter                00000001400163ce f   msvcrtd:MSVCR100D.dll
 0001:000153d4       _exit                      00000001400163d4 f   msvcrtd:MSVCR100D.dll
 0001:000153da       _cexit                     00000001400163da f   msvcrtd:MSVCR100D.dll
 0001:000153e0       _ismbblead                 00000001400163e0 f   msvcrtd:MSVCR100D.dll
 0001:000153e6       _CrtSetCheckCount          00000001400163e6 f   msvcrtd:MSVCR100D.dll
 0001:000153f0       _ValidateImageBase         00000001400163f0 f   msvcrtd:pesect.obj
 0001:00015470       _FindPESection             0000000140016470 f   msvcrtd:pesect.obj
 0001:00015520       _IsNonwritableInCurrentImage 0000000140016520 f   msvcrtd:pesect.obj
 0001:000155ae       _initterm                  00000001400165ae f   msvcrtd:MSVCR100D.dll
 0001:000155b4       _initterm_e                00000001400165b4 f   msvcrtd:MSVCR100D.dll
 0001:000155ba       ?terminate@@YAXXZ          00000001400165ba f   msvcrtd:MSVCR100D.dll
 0001:000155c0       ??1type_info@@UEAA@XZ      00000001400165c0 f   msvcrtd:MSVCR100D.dll
 0001:000155c0       ?_type_info_dtor_internal_method@type_info@@QEAAXXZ 00000001400165c0 f   msvcrtd:MSVCR100D.dll
 0001:000155c6       __crt_debugger_hook        00000001400165c6 f   msvcrtd:MSVCR100D.dll
 0001:000155cc       GetLocalTime               00000001400165cc f   kernel32:KERNEL32.dll
 0001:000155d2       GetDiskFreeSpaceExA        00000001400165d2 f   kernel32:KERNEL32.dll
 0001:000155d8       GetDiskFreeSpaceA          00000001400165d8 f   kernel32:KERNEL32.dll
 0001:000155de       QueryPerformanceCounter    00000001400165de f   kernel32:KERNEL32.dll
 0001:000155e4       QueryPerformanceFrequency  00000001400165e4 f   kernel32:KERNEL32.dll
 0001:000155ea       GetTickCount               00000001400165ea f   kernel32:KERNEL32.dll
 0001:000155f0       CloseHandle                00000001400165f0 f   kernel32:KERNEL32.dll
 0001:000155f6       GetSystemInfo              00000001400165f6 f   kernel32:KERNEL32.dll
 0001:000155fc       SizeofResource             00000001400165fc f   kernel32:KERNEL32.dll
 0001:00015602       LockResource               0000000140016602 f   kernel32:KERNEL32.dll
 0001:00015608       LoadResource               0000000140016608 f   kernel32:KERNEL32.dll
 0001:0001560e       FindResourceA              000000014001660e f   kernel32:KERNEL32.dll
 0001:00015614       LeaveCriticalSection       0000000140016614 f   kernel32:KERNEL32.dll
 0001:0001561a       EnterCriticalSection       000000014001661a f   kernel32:KERNEL32.dll
 0001:00015620       SetConsoleCursorInfo       0000000140016620 f   kernel32:KERNEL32.dll
 0001:00015626       GetStdHandle               0000000140016626 f   kernel32:KERNEL32.dll
 0001:0001562c       SetEvent                   000000014001662c f   kernel32:KERNEL32.dll
 0001:00015632       PurgeComm                  0000000140016632 f   kernel32:KERNEL32.dll
 0001:00015638       SetCommState               0000000140016638 f   kernel32:KERNEL32.dll
 0001:0001563e       BuildCommDCBA              000000014001663e f   kernel32:KERNEL32.dll
 0001:00015644       GetCommState               0000000140016644 f   kernel32:KERNEL32.dll
 0001:0001564a       SetCommMask                000000014001664a f   kernel32:KERNEL32.dll
 0001:00015650       SetCommTimeouts            0000000140016650 f   kernel32:KERNEL32.dll
 0001:00015656       CreateFileA                0000000140016656 f   kernel32:KERNEL32.dll
 0001:0001565c       InitializeCriticalSection  000000014001665c f   kernel32:KERNEL32.dll
 0001:00015662       CreateEventA               0000000140016662 f   kernel32:KERNEL32.dll
 0001:00015668       ResetEvent                 0000000140016668 f   kernel32:KERNEL32.dll
 0001:0001566e       GetCommMask                000000014001666e f   kernel32:KERNEL32.dll
 0001:00015674       WaitForMultipleObjects     0000000140016674 f   kernel32:KERNEL32.dll
 0001:0001567a       ClearCommError             000000014001667a f   kernel32:KERNEL32.dll
 0001:00015680       GetLastError               0000000140016680 f   kernel32:KERNEL32.dll
 0001:00015686       WaitCommEvent              0000000140016686 f   kernel32:KERNEL32.dll
 0001:0001568c       LocalFree                  000000014001668c f   kernel32:KERNEL32.dll
 0001:00015692       FormatMessageA             0000000140016692 f   kernel32:KERNEL32.dll
 0001:00015698       GetOverlappedResult        0000000140016698 f   kernel32:KERNEL32.dll
 0001:0001569e       WriteFile                  000000014001669e f   kernel32:KERNEL32.dll
 0001:000156a4       ReadFile                   00000001400166a4 f   kernel32:KERNEL32.dll
 0001:000156aa       CreateThread               00000001400166aa f   kernel32:KERNEL32.dll
 0001:000156b0       Sleep                      00000001400166b0 f   kernel32:KERNEL32.dll
 0001:000156b6       EncodePointer              00000001400166b6 f   kernel32:KERNEL32.dll
 0001:000156bc       DecodePointer              00000001400166bc f   kernel32:KERNEL32.dll
 0001:000156c2       GetStartupInfoW            00000001400166c2 f   kernel32:KERNEL32.dll
 0001:000156c8       TerminateProcess           00000001400166c8 f   kernel32:KERNEL32.dll
 0001:000156ce       GetCurrentProcess          00000001400166ce f   kernel32:KERNEL32.dll
 0001:000156d4       UnhandledExceptionFilter   00000001400166d4 f   kernel32:KERNEL32.dll
 0001:000156da       SetUnhandledExceptionFilter 00000001400166da f   kernel32:KERNEL32.dll
 0001:000156e0       IsDebuggerPresent          00000001400166e0 f   kernel32:KERNEL32.dll
 0001:000156e6       RtlVirtualUnwind           00000001400166e6 f   kernel32:KERNEL32.dll
 0001:000156ec       RtlLookupFunctionEntry     00000001400166ec f   kernel32:KERNEL32.dll
 0001:000156f2       RtlCaptureContext          00000001400166f2 f   kernel32:KERNEL32.dll
 0001:000156f8       GetCurrentThreadId         00000001400166f8 f   kernel32:KERNEL32.dll
 0001:000156fe       GetCurrentProcessId        00000001400166fe f   kernel32:KERNEL32.dll
 0001:00015704       GetSystemTimeAsFileTime    0000000140016704 f   kernel32:KERNEL32.dll
 0001:0001570a       GetCursorPos               000000014001670a f   user32:USER32.dll
 0001:00015710       DispatchMessageA           0000000140016710 f   user32:USER32.dll
 0001:00015716       TranslateMessage           0000000140016716 f   user32:USER32.dll
 0001:0001571c       PeekMessageA               000000014001671c f   user32:USER32.dll
 0001:00015722       PostQuitMessage            0000000140016722 f   user32:USER32.dll
 0001:00015728       MessageBoxA                0000000140016728 f   user32:USER32.dll
 0001:0001572e       LoadIconA                  000000014001672e f   user32:USER32.dll
 0001:00015734       SetWindowLongA             0000000140016734 f   user32:USER32.dll
 0001:0001573a       GetSystemMetrics           000000014001673a f   user32:USER32.dll
 0001:00015740       GetDlgCtrlID               0000000140016740 f   user32:USER32.dll
 0001:00015746       GetWindow                  0000000140016746 f   user32:USER32.dll
 0001:0001574c       SetDlgItemTextA            000000014001674c f   user32:USER32.dll
 0001:00015752       SendMessageA               0000000140016752 f   user32:USER32.dll
 0001:00015758       SetCursor                  0000000140016758 f   user32:USER32.dll
 0001:0001575e       LoadCursorA                000000014001675e f   user32:USER32.dll
 0001:00015764       CreateDIBSection           0000000140016764 f   gdi32:GDI32.dll
 0001:0001576a       SetDIBColorTable           000000014001676a f   gdi32:GDI32.dll
 0001:00015770       SelectObject               0000000140016770 f   gdi32:GDI32.dll
 0001:00015776       CreateCompatibleDC         0000000140016776 f   gdi32:GDI32.dll
 0001:0001577c       DeleteDC                   000000014001677c f   gdi32:GDI32.dll
 0001:00015782       GetObjectA                 0000000140016782 f   gdi32:GDI32.dll
 0001:00015788       DeleteObject               0000000140016788 f   gdi32:GDI32.dll
 0001:0001578e       StretchBlt                 000000014001678e f   gdi32:GDI32.dll
 0001:00015794       GetDIBColorTable           0000000140016794 f   gdi32:GDI32.dll
 0001:0001579a       CreateSolidBrush           000000014001679a f   gdi32:GDI32.dll
 0001:000157a0       AlphaBlend                 00000001400167a0 f   msimg32:MSIMG32.dll
 0001:000157a6       TransparentBlt             00000001400167a6 f   msimg32:MSIMG32.dll
 0001:000157ac       OpenSCManagerA             00000001400167ac f   advapi32:ADVAPI32.dll
 0001:000157b2       Shell_NotifyIconA          00000001400167b2 f   shell32:SHELL32.dll
 0001:000157c0       ??0CSize@@QEAA@XZ          00000001400167c0 f   atlsd:atltypes.obj
 0001:000157f0       ??0CSize@@QEAA@HH@Z        00000001400167f0 f   atlsd:atltypes.obj
 0001:00015820       ??0CSize@@QEAA@UtagSIZE@@@Z 0000000140016820 f   atlsd:atltypes.obj
 0001:00015840       ??0CSize@@QEAA@UtagPOINT@@@Z 0000000140016840 f   atlsd:atltypes.obj
 0001:00015860       ??0CSize@@QEAA@K@Z         0000000140016860 f   atlsd:atltypes.obj
 0001:000158a0       ??8CSize@@QEBAHUtagSIZE@@@Z 00000001400168a0 f   atlsd:atltypes.obj
 0001:000158f0       ??9CSize@@QEBAHUtagSIZE@@@Z 00000001400168f0 f   atlsd:atltypes.obj
 0001:00015940       ??YCSize@@QEAAXUtagSIZE@@@Z 0000000140016940 f   atlsd:atltypes.obj
 0001:00015980       ??ZCSize@@QEAAXUtagSIZE@@@Z 0000000140016980 f   atlsd:atltypes.obj
 0001:000159c0       ?SetSize@CSize@@QEAAXHH@Z  00000001400169c0 f   atlsd:atltypes.obj
 0001:000159f0       ??HCSize@@QEBA?AV0@UtagSIZE@@@Z 00000001400169f0 f   atlsd:atltypes.obj
 0001:00015a40       ??GCSize@@QEBA?AV0@UtagSIZE@@@Z 0000000140016a40 f   atlsd:atltypes.obj
 0001:00015a90       ??GCSize@@QEBA?AV0@XZ      0000000140016a90 f   atlsd:atltypes.obj
 0001:00015ad0       ??HCSize@@QEBA?AVCPoint@@UtagPOINT@@@Z 0000000140016ad0 f   atlsd:atltypes.obj
 0001:00015b20       ??GCSize@@QEBA?AVCPoint@@UtagPOINT@@@Z 0000000140016b20 f   atlsd:atltypes.obj
 0001:00015b70       ??HCSize@@QEBA?AVCRect@@PEBUtagRECT@@@Z 0000000140016b70 f   atlsd:atltypes.obj
 0001:00015be0       ??GCSize@@QEBA?AVCRect@@PEBUtagRECT@@@Z 0000000140016be0 f   atlsd:atltypes.obj
 0001:00015c50       ??0CPoint@@QEAA@XZ         0000000140016c50 f   atlsd:atltypes.obj
 0001:00015c80       ??0CPoint@@QEAA@HH@Z       0000000140016c80 f   atlsd:atltypes.obj
 0001:00015cb0       ??0CPoint@@QEAA@UtagPOINT@@@Z 0000000140016cb0 f   atlsd:atltypes.obj
 0001:00015cd0       ??0CPoint@@QEAA@UtagSIZE@@@Z 0000000140016cd0 f   atlsd:atltypes.obj
 0001:00015cf0       ??0CPoint@@QEAA@_J@Z       0000000140016cf0 f   atlsd:atltypes.obj
 0001:00015d30       ?Offset@CPoint@@QEAAXHH@Z  0000000140016d30 f   atlsd:atltypes.obj
 0001:00015d70       ?Offset@CPoint@@QEAAXUtagPOINT@@@Z 0000000140016d70 f   atlsd:atltypes.obj
 0001:00015db0       ?Offset@CPoint@@QEAAXUtagSIZE@@@Z 0000000140016db0 f   atlsd:atltypes.obj
 0001:00015df0       ?SetPoint@CPoint@@QEAAXHH@Z 0000000140016df0 f   atlsd:atltypes.obj
 0001:00015e20       ??8CPoint@@QEBAHUtagPOINT@@@Z 0000000140016e20 f   atlsd:atltypes.obj
 0001:00015e70       ??9CPoint@@QEBAHUtagPOINT@@@Z 0000000140016e70 f   atlsd:atltypes.obj
 0001:00015ec0       ??YCPoint@@QEAAXUtagSIZE@@@Z 0000000140016ec0 f   atlsd:atltypes.obj
 0001:00015f00       ??ZCPoint@@QEAAXUtagSIZE@@@Z 0000000140016f00 f   atlsd:atltypes.obj
 0001:00015f40       ??YCPoint@@QEAAXUtagPOINT@@@Z 0000000140016f40 f   atlsd:atltypes.obj
 0001:00015f80       ??ZCPoint@@QEAAXUtagPOINT@@@Z 0000000140016f80 f   atlsd:atltypes.obj
 0001:00015fc0       ??HCPoint@@QEBA?AV0@UtagSIZE@@@Z 0000000140016fc0 f   atlsd:atltypes.obj
 0001:00016010       ??GCPoint@@QEBA?AV0@UtagSIZE@@@Z 0000000140017010 f   atlsd:atltypes.obj
 0001:00016060       ??GCPoint@@QEBA?AV0@XZ     0000000140017060 f   atlsd:atltypes.obj
 0001:000160a0       ??HCPoint@@QEBA?AV0@UtagPOINT@@@Z 00000001400170a0 f   atlsd:atltypes.obj
 0001:000160f0       ??GCPoint@@QEBA?AVCSize@@UtagPOINT@@@Z 00000001400170f0 f   atlsd:atltypes.obj
 0001:00016140       ??HCPoint@@QEBA?AVCRect@@PEBUtagRECT@@@Z 0000000140017140 f   atlsd:atltypes.obj
 0001:000161b0       ??GCPoint@@QEBA?AVCRect@@PEBUtagRECT@@@Z 00000001400171b0 f   atlsd:atltypes.obj
 0001:00016220       ??0CRect@@QEAA@XZ          0000000140017220 f   atlsd:atltypes.obj
 0001:00016260       ??0CRect@@QEAA@HHHH@Z      0000000140017260 f   atlsd:atltypes.obj
 0001:000162b0       ??0CRect@@QEAA@AEBUtagRECT@@@Z 00000001400172b0 f   atlsd:atltypes.obj
 0001:000162e0       ??0CRect@@QEAA@PEBUtagRECT@@@Z 00000001400172e0 f   atlsd:atltypes.obj
 0001:00016310       ??0CRect@@QEAA@UtagPOINT@@UtagSIZE@@@Z 0000000140017310 f   atlsd:atltypes.obj
 0001:00016370       ??0CRect@@QEAA@UtagPOINT@@0@Z 0000000140017370 f   atlsd:atltypes.obj
 0001:000163c0       ?Width@CRect@@QEBAHXZ      00000001400173c0 f   atlsd:atltypes.obj
 0001:000163e0       ?Height@CRect@@QEBAHXZ     00000001400173e0 f   atlsd:atltypes.obj
 0001:00016400       ?Size@CRect@@QEBA?AVCSize@@XZ 0000000140017400 f   atlsd:atltypes.obj
 0001:00016450       ?TopLeft@CRect@@QEAAAEAVCPoint@@XZ 0000000140017450 f   atlsd:atltypes.obj
 0001:00016460       ?BottomRight@CRect@@QEAAAEAVCPoint@@XZ 0000000140017460 f   atlsd:atltypes.obj
 0001:00016470       ?TopLeft@CRect@@QEBAAEBVCPoint@@XZ 0000000140017470 f   atlsd:atltypes.obj
 0001:00016480       ?BottomRight@CRect@@QEBAAEBVCPoint@@XZ 0000000140017480 f   atlsd:atltypes.obj
 0001:00016490       ?CenterPoint@CRect@@QEBA?AVCPoint@@XZ 0000000140017490 f   atlsd:atltypes.obj
 0001:000164f0       ?SwapLeftRight@CRect@@QEAAXXZ 00000001400174f0 f   atlsd:atltypes.obj
 0001:00016510       ?SwapLeftRight@CRect@@SAXPEAUtagRECT@@@Z 0000000140017510 f   atlsd:atltypes.obj
 0001:00016550       ??BCRect@@QEAAPEAUtagRECT@@XZ 0000000140017550 f   atlsd:atltypes.obj
 0001:00016560       ??BCRect@@QEBAPEBUtagRECT@@XZ 0000000140017560 f   atlsd:atltypes.obj
 0001:00016570       ?IsRectEmpty@CRect@@QEBAHXZ 0000000140017570 f   atlsd:atltypes.obj
 0001:00016590       ?IsRectNull@CRect@@QEBAHXZ 0000000140017590 f   atlsd:atltypes.obj
 0001:000165e0       ?PtInRect@CRect@@QEBAHUtagPOINT@@@Z 00000001400175e0 f   atlsd:atltypes.obj
 0001:00016610       ?SetRect@CRect@@QEAAXHHHH@Z 0000000140017610 f   atlsd:atltypes.obj
 0001:00016650       ?SetRect@CRect@@QEAAXUtagPOINT@@0@Z 0000000140017650 f   atlsd:atltypes.obj
 0001:00016690       ?SetRectEmpty@CRect@@QEAAXXZ 0000000140017690 f   atlsd:atltypes.obj
 0001:000166b0       ?CopyRect@CRect@@QEAAXPEBUtagRECT@@@Z 00000001400176b0 f   atlsd:atltypes.obj
 0001:000166e0       ?EqualRect@CRect@@QEBAHPEBUtagRECT@@@Z 00000001400176e0 f   atlsd:atltypes.obj
 0001:00016710       ?InflateRect@CRect@@QEAAXHH@Z 0000000140017710 f   atlsd:atltypes.obj
 0001:00016740       ?InflateRect@CRect@@QEAAXUtagSIZE@@@Z 0000000140017740 f   atlsd:atltypes.obj
 0001:00016770       ?DeflateRect@CRect@@QEAAXHH@Z 0000000140017770 f   atlsd:atltypes.obj
 0001:000167b0       ?DeflateRect@CRect@@QEAAXUtagSIZE@@@Z 00000001400177b0 f   atlsd:atltypes.obj
 0001:000167e0       ?OffsetRect@CRect@@QEAAXHH@Z 00000001400177e0 f   atlsd:atltypes.obj
 0001:00016810       ?OffsetRect@CRect@@QEAAXUtagPOINT@@@Z 0000000140017810 f   atlsd:atltypes.obj
 0001:00016840       ?OffsetRect@CRect@@QEAAXUtagSIZE@@@Z 0000000140017840 f   atlsd:atltypes.obj
 0001:00016870       ?MoveToY@CRect@@QEAAXH@Z   0000000140017870 f   atlsd:atltypes.obj
 0001:000168b0       ?MoveToX@CRect@@QEAAXH@Z   00000001400178b0 f   atlsd:atltypes.obj
 0001:000168f0       ?MoveToXY@CRect@@QEAAXHH@Z 00000001400178f0 f   atlsd:atltypes.obj
 0001:00016930       ?MoveToXY@CRect@@QEAAXUtagPOINT@@@Z 0000000140017930 f   atlsd:atltypes.obj
 0001:00016960       ?IntersectRect@CRect@@QEAAHPEBUtagRECT@@0@Z 0000000140017960 f   atlsd:atltypes.obj
 0001:00016990       ?UnionRect@CRect@@QEAAHPEBUtagRECT@@0@Z 0000000140017990 f   atlsd:atltypes.obj
 0001:000169c0       ??4CRect@@QEAAXAEBUtagRECT@@@Z 00000001400179c0 f   atlsd:atltypes.obj
 0001:000169f0       ??8CRect@@QEBAHAEBUtagRECT@@@Z 00000001400179f0 f   atlsd:atltypes.obj
 0001:00016a20       ??9CRect@@QEBAHAEBUtagRECT@@@Z 0000000140017a20 f   atlsd:atltypes.obj
 0001:00016a60       ??YCRect@@QEAAXUtagPOINT@@@Z 0000000140017a60 f   atlsd:atltypes.obj
 0001:00016a90       ??YCRect@@QEAAXUtagSIZE@@@Z 0000000140017a90 f   atlsd:atltypes.obj
 0001:00016ac0       ??YCRect@@QEAAXPEBUtagRECT@@@Z 0000000140017ac0 f   atlsd:atltypes.obj
 0001:00016af0       ??ZCRect@@QEAAXUtagPOINT@@@Z 0000000140017af0 f   atlsd:atltypes.obj
 0001:00016b20       ??ZCRect@@QEAAXUtagSIZE@@@Z 0000000140017b20 f   atlsd:atltypes.obj
 0001:00016b50       ??ZCRect@@QEAAXPEBUtagRECT@@@Z 0000000140017b50 f   atlsd:atltypes.obj
 0001:00016b80       ??_4CRect@@QEAAXAEBUtagRECT@@@Z 0000000140017b80 f   atlsd:atltypes.obj
 0001:00016bb0       ??_5CRect@@QEAAXAEBUtagRECT@@@Z 0000000140017bb0 f   atlsd:atltypes.obj
 0001:00016be0       ??HCRect@@QEBA?AV0@UtagPOINT@@@Z 0000000140017be0 f   atlsd:atltypes.obj
 0001:00016c80       ??GCRect@@QEBA?AV0@UtagPOINT@@@Z 0000000140017c80 f   atlsd:atltypes.obj
 0001:00016d20       ??HCRect@@QEBA?AV0@UtagSIZE@@@Z 0000000140017d20 f   atlsd:atltypes.obj
 0001:00016dc0       ??GCRect@@QEBA?AV0@UtagSIZE@@@Z 0000000140017dc0 f   atlsd:atltypes.obj
 0001:00016e60       ??HCRect@@QEBA?AV0@PEBUtagRECT@@@Z 0000000140017e60 f   atlsd:atltypes.obj
 0001:00016ed0       ??GCRect@@QEBA?AV0@PEBUtagRECT@@@Z 0000000140017ed0 f   atlsd:atltypes.obj
 0001:00016f40       ??ICRect@@QEBA?AV0@AEBUtagRECT@@@Z 0000000140017f40 f   atlsd:atltypes.obj
 0001:00016fb0       ??UCRect@@QEBA?AV0@AEBUtagRECT@@@Z 0000000140017fb0 f   atlsd:atltypes.obj
 0001:00017020       ?SubtractRect@CRect@@QEAAHPEBUtagRECT@@0@Z 0000000140018020 f   atlsd:atltypes.obj
 0001:00017050       ?NormalizeRect@CRect@@QEAAXXZ 0000000140018050 f   atlsd:atltypes.obj
 0001:000170d0       ?InflateRect@CRect@@QEAAXPEBUtagRECT@@@Z 00000001400180d0 f   atlsd:atltypes.obj
 0001:00017140       ?InflateRect@CRect@@QEAAXHHHH@Z 0000000140018140 f   atlsd:atltypes.obj
 0001:000171b0       ?DeflateRect@CRect@@QEAAXPEBUtagRECT@@@Z 00000001400181b0 f   atlsd:atltypes.obj
 0001:00017220       ?DeflateRect@CRect@@QEAAXHHHH@Z 0000000140018220 f   atlsd:atltypes.obj
 0001:00017290       ?MulDiv@CRect@@QEBA?AV1@HH@Z 0000000140018290 f   atlsd:atltypes.obj
 0001:00017340       ??0CDCCache@CImage@ATL@@QEAA@XZ 0000000140018340 f i atlsd:atlimage.obj
 0001:00017380       ??1CDCCache@CImage@ATL@@QEAA@XZ 0000000140018380 f i atlsd:atlimage.obj
 0001:000173d0       ??0CInitGDIPlus@CImage@ATL@@QEAA@XZ 00000001400183d0 f i atlsd:atlimage2.obj
 0001:00017440       ??1CInitGDIPlus@CImage@ATL@@QEAA@XZ 0000000140018440 f i atlsd:atlimage2.obj
 0001:00017470       ??0CTimeSpan@ATL@@QEAA@XZ  0000000140018470 f   atlsd:atltime.obj
 0001:00017490       ??0CTimeSpan@ATL@@QEAA@_J@Z 0000000140018490 f   atlsd:atltime.obj
 0001:000174b0       ??0CTimeSpan@ATL@@QEAA@JHHH@Z 00000001400184b0 f   atlsd:atltime.obj
 0001:00017500       ?GetDays@CTimeSpan@ATL@@QEBA_JXZ 0000000140018500 f   atlsd:atltime.obj
 0001:00017520       ?GetTotalHours@CTimeSpan@ATL@@QEBA_JXZ 0000000140018520 f   atlsd:atltime.obj
 0001:00017540       ?GetHours@CTimeSpan@ATL@@QEBAJXZ 0000000140018540 f   atlsd:atltime.obj
 0001:00017580       ?GetTotalMinutes@CTimeSpan@ATL@@QEBA_JXZ 0000000140018580 f   atlsd:atltime.obj
 0001:000175a0       ?GetMinutes@CTimeSpan@ATL@@QEBAJXZ 00000001400185a0 f   atlsd:atltime.obj
 0001:000175e0       ?GetTotalSeconds@CTimeSpan@ATL@@QEBA_JXZ 00000001400185e0 f   atlsd:atltime.obj
 0001:000175f0       ?GetSeconds@CTimeSpan@ATL@@QEBAJXZ 00000001400185f0 f   atlsd:atltime.obj
 0001:00017630       ?GetTimeSpan@CTimeSpan@ATL@@QEBA_JXZ 0000000140018630 f   atlsd:atltime.obj
 0001:00017640       ??HCTimeSpan@ATL@@QEBA?AV01@V01@@Z 0000000140018640 f   atlsd:atltime.obj
 0001:00017680       ??GCTimeSpan@ATL@@QEBA?AV01@V01@@Z 0000000140018680 f   atlsd:atltime.obj
 0001:000176c0       ??YCTimeSpan@ATL@@QEAAAEAV01@V01@@Z 00000001400186c0 f   atlsd:atltime.obj
 0001:000176f0       ??ZCTimeSpan@ATL@@QEAAAEAV01@V01@@Z 00000001400186f0 f   atlsd:atltime.obj
 0001:00017720       ??8CTimeSpan@ATL@@QEBA_NV01@@Z 0000000140018720 f   atlsd:atltime.obj
 0001:00017760       ??9CTimeSpan@ATL@@QEBA_NV01@@Z 0000000140018760 f   atlsd:atltime.obj
 0001:000177a0       ??MCTimeSpan@ATL@@QEBA_NV01@@Z 00000001400187a0 f   atlsd:atltime.obj
 0001:000177e0       ??OCTimeSpan@ATL@@QEBA_NV01@@Z 00000001400187e0 f   atlsd:atltime.obj
 0001:00017820       ??NCTimeSpan@ATL@@QEBA_NV01@@Z 0000000140018820 f   atlsd:atltime.obj
 0001:00017860       ??PCTimeSpan@ATL@@QEBA_NV01@@Z 0000000140018860 f   atlsd:atltime.obj
 0001:000178a0       ?GetTickCount@CTime@ATL@@SA?AV12@XZ 00000001400188a0 f   atlsd:atltime.obj
 0001:000178d0       ?IsValidFILETIME@CTime@ATL@@SAHAEBU_FILETIME@@@Z 00000001400188d0 f   atlsd:atltime.obj
 0001:00017930       ??0CTime@ATL@@QEAA@XZ      0000000140018930 f   atlsd:atltime.obj
 0001:00017950       ??0CTime@ATL@@QEAA@_J@Z    0000000140018950 f   atlsd:atltime.obj
 0001:00017970       ??0CTime@ATL@@QEAA@HHHHHHH@Z 0000000140018970 f   atlsd:atltime.obj
 0001:00017de0       ??0CTime@ATL@@QEAA@GGH@Z   0000000140018de0 f   atlsd:atltime.obj
 0001:00017f20       ??0CTime@ATL@@QEAA@AEBU_SYSTEMTIME@@H@Z 0000000140018f20 f   atlsd:atltime.obj
 0001:00017ff0       ??0CTime@ATL@@QEAA@AEBU_FILETIME@@H@Z 0000000140018ff0 f   atlsd:atltime.obj
 0001:000180b0       ??4CTime@ATL@@QEAAAEAV01@_J@Z 00000001400190b0 f   atlsd:atltime.obj
 0001:000180d0       ??YCTime@ATL@@QEAAAEAV01@VCTimeSpan@1@@Z 00000001400190d0 f   atlsd:atltime.obj
 0001:00018110       ??ZCTime@ATL@@QEAAAEAV01@VCTimeSpan@1@@Z 0000000140019110 f   atlsd:atltime.obj
 0001:00018150       ??GCTime@ATL@@QEBA?AVCTimeSpan@1@V01@@Z 0000000140019150 f   atlsd:atltime.obj
 0001:00018190       ??GCTime@ATL@@QEBA?AV01@VCTimeSpan@1@@Z 0000000140019190 f   atlsd:atltime.obj
 0001:000181e0       ??HCTime@ATL@@QEBA?AV01@VCTimeSpan@1@@Z 00000001400191e0 f   atlsd:atltime.obj
 0001:00018220       ??8CTime@ATL@@QEBA_NV01@@Z 0000000140019220 f   atlsd:atltime.obj
 0001:00018260       ??9CTime@ATL@@QEBA_NV01@@Z 0000000140019260 f   atlsd:atltime.obj
 0001:000182a0       ??MCTime@ATL@@QEBA_NV01@@Z 00000001400192a0 f   atlsd:atltime.obj
 0001:000182e0       ??OCTime@ATL@@QEBA_NV01@@Z 00000001400192e0 f   atlsd:atltime.obj
 0001:00018320       ??NCTime@ATL@@QEBA_NV01@@Z 0000000140019320 f   atlsd:atltime.obj
 0001:00018360       ??PCTime@ATL@@QEBA_NV01@@Z 0000000140019360 f   atlsd:atltime.obj
 0001:000183a0       ?GetGmtTm@CTime@ATL@@QEBAPEAUtm@@PEAU3@@Z 00000001400193a0 f   atlsd:atltime.obj
 0001:000184b0       ?GetLocalTm@CTime@ATL@@QEBAPEAUtm@@PEAU3@@Z 00000001400194b0 f   atlsd:atltime.obj
 0001:000185c0       ?GetAsSystemTime@CTime@ATL@@QEBA_NAEAU_SYSTEMTIME@@@Z 00000001400195c0 f   atlsd:atltime.obj
 0001:000186a0       ?GetTime@CTime@ATL@@QEBA_JXZ 00000001400196a0 f   atlsd:atltime.obj
 0001:000186b0       ?GetYear@CTime@ATL@@QEBAHXZ 00000001400196b0 f   atlsd:atltime.obj
 0001:00018720       ?GetMonth@CTime@ATL@@QEBAHXZ 0000000140019720 f   atlsd:atltime.obj
 0001:00018790       ?GetDay@CTime@ATL@@QEBAHXZ 0000000140019790 f   atlsd:atltime.obj
 0001:00018800       ?GetHour@CTime@ATL@@QEBAHXZ 0000000140019800 f   atlsd:atltime.obj
 0001:00018870       ?GetMinute@CTime@ATL@@QEBAHXZ 0000000140019870 f   atlsd:atltime.obj
 0001:000188e0       ?GetSecond@CTime@ATL@@QEBAHXZ 00000001400198e0 f   atlsd:atltime.obj
 0001:00018950       ?GetDayOfWeek@CTime@ATL@@QEBAHXZ 0000000140019950 f   atlsd:atltime.obj
 0001:000189c0       ??0CFileTimeSpan@ATL@@QEAA@XZ 00000001400199c0 f   atlsd:atltime.obj
 0001:000189e0       ??0CFileTimeSpan@ATL@@QEAA@AEBV01@@Z 00000001400199e0 f   atlsd:atltime.obj
 0001:00018a00       ??0CFileTimeSpan@ATL@@QEAA@_J@Z 0000000140019a00 f   atlsd:atltime.obj
 0001:00018a20       ??4CFileTimeSpan@ATL@@QEAAAEAV01@AEBV01@@Z 0000000140019a20 f   atlsd:atltime.obj
 0001:00018a40       ??YCFileTimeSpan@ATL@@QEAAAEAV01@V01@@Z 0000000140019a40 f   atlsd:atltime.obj
 0001:00018a70       ??ZCFileTimeSpan@ATL@@QEAAAEAV01@V01@@Z 0000000140019a70 f   atlsd:atltime.obj
 0001:00018aa0       ??HCFileTimeSpan@ATL@@QEBA?AV01@V01@@Z 0000000140019aa0 f   atlsd:atltime.obj
 0001:00018ae0       ??GCFileTimeSpan@ATL@@QEBA?AV01@V01@@Z 0000000140019ae0 f   atlsd:atltime.obj
 0001:00018b20       ??8CFileTimeSpan@ATL@@QEBA_NV01@@Z 0000000140019b20 f   atlsd:atltime.obj
 0001:00018b60       ??9CFileTimeSpan@ATL@@QEBA_NV01@@Z 0000000140019b60 f   atlsd:atltime.obj
 0001:00018ba0       ??MCFileTimeSpan@ATL@@QEBA_NV01@@Z 0000000140019ba0 f   atlsd:atltime.obj
 0001:00018be0       ??OCFileTimeSpan@ATL@@QEBA_NV01@@Z 0000000140019be0 f   atlsd:atltime.obj
 0001:00018c20       ??NCFileTimeSpan@ATL@@QEBA_NV01@@Z 0000000140019c20 f   atlsd:atltime.obj
 0001:00018c60       ??PCFileTimeSpan@ATL@@QEBA_NV01@@Z 0000000140019c60 f   atlsd:atltime.obj
 0001:00018ca0       ?GetTimeSpan@CFileTimeSpan@ATL@@QEBA_JXZ 0000000140019ca0 f   atlsd:atltime.obj
 0001:00018cb0       ?SetTimeSpan@CFileTimeSpan@ATL@@QEAAX_J@Z 0000000140019cb0 f   atlsd:atltime.obj
 0001:00018cd0       ??0CFileTime@ATL@@QEAA@XZ  0000000140019cd0 f   atlsd:atltime.obj
 0001:00018d00       ??0CFileTime@ATL@@QEAA@AEBU_FILETIME@@@Z 0000000140019d00 f   atlsd:atltime.obj
 0001:00018d30       ??0CFileTime@ATL@@QEAA@_K@Z 0000000140019d30 f   atlsd:atltime.obj
 0001:00018d60       ??4CFileTime@ATL@@QEAAAEAV01@AEBU_FILETIME@@@Z 0000000140019d60 f   atlsd:atltime.obj
 0001:00018d90       ?GetTickCount@CFileTime@ATL@@SA?AV12@XZ 0000000140019d90 f   atlsd:atltime.obj
 0001:00018dd0       ??YCFileTime@ATL@@QEAAAEAV01@VCFileTimeSpan@1@@Z 0000000140019dd0 f   atlsd:atltime.obj
 0001:00018e20       ??ZCFileTime@ATL@@QEAAAEAV01@VCFileTimeSpan@1@@Z 0000000140019e20 f   atlsd:atltime.obj
 0001:00018e70       ??HCFileTime@ATL@@QEBA?AV01@VCFileTimeSpan@1@@Z 0000000140019e70 f   atlsd:atltime.obj
 0001:00018ec0       ??GCFileTime@ATL@@QEBA?AV01@VCFileTimeSpan@1@@Z 0000000140019ec0 f   atlsd:atltime.obj
 0001:00018f10       ??GCFileTime@ATL@@QEBA?AVCFileTimeSpan@1@V01@@Z 0000000140019f10 f   atlsd:atltime.obj
 0001:00018f60       ??8CFileTime@ATL@@QEBA_NV01@@Z 0000000140019f60 f   atlsd:atltime.obj
 0001:00018fb0       ??9CFileTime@ATL@@QEBA_NV01@@Z 0000000140019fb0 f   atlsd:atltime.obj
 0001:00019000       ??MCFileTime@ATL@@QEBA_NV01@@Z 000000014001a000 f   atlsd:atltime.obj
 0001:00019050       ??OCFileTime@ATL@@QEBA_NV01@@Z 000000014001a050 f   atlsd:atltime.obj
 0001:000190a0       ??NCFileTime@ATL@@QEBA_NV01@@Z 000000014001a0a0 f   atlsd:atltime.obj
 0001:000190f0       ??PCFileTime@ATL@@QEBA_NV01@@Z 000000014001a0f0 f   atlsd:atltime.obj
 0001:00019140       ?GetTime@CFileTime@ATL@@QEBA_KXZ 000000014001a140 f   atlsd:atltime.obj
 0001:00019160       ?SetTime@CFileTime@ATL@@QEAAX_K@Z 000000014001a160 f   atlsd:atltime.obj
 0001:00019190       ?UTCToLocal@CFileTime@ATL@@QEBA?AV12@XZ 000000014001a190 f   atlsd:atltime.obj
 0001:000191d0       ?LocalToUTC@CFileTime@ATL@@QEBA?AV12@XZ 000000014001a1d0 f   atlsd:atltime.obj
 0001:00019210       ?_AtlRaiseException@ATL@@YAXKK@Z 000000014001a210 f i atlsd:atltime.obj
 0001:00019240       ??0CTraceCategory@ATL@@QEAA@PEBDI@Z 000000014001a240 f i atlsd:atltrace.obj
 0001:000192a0       ?ChangeCategory@CTrace@ATL@@QEAA_N_KIW4ATLTRACESTATUS@2@@Z 000000014001a2a0 f i atlsd:atltrace.obj
 0001:000192f0       ?RegisterCategory@CTrace@ATL@@QEAA_KPEBD@Z 000000014001a2f0 f i atlsd:atltrace.obj
 0001:00019320       ??0CAtlAllocator@@QEAA@XZ  000000014001a320 f i atlsd:Externs.obj
 0001:00019380       ??0CTraceSnapshot@@QEAA@XZ 000000014001a380 f i atlsd:Externs.obj
 0001:000193b0       ??0?$CSimpleArray@UCModuleInfo@CTraceSnapshot@@V?$CSimpleArrayEqualHelper@UCModuleInfo@CTraceSnapshot@@@ATL@@@ATL@@QEAA@XZ 000000014001a3b0 f i atlsd:Externs.obj
 0001:000193e0       ??0?$CSimpleArray@_KV?$CSimpleArrayEqualHelper@_K@ATL@@@ATL@@QEAA@XZ 000000014001a3e0 f i atlsd:Externs.obj
 0001:00019520       ??0CAtlException@ATL@@QEAA@J@Z 000000014001a520 f i atlsd:Externs.obj
 0001:00019540       ?AtlCrtErrorCheck@ATL@@YAHH@Z 000000014001a540 f i atlsd:Externs.obj
 0001:000195b0       ??0CTrace@ATL@@AEAA@P6AHHPEBDH00ZZ@Z 000000014001a5b0 f i atlsd:Externs.obj
 0001:00019600       ??1CAtlAllocator@@QEAA@XZ  000000014001a600 f i atlsd:Externs.obj
 0001:00019630       ??1CTraceSnapshot@@QEAA@XZ 000000014001a630 f i atlsd:Externs.obj
 0001:00019660       ??1?$CSimpleArray@UCModuleInfo@CTraceSnapshot@@V?$CSimpleArrayEqualHelper@UCModuleInfo@CTraceSnapshot@@@ATL@@@ATL@@QEAA@XZ 000000014001a660 f i atlsd:Externs.obj
 0001:00019680       ??1?$CSimpleArray@_KV?$CSimpleArrayEqualHelper@_K@ATL@@@ATL@@QEAA@XZ 000000014001a680 f i atlsd:Externs.obj
 0001:000196a0       ?RemoveAll@?$CSimpleArray@UCModuleInfo@CTraceSnapshot@@V?$CSimpleArrayEqualHelper@UCModuleInfo@CTraceSnapshot@@@ATL@@@ATL@@QEAAXXZ 000000014001a6a0 f i atlsd:Externs.obj
 0001:00019710       ?RemoveAll@?$CSimpleArray@_KV?$CSimpleArrayEqualHelper@_K@ATL@@@ATL@@QEAAXXZ 000000014001a710 f i atlsd:Externs.obj
 0001:00019780       ??1CTrace@ATL@@AEAA@XZ     000000014001a780 f i atlsd:Externs.obj
 0001:000197a0       ?NotifyTool@ATL@@YAXXZ     000000014001a7a0 f   atlsd:AtlDebugAPI.obj
 0001:000197e0       AtlTraceRegister           000000014001a7e0 f   atlsd:AtlDebugAPI.obj
 0001:00019880       AtlTraceUnregister         000000014001a880 f   atlsd:AtlDebugAPI.obj
 0001:000198c0       AtlTraceRegisterCategoryA  000000014001a8c0 f   atlsd:AtlDebugAPI.obj
 0001:00019950       AtlTraceRegisterCategoryU  000000014001a950 f   atlsd:AtlDebugAPI.obj
 0001:000199b0       AtlTraceModifyProcess      000000014001a9b0 f   atlsd:AtlDebugAPI.obj
 0001:00019ad0       ?GetProcess@CAtlAllocator@@QEBAPEAVCAtlTraceProcess@@XZ 000000014001aad0 f i atlsd:AtlDebugAPI.obj
 0001:00019ae0       AtlTraceModifyModule       000000014001aae0 f   atlsd:AtlDebugAPI.obj
 0001:00019c20       AtlTraceModifyCategory     000000014001ac20 f   atlsd:AtlDebugAPI.obj
 0001:00019d20       AtlTraceGetProcess         000000014001ad20 f   atlsd:AtlDebugAPI.obj
 0001:00019e60       AtlTraceGetModule          000000014001ae60 f   atlsd:AtlDebugAPI.obj
 0001:00019fe0       AtlTraceGetCategory        000000014001afe0 f   atlsd:AtlDebugAPI.obj
 0001:0001a120       AtlTraceGetUpdateEventNameA 000000014001b120 f   atlsd:AtlDebugAPI.obj
 0001:0001a160       AtlTraceGetUpdateEventNameA_s 000000014001b160 f   atlsd:AtlDebugAPI.obj
 0001:0001a1a0       AtlTraceGetUpdateEventNameU 000000014001b1a0 f   atlsd:AtlDebugAPI.obj
 0001:0001a220       AtlTraceGetUpdateEventNameU_s 000000014001b220 f   atlsd:AtlDebugAPI.obj
 0001:0001a2b0       AtlTraceVA                 000000014001b2b0 f   atlsd:AtlDebugAPI.obj
 0001:0001a690       ?Name@CAtlTraceCategory@@QEBAPEB_WXZ 000000014001b690 f i atlsd:AtlDebugAPI.obj
 0001:0001a6a0       AtlTraceVU                 000000014001b6a0 f   atlsd:AtlDebugAPI.obj
 0001:0001aab0       AtlTraceOpenProcess        000000014001bab0 f   atlsd:AtlDebugAPI.obj
 0001:0001ac30       ??_GCAtlAllocator@@QEAAPEAXI@Z 000000014001bc30 f i atlsd:AtlDebugAPI.obj
 0001:0001ac70       AtlTraceCloseProcess       000000014001bc70 f   atlsd:AtlDebugAPI.obj
 0001:0001ad50       AtlTraceSnapshotProcess    000000014001bd50 f   atlsd:AtlDebugAPI.obj
 0001:0001adf0       AtlTraceGetProcessInfo     000000014001bdf0 f   atlsd:AtlDebugAPI.obj
 0001:0001b020       ?Path@CAtlTraceModuleInfo@@QEBAPEB_WXZ 000000014001c020 f i atlsd:AtlDebugAPI.obj
 0001:0001b030       ?Name@CAtlTraceModuleInfo@@QEBAPEB_WXZ 000000014001c030 f i atlsd:AtlDebugAPI.obj
 0001:0001b050       ?Id@CAtlTraceProcess@@QEBAKXZ 000000014001c050 f i atlsd:AtlDebugAPI.obj
 0001:0001b070       AtlTraceGetModuleInfo      000000014001c070 f   atlsd:AtlDebugAPI.obj
 0001:0001b2c0       AtlTraceGetCategoryInfo    000000014001c2c0 f   atlsd:AtlDebugAPI.obj
 0001:0001b7c0       ?CrtDbgReport@CAtlTraceModule@@QEBAP6AHHPEBDH00ZZXZ 000000014001c7c0 f i atlsd:AtlDebugAPI.obj
 0001:0001b7e0       ?_IsTracingEnabled@ATL@@YA_N_K0I@Z 000000014001c7e0 f   atlsd:AtlDebugAPI.obj
 0001:0001b830       ?GetSize@?$CSimpleArray@UCModuleInfo@CTraceSnapshot@@V?$CSimpleArrayEqualHelper@UCModuleInfo@CTraceSnapshot@@@ATL@@@ATL@@QEBAHXZ 000000014001c830 f i atlsd:AtlDebugAPI.obj
 0001:0001b840       ??A?$CSimpleArray@UCModuleInfo@CTraceSnapshot@@V?$CSimpleArrayEqualHelper@UCModuleInfo@CTraceSnapshot@@@ATL@@@ATL@@QEAAAEAUCModuleInfo@CTraceSnapshot@@H@Z 000000014001c840 f i atlsd:AtlDebugAPI.obj
 0001:0001b8d0       ?strcpy_s@Checked@ATL@@YAXPEAD_KPEBD@Z 000000014001c8d0 f i atlsd:AtlDebugAPI.obj
 0001:0001b910       ?wcscpy_s@Checked@ATL@@YAXPEA_W_KPEB_W@Z 000000014001c910 f i atlsd:AtlDebugAPI.obj
 0001:0001b950       ??0?$CA2WEX@$0IA@@ATL@@QEAA@PEBD@Z 000000014001c950 f i atlsd:AtlDebugAPI.obj
 0001:0001b990       ?_AtlGetConversionACP@ATL@@YAIXZ 000000014001c990 f i atlsd:AtlDebugAPI.obj
 0001:0001b9a0       ??1?$CA2WEX@$0IA@@ATL@@QEAA@XZ 000000014001c9a0 f i atlsd:AtlDebugAPI.obj
 0001:0001b9d0       ??B?$CA2WEX@$0IA@@ATL@@QEBAPEA_WXZ 000000014001c9d0 f i atlsd:AtlDebugAPI.obj
 0001:0001b9e0       ?Init@?$CA2WEX@$0IA@@ATL@@AEAAXPEBDI@Z 000000014001c9e0 f i atlsd:AtlDebugAPI.obj
 0001:0001bb50       ?AtlThrowLastWin32@ATL@@YAXXZ 000000014001cb50 f i atlsd:AtlDebugAPI.obj
 0001:0001bb80       ??$AtlConvFreeMemory@_W@ATL@@YAXPEA_W0H@Z 000000014001cb80 f i atlsd:AtlDebugAPI.obj
 0001:0001bbd0       ??$AtlConvAllocMemory@_W@ATL@@YAXPEAPEA_WHPEA_WH@Z 000000014001cbd0 f i atlsd:AtlDebugAPI.obj
 0001:0001be30       ?Init@CAtlAllocator@@QEAA_NPEBDK@Z 000000014001ce30 f   atlsd:Allocate.obj
 0001:0001c290       ?IncRef@CAtlTraceProcess@@QEAAIXZ 000000014001d290 f i atlsd:Allocate.obj
 0001:0001c2c0       ?Base@CAtlTraceProcess@@QEBAPEAXXZ 000000014001d2c0 f i atlsd:Allocate.obj
 0001:0001c2e0       ?Open@CAtlAllocator@@QEAA_NPEBD@Z 000000014001d2e0 f   atlsd:Allocate.obj
 0001:0001c420       ?Close@CAtlAllocator@@QEAAX_N@Z 000000014001d420 f   atlsd:Allocate.obj
 0001:0001c4a0       ?DecRef@CAtlTraceProcess@@QEAAIXZ 000000014001d4a0 f i atlsd:Allocate.obj
 0001:0001c4d0       ?GetModule@CAtlAllocator@@QEBAPEAVCAtlTraceModule@@H@Z 000000014001d4d0 f   atlsd:Allocate.obj
 0001:0001c590       ?ModuleCount@CAtlTraceProcess@@QEBAHXZ 000000014001d590 f i atlsd:Allocate.obj
 0001:0001c5b0       ?GetCategory@CAtlAllocator@@QEBAPEAVCAtlTraceCategory@@H@Z 000000014001d5b0 f   atlsd:Allocate.obj
 0001:0001c690       ?MaxSize@CAtlTraceProcess@@QEBA_KXZ 000000014001d690 f i atlsd:Allocate.obj
 0001:0001c6b0       ?CategoryCount@CAtlTraceProcess@@QEBAHXZ 000000014001d6b0 f i atlsd:Allocate.obj
 0001:0001c6d0       ?GetCategoryCount@CAtlAllocator@@QEBAHH@Z 000000014001d6d0 f   atlsd:Allocate.obj
 0001:0001c770       ?GetCategoryCount@CAtlAllocator@@QEBAHAEBVCAtlTraceModule@@@Z 000000014001d770 f   atlsd:Allocate.obj
 0001:0001c7f0       ?GetModuleCount@CAtlAllocator@@QEBAHXZ 000000014001d7f0 f   atlsd:Allocate.obj
 0001:0001c860       ?FindModule@CAtlAllocator@@QEBA_NPEB_WPEAI@Z 000000014001d860 f   atlsd:Allocate.obj
 0001:0001c900       ?AddModule@CAtlAllocator@@QEAAHPEAUHINSTANCE__@@@Z 000000014001d900 f   atlsd:Allocate.obj
 0001:0001cb70       ?TryAllocate@CAtlTraceSettings@@QEAA_NXZ 000000014001db70 f i atlsd:Allocate.obj
 0001:0001cbc0       ?MarkValid@CAtlTraceSettings@@QEAAXJ@Z 000000014001dbc0 f i atlsd:Allocate.obj
 0001:0001cc20       ?IncModuleCount@CAtlTraceProcess@@QEAAXI@Z 000000014001dc20 f i atlsd:Allocate.obj
 0001:0001cc50       ?AddCategory@CAtlAllocator@@QEAAHHPEB_W@Z 000000014001dc50 f   atlsd:Allocate.obj
 0001:0001cf40       ?TryAddRef@CAtlTraceSettings@@QEAA_NXZ 000000014001df40 f i atlsd:Allocate.obj
 0001:0001cf90       ?Release@CAtlTraceSettings@@QEAAXXZ 000000014001df90 f i atlsd:Allocate.obj
 0001:0001cfd0       ?IncCategoryCount@CAtlTraceProcess@@QEAAXI@Z 000000014001dfd0 f i atlsd:Allocate.obj
 0001:0001d000       ?RemoveModule@CAtlAllocator@@QEAA_NH@Z 000000014001e000 f   atlsd:Allocate.obj
 0001:0001d0e0       ?CleanUp@CAtlAllocator@@QEAAXXZ 000000014001e0e0 f   atlsd:Allocate.obj
 0001:0001d100       ?TakeSnapshot@CAtlAllocator@@QEAAXXZ 000000014001e100 f   atlsd:Allocate.obj
 0001:0001d3a0       ?ReleaseSnapshot@CAtlAllocator@@QEAAXXZ 000000014001e3a0 f   atlsd:Allocate.obj
 0001:0001d4b0       ?Add@?$CSimpleArray@UCModuleInfo@CTraceSnapshot@@V?$CSimpleArrayEqualHelper@UCModuleInfo@CTraceSnapshot@@@ATL@@@ATL@@QEAAHAEBUCModuleInfo@CTraceSnapshot@@@Z 000000014001e4b0 f i atlsd:Allocate.obj
 0001:0001d630       ?GetSize@?$CSimpleArray@_KV?$CSimpleArrayEqualHelper@_K@ATL@@@ATL@@QEBAHXZ 000000014001e630 f i atlsd:Allocate.obj
 0001:0001d640       ?Add@?$CSimpleArray@_KV?$CSimpleArrayEqualHelper@_K@ATL@@@ATL@@QEAAHAEB_K@Z 000000014001e640 f i atlsd:Allocate.obj
 0001:0001d7c0       ?RemoveAt@?$CSimpleArray@_KV?$CSimpleArrayEqualHelper@_K@ATL@@@ATL@@QEAAHH@Z 000000014001e7c0 f i atlsd:Allocate.obj
 0001:0001d8d0       ??A?$CSimpleArray@_KV?$CSimpleArrayEqualHelper@_K@ATL@@@ATL@@QEAAAEA_KH@Z 000000014001e8d0 f i atlsd:Allocate.obj
 0001:0001d960       ?InternalSetAtIndex@?$CSimpleArray@UCModuleInfo@CTraceSnapshot@@V?$CSimpleArrayEqualHelper@UCModuleInfo@CTraceSnapshot@@@ATL@@@ATL@@QEAAXHAEBUCModuleInfo@CTraceSnapshot@@@Z 000000014001e960 f i atlsd:Allocate.obj
 0001:0001d9d0       ?InternalSetAtIndex@?$CSimpleArray@_KV?$CSimpleArrayEqualHelper@_K@ATL@@@ATL@@QEAAXHAEB_K@Z 000000014001e9d0 f i atlsd:Allocate.obj
 0001:0001da40       ??0Wrapper@?$CSimpleArray@UCModuleInfo@CTraceSnapshot@@V?$CSimpleArrayEqualHelper@UCModuleInfo@CTraceSnapshot@@@ATL@@@ATL@@QEAA@AEBUCModuleInfo@CTraceSnapshot@@@Z 000000014001ea40 f i atlsd:Allocate.obj
 0001:0001da90       ??0Wrapper@?$CSimpleArray@_KV?$CSimpleArrayEqualHelper@_K@ATL@@@ATL@@QEAA@AEB_K@Z 000000014001ea90 f i atlsd:Allocate.obj
 0001:0001dab0       ??$?2UCModuleInfo@CTraceSnapshot@@@Wrapper@?$CSimpleArray@UCModuleInfo@CTraceSnapshot@@V?$CSimpleArrayEqualHelper@UCModuleInfo@CTraceSnapshot@@@ATL@@@ATL@@SAPEAX_KPEAUCModuleInfo@CTraceSnapshot@@@Z 000000014001eab0 f i atlsd:Allocate.obj
 0001:0001dac0       ??$?2_K@Wrapper@?$CSimpleArray@_KV?$CSimpleArrayEqualHelper@_K@ATL@@@ATL@@SAPEAX_KPEA_K@Z 000000014001eac0 f i atlsd:Allocate.obj
 0001:0001dad0       ?memmove_s@Checked@ATL@@YAXPEAX_KPEBX1@Z 000000014001ead0 f i atlsd:Allocate.obj
 0001:0001db10       ??2@YAPEAX_KPEAX@Z         000000014001eb10 f i atlsd:Allocate.obj
 0001:0001db20       ??0CAtlTraceModuleInfo@@QEAA@XZ 000000014001eb20 f   atlsd:AtlTraceModuleManager.obj
 0001:0001db70       ?Reset@CAtlTraceModuleInfo@@QEAAXPEAUHINSTANCE__@@@Z 000000014001eb70 f   atlsd:AtlTraceModuleManager.obj
 0001:0001dce0       ??0CAtlTraceCategory@@QEAA@XZ 000000014001ece0 f   atlsd:AtlTraceModuleManager.obj
 0001:0001dd30       ??0CAtlTraceSettings@@QEAA@XZ 000000014001ed30 f i atlsd:AtlTraceModuleManager.obj
 0001:0001dd70       ?Reset@CAtlTraceCategory@@QEAAXPEB_WJ@Z 000000014001ed70 f   atlsd:AtlTraceModuleManager.obj
 0001:0001ddd0       ??0CAtlTraceModule@@QEAA@XZ 000000014001edd0 f   atlsd:AtlTraceModuleManager.obj
 0001:0001de10       ?CrtDbgReport@CAtlTraceModule@@QEAAXP6AHHPEBDH00ZZ@Z 000000014001ee10 f   atlsd:AtlTraceModuleManager.obj
 0001:0001de60       ??0CAtlTraceProcess@@QEAA@_K@Z 000000014001ee60 f   atlsd:AtlTraceModuleManager.obj
 0001:0001df60       ?GetNextCookie@CAtlTraceProcess@@QEAAJXZ 000000014001ef60 f   atlsd:AtlTraceModuleManager.obj
 0001:0001df7e       CreateStreamOnHGlobal      000000014001ef7e f   ole32:ole32.dll
 0001:0001df84       SysFreeString              000000014001ef84 f   oleaut32:OLEAUT32.dll
 0001:0001df8a       GdipDisposeImage           000000014001ef8a f   gdiplus:gdiplus.dll
 0001:0001df90       GdipFree                   000000014001ef90 f   gdiplus:gdiplus.dll
 0001:0001df96       GdipCloneImage             000000014001ef96 f   gdiplus:gdiplus.dll
 0001:0001df9c       GdipAlloc                  000000014001ef9c f   gdiplus:gdiplus.dll
 0001:0001dfa2       GdipCreateBitmapFromStream 000000014001efa2 f   gdiplus:gdiplus.dll
 0001:0001dfa8       GdipCreateBitmapFromStreamICM 000000014001efa8 f   gdiplus:gdiplus.dll
 0001:0001dfae       GdipGetImageGraphicsContext 000000014001efae f   gdiplus:gdiplus.dll
 0001:0001dfb4       GdipDeleteGraphics         000000014001efb4 f   gdiplus:gdiplus.dll
 0001:0001dfba       GdipDrawImageI             000000014001efba f   gdiplus:gdiplus.dll
 0001:0001dfc0       GdipGetImageWidth          000000014001efc0 f   gdiplus:gdiplus.dll
 0001:0001dfc6       GdipGetImageHeight         000000014001efc6 f   gdiplus:gdiplus.dll
 0001:0001dfcc       GdipGetImagePixelFormat    000000014001efcc f   gdiplus:gdiplus.dll
 0001:0001dfd2       GdipGetImagePaletteSize    000000014001efd2 f   gdiplus:gdiplus.dll
 0001:0001dfd8       GdipGetImagePalette        000000014001efd8 f   gdiplus:gdiplus.dll
 0001:0001dfde       GdipCreateBitmapFromScan0  000000014001efde f   gdiplus:gdiplus.dll
 0001:0001dfe4       GdipBitmapLockBits         000000014001efe4 f   gdiplus:gdiplus.dll
 0001:0001dfea       GdipBitmapUnlockBits       000000014001efea f   gdiplus:gdiplus.dll
 0001:0001dff0       GdiplusStartup             000000014001eff0 f   gdiplus:gdiplus.dll
 0001:0001dff6       GdiplusShutdown            000000014001eff6 f   gdiplus:gdiplus.dll
 0001:0001dffc       ??2@YAPEAX_K@Z             000000014001effc f   mfc100d:mfc100d.dll
 0001:0001e010       WinMain                    000000014001f010 f   mfcs100d:appmodul.obj
 0001:0001e050       ?AfxInitialize@@YAHHK@Z    000000014001f050 f   mfcs100d:appmodul.obj
 0001:0001e0be       _time64                    000000014001f0be f   msvcrtd:MSVCR100D.dll
 0001:0001e0c4       _mktime64                  000000014001f0c4 f   msvcrtd:MSVCR100D.dll
 0001:0001e0ca       _gmtime64_s                000000014001f0ca f   msvcrtd:MSVCR100D.dll
 0001:0001e0d0       _localtime64_s             000000014001f0d0 f   msvcrtd:MSVCR100D.dll
 0001:0001e0d6       _snprintf_s                000000014001f0d6 f   msvcrtd:MSVCR100D.dll
 0001:0001e0dc       _errno                     000000014001f0dc f   msvcrtd:MSVCR100D.dll
 0001:0001e0e2       _CxxThrowException         000000014001f0e2 f   msvcrtd:MSVCR100D.dll
 0001:0001e0e8       _CrtDbgReport              000000014001f0e8 f   msvcrtd:MSVCR100D.dll
 0001:0001e0ee       wcscpy                     000000014001f0ee f   msvcrtd:MSVCR100D.dll
 0001:0001e0f4       _vsnprintf_s               000000014001f0f4 f   msvcrtd:MSVCR100D.dll
 0001:0001e0fa       _vsnwprintf_s              000000014001f0fa f   msvcrtd:MSVCR100D.dll
 0001:0001e100       _snwprintf_s               000000014001f100 f   msvcrtd:MSVCR100D.dll
 0001:0001e106       wcscpy_s                   000000014001f106 f   msvcrtd:MSVCR100D.dll
 0001:0001e10c       wcsncpy_s                  000000014001f10c f   msvcrtd:MSVCR100D.dll
 0001:0001e112       calloc                     000000014001f112 f   msvcrtd:MSVCR100D.dll
 0001:0001e118       _recalloc                  000000014001f118 f   msvcrtd:MSVCR100D.dll
 0001:0001e11e       memcmp                     000000014001f11e f   msvcrtd:MSVCR100D.dll
 0001:0001e124       _wcsicmp                   000000014001f124 f   msvcrtd:MSVCR100D.dll
 0001:0001e12a       memmove_s                  000000014001f12a f   msvcrtd:MSVCR100D.dll
 0001:0001e130       wcslen                     000000014001f130 f   msvcrtd:MSVCR100D.dll
 0001:0001e136       _setmbcp                   000000014001f136 f   msvcrtd:MSVCR100D.dll
 0001:0001e13c       MulDiv                     000000014001f13c f   kernel32:KERNEL32.dll
 0001:0001e142       InitializeCriticalSectionAndSpinCount 000000014001f142 f   kernel32:KERNEL32.dll
 0001:0001e148       DeleteCriticalSection      000000014001f148 f   kernel32:KERNEL32.dll
 0001:0001e14e       FileTimeToSystemTime       000000014001f14e f   kernel32:KERNEL32.dll
 0001:0001e154       FileTimeToLocalFileTime    000000014001f154 f   kernel32:KERNEL32.dll
 0001:0001e15a       LocalFileTimeToFileTime    000000014001f15a f   kernel32:KERNEL32.dll
 0001:0001e160       RaiseException             000000014001f160 f   kernel32:KERNEL32.dll
 0001:0001e166       OpenEventA                 000000014001f166 f   kernel32:KERNEL32.dll
 0001:0001e16c       OutputDebugStringA         000000014001f16c f   kernel32:KERNEL32.dll
 0001:0001e172       OutputDebugStringW         000000014001f172 f   kernel32:KERNEL32.dll
 0001:0001e178       MultiByteToWideChar        000000014001f178 f   kernel32:KERNEL32.dll
 0001:0001e17e       lstrlenA                   000000014001f17e f   kernel32:KERNEL32.dll
 0001:0001e184       VirtualAlloc               000000014001f184 f   kernel32:KERNEL32.dll
 0001:0001e18a       UnmapViewOfFile            000000014001f18a f   kernel32:KERNEL32.dll
 0001:0001e190       MapViewOfFile              000000014001f190 f   kernel32:KERNEL32.dll
 0001:0001e196       CreateFileMappingA         000000014001f196 f   kernel32:KERNEL32.dll
 0001:0001e19c       GetCurrentThread           000000014001f19c f   kernel32:KERNEL32.dll
 0001:0001e1a2       OpenFileMappingA           000000014001f1a2 f   kernel32:KERNEL32.dll
 0001:0001e1a8       GetModuleFileNameW         000000014001f1a8 f   kernel32:KERNEL32.dll
 0001:0001e1ae       CopyRect                   000000014001f1ae f   user32:USER32.dll
 0001:0001e1b4       IsRectEmpty                000000014001f1b4 f   user32:USER32.dll
 0001:0001e1ba       PtInRect                   000000014001f1ba f   user32:USER32.dll
 0001:0001e1c0       SetRect                    000000014001f1c0 f   user32:USER32.dll
 0001:0001e1c6       SetRectEmpty               000000014001f1c6 f   user32:USER32.dll
 0001:0001e1cc       EqualRect                  000000014001f1cc f   user32:USER32.dll
 0001:0001e1d2       InflateRect                000000014001f1d2 f   user32:USER32.dll
 0001:0001e1d8       OffsetRect                 000000014001f1d8 f   user32:USER32.dll
 0001:0001e1de       IntersectRect              000000014001f1de f   user32:USER32.dll
 0001:0001e1e4       UnionRect                  000000014001f1e4 f   user32:USER32.dll
 0001:0001e1ea       SubtractRect               000000014001f1ea f   user32:USER32.dll
 0001:0001e1f0       SetThreadToken             000000014001f1f0 f   advapi32:ADVAPI32.dll
 0001:0001e1f6       RevertToSelf               000000014001f1f6 f   advapi32:ADVAPI32.dll
 0001:0001e1fc       OpenThreadToken            000000014001f1fc f   advapi32:ADVAPI32.dll
 0001:0001e202       ?AfxWinMain@@YAHPEAUHINSTANCE__@@0PEADH@Z 000000014001f202 f   mfc100d:mfc100d.dll
 0001:0001e208       ?AfxGetModuleState@@YAPEAVAFX_MODULE_STATE@@XZ 000000014001f208 f   mfc100d:mfc100d.dll
 0002:00000000       __xc_a                     0000000140029000     msvcrtd:cinitexe.obj
 0002:000006a0       __xc_z                     00000001400296a0     msvcrtd:cinitexe.obj
 0002:000007b0       __xi_a                     00000001400297b0     msvcrtd:cinitexe.obj
 0002:00000ae0       __xi_z                     0000000140029ae0     msvcrtd:cinitexe.obj
 0002:00001584       ?_Min@?$AtlLimits@H@ATL@@2HB 000000014002a584     GigeCameraDemo.obj
 0002:00001588       ?_Max@?$AtlLimits@H@ATL@@2HB 000000014002a588     GigeCameraDemo.obj
 0002:0000158c       ?_Min@?$AtlLimits@I@ATL@@2IB 000000014002a58c     GigeCameraDemo.obj
 0002:00001590       ?_Max@?$AtlLimits@I@ATL@@2IB 000000014002a590     GigeCameraDemo.obj
 0002:00001594       ?_Min@?$AtlLimits@J@ATL@@2JB 000000014002a594     GigeCameraDemo.obj
 0002:00001598       ?_Max@?$AtlLimits@J@ATL@@2JB 000000014002a598     GigeCameraDemo.obj
 0002:0000159c       ?_Min@?$AtlLimits@K@ATL@@2KB 000000014002a59c     GigeCameraDemo.obj
 0002:000015a0       ?_Max@?$AtlLimits@K@ATL@@2KB 000000014002a5a0     GigeCameraDemo.obj
 0002:000015a8       ?_Min@?$AtlLimits@_J@ATL@@2_JB 000000014002a5a8     GigeCameraDemo.obj
 0002:000015b8       ?_Max@?$AtlLimits@_J@ATL@@2_JB 000000014002a5b8     GigeCameraDemo.obj
 0002:000015c8       ?_Min@?$AtlLimits@_K@ATL@@2_KB 000000014002a5c8     GigeCameraDemo.obj
 0002:000015d8       ?_Max@?$AtlLimits@_K@ATL@@2_KB 000000014002a5d8     GigeCameraDemo.obj
 0002:000015e4       ?VT@?$CVarTypeInfo@D@ATL@@2GB 000000014002a5e4     GigeCameraDemo.obj
 0002:000015e8       ?pmField@?$CVarTypeInfo@D@ATL@@2QEQtagVARIANT@@DEQ3@ 000000014002a5e8     GigeCameraDemo.obj
 0002:000015ec       ?VT@?$CVarTypeInfo@E@ATL@@2GB 000000014002a5ec     GigeCameraDemo.obj
 0002:000015f0       ?pmField@?$CVarTypeInfo@E@ATL@@2QEQtagVARIANT@@EEQ3@ 000000014002a5f0     GigeCameraDemo.obj
 0002:000015f4       ?VT@?$CVarTypeInfo@PEAD@ATL@@2GB 000000014002a5f4     GigeCameraDemo.obj
 0002:000015f8       ?pmField@?$CVarTypeInfo@PEAD@ATL@@2QEQtagVARIANT@@PEADEQ3@ 000000014002a5f8     GigeCameraDemo.obj
 0002:000015fc       ?VT@?$CVarTypeInfo@PEAE@ATL@@2GB 000000014002a5fc     GigeCameraDemo.obj
 0002:00001600       ?pmField@?$CVarTypeInfo@PEAE@ATL@@2QEQtagVARIANT@@PEAEEQ3@ 000000014002a600     GigeCameraDemo.obj
 0002:00001604       ?VT@?$CVarTypeInfo@F@ATL@@2GB 000000014002a604     GigeCameraDemo.obj
 0002:00001608       ?pmField@?$CVarTypeInfo@F@ATL@@2QEQtagVARIANT@@FEQ3@ 000000014002a608     GigeCameraDemo.obj
 0002:0000160c       ?VT@?$CVarTypeInfo@PEAF@ATL@@2GB 000000014002a60c     GigeCameraDemo.obj
 0002:00001610       ?pmField@?$CVarTypeInfo@PEAF@ATL@@2QEQtagVARIANT@@PEAFEQ3@ 000000014002a610     GigeCameraDemo.obj
 0002:00001614       ?VT@?$CVarTypeInfo@G@ATL@@2GB 000000014002a614     GigeCameraDemo.obj
 0002:00001618       ?pmField@?$CVarTypeInfo@G@ATL@@2QEQtagVARIANT@@GEQ3@ 000000014002a618     GigeCameraDemo.obj
 0002:0000161c       ?VT@?$CVarTypeInfo@PEAG@ATL@@2GB 000000014002a61c     GigeCameraDemo.obj
 0002:00001620       ?pmField@?$CVarTypeInfo@PEAG@ATL@@2QEQtagVARIANT@@PEAGEQ3@ 000000014002a620     GigeCameraDemo.obj
 0002:00001624       ?VT@?$CVarTypeInfo@H@ATL@@2GB 000000014002a624     GigeCameraDemo.obj
 0002:00001628       ?pmField@?$CVarTypeInfo@H@ATL@@2QEQtagVARIANT@@HEQ3@ 000000014002a628     GigeCameraDemo.obj
 0002:0000162c       ?VT@?$CVarTypeInfo@PEAH@ATL@@2GB 000000014002a62c     GigeCameraDemo.obj
 0002:00001630       ?pmField@?$CVarTypeInfo@PEAH@ATL@@2QEQtagVARIANT@@PEAHEQ3@ 000000014002a630     GigeCameraDemo.obj
 0002:00001634       ?VT@?$CVarTypeInfo@I@ATL@@2GB 000000014002a634     GigeCameraDemo.obj
 0002:00001638       ?pmField@?$CVarTypeInfo@I@ATL@@2QEQtagVARIANT@@IEQ3@ 000000014002a638     GigeCameraDemo.obj
 0002:0000163c       ?VT@?$CVarTypeInfo@PEAI@ATL@@2GB 000000014002a63c     GigeCameraDemo.obj
 0002:00001640       ?pmField@?$CVarTypeInfo@PEAI@ATL@@2QEQtagVARIANT@@PEAIEQ3@ 000000014002a640     GigeCameraDemo.obj
 0002:00001644       ?VT@?$CVarTypeInfo@J@ATL@@2GB 000000014002a644     GigeCameraDemo.obj
 0002:00001648       ?pmField@?$CVarTypeInfo@J@ATL@@2QEQtagVARIANT@@JEQ3@ 000000014002a648     GigeCameraDemo.obj
 0002:0000164c       ?VT@?$CVarTypeInfo@PEAJ@ATL@@2GB 000000014002a64c     GigeCameraDemo.obj
 0002:00001650       ?pmField@?$CVarTypeInfo@PEAJ@ATL@@2QEQtagVARIANT@@PEAJEQ3@ 000000014002a650     GigeCameraDemo.obj
 0002:00001654       ?VT@?$CVarTypeInfo@K@ATL@@2GB 000000014002a654     GigeCameraDemo.obj
 0002:00001658       ?pmField@?$CVarTypeInfo@K@ATL@@2QEQtagVARIANT@@KEQ3@ 000000014002a658     GigeCameraDemo.obj
 0002:0000165c       ?VT@?$CVarTypeInfo@PEAK@ATL@@2GB 000000014002a65c     GigeCameraDemo.obj
 0002:00001660       ?pmField@?$CVarTypeInfo@PEAK@ATL@@2QEQtagVARIANT@@PEAKEQ3@ 000000014002a660     GigeCameraDemo.obj
 0002:00001664       ?VT@?$CVarTypeInfo@_J@ATL@@2GB 000000014002a664     GigeCameraDemo.obj
 0002:00001668       ?pmField@?$CVarTypeInfo@_J@ATL@@2QEQtagVARIANT@@_JEQ3@ 000000014002a668     GigeCameraDemo.obj
 0002:0000166c       ?VT@?$CVarTypeInfo@PEA_J@ATL@@2GB 000000014002a66c     GigeCameraDemo.obj
 0002:00001670       ?pmField@?$CVarTypeInfo@PEA_J@ATL@@2QEQtagVARIANT@@PEA_JEQ3@ 000000014002a670     GigeCameraDemo.obj
 0002:00001674       ?VT@?$CVarTypeInfo@_K@ATL@@2GB 000000014002a674     GigeCameraDemo.obj
 0002:00001678       ?pmField@?$CVarTypeInfo@_K@ATL@@2QEQtagVARIANT@@_KEQ3@ 000000014002a678     GigeCameraDemo.obj
 0002:0000167c       ?VT@?$CVarTypeInfo@PEA_K@ATL@@2GB 000000014002a67c     GigeCameraDemo.obj
 0002:00001680       ?pmField@?$CVarTypeInfo@PEA_K@ATL@@2QEQtagVARIANT@@PEA_KEQ3@ 000000014002a680     GigeCameraDemo.obj
 0002:00001684       ?VT@?$CVarTypeInfo@M@ATL@@2GB 000000014002a684     GigeCameraDemo.obj
 0002:00001688       ?pmField@?$CVarTypeInfo@M@ATL@@2QEQtagVARIANT@@MEQ3@ 000000014002a688     GigeCameraDemo.obj
 0002:0000168c       ?VT@?$CVarTypeInfo@PEAM@ATL@@2GB 000000014002a68c     GigeCameraDemo.obj
 0002:00001690       ?pmField@?$CVarTypeInfo@PEAM@ATL@@2QEQtagVARIANT@@PEAMEQ3@ 000000014002a690     GigeCameraDemo.obj
 0002:00001694       ?VT@?$CVarTypeInfo@N@ATL@@2GB 000000014002a694     GigeCameraDemo.obj
 0002:00001698       ?pmField@?$CVarTypeInfo@N@ATL@@2QEQtagVARIANT@@NEQ3@ 000000014002a698     GigeCameraDemo.obj
 0002:0000169c       ?VT@?$CVarTypeInfo@PEAN@ATL@@2GB 000000014002a69c     GigeCameraDemo.obj
 0002:000016a0       ?pmField@?$CVarTypeInfo@PEAN@ATL@@2QEQtagVARIANT@@PEANEQ3@ 000000014002a6a0     GigeCameraDemo.obj
 0002:000016a4       ?VT@?$CVarTypeInfo@PEAUtagVARIANT@@@ATL@@2GB 000000014002a6a4     GigeCameraDemo.obj
 0002:000016a8       ?VT@?$CVarTypeInfo@PEA_W@ATL@@2GB 000000014002a6a8     GigeCameraDemo.obj
 0002:000016b0       ?pmField@?$CVarTypeInfo@PEA_W@ATL@@2QEQtagVARIANT@@PEA_WEQ3@ 000000014002a6b0     GigeCameraDemo.obj
 0002:000016b4       ?VT@?$CVarTypeInfo@PEAPEA_W@ATL@@2GB 000000014002a6b4     GigeCameraDemo.obj
 0002:000016b8       ?pmField@?$CVarTypeInfo@PEAPEA_W@ATL@@2QEQtagVARIANT@@PEAPEA_WEQ3@ 000000014002a6b8     GigeCameraDemo.obj
 0002:000016bc       ?VT@?$CVarTypeInfo@PEAUIUnknown@@@ATL@@2GB 000000014002a6bc     GigeCameraDemo.obj
 0002:000016c0       ?pmField@?$CVarTypeInfo@PEAUIUnknown@@@ATL@@2QEQtagVARIANT@@PEAUIUnknown@@EQ3@ 000000014002a6c0     GigeCameraDemo.obj
 0002:000016c4       ?VT@?$CVarTypeInfo@PEAPEAUIUnknown@@@ATL@@2GB 000000014002a6c4     GigeCameraDemo.obj
 0002:000016c8       ?pmField@?$CVarTypeInfo@PEAPEAUIUnknown@@@ATL@@2QEQtagVARIANT@@PEAPEAUIUnknown@@EQ3@ 000000014002a6c8     GigeCameraDemo.obj
 0002:000016cc       ?VT@?$CVarTypeInfo@PEAUIDispatch@@@ATL@@2GB 000000014002a6cc     GigeCameraDemo.obj
 0002:000016d0       ?pmField@?$CVarTypeInfo@PEAUIDispatch@@@ATL@@2QEQtagVARIANT@@PEAUIDispatch@@EQ3@ 000000014002a6d0     GigeCameraDemo.obj
 0002:000016d4       ?VT@?$CVarTypeInfo@PEAPEAUIDispatch@@@ATL@@2GB 000000014002a6d4     GigeCameraDemo.obj
 0002:000016d8       ?pmField@?$CVarTypeInfo@PEAPEAUIDispatch@@@ATL@@2QEQtagVARIANT@@PEAPEAUIDispatch@@EQ3@ 000000014002a6d8     GigeCameraDemo.obj
 0002:000016dc       ?VT@?$CVarTypeInfo@TtagCY@@@ATL@@2GB 000000014002a6dc     GigeCameraDemo.obj
 0002:000016e0       ?pmField@?$CVarTypeInfo@TtagCY@@@ATL@@2QEQtagVARIANT@@TtagCY@@EQ3@ 000000014002a6e0     GigeCameraDemo.obj
 0002:000016e4       ?VT@?$CVarTypeInfo@PEATtagCY@@@ATL@@2GB 000000014002a6e4     GigeCameraDemo.obj
 0002:000016e8       ?pmField@?$CVarTypeInfo@PEATtagCY@@@ATL@@2QEQtagVARIANT@@PEATtagCY@@EQ3@ 000000014002a6e8     GigeCameraDemo.obj
 0002:000016ec       ?c_bIsMFCDLLTraits@?$_MFCDLLTraitsCheck@DV?$StrTraitMFC_DLL@DV?$ChTraitsCRT@D@ATL@@@@@_CSTRING_IMPL_@ATL@@2_NB 000000014002a6ec     GigeCameraDemo.obj
 0002:000016ed       ?c_bIsMFCDLLTraits@?$_MFCDLLTraitsCheck@_WV?$StrTraitMFC_DLL@_WV?$ChTraitsCRT@_W@ATL@@@@@_CSTRING_IMPL_@ATL@@2_NB 000000014002a6ed     GigeCameraDemo.obj
 0002:000016f0       ?generic@CArchiveException@@2HB 000000014002a6f0     GigeCameraDemo.obj
 0002:000016f4       ?generic@CFileException@@2HB 000000014002a6f4     GigeCameraDemo.obj
 0002:000016f8       ?Millisecond@CFileTime@ATL@@2_KB 000000014002a6f8     GigeCameraDemo.obj
 0002:00001708       ?Second@CFileTime@ATL@@2_KB 000000014002a708     GigeCameraDemo.obj
 0002:00001718       ?Minute@CFileTime@ATL@@2_KB 000000014002a718     GigeCameraDemo.obj
 0002:00001728       ?Hour@CFileTime@ATL@@2_KB  000000014002a728     GigeCameraDemo.obj
 0002:00001738       ?Day@CFileTime@ATL@@2_KB   000000014002a738     GigeCameraDemo.obj
 0002:00001748       ?Week@CFileTime@ATL@@2_KB  000000014002a748     GigeCameraDemo.obj
 0002:00001758       ?szInvalidDateTime@ATL@@3QEBDEB 000000014002a758     GigeCameraDemo.obj
 0002:00001768       ?szInvalidDateTimeSpan@ATL@@3QEBDEB 000000014002a768     GigeCameraDemo.obj
 0002:00001778       LIBID_ATLLib               000000014002a778     GigeCameraDemo.obj
 0002:00001790       CLSID_Registrar            000000014002a790     GigeCameraDemo.obj
 0002:000017a8       IID_IRegistrar             000000014002a7a8     GigeCameraDemo.obj
 0002:000017c0       IID_IAxWinHostWindow       000000014002a7c0     GigeCameraDemo.obj
 0002:000017d8       IID_IAxWinAmbientDispatch  000000014002a7d8     GigeCameraDemo.obj
 0002:000017f0       IID_IInternalConnection    000000014002a7f0     GigeCameraDemo.obj
 0002:00001808       IID_IDocHostUIHandlerDispatch 000000014002a808     GigeCameraDemo.obj
 0002:00001820       IID_IAxWinHostWindowLic    000000014002a820     GigeCameraDemo.obj
 0002:00001838       IID_IAxWinAmbientDispatchEx 000000014002a838     GigeCameraDemo.obj
 0002:0000184c       ?MAX_VALUE@CRegParser@ATL@@1HB 000000014002a84c     GigeCameraDemo.obj
 0002:00001850       ?MAX_TYPE@CRegParser@ATL@@1HB 000000014002a850     GigeCameraDemo.obj
 0002:00001860       ?rgszNeverDelete@CRegParser@ATL@@1QBQEBDB 000000014002a860     GigeCameraDemo.obj
 0002:000018d4       ?cbNeverDelete@CRegParser@ATL@@1HB 000000014002a8d4     GigeCameraDemo.obj
 0002:000018d8       ?c_bIsMFCDLLTraits@?$_MFCDLLTraitsCheck@DV?$StrTraitATL@DV?$ChTraitsCRT@D@ATL@@@ATL@@@_CSTRING_IMPL_@ATL@@2_NB 000000014002a8d8     GigeCameraDemo.obj
 0002:000018d9       ?c_bIsMFCDLLTraits@?$_MFCDLLTraitsCheck@_WV?$StrTraitATL@_WV?$ChTraitsCRT@_W@ATL@@@ATL@@@_CSTRING_IMPL_@ATL@@2_NB 000000014002a8d9     GigeCameraDemo.obj
 0002:000018e0       ?CLSID_WinFormsControl@@3U_GUID@@B 000000014002a8e0     GigeCameraDemo.obj
 0002:000018f4       ?createAlphaChannel@CImage@ATL@@2KB 000000014002a8f4     GigeCameraDemo.obj
 0002:000018f8       ?excludeGIF@CImage@ATL@@2KB 000000014002a8f8     GigeCameraDemo.obj
 0002:000018fc       ?excludeBMP@CImage@ATL@@2KB 000000014002a8fc     GigeCameraDemo.obj
 0002:00001900       ?excludeEMF@CImage@ATL@@2KB 000000014002a900     GigeCameraDemo.obj
 0002:00001904       ?excludeWMF@CImage@ATL@@2KB 000000014002a904     GigeCameraDemo.obj
 0002:00001908       ?excludeJPEG@CImage@ATL@@2KB 000000014002a908     GigeCameraDemo.obj
 0002:0000190c       ?excludePNG@CImage@ATL@@2KB 000000014002a90c     GigeCameraDemo.obj
 0002:00001910       ?excludeTIFF@CImage@ATL@@2KB 000000014002a910     GigeCameraDemo.obj
 0002:00001914       ?excludeIcon@CImage@ATL@@2KB 000000014002a914     GigeCameraDemo.obj
 0002:00001918       ?excludeOther@CImage@ATL@@2KB 000000014002a918     GigeCameraDemo.obj
 0002:0000191c       ?excludeDefaultLoad@CImage@ATL@@2KB 000000014002a91c     GigeCameraDemo.obj
 0002:00001920       ?excludeDefaultSave@CImage@ATL@@2KB 000000014002a920     GigeCameraDemo.obj
 0002:00001924       ?excludeValid@CImage@ATL@@2KB 000000014002a924     GigeCameraDemo.obj
 0002:00001928       ?value@?$integral_constant@_N$0A@@tr1@std@@2_NB 000000014002a928     GigeCameraDemo.obj
 0002:00001929       ?value@?$integral_constant@_N$00@tr1@std@@2_NB 000000014002a929     GigeCameraDemo.obj
 0002:00001930       ?value@?$integral_constant@_K$0A@@tr1@std@@2_KB 000000014002a930     GigeCameraDemo.obj
 0002:0000193c       ?_Rank@?$_Arithmetic_traits@_N@std@@2HB 000000014002a93c     GigeCameraDemo.obj
 0002:00001940       ?_Rank@?$_Arithmetic_traits@D@std@@2HB 000000014002a940     GigeCameraDemo.obj
 0002:00001944       ?_Rank@?$_Arithmetic_traits@C@std@@2HB 000000014002a944     GigeCameraDemo.obj
 0002:00001948       ?_Rank@?$_Arithmetic_traits@E@std@@2HB 000000014002a948     GigeCameraDemo.obj
 0002:0000194c       ?_Rank@?$_Arithmetic_traits@F@std@@2HB 000000014002a94c     GigeCameraDemo.obj
 0002:00001950       ?_Rank@?$_Arithmetic_traits@G@std@@2HB 000000014002a950     GigeCameraDemo.obj
 0002:00001954       ?_Rank@?$_Arithmetic_traits@H@std@@2HB 000000014002a954     GigeCameraDemo.obj
 0002:00001958       ?_Rank@?$_Arithmetic_traits@I@std@@2HB 000000014002a958     GigeCameraDemo.obj
 0002:0000195c       ?_Rank@?$_Arithmetic_traits@J@std@@2HB 000000014002a95c     GigeCameraDemo.obj
 0002:00001960       ?_Rank@?$_Arithmetic_traits@K@std@@2HB 000000014002a960     GigeCameraDemo.obj
 0002:00001964       ?_Rank@?$_Arithmetic_traits@_J@std@@2HB 000000014002a964     GigeCameraDemo.obj
 0002:00001968       ?_Rank@?$_Arithmetic_traits@_K@std@@2HB 000000014002a968     GigeCameraDemo.obj
 0002:0000196c       ?_Rank@?$_Arithmetic_traits@M@std@@2HB 000000014002a96c     GigeCameraDemo.obj
 0002:00001970       ?_Rank@?$_Arithmetic_traits@N@std@@2HB 000000014002a970     GigeCameraDemo.obj
 0002:00001974       ?_Rank@?$_Arithmetic_traits@O@std@@2HB 000000014002a974     GigeCameraDemo.obj
 0002:00001978       ?collate@?$_Locbase@H@std@@2HB 000000014002a978     GigeCameraDemo.obj
 0002:0000197c       ?ctype@?$_Locbase@H@std@@2HB 000000014002a97c     GigeCameraDemo.obj
 0002:00001980       ?monetary@?$_Locbase@H@std@@2HB 000000014002a980     GigeCameraDemo.obj
 0002:00001984       ?numeric@?$_Locbase@H@std@@2HB 000000014002a984     GigeCameraDemo.obj
 0002:00001988       ?time@?$_Locbase@H@std@@2HB 000000014002a988     GigeCameraDemo.obj
 0002:0000198c       ?messages@?$_Locbase@H@std@@2HB 000000014002a98c     GigeCameraDemo.obj
 0002:00001990       ?all@?$_Locbase@H@std@@2HB 000000014002a990     GigeCameraDemo.obj
 0002:00001994       ?none@?$_Locbase@H@std@@2HB 000000014002a994     GigeCameraDemo.obj
 0002:00001998       ?skipws@?$_Iosb@H@std@@2W4_Fmtflags@12@B 000000014002a998     GigeCameraDemo.obj
 0002:0000199c       ?unitbuf@?$_Iosb@H@std@@2W4_Fmtflags@12@B 000000014002a99c     GigeCameraDemo.obj
 0002:000019a0       ?uppercase@?$_Iosb@H@std@@2W4_Fmtflags@12@B 000000014002a9a0     GigeCameraDemo.obj
 0002:000019a4       ?showbase@?$_Iosb@H@std@@2W4_Fmtflags@12@B 000000014002a9a4     GigeCameraDemo.obj
 0002:000019a8       ?showpoint@?$_Iosb@H@std@@2W4_Fmtflags@12@B 000000014002a9a8     GigeCameraDemo.obj
 0002:000019ac       ?showpos@?$_Iosb@H@std@@2W4_Fmtflags@12@B 000000014002a9ac     GigeCameraDemo.obj
 0002:000019b0       ?left@?$_Iosb@H@std@@2W4_Fmtflags@12@B 000000014002a9b0     GigeCameraDemo.obj
 0002:000019b4       ?right@?$_Iosb@H@std@@2W4_Fmtflags@12@B 000000014002a9b4     GigeCameraDemo.obj
 0002:000019b8       ?internal@?$_Iosb@H@std@@2W4_Fmtflags@12@B 000000014002a9b8     GigeCameraDemo.obj
 0002:000019bc       ?dec@?$_Iosb@H@std@@2W4_Fmtflags@12@B 000000014002a9bc     GigeCameraDemo.obj
 0002:000019c0       ?oct@?$_Iosb@H@std@@2W4_Fmtflags@12@B 000000014002a9c0     GigeCameraDemo.obj
 0002:000019c4       ?hex@?$_Iosb@H@std@@2W4_Fmtflags@12@B 000000014002a9c4     GigeCameraDemo.obj
 0002:000019c8       ?scientific@?$_Iosb@H@std@@2W4_Fmtflags@12@B 000000014002a9c8     GigeCameraDemo.obj
 0002:000019cc       ?fixed@?$_Iosb@H@std@@2W4_Fmtflags@12@B 000000014002a9cc     GigeCameraDemo.obj
 0002:000019d0       ?hexfloat@?$_Iosb@H@std@@2W4_Fmtflags@12@B 000000014002a9d0     GigeCameraDemo.obj
 0002:000019d4       ?boolalpha@?$_Iosb@H@std@@2W4_Fmtflags@12@B 000000014002a9d4     GigeCameraDemo.obj
 0002:000019d8       ?_Stdio@?$_Iosb@H@std@@2W4_Fmtflags@12@B 000000014002a9d8     GigeCameraDemo.obj
 0002:000019dc       ?adjustfield@?$_Iosb@H@std@@2W4_Fmtflags@12@B 000000014002a9dc     GigeCameraDemo.obj
 0002:000019e0       ?basefield@?$_Iosb@H@std@@2W4_Fmtflags@12@B 000000014002a9e0     GigeCameraDemo.obj
 0002:000019e4       ?floatfield@?$_Iosb@H@std@@2W4_Fmtflags@12@B 000000014002a9e4     GigeCameraDemo.obj
 0002:000019e8       ?goodbit@?$_Iosb@H@std@@2W4_Iostate@12@B 000000014002a9e8     GigeCameraDemo.obj
 0002:000019ec       ?eofbit@?$_Iosb@H@std@@2W4_Iostate@12@B 000000014002a9ec     GigeCameraDemo.obj
 0002:000019f0       ?failbit@?$_Iosb@H@std@@2W4_Iostate@12@B 000000014002a9f0     GigeCameraDemo.obj
 0002:000019f4       ?badbit@?$_Iosb@H@std@@2W4_Iostate@12@B 000000014002a9f4     GigeCameraDemo.obj
 0002:000019f8       ?_Hardfail@?$_Iosb@H@std@@2W4_Iostate@12@B 000000014002a9f8     GigeCameraDemo.obj
 0002:000019fc       ?in@?$_Iosb@H@std@@2W4_Openmode@12@B 000000014002a9fc     GigeCameraDemo.obj
 0002:00001a00       ?out@?$_Iosb@H@std@@2W4_Openmode@12@B 000000014002aa00     GigeCameraDemo.obj
 0002:00001a04       ?ate@?$_Iosb@H@std@@2W4_Openmode@12@B 000000014002aa04     GigeCameraDemo.obj
 0002:00001a08       ?app@?$_Iosb@H@std@@2W4_Openmode@12@B 000000014002aa08     GigeCameraDemo.obj
 0002:00001a0c       ?trunc@?$_Iosb@H@std@@2W4_Openmode@12@B 000000014002aa0c     GigeCameraDemo.obj
 0002:00001a10       ?_Nocreate@?$_Iosb@H@std@@2W4_Openmode@12@B 000000014002aa10     GigeCameraDemo.obj
 0002:00001a14       ?_Noreplace@?$_Iosb@H@std@@2W4_Openmode@12@B 000000014002aa14     GigeCameraDemo.obj
 0002:00001a18       ?binary@?$_Iosb@H@std@@2W4_Openmode@12@B 000000014002aa18     GigeCameraDemo.obj
 0002:00001a1c       ?beg@?$_Iosb@H@std@@2W4_Seekdir@12@B 000000014002aa1c     GigeCameraDemo.obj
 0002:00001a20       ?cur@?$_Iosb@H@std@@2W4_Seekdir@12@B 000000014002aa20     GigeCameraDemo.obj
 0002:00001a24       ?end@?$_Iosb@H@std@@2W4_Seekdir@12@B 000000014002aa24     GigeCameraDemo.obj
 0002:00001a78       ??_7CGigeCameraDemoApp@@6B@ 000000014002aa78     GigeCameraDemo.obj
 0002:00001d58       ??_7Thank_you@Define_the_symbol__ATL_MIXED@@6B@ 000000014002ad58     GigeCameraDemo.obj
 0002:00003188       ??_7CAboutDlg@@6B@         000000014002c188     GigeCameraDemoDlg.obj
 0002:00003598       ??_7CGigeCameraDemoDlg@@6BCImageExWndEventHandler@@@ 000000014002c598     GigeCameraDemoDlg.obj
 0002:000035e8       ??_7CGigeCameraDemoDlg@@6BCDialog@@@ 000000014002c5e8     GigeCameraDemoDlg.obj
 0002:00003d48       __real@3ff0000000000000    000000014002cd48     GigeCameraDemoDlg.obj
 0002:00003d58       __real@4090000000000000    000000014002cd58     GigeCameraDemoDlg.obj
 0002:00003d68       __real@43f0000000000000    000000014002cd68     GigeCameraDemoDlg.obj
 0002:00003d78       __real@bff0000000000000    000000014002cd78     GigeCameraDemoDlg.obj
 0002:00003d88       __real@4024000000000000    000000014002cd88     GigeCameraDemoDlg.obj
 0002:00003d98       __real@4059000000000000    000000014002cd98     GigeCameraDemoDlg.obj
 0002:00003db8       ??_SSapView@@6B@           000000014002cdb8     GigeCameraDemoDlg.obj
 0002:00003fc8       ??_SSapAcqDeviceToBuf@@6B@ 000000014002cfc8     GigeCameraDemoDlg.obj
 0002:00004228       ??_SSapBufferWithTrash@@6B@ 000000014002d228     GigeCameraDemoDlg.obj
 0002:00004798       ??_SSapAcqDevice@@6B@      000000014002d798     GigeCameraDemoDlg.obj
 0002:0000488c       __real@41ccafec            000000014002d88c     GigeCameraDemoDlg.obj
 0002:00004890       __real@41bcac08            000000014002d890     GigeCameraDemoDlg.obj
 0002:00004894       __real@3f000000            000000014002d894     GigeCameraDemoDlg.obj
 0002:00004898       __real@42c80000            000000014002d898     GigeCameraDemoDlg.obj
 0002:000048a8       ??_7Image@Gdiplus@@6B@     000000014002d8a8     GigeCameraDemoDlg.obj
 0002:00004928       ??_7Bitmap@Gdiplus@@6B@    000000014002d928     GigeCameraDemoDlg.obj
 0002:00004940       ??_C@_1KC@MLLNJEJG@?$AAC?$AA?3?$AA?2?$AAP?$AAr?$AAo?$AAg?$AAr?$AAa?$AAm?$AA?5?$AAF?$AAi?$AAl?$AAe?$AAs?$AA?5?$AA?$CI?$AAx?$AA8?$AA6?$AA?$CJ?$AA?2?$AAM?$AAi?$AAc?$AAr?$AAo?$AAs?$AAo?$AAf?$AAt@ 000000014002d940     GigeCameraDemoDlg.obj
 0002:00004a08       ??_C@_1BM@GBBOFEAE@?$AA_?$AA_?$AAa?$AAt?$AAl?$AA_?$AAc?$AAo?$AAn?$AAd?$AAV?$AAa?$AAl?$AA?$AA@ 000000014002da08     GigeCameraDemoDlg.obj
 0002:00004a30       ??_C@_1KC@GOLGKCDC@?$AAC?$AA?3?$AA?2?$AAP?$AAr?$AAo?$AAg?$AAr?$AAa?$AAm?$AA?5?$AAF?$AAi?$AAl?$AAe?$AAs?$AA?5?$AA?$CI?$AAx?$AA8?$AA6?$AA?$CJ?$AA?2?$AAM?$AAi?$AAc?$AAr?$AAo?$AAs?$AAo?$AAf?$AAt@ 000000014002da30     GigeCameraDemoDlg.obj
 0002:00004af4       ??_C@_13COJANIEC@?$AA0?$AA?$AA@ 000000014002daf4     GigeCameraDemoDlg.obj
 0002:00004b30       ??_C@_1CE@FGAHNDKN@?$AAp?$AAd?$AAw?$AAB?$AAi?$AAt?$AAf?$AAi?$AAe?$AAl?$AAd?$AAs?$AA?5?$AA?$CB?$AA?$DN?$AA?5?$AA0?$AA?$AA@ 000000014002db30     GigeCameraDemoDlg.obj
 0002:00004b60       ??_C@_1CG@FEPGENGG@?$AAe?$AAC?$AAo?$AAm?$AAp?$AAr?$AAe?$AAs?$AAs?$AAi?$AAo?$AAn?$AA?5?$AA?$DN?$AA?$DN?$AA?5?$AA0?$AAL?$AA?$AA@ 000000014002db60     GigeCameraDemoDlg.obj
 0002:00004b90       ??_C@_1EK@DBKJJCBD@?$AA?$CI?$AAn?$AAB?$AAP?$AAP?$AA?5?$AA?$DN?$AA?$DN?$AA?5?$AA3?$AA2?$AA?$CJ?$AA?5?$AA?$CG?$AA?$CG?$AA?5?$AA?$CI?$AAe?$AAC?$AAo?$AAm?$AAp?$AAr?$AAe?$AAs?$AAs?$AAi?$AAo?$AAn?$AA?5?$AA?$DN?$AA?$DN@ 000000014002db90     GigeCameraDemoDlg.obj
 0002:00004bf0       ??_C@_1FK@DGBDPDJC@?$AA?$CI?$AAe?$AAC?$AAo?$AAm?$AAp?$AAr?$AAe?$AAs?$AAs?$AAi?$AAo?$AAn?$AA?5?$AA?$DN?$AA?$DN?$AA?5?$AA0?$AAL?$AA?$CJ?$AA?5?$AA?$HM?$AA?$HM?$AA?5?$AA?$CI?$AAe?$AAC?$AAo?$AAm?$AAp?$AAr?$AAe@ 000000014002dbf0     GigeCameraDemoDlg.obj
 0002:00004c60       ??_C@_1BK@OEIAGODJ@?$AAh?$AAB?$AAi?$AAt?$AAm?$AAa?$AAp?$AA?5?$AA?$CB?$AA?$DN?$AA?5?$AA0?$AA?$AA@ 000000014002dc60     GigeCameraDemoDlg.obj
 0002:00004c80       ??_C@_1BO@FPAPNJH@?$AAm?$AA_?$AAh?$AAB?$AAi?$AAt?$AAm?$AAa?$AAp?$AA?5?$AA?$DN?$AA?$DN?$AA?5?$AA0?$AA?$AA@ 000000014002dc80     GigeCameraDemoDlg.obj
 0002:00004ca8       ??_C@_1BO@CCJGHGOM@?$AAI?$AAs?$AAD?$AAI?$AAB?$AAS?$AAe?$AAc?$AAt?$AAi?$AAo?$AAn?$AA?$CI?$AA?$CJ?$AA?$AA@ 000000014002dca8     GigeCameraDemoDlg.obj
 0002:00004cd0       ??_C@_1BO@DIGCJMPB@?$AAm?$AA_?$AAh?$AAB?$AAi?$AAt?$AAm?$AAa?$AAp?$AA?5?$AA?$CB?$AA?$DN?$AA?5?$AA0?$AA?$AA@ 000000014002dcd0     GigeCameraDemoDlg.obj
 0002:00004cf8       ??_C@_1BI@FKNEIGBJ@?$AAI?$AAs?$AAI?$AAn?$AAd?$AAe?$AAx?$AAe?$AAd?$AA?$CI?$AA?$CJ?$AA?$AA@ 000000014002dcf8     GigeCameraDemoDlg.obj
 0002:00004d18       ??_C@_1CK@PJAJJCOE@?$AAh?$AAB?$AAi?$AAt?$AAm?$AAa?$AAp?$AA?5?$AA?$DN?$AA?$DN?$AA?5?$AAm?$AA_?$AAh?$AAB?$AAi?$AAt?$AAm?$AAa?$AAp?$AA?$AA@ 000000014002dd18     GigeCameraDemoDlg.obj
 0002:00004d50       ??_C@_1BG@CIIAFDOP@?$AAm?$AA_?$AAh?$AAD?$AAC?$AA?5?$AA?$CB?$AA?$DN?$AA?5?$AA0?$AA?$AA@ 000000014002dd50     GigeCameraDemoDlg.obj
 0002:00004d70       ??_C@_1DG@OLMOJPIN@?$AAn?$AAB?$AAy?$AAt?$AAe?$AAs?$AA?5?$AA?$DN?$AA?$DN?$AA?5?$AAs?$AAi?$AAz?$AAe?$AAo?$AAf?$AA?$CI?$AA?5?$AAB?$AAI?$AAT?$AAM?$AAA?$AAP?$AA?5?$AA?$CJ?$AA?$AA@ 000000014002dd70     GigeCameraDemoDlg.obj
 0002:00004db0       __real@4073900000000000    000000014002ddb0     GigeCameraDemoDlg.obj
 0002:00004dc0       __real@4071a00000000000    000000014002ddc0     GigeCameraDemoDlg.obj
 0002:00004dd0       __real@4069000000000000    000000014002ddd0     GigeCameraDemoDlg.obj
 0002:00004de0       __real@400921fb53c8d4f1    000000014002dde0     GigeCameraDemoDlg.obj
 0002:00004df0       __real@4076800000000000    000000014002ddf0     GigeCameraDemoDlg.obj
 0002:00004e00       __real@403b000000000000    000000014002de00     GigeCameraDemoDlg.obj
 0002:00004e10       __real@4066800000000000    000000014002de10     GigeCameraDemoDlg.obj
 0002:00004e20       __real@4014000000000000    000000014002de20     GigeCameraDemoDlg.obj
 0002:00004e30       __real@400b0a3d70a3d70a    000000014002de30     GigeCameraDemoDlg.obj
 0002:00004e40       __real@4045800000000000    000000014002de40     GigeCameraDemoDlg.obj
 0002:00004e50       __real@4047000000000000    000000014002de50     GigeCameraDemoDlg.obj
 0002:00004e60       __real@4048000000000000    000000014002de60     GigeCameraDemoDlg.obj
 0002:00004e70       __real@4049000000000000    000000014002de70     GigeCameraDemoDlg.obj
 0002:00004e80       __real@404a000000000000    000000014002de80     GigeCameraDemoDlg.obj
 0002:00004e98       ??_7CImage@ATL@@6B@        000000014002de98     GigeCameraDemoDlg.obj
 0002:00004ea8       ??_C@_1BG@BFBCDCIJ@?$AAm?$AA_?$AAh?$AAD?$AAC?$AA?5?$AA?$DN?$AA?$DN?$AA?5?$AA0?$AA?$AA@ 000000014002dea8     GigeCameraDemoDlg.obj
 0002:00004ec8       ??_C@_1BO@KLINPEPF@?$AAn?$AAS?$AAr?$AAc?$AAH?$AAe?$AAi?$AAg?$AAh?$AAt?$AA?5?$AA?$DO?$AA?5?$AA0?$AA?$AA@ 000000014002dec8     GigeCameraDemoDlg.obj
 0002:00004ef0       ??_C@_1BM@IGLCNFPH@?$AAn?$AAS?$AAr?$AAc?$AAW?$AAi?$AAd?$AAt?$AAh?$AA?5?$AA?$DO?$AA?5?$AA0?$AA?$AA@ 000000014002def0     GigeCameraDemoDlg.obj
 0002:00004f18       ??_C@_1CA@HHFCOIAG@?$AAn?$AAD?$AAe?$AAs?$AAt?$AAH?$AAe?$AAi?$AAg?$AAh?$AAt?$AA?5?$AA?$DO?$AA?5?$AA0?$AA?$AA@ 000000014002df18     GigeCameraDemoDlg.obj
 0002:00004f40       ??_C@_1BO@CBMCNAPL@?$AAn?$AAD?$AAe?$AAs?$AAt?$AAW?$AAi?$AAd?$AAt?$AAh?$AA?5?$AA?$DO?$AA?5?$AA0?$AA?$AA@ 000000014002df40     GigeCameraDemoDlg.obj
 0002:00004f70       ??_C@_1IG@LGFCKCFO@?$AAm?$AA_?$AAi?$AAT?$AAr?$AAa?$AAn?$AAs?$AAp?$AAa?$AAr?$AAe?$AAn?$AAt?$AAC?$AAo?$AAl?$AAo?$AAr?$AA?5?$AA?$CB?$AA?$DN?$AA?5?$AA?9?$AA1?$AA?5?$AA?$HM?$AA?$HM?$AA?5?$AAm?$AA_?$AAc@ 000000014002df70     GigeCameraDemoDlg.obj
 0002:00005070       ??_C@_0BF@IAAKIJDJ@AtlThrow?3?5hr?5?$DN?50x?$CFx?6?$AA@ 000000014002e070     GigeCameraDemoDlg.obj
 0002:00005090       ??_C@_0FC@NMCOPCAP@C?3?2Program?5Files?5?$CIx86?$CJ?2Microsoft@ 000000014002e090     GigeCameraDemoDlg.obj
 0002:00005a50       ?classCInputDialog@CInputDialog@@2UCRuntimeClass@@B 000000014002ea50     InputDialog.obj
 0002:00005a98       ??_7CInputDialog@@6B@      000000014002ea98     InputDialog.obj
 0002:000068e8       ?classCMessageDialog@CMessageDialog@@2UCRuntimeClass@@B 000000014002f8e8     MessageDialog.obj
 0002:00006938       ??_7CMessageDialog@@6B@    000000014002f938     MessageDialog.obj
 0002:00007cb0       ??_7CSerialPort@@6B@       0000000140030cb0     SerialPort.obj
 0002:000087e0       ?classCSplashWnd@CSplashWnd@@2UCRuntimeClass@@B 00000001400317e0     SplashWnd.obj
 0002:00008828       ??_7CSplashWnd@@6B@        0000000140031828     SplashWnd.obj
 0002:00008c28       ??_C@_07KJLOKDKB@TypeLib?$AA@ 0000000140031c28     mfcs100d:nolib.obj
 0002:00008c30       ??_C@_08KEKAJNJI@Software?$AA@ 0000000140031c30     mfcs100d:nolib.obj
 0002:00008c3c       ??_C@_06FDHFNJBJ@SYSTEM?$AA@ 0000000140031c3c     mfcs100d:nolib.obj
 0002:00008c48       ??_C@_08LOPHEHKG@SECURITY?$AA@ 0000000140031c48     mfcs100d:nolib.obj
 0002:00008c54       ??_C@_03DDIMFGBA@SAM?$AA@  0000000140031c54     mfcs100d:nolib.obj
 0002:00008c58       ??_C@_04IHBFOLAC@Mime?$AA@ 0000000140031c58     mfcs100d:nolib.obj
 0002:00008c60       ??_C@_08PPIOJEA@Hardware?$AA@ 0000000140031c60     mfcs100d:nolib.obj
 0002:00008c70       ??_C@_09JKPGEJCH@Interface?$AA@ 0000000140031c70     mfcs100d:nolib.obj
 0002:00008c80       ??_C@_08PICKODJL@FileType?$AA@ 0000000140031c80     mfcs100d:nolib.obj
 0002:00008c90       ??_C@_0BF@HDDNNDFH@Component?5Categories?$AA@ 0000000140031c90     mfcs100d:nolib.obj
 0002:00008ca8       ??_C@_05GIBEAPNE@CLSID?$AA@ 0000000140031ca8     mfcs100d:nolib.obj
 0002:00008cb0       ??_C@_05PDIKPLII@AppID?$AA@ 0000000140031cb0     mfcs100d:nolib.obj
 0002:00008cb8       ??_C@_06JBKGCNBB@Delete?$AA@ 0000000140031cb8     mfcs100d:nolib.obj
 0002:00008cc0       ??_C@_08KAAPDIAN@NoRemove?$AA@ 0000000140031cc0     mfcs100d:nolib.obj
 0002:00008cd0       ??_C@_0M@DBGDLGLL@ForceRemove?$AA@ 0000000140031cd0     mfcs100d:nolib.obj
 0002:00008cdc       ??_C@_03LAIAPFCB@Val?$AA@  0000000140031cdc     mfcs100d:nolib.obj
 0002:00008ce0       ??_C@_01HMGJMAIH@B?$AA@    0000000140031ce0     mfcs100d:nolib.obj
 0002:00008ce4       ??_C@_01CKDDGHAB@D?$AA@    0000000140031ce4     mfcs100d:nolib.obj
 0002:00008ce8       ??_C@_01PLPBNMEI@M?$AA@    0000000140031ce8     mfcs100d:nolib.obj
 0002:00008cec       ??_C@_01CPLAODJH@S?$AA@    0000000140031cec     mfcs100d:nolib.obj
 0002:00008cf0       ??_C@_0BF@GPPHKJFN@Invalid?5DateTimeSpan?$AA@ 0000000140031cf0     mfcs100d:nolib.obj
 0002:00008d08       ??_C@_0BB@KEKMKJPM@Invalid?5DateTime?$AA@ 0000000140031d08     mfcs100d:nolib.obj
 0002:00008da8       ??_7type_info@@6B@         0000000140031da8     msvcrtd:ti_inst.obj
 0002:00008db0       ??_C@_1GK@CJIHEMBP@?$AAf?$AA?3?$AA?2?$AAd?$AAd?$AA?2?$AAv?$AAc?$AAt?$AAo?$AAo?$AAl?$AAs?$AA?2?$AAc?$AAr?$AAt?$AA_?$AAb?$AAl?$AAd?$AA?2?$AAs?$AAe?$AAl?$AAf?$AA_?$AA6?$AA4?$AA_?$AAa?$AAm@ 0000000140031db0     msvcrtd:crtexew.obj
 0002:00008e20       ??_C@_1FA@DALEHHGL@?$AA_?$AA_?$AAn?$AAa?$AAt?$AAi?$AAv?$AAe?$AA_?$AAs?$AAt?$AAa?$AAr?$AAt?$AAu?$AAp?$AA_?$AAs?$AAt?$AAa?$AAt?$AAe?$AA?5?$AA?$DN?$AA?$DN?$AA?5?$AA_?$AA_?$AAi?$AAn?$AAi?$AAt@ 0000000140031e20     msvcrtd:crtexew.obj
 0002:00008e80       ?ProcessDetach@NativeDll@<CrtImplementationDetails>@@0IB 0000000140031e80     msvcrtd:unhandld.obj
 0002:00008e84       ?ProcessAttach@NativeDll@<CrtImplementationDetails>@@0IB 0000000140031e84     msvcrtd:unhandld.obj
 0002:00008e88       ?ThreadAttach@NativeDll@<CrtImplementationDetails>@@0IB 0000000140031e88     msvcrtd:unhandld.obj
 0002:00008e8c       ?ThreadDetach@NativeDll@<CrtImplementationDetails>@@0IB 0000000140031e8c     msvcrtd:unhandld.obj
 0002:00008e90       ?ProcessVerifier@NativeDll@<CrtImplementationDetails>@@0IB 0000000140031e90     msvcrtd:unhandld.obj
 0002:00008e98       ??_C@_1BK@NHHHCKNA@?$AAm?$AA_?$AAt?$AAi?$AAm?$AAe?$AA?5?$AA?$CB?$AA?$DN?$AA?5?$AA?9?$AA1?$AA?$AA@ 0000000140031e98     atlsd:atltime.obj
 0002:00008ec0       ??_C@_1GM@GOMCALCH@?$AAf?$AA?3?$AA?2?$AAd?$AAd?$AA?2?$AAv?$AAc?$AAt?$AAo?$AAo?$AAl?$AAs?$AA?2?$AAv?$AAc?$AA7?$AAl?$AAi?$AAb?$AAs?$AA?2?$AAs?$AAh?$AAi?$AAp?$AA?2?$AAa?$AAt?$AAl?$AAm?$AAf@ 0000000140031ec0     atlsd:atltime.obj
 0002:00008f30       ??_C@_1GM@OMLOBEGL@?$AAf?$AA?3?$AA?2?$AAd?$AAd?$AA?2?$AAv?$AAc?$AAt?$AAo?$AAo?$AAl?$AAs?$AA?2?$AAv?$AAc?$AA7?$AAl?$AAi?$AAb?$AAs?$AA?2?$AAs?$AAh?$AAi?$AAp?$AA?2?$AAa?$AAt?$AAl?$AAm?$AAf@ 0000000140031f30     atlsd:atltime.obj
 0002:00008fa0       ??_C@_1M@HLGKFCJM@?$AAf?$AAa?$AAl?$AAs?$AAe?$AA?$AA@ 0000000140031fa0     atlsd:atltime.obj
 0002:00008fb0       ??_C@_0DG@BLHODJEO@f?3?2dd?2vctools?2vc7libs?2ship?2atlmf@ 0000000140031fb0     atlsd:atltime.obj
 0002:00008fe8       ??_C@_0BA@MKMIKKJB@atlTraceGeneral?$AA@ 0000000140031fe8     atlsd:atltrace.obj
 0002:00008ff8       ??_C@_0M@DGPFJEBB@atlTraceCOM?$AA@ 0000000140031ff8     atlsd:atltrace.obj
 0002:00009008       ??_C@_0L@LHELAKBP@atlTraceQI?$AA@ 0000000140032008     atlsd:atltrace.obj
 0002:00009018       ??_C@_0BC@MALHFBAO@atlTraceRegistrar?$AA@ 0000000140032018     atlsd:atltrace.obj
 0002:00009030       ??_C@_0BB@ILPPDKFL@atlTraceRefcount?$AA@ 0000000140032030     atlsd:atltrace.obj
 0002:00009048       ??_C@_0BC@DGHHNKDC@atlTraceWindowing?$AA@ 0000000140032048     atlsd:atltrace.obj
 0002:00009060       ??_C@_0BB@GHKJKKIE@atlTraceControls?$AA@ 0000000140032060     atlsd:atltrace.obj
 0002:00009078       ??_C@_0BA@DKOAAGGM@atlTraceHosting?$AA@ 0000000140032078     atlsd:atltrace.obj
 0002:00009088       ??_C@_0BB@BEBMGMDO@atlTraceDBClient?$AA@ 0000000140032088     atlsd:atltrace.obj
 0002:000090a0       ??_C@_0BD@KOADKDIA@atlTraceDBProvider?$AA@ 00000001400320a0     atlsd:atltrace.obj
 0002:000090b8       ??_C@_0P@LNEGBOLO@atlTraceSnapin?$AA@ 00000001400320b8     atlsd:atltrace.obj
 0002:000090c8       ??_C@_0BA@MCBFIDIC@atlTraceNotImpl?$AA@ 00000001400320c8     atlsd:atltrace.obj
 0002:000090d8       ??_C@_0BD@PJPCCAKP@atlTraceAllocation?$AA@ 00000001400320d8     atlsd:atltrace.obj
 0002:000090f0       ??_C@_0BC@PGMFNIFA@atlTraceException?$AA@ 00000001400320f0     atlsd:atltrace.obj
 0002:00009108       ??_C@_0N@BNNILHBE@atlTraceTime?$AA@ 0000000140032108     atlsd:atltrace.obj
 0002:00009118       ??_C@_0O@MEOJAOKK@atlTraceCache?$AA@ 0000000140032118     atlsd:atltrace.obj
 0002:00009128       ??_C@_0BA@IDBKCKK@atlTraceStencil?$AA@ 0000000140032128     atlsd:atltrace.obj
 0002:00009138       ??_C@_0P@MBNHGHMI@atlTraceString?$AA@ 0000000140032138     atlsd:atltrace.obj
 0002:00009148       ??_C@_0M@IOBBMAHG@atlTraceMap?$AA@ 0000000140032148     atlsd:atltrace.obj
 0002:00009158       ??_C@_0N@FEAAACHD@atlTraceUtil?$AA@ 0000000140032158     atlsd:atltrace.obj
 0002:00009168       ??_C@_0BB@DNJDADMG@atlTraceSecurity?$AA@ 0000000140032168     atlsd:atltrace.obj
 0002:00009180       ??_C@_0N@KLPNCFEE@atlTraceSync?$AA@ 0000000140032180     atlsd:atltrace.obj
 0002:00009190       ??_C@_0O@KHOBHOBJ@atlTraceISAPI?$AA@ 0000000140032190     atlsd:atltrace.obj
 0002:000091a0       ??_C@_0N@BEIMPMHB@atlTraceUser?$AA@ 00000001400321a0     atlsd:atltrace.obj
 0002:000091b0       ??_C@_0O@MKGGJJCH@atlTraceUser2?$AA@ 00000001400321b0     atlsd:atltrace.obj
 0002:000091c0       ??_C@_0O@NDHNKIGG@atlTraceUser3?$AA@ 00000001400321c0     atlsd:atltrace.obj
 0002:000091d0       ??_C@_0O@JMDMDOKB@atlTraceUser4?$AA@ 00000001400321d0     atlsd:atltrace.obj
 0002:000091e0       ??_C@_06JMICFIKN@?$CFs_?$CF0x?$AA@ 00000001400321e0     atlsd:Externs.obj
 0002:000091e8       ??_C@_0CM@OGPEFHLG@AtlDebugAllocator_FileMappingNam@ 00000001400321e8     atlsd:Externs.obj
 0002:00009218       ??_C@_0CN@PLNFEEEE@AtlTraceModuleManager_ProcessAdd@ 0000000140032218     atlsd:Externs.obj
 0002:00009250       ??_C@_1HO@MNFHLCLF@?$AAf?$AA?3?$AA?2?$AAd?$AAd?$AA?2?$AAv?$AAc?$AAt?$AAo?$AAo?$AAl?$AAs?$AA?2?$AAv?$AAc?$AA7?$AAl?$AAi?$AAb?$AAs?$AA?2?$AAs?$AAh?$AAi?$AAp?$AA?2?$AAa?$AAt?$AAl?$AAm?$AAf@ 0000000140032250     atlsd:AtlDebugAPI.obj
 0002:000092d0       ??_C@_1BK@LIHAAANN@?$AAp?$AAM?$AAo?$AAd?$AAu?$AAl?$AAe?$AA?5?$AA?$CB?$AA?$DN?$AA?5?$AA0?$AA?$AA@ 00000001400322d0     atlsd:AtlDebugAPI.obj
 0002:000092f0       ??_C@_1BM@DFEBCPM@?$AAp?$AAP?$AAr?$AAo?$AAc?$AAe?$AAs?$AAs?$AA?5?$AA?$CB?$AA?$DN?$AA?5?$AA0?$AA?$AA@ 00000001400322f0     atlsd:AtlDebugAPI.obj
 0002:0000930c       ??_C@_02DKCKIIND@?$CFs?$AA@ 000000014003230c     atlsd:AtlDebugAPI.obj
 0002:00009310       ??_C@_04FFDMEMDO@?$CFS?3?5?$AA@ 0000000140032310     atlsd:AtlDebugAPI.obj
 0002:00009318       ??_C@_09IIMHCEDG@?$CFs?$CI?$CFd?$CJ?5?3?5?$AA@ 0000000140032318     atlsd:AtlDebugAPI.obj
 0002:00009324       ??_C@_02KPKOKMHB@?$CFS?$AA@ 0000000140032324     atlsd:AtlDebugAPI.obj
 0002:00009328       ??_C@_19JCANECJL@?$AA?$CF?$AAs?$AA?3?$AA?5?$AA?$AA@ 0000000140032328     atlsd:AtlDebugAPI.obj
 0002:00009338       ??_C@_1BE@PGKGHBDF@?$AA?$CF?$AAS?$AA?$CI?$AA?$CF?$AAd?$AA?$CJ?$AA?5?$AA?3?$AA?5?$AA?$AA@ 0000000140032338     atlsd:AtlDebugAPI.obj
 0002:00009350       ??_C@_1DA@NMHCLMEJ@?$AAp?$AAA?$AAl?$AAl?$AAo?$AAc?$AAa?$AAt?$AAo?$AAr?$AA?9?$AA?$DO?$AAm?$AA_?$AAb?$AAS?$AAn?$AAa?$AAp?$AAs?$AAh?$AAo?$AAt?$AA?$AA@ 0000000140032350     atlsd:AtlDebugAPI.obj
 0002:00009380       ??_C@_1CE@NDBHOLMF@?$AAp?$AAP?$AAr?$AAo?$AAc?$AAe?$AAs?$AAs?$AAI?$AAn?$AAf?$AAo?$AA?5?$AA?$CB?$AA?$DN?$AA?5?$AA0?$AA?$AA@ 0000000140032380     atlsd:AtlDebugAPI.obj
 0002:000093a8       ??_C@_1CC@ONKAHKMP@?$AAp?$AAM?$AAo?$AAd?$AAu?$AAl?$AAe?$AAI?$AAn?$AAf?$AAo?$AA?5?$AA?$CB?$AA?$DN?$AA?5?$AA0?$AA?$AA@ 00000001400323a8     atlsd:AtlDebugAPI.obj
 0002:000093d0       ??_C@_1CG@BANGGBIE@?$AAp?$AAC?$AAa?$AAt?$AAe?$AAg?$AAo?$AAr?$AAy?$AAI?$AAn?$AAf?$AAo?$AA?5?$AA?$CB?$AA?$DN?$AA?5?$AA0?$AA?$AA@ 00000001400323d0     atlsd:AtlDebugAPI.obj
 0002:000093f8       ??_C@_1BC@JOPFIJLO@?$AAp?$AAP?$AAr?$AAo?$AAc?$AAe?$AAs?$AAs?$AA?$AA@ 00000001400323f8     atlsd:AtlDebugAPI.obj
 0002:00009410       ??_C@_1DM@CECLCIOA@?$AAp?$AAp?$AAC?$AAa?$AAt?$AAe?$AAg?$AAo?$AAr?$AAy?$AA?5?$AA?$CG?$AA?$CG?$AA?5?$AAp?$AAf?$AAn?$AAC?$AAr?$AAt?$AAD?$AAb?$AAg?$AAR?$AAe?$AAp?$AAo?$AAr?$AAt?$AA?$AA@ 0000000140032410     atlsd:AtlDebugAPI.obj
 0002:00009450       ??_C@_1HA@EFGOBFOA@?$AAf?$AA?3?$AA?2?$AAd?$AAd?$AA?2?$AAv?$AAc?$AAt?$AAo?$AAo?$AAl?$AAs?$AA?2?$AAv?$AAc?$AA7?$AAl?$AAi?$AAb?$AAs?$AA?2?$AAs?$AAh?$AAi?$AAp?$AA?2?$AAa?$AAt?$AAl?$AAm?$AAf@ 0000000140032450     atlsd:AtlDebugAPI.obj
 0002:000094c0       ??_C@_1EA@JHMKKLFC@?$AAn?$AAI?$AAn?$AAd?$AAe?$AAx?$AA?5?$AA?$DO?$AA?$DN?$AA?5?$AA0?$AA?5?$AA?$CG?$AA?$CG?$AA?5?$AAn?$AAI?$AAn?$AAd?$AAe?$AAx?$AA?5?$AA?$DM?$AA?5?$AAm?$AA_?$AAn?$AAS?$AAi?$AAz?$AAe?$AA?$AA@ 00000001400324c0     atlsd:AtlDebugAPI.obj
 0002:00009500       ??_C@_1GI@CLJCGCPP@?$AAf?$AA?3?$AA?2?$AAd?$AAd?$AA?2?$AAv?$AAc?$AAt?$AAo?$AAo?$AAl?$AAs?$AA?2?$AAv?$AAc?$AA7?$AAl?$AAi?$AAb?$AAs?$AA?2?$AAs?$AAh?$AAi?$AAp?$AA?2?$AAa?$AAt?$AAl?$AAm?$AAf@ 0000000140032500     atlsd:AtlDebugAPI.obj
 0002:00009568       ??_C@_1BC@PMINONJG@?$AAb?$AAS?$AAu?$AAc?$AAc?$AAe?$AAs?$AAs?$AA?$AA@ 0000000140032568     atlsd:Allocate.obj
 0002:00009580       ??_C@_1HI@MDMANKNC@?$AAf?$AA?3?$AA?2?$AAd?$AAd?$AA?2?$AAv?$AAc?$AAt?$AAo?$AAo?$AAl?$AAs?$AA?2?$AAv?$AAc?$AA7?$AAl?$AAi?$AAb?$AAs?$AA?2?$AAs?$AAh?$AAi?$AAp?$AA?2?$AAa?$AAt?$AAl?$AAm?$AAf@ 0000000140032580     atlsd:Allocate.obj
 0002:000095f8       ??_C@_1DG@LHMNHOH@?$AA?$CB?$AAm?$AA_?$AAh?$AAM?$AAa?$AAp?$AA?5?$AA?$CG?$AA?$CG?$AA?5?$AA?$CB?$AAm?$AA_?$AAp?$AAB?$AAu?$AAf?$AAf?$AAe?$AAr?$AAS?$AAt?$AAa?$AAr?$AAt?$AA?$AA@ 00000001400325f8     atlsd:Allocate.obj
 0002:00009630       ??_C@_1CC@JCNIBNON@?$AAi?$AAM?$AAo?$AAd?$AAu?$AAl?$AAe?$AA?5?$AA?$DM?$AA?5?$AAm?$AAo?$AAd?$AAc?$AAn?$AAt?$AA?$AA@ 0000000140032630     atlsd:Allocate.obj
 0002:00009660       ??_C@_1HO@KONLCGL@?$AA?$CI?$AAi?$AAC?$AAa?$AAt?$AAe?$AAg?$AAo?$AAr?$AAy?$AA?5?$AA?$DM?$AA?5?$AAm?$AA_?$AAp?$AAP?$AAr?$AAo?$AAc?$AAe?$AAs?$AAs?$AA?9?$AA?$DO?$AAC?$AAa?$AAt?$AAe?$AAg?$AAo?$AAr@ 0000000140032660     atlsd:Allocate.obj
 0002:000096e0       ??_C@_1BG@EIHNOMMF@?$AAm?$AA_?$AAp?$AAP?$AAr?$AAo?$AAc?$AAe?$AAs?$AAs?$AA?$AA@ 00000001400326e0     atlsd:Allocate.obj
 0002:00009700       ??_C@_1IO@GJLKCBCE@?$AAf?$AA?3?$AA?2?$AAd?$AAd?$AA?2?$AAv?$AAc?$AAt?$AAo?$AAo?$AAl?$AAs?$AA?2?$AAv?$AAc?$AA7?$AAl?$AAi?$AAb?$AAs?$AA?2?$AAs?$AAh?$AAi?$AAp?$AA?2?$AAa?$AAt?$AAl?$AAm?$AAf@ 0000000140032700     atlsd:Allocate.obj
 0002:00009790       ??_C@_1BK@GFEAMNLJ@?$AAn?$AAC?$AAo?$AAo?$AAk?$AAi?$AAe?$AA?5?$AA?$CB?$AA?$DN?$AA?5?$AA0?$AA?$AA@ 0000000140032790     atlsd:Allocate.obj
 0002:000097b0       ??_C@_1BO@OAGIAJOK@?$AAp?$AAC?$AAa?$AAt?$AAe?$AAg?$AAo?$AAr?$AAy?$AA?5?$AA?$CB?$AA?$DN?$AA?5?$AA0?$AA?$AA@ 00000001400327b0     atlsd:Allocate.obj
 0002:000097d0       ??_C@_11LOCGONAA@?$AA?$AA@ 00000001400327d0     atlsd:AtlTraceModuleManager.obj
 0002:00009818       ??_C@_0DH@EMOHNEGB@f?3?2dd?2vctools?2vc7libs?2ship?2atlmf@ 0000000140032818     mfcs100d:appmodul.obj
 0002:00009e88       ??_R4CGigeCameraDemoApp@@6B@ 0000000140032e88     GigeCameraDemo.obj
 0002:00009eb8       ??_R3CGigeCameraDemoApp@@8 0000000140032eb8     GigeCameraDemo.obj
 0002:00009ed0       ??_R2CGigeCameraDemoApp@@8 0000000140032ed0     GigeCameraDemo.obj
 0002:00009f08       ??_R1A@?0A@EA@CGigeCameraDemoApp@@8 0000000140032f08     GigeCameraDemo.obj
 0002:00009f38       ??_R1A@?0A@EA@CWinApp@@8   0000000140032f38     GigeCameraDemo.obj
 0002:00009f68       ??_R3CWinApp@@8            0000000140032f68     GigeCameraDemo.obj
 0002:00009f80       ??_R2CWinApp@@8            0000000140032f80     GigeCameraDemo.obj
 0002:00009fb0       ??_R1A@?0A@EA@CWinThread@@8 0000000140032fb0     GigeCameraDemo.obj
 0002:00009fe0       ??_R3CWinThread@@8         0000000140032fe0     GigeCameraDemo.obj
 0002:00009ff8       ??_R2CWinThread@@8         0000000140032ff8     GigeCameraDemo.obj
 0002:0000a020       ??_R1A@?0A@EA@CCmdTarget@@8 0000000140033020     GigeCameraDemo.obj
 0002:0000a050       ??_R3CCmdTarget@@8         0000000140033050     GigeCameraDemo.obj
 0002:0000a068       ??_R2CCmdTarget@@8         0000000140033068     GigeCameraDemo.obj
 0002:0000a080       ??_R1A@?0A@EA@CObject@@8   0000000140033080     GigeCameraDemo.obj
 0002:0000a0b0       ??_R3CObject@@8            00000001400330b0     GigeCameraDemo.obj
 0002:0000a0c8       ??_R2CObject@@8            00000001400330c8     GigeCameraDemo.obj
 0002:0000a0d8       ??_R4Thank_you@Define_the_symbol__ATL_MIXED@@6B@ 00000001400330d8     GigeCameraDemo.obj
 0002:0000a108       ??_R3Thank_you@Define_the_symbol__ATL_MIXED@@8 0000000140033108     GigeCameraDemo.obj
 0002:0000a120       ??_R2Thank_you@Define_the_symbol__ATL_MIXED@@8 0000000140033120     GigeCameraDemo.obj
 0002:0000a130       ??_R1A@?0A@EA@Thank_you@Define_the_symbol__ATL_MIXED@@8 0000000140033130     GigeCameraDemo.obj
 0002:0000a160       ??_R4CAboutDlg@@6B@        0000000140033160     GigeCameraDemoDlg.obj
 0002:0000a190       ??_R3CAboutDlg@@8          0000000140033190     GigeCameraDemoDlg.obj
 0002:0000a1a8       ??_R2CAboutDlg@@8          00000001400331a8     GigeCameraDemoDlg.obj
 0002:0000a1e0       ??_R1A@?0A@EA@CAboutDlg@@8 00000001400331e0     GigeCameraDemoDlg.obj
 0002:0000a210       ??_R1A@?0A@EA@CDialog@@8   0000000140033210     GigeCameraDemoDlg.obj
 0002:0000a240       ??_R3CDialog@@8            0000000140033240     GigeCameraDemoDlg.obj
 0002:0000a258       ??_R2CDialog@@8            0000000140033258     GigeCameraDemoDlg.obj
 0002:0000a288       ??_R1A@?0A@EA@CWnd@@8      0000000140033288     GigeCameraDemoDlg.obj
 0002:0000a2b8       ??_R3CWnd@@8               00000001400332b8     GigeCameraDemoDlg.obj
 0002:0000a2d0       ??_R2CWnd@@8               00000001400332d0     GigeCameraDemoDlg.obj
 0002:0000a2f8       ??_R4CGigeCameraDemoDlg@@6BCDialog@@@ 00000001400332f8     GigeCameraDemoDlg.obj
 0002:0000a328       ??_R3CGigeCameraDemoDlg@@8 0000000140033328     GigeCameraDemoDlg.obj
 0002:0000a340       ??_R2CGigeCameraDemoDlg@@8 0000000140033340     GigeCameraDemoDlg.obj
 0002:0000a388       ??_R1A@?0A@EA@CGigeCameraDemoDlg@@8 0000000140033388     GigeCameraDemoDlg.obj
 0002:0000a3b8       ??_R1BBI@?0A@EA@CImageExWndEventHandler@@8 00000001400333b8     GigeCameraDemoDlg.obj
 0002:0000a3e8       ??_R3CImageExWndEventHandler@@8 00000001400333e8     GigeCameraDemoDlg.obj
 0002:0000a400       ??_R2CImageExWndEventHandler@@8 0000000140033400     GigeCameraDemoDlg.obj
 0002:0000a418       ??_R1A@?0A@EA@CImageExWndEventHandler@@8 0000000140033418     GigeCameraDemoDlg.obj
 0002:0000a448       ??_R1A@?0A@EA@CImageViewportWndEventHandler@@8 0000000140033448     GigeCameraDemoDlg.obj
 0002:0000a478       ??_R3CImageViewportWndEventHandler@@8 0000000140033478     GigeCameraDemoDlg.obj
 0002:0000a490       ??_R2CImageViewportWndEventHandler@@8 0000000140033490     GigeCameraDemoDlg.obj
 0002:0000a4a0       ??_R1BBI@?0A@EA@CImageViewportWndEventHandler@@8 00000001400334a0     GigeCameraDemoDlg.obj
 0002:0000a4d0       ??_R4CGigeCameraDemoDlg@@6BCImageExWndEventHandler@@@ 00000001400334d0     GigeCameraDemoDlg.obj
 0002:0000a500       ??_R4SapAcqDevice@@6B@     0000000140033500     GigeCameraDemoDlg.obj
 0002:0000a530       ??_R3SapAcqDevice@@8       0000000140033530     GigeCameraDemoDlg.obj
 0002:0000a548       ??_R2SapAcqDevice@@8       0000000140033548     GigeCameraDemoDlg.obj
 0002:0000a570       ??_R1A@?0A@EA@SapAcqDevice@@8 0000000140033570     GigeCameraDemoDlg.obj
 0002:0000a5a0       ??_R1A@?0A@EA@SapXferNode@@8 00000001400335a0     GigeCameraDemoDlg.obj
 0002:0000a5d0       ??_R3SapXferNode@@8        00000001400335d0     GigeCameraDemoDlg.obj
 0002:0000a5e8       ??_R2SapXferNode@@8        00000001400335e8     GigeCameraDemoDlg.obj
 0002:0000a600       ??_R1A@?0A@EA@SapManager@@8 0000000140033600     GigeCameraDemoDlg.obj
 0002:0000a630       ??_R3SapManager@@8         0000000140033630     GigeCameraDemoDlg.obj
 0002:0000a648       ??_R2SapManager@@8         0000000140033648     GigeCameraDemoDlg.obj
 0002:0000a658       ??_R4SapBufferWithTrash@@6B@ 0000000140033658     GigeCameraDemoDlg.obj
 0002:0000a688       ??_R3SapBufferWithTrash@@8 0000000140033688     GigeCameraDemoDlg.obj
 0002:0000a6a0       ??_R2SapBufferWithTrash@@8 00000001400336a0     GigeCameraDemoDlg.obj
 0002:0000a6d0       ??_R1A@?0A@EA@SapBufferWithTrash@@8 00000001400336d0     GigeCameraDemoDlg.obj
 0002:0000a700       ??_R1A@?0A@EA@SapBuffer@@8 0000000140033700     GigeCameraDemoDlg.obj
 0002:0000a730       ??_R3SapBuffer@@8          0000000140033730     GigeCameraDemoDlg.obj
 0002:0000a748       ??_R2SapBuffer@@8          0000000140033748     GigeCameraDemoDlg.obj
 0002:0000a770       ??_R4SapAcqDeviceToBuf@@6B@ 0000000140033770     GigeCameraDemoDlg.obj
 0002:0000a7a0       ??_R3SapAcqDeviceToBuf@@8  00000001400337a0     GigeCameraDemoDlg.obj
 0002:0000a7b8       ??_R2SapAcqDeviceToBuf@@8  00000001400337b8     GigeCameraDemoDlg.obj
 0002:0000a7e0       ??_R1A@?0A@EA@SapAcqDeviceToBuf@@8 00000001400337e0     GigeCameraDemoDlg.obj
 0002:0000a810       ??_R1A@?0A@EA@SapTransfer@@8 0000000140033810     GigeCameraDemoDlg.obj
 0002:0000a840       ??_R3SapTransfer@@8        0000000140033840     GigeCameraDemoDlg.obj
 0002:0000a858       ??_R2SapTransfer@@8        0000000140033858     GigeCameraDemoDlg.obj
 0002:0000a870       ??_R4SapView@@6B@          0000000140033870     GigeCameraDemoDlg.obj
 0002:0000a8a0       ??_R3SapView@@8            00000001400338a0     GigeCameraDemoDlg.obj
 0002:0000a8b8       ??_R2SapView@@8            00000001400338b8     GigeCameraDemoDlg.obj
 0002:0000a8d0       ??_R1A@?0A@EA@SapView@@8   00000001400338d0     GigeCameraDemoDlg.obj
 0002:0000a900       ??_R4Image@Gdiplus@@6B@    0000000140033900     GigeCameraDemoDlg.obj
 0002:0000a930       ??_R3Image@Gdiplus@@8      0000000140033930     GigeCameraDemoDlg.obj
 0002:0000a948       ??_R2Image@Gdiplus@@8      0000000140033948     GigeCameraDemoDlg.obj
 0002:0000a960       ??_R1A@?0A@EA@Image@Gdiplus@@8 0000000140033960     GigeCameraDemoDlg.obj
 0002:0000a990       ??_R17?0A@EA@GdiplusBase@Gdiplus@@8 0000000140033990     GigeCameraDemoDlg.obj
 0002:0000a9c0       ??_R3GdiplusBase@Gdiplus@@8 00000001400339c0     GigeCameraDemoDlg.obj
 0002:0000a9d8       ??_R2GdiplusBase@Gdiplus@@8 00000001400339d8     GigeCameraDemoDlg.obj
 0002:0000a9e8       ??_R1A@?0A@EA@GdiplusBase@Gdiplus@@8 00000001400339e8     GigeCameraDemoDlg.obj
 0002:0000aa18       ??_R4Bitmap@Gdiplus@@6B@   0000000140033a18     GigeCameraDemoDlg.obj
 0002:0000aa48       ??_R3Bitmap@Gdiplus@@8     0000000140033a48     GigeCameraDemoDlg.obj
 0002:0000aa60       ??_R2Bitmap@Gdiplus@@8     0000000140033a60     GigeCameraDemoDlg.obj
 0002:0000aa88       ??_R1A@?0A@EA@Bitmap@Gdiplus@@8 0000000140033a88     GigeCameraDemoDlg.obj
 0002:0000aab8       ??_R4CImage@ATL@@6B@       0000000140033ab8     GigeCameraDemoDlg.obj
 0002:0000aae8       ??_R3CImage@ATL@@8         0000000140033ae8     GigeCameraDemoDlg.obj
 0002:0000ab00       ??_R2CImage@ATL@@8         0000000140033b00     GigeCameraDemoDlg.obj
 0002:0000ab10       ??_R1A@?0A@EA@CImage@ATL@@8 0000000140033b10     GigeCameraDemoDlg.obj
 0002:0000ab40       ??_R4CInputDialog@@6B@     0000000140033b40     InputDialog.obj
 0002:0000ab70       ??_R3CInputDialog@@8       0000000140033b70     InputDialog.obj
 0002:0000ab88       ??_R2CInputDialog@@8       0000000140033b88     InputDialog.obj
 0002:0000abc0       ??_R1A@?0A@EA@CInputDialog@@8 0000000140033bc0     InputDialog.obj
 0002:0000abf0       ??_R4CMessageDialog@@6B@   0000000140033bf0     MessageDialog.obj
 0002:0000ac20       ??_R3CMessageDialog@@8     0000000140033c20     MessageDialog.obj
 0002:0000ac38       ??_R2CMessageDialog@@8     0000000140033c38     MessageDialog.obj
 0002:0000ac70       ??_R1A@?0A@EA@CMessageDialog@@8 0000000140033c70     MessageDialog.obj
 0002:0000aca0       ??_R4CSerialPort@@6B@      0000000140033ca0     SerialPort.obj
 0002:0000acd0       ??_R3CSerialPort@@8        0000000140033cd0     SerialPort.obj
 0002:0000ace8       ??_R2CSerialPort@@8        0000000140033ce8     SerialPort.obj
 0002:0000acf8       ??_R1A@?0A@EA@CSerialPort@@8 0000000140033cf8     SerialPort.obj
 0002:0000ad28       ??_R4CSplashWnd@@6B@       0000000140033d28     SplashWnd.obj
 0002:0000ad58       ??_R3CSplashWnd@@8         0000000140033d58     SplashWnd.obj
 0002:0000ad70       ??_R2CSplashWnd@@8         0000000140033d70     SplashWnd.obj
 0002:0000ada0       ??_R1A@?0A@EA@CSplashWnd@@8 0000000140033da0     SplashWnd.obj
 0002:0000add0       ??_R4type_info@@6B@        0000000140033dd0     msvcrtd:ti_inst.obj
 0002:0000adf8       ??_R3type_info@@8          0000000140033df8     msvcrtd:ti_inst.obj
 0002:0000ae10       ??_R2type_info@@8          0000000140033e10     msvcrtd:ti_inst.obj
 0002:0000ae20       ??_R1A@?0A@EA@type_info@@8 0000000140033e20     msvcrtd:ti_inst.obj
 0002:0000afb0       __rtc_iaa                  0000000140033fb0     msvcrtd:_initsect_.obj
 0002:0000b0c0       __rtc_izz                  00000001400340c0     msvcrtd:_initsect_.obj
 0002:0000b1d0       __rtc_taa                  00000001400341d0     msvcrtd:_initsect_.obj
 0002:0000b2e0       __rtc_tzz                  00000001400342e0     msvcrtd:_initsect_.obj
 0002:0000dec8       _TI1?AVCAtlException@ATL@@ 0000000140036ec8     atlsd:Externs.obj
 0002:0000dee8       _CTA1?AVCAtlException@ATL@@ 0000000140036ee8     atlsd:Externs.obj
 0002:0000def8       _CT??_R0?AVCAtlException@ATL@@@84 0000000140036ef8     atlsd:Externs.obj
 0002:0000e030       __pobjMapEntryFirst        0000000140037030     GigeCameraDemo.obj
 0002:0000e140       __pobjMapEntryLast         0000000140037140     GigeCameraDemo.obj
 0003:00000000       _pIncludeInitManaged       0000000140038000     GigeCameraDemo.obj
 0003:00000028       ??_R0?AVCGigeCameraDemoApp@@@8 0000000140038028     GigeCameraDemo.obj
 0003:00000060       ??_R0?AVCWinApp@@@8        0000000140038060     GigeCameraDemo.obj
 0003:00000088       ??_R0?AVCWinThread@@@8     0000000140038088     GigeCameraDemo.obj
 0003:000000b0       ??_R0?AVCCmdTarget@@@8     00000001400380b0     GigeCameraDemo.obj
 0003:000000d8       ??_R0?AVCObject@@@8        00000001400380d8     GigeCameraDemo.obj
 0003:00000100       ??_R0?AUThank_you@Define_the_symbol__ATL_MIXED@@@8 0000000140038100     GigeCameraDemo.obj
 0003:00000180       ??_R0?AVCAboutDlg@@@8      0000000140038180     GigeCameraDemoDlg.obj
 0003:000001a8       ??_R0?AVCDialog@@@8        00000001400381a8     GigeCameraDemoDlg.obj
 0003:000001d0       ??_R0?AVCWnd@@@8           00000001400381d0     GigeCameraDemoDlg.obj
 0003:000001f0       ??_R0?AVCGigeCameraDemoDlg@@@8 00000001400381f0     GigeCameraDemoDlg.obj
 0003:00000228       ??_R0?AVCImageExWndEventHandler@@@8 0000000140038228     GigeCameraDemoDlg.obj
 0003:00000260       ??_R0?AVCImageViewportWndEventHandler@@@8 0000000140038260     GigeCameraDemoDlg.obj
 0003:000002a8       ??_R0?AVSapAcqDevice@@@8   00000001400382a8     GigeCameraDemoDlg.obj
 0003:000002d8       ??_R0?AVSapXferNode@@@8    00000001400382d8     GigeCameraDemoDlg.obj
 0003:00000300       ??_R0?AVSapManager@@@8     0000000140038300     GigeCameraDemoDlg.obj
 0003:00000328       ??_R0?AVSapBufferWithTrash@@@8 0000000140038328     GigeCameraDemoDlg.obj
 0003:00000360       ??_R0?AVSapBuffer@@@8      0000000140038360     GigeCameraDemoDlg.obj
 0003:00000388       ??_R0?AVSapAcqDeviceToBuf@@@8 0000000140038388     GigeCameraDemoDlg.obj
 0003:000003b8       ??_R0?AVSapTransfer@@@8    00000001400383b8     GigeCameraDemoDlg.obj
 0003:000003e0       ??_R0?AVSapView@@@8        00000001400383e0     GigeCameraDemoDlg.obj
 0003:00000408       ??_R0?AVImage@Gdiplus@@@8  0000000140038408     GigeCameraDemoDlg.obj
 0003:00000438       ??_R0?AVGdiplusBase@Gdiplus@@@8 0000000140038438     GigeCameraDemoDlg.obj
 0003:00000470       ??_R0?AVBitmap@Gdiplus@@@8 0000000140038470     GigeCameraDemoDlg.obj
 0003:000004a0       ??_R0?AVCImage@ATL@@@8     00000001400384a0     GigeCameraDemoDlg.obj
 0003:000004c8       ??_R0?AVCInputDialog@@@8   00000001400384c8     InputDialog.obj
 0003:000004f8       ??_R0?AVCMessageDialog@@@8 00000001400384f8     MessageDialog.obj
 0003:00000528       ??_R0?AVCSerialPort@@@8    0000000140038528     SerialPort.obj
 0003:00000550       ??_R0?AVCSplashWnd@@@8     0000000140038550     SplashWnd.obj
 0003:00000580       ??_R0?AVtype_info@@@8      0000000140038580     msvcrtd:ti_inst.obj
 0003:000005a0       __security_cookie          00000001400385a0     msvcrtd:gs_cookie.obj
 0003:000005a8       __security_cookie_complement 00000001400385a8     msvcrtd:gs_cookie.obj
 0003:000005b0       _fltused                   00000001400385b0     msvcrtd:dllsupp.obj
 0003:000005b4       __globallocalestatus       00000001400385b4     msvcrtd:xthdloc.obj
 0003:000005b8       __defaultmatherr           00000001400385b8     msvcrtd:merr.obj
 0003:000005bc       __native_dllmain_reason    00000001400385bc     msvcrtd:natstart.obj
 0003:000005c0       __native_vcclrit_reason    00000001400385c0     msvcrtd:natstart.obj
 0003:000005c8       ?g_pszUpdateEventName@@3PEBDEB 00000001400385c8     atlsd:Externs.obj
 0003:000005d0       ?g_pszAllocFileMapName@@3PEBDEB 00000001400385d0     atlsd:Externs.obj
 0003:000005d8       ?g_pszKernelObjFmt@@3PEBDEB 00000001400385d8     atlsd:Externs.obj
 0003:000005e0       ??_R0?AVCAtlException@ATL@@@8 00000001400385e0     atlsd:Externs.obj
 0003:00000750       ?_pAtlAutoThreadModule@ATL@@3PEAUIAtlAutoThreadModule@1@EA 0000000140038750     GigeCameraDemo.obj
 0003:00000760       ?s_pfnPrevHook@CNoUIAssertHook@ATL@@0P6AHHPEADPEAH@ZEA 0000000140038760     GigeCameraDemo.obj
 0003:00000769       ?m_bInitFailed@CAtlBaseModule@ATL@@2_NA 0000000140038769     GigeCameraDemo.obj
 0003:00000770       ?s_pLog@CFixedStringMgr@ATL@@2PEAVIFixedStringLog@2@EA 0000000140038770     GigeCameraDemo.obj
 0003:00000780       ?_pPerfRegFunc@ATL@@3P6AJPEAUHINSTANCE__@@@ZEA 0000000140038780     GigeCameraDemo.obj
 0003:00000790       ?_pPerfUnRegFunc@ATL@@3P6AJXZEA 0000000140038790     GigeCameraDemo.obj
 0003:00000799       ?_AtlRegisterPerUser@ATL@@3_NA 0000000140038799     GigeCameraDemo.obj
 0003:000007a0       ?_pAtlModule@ATL@@3PEAVCAtlModule@1@EA 00000001400387a0     GigeCameraDemo.obj
 0003:000007b0       ?m_libid@CAtlModule@ATL@@2U_GUID@@A 00000001400387b0     GigeCameraDemo.obj
 0003:000007c8       ?_pModule@ATL@@3PEAVCComModule@1@EA 00000001400387c8     GigeCameraDemo.obj
 0003:000007d4       ?ATL_CREATE_OBJECT@CComApartment@ATL@@2IA 00000001400387d4     GigeCameraDemo.obj
 0003:00000850       ?theApp@@3VCGigeCameraDemoApp@@A 0000000140038850     GigeCameraDemo.obj
 0003:00000a08       ?clash@Define_the_symbol__ATL_MIXED@@3UThank_you@1@A 0000000140038a08     GigeCameraDemo.obj
 0003:00000a11       ?clash@Inconsistent_definition_of_symbol__ATL_MIXED@@3U_Please_define_it_the_same_throughout_your_project@1@A 0000000140038a11     GigeCameraDemo.obj
 0003:00000a48       ?m_Buffers_1@@3PEAVSapBuffer@@EA 0000000140038a48     GigeCameraDemoDlg.obj
 0003:00000a50       ?m_wp@@3UtagWINDOWPLACEMENT@@A 0000000140038a50     GigeCameraDemoDlg.obj
 0003:00000a80       ?listImageBuff_1@@3PAUtag_BuffNode@@A 0000000140038a80     GigeCameraDemoDlg.obj
 0003:19003c80       ?m_cSavePath_2@@3PEADEA    000000015903bc80     GigeCameraDemoDlg.obj
 0003:19003c88       ?pImageBuff_1@@3PEADEA     000000015903bc88     GigeCameraDemoDlg.obj
 0003:19003c90       ?m_cSavePath_1@@3PEADEA    000000015903bc90     GigeCameraDemoDlg.obj
 0003:19003c98       ?pImageBuff_2@@3PEADEA     000000015903bc98     GigeCameraDemoDlg.obj
 0003:19003ca0       ?listImageBuff_2@@3PAUtag_BuffNode@@A 000000015903bca0     GigeCameraDemoDlg.obj
 0003:32006eb0       ?m_Buffers_2@@3PEAVSapBuffer@@EA 000000017203eeb0     GigeCameraDemoDlg.obj
 0003:32006f20       ?m_bDirExit_1@@3_NA        000000017203ef20     GigeCameraDemoDlg.obj
 0003:32006f21       ?m_bDirExit_2@@3_NA        000000017203ef21     GigeCameraDemoDlg.obj
 0003:32006f28       ?m_strStorageFormat@@3V?$CStringT@DV?$StrTraitMFC_DLL@DV?$ChTraitsCRT@D@ATL@@@@@ATL@@A 000000017203ef28     GigeCameraDemoDlg.obj
 0003:34527040       ?m_nDataLength@@3HA        000000017455f040     SerialPort.obj
 0003:345270c8       ?ExitFlag@@3_NA            000000017455f0c8     SplashWnd.obj
 0003:34527150       __afxForceEXCLUDE          000000017455f150     mfcs100d:nolib.obj
 0003:34527154       ?WM_DESTROYMODELESS@CDHtmlDialog@@1IA 000000017455f154     mfcs100d:nolib.obj
 0003:34527158       __afxForceSTDAFX           000000017455f158     mfcs100d:stdafx.obj
 0003:34527700       _commode                   000000017455f700     msvcrtd:xncommod.obj
 0003:34527704       _fmode                     000000017455f704     msvcrtd:xtxtmode.obj
 0003:34527708       _dowildcard                000000017455f708     msvcrtd:wildcard.obj
 0003:3452770c       _newmode                   000000017455f70c     msvcrtd:_newmode.obj
 0003:34527710       ?s_cache@CImage@ATL@@0VCDCCache@12@A 000000017455f710     atlsd:atlimage.obj
 0003:34527730       ?s_initGDIPlus@CImage@ATL@@0VCInitGDIPlus@12@A 000000017455f730     atlsd:atlimage2.obj
 0003:34527768       ?atlTraceGeneral@ATL@@3VCTraceCategory@1@A 000000017455f768     atlsd:atltrace.obj
 0003:34527770       ?atlTraceCOM@ATL@@3VCTraceCategory@1@A 000000017455f770     atlsd:atltrace.obj
 0003:34527778       ?atlTraceQI@ATL@@3VCTraceCategory@1@A 000000017455f778     atlsd:atltrace.obj
 0003:34527780       ?atlTraceRegistrar@ATL@@3VCTraceCategory@1@A 000000017455f780     atlsd:atltrace.obj
 0003:34527788       ?atlTraceRefcount@ATL@@3VCTraceCategory@1@A 000000017455f788     atlsd:atltrace.obj
 0003:34527790       ?atlTraceWindowing@ATL@@3VCTraceCategory@1@A 000000017455f790     atlsd:atltrace.obj
 0003:34527798       ?atlTraceControls@ATL@@3VCTraceCategory@1@A 000000017455f798     atlsd:atltrace.obj
 0003:345277a0       ?atlTraceHosting@ATL@@3VCTraceCategory@1@A 000000017455f7a0     atlsd:atltrace.obj
 0003:345277a8       ?atlTraceDBClient@ATL@@3VCTraceCategory@1@A 000000017455f7a8     atlsd:atltrace.obj
 0003:345277b0       ?atlTraceDBProvider@ATL@@3VCTraceCategory@1@A 000000017455f7b0     atlsd:atltrace.obj
 0003:345277b8       ?atlTraceSnapin@ATL@@3VCTraceCategory@1@A 000000017455f7b8     atlsd:atltrace.obj
 0003:345277c0       ?atlTraceNotImpl@ATL@@3VCTraceCategory@1@A 000000017455f7c0     atlsd:atltrace.obj
 0003:345277c8       ?atlTraceAllocation@ATL@@3VCTraceCategory@1@A 000000017455f7c8     atlsd:atltrace.obj
 0003:345277d0       ?atlTraceException@ATL@@3VCTraceCategory@1@A 000000017455f7d0     atlsd:atltrace.obj
 0003:345277d8       ?atlTraceTime@ATL@@3VCTraceCategory@1@A 000000017455f7d8     atlsd:atltrace.obj
 0003:345277e0       ?atlTraceCache@ATL@@3VCTraceCategory@1@A 000000017455f7e0     atlsd:atltrace.obj
 0003:345277e8       ?atlTraceStencil@ATL@@3VCTraceCategory@1@A 000000017455f7e8     atlsd:atltrace.obj
 0003:345277f0       ?atlTraceString@ATL@@3VCTraceCategory@1@A 000000017455f7f0     atlsd:atltrace.obj
 0003:345277f8       ?atlTraceMap@ATL@@3VCTraceCategory@1@A 000000017455f7f8     atlsd:atltrace.obj
 0003:34527800       ?atlTraceUtil@ATL@@3VCTraceCategory@1@A 000000017455f800     atlsd:atltrace.obj
 0003:34527808       ?atlTraceSecurity@ATL@@3VCTraceCategory@1@A 000000017455f808     atlsd:atltrace.obj
 0003:34527810       ?atlTraceSync@ATL@@3VCTraceCategory@1@A 000000017455f810     atlsd:atltrace.obj
 0003:34527818       ?atlTraceISAPI@ATL@@3VCTraceCategory@1@A 000000017455f818     atlsd:atltrace.obj
 0003:34527820       ?atlTraceUser@ATL@@3VCTraceCategory@1@A 000000017455f820     atlsd:atltrace.obj
 0003:34527828       ?atlTraceUser2@ATL@@3VCTraceCategory@1@A 000000017455f828     atlsd:atltrace.obj
 0003:34527830       ?atlTraceUser3@ATL@@3VCTraceCategory@1@A 000000017455f830     atlsd:atltrace.obj
 0003:34527838       ?atlTraceUser4@ATL@@3VCTraceCategory@1@A 000000017455f838     atlsd:atltrace.obj
 0003:34527840       ?g_Allocator@@3VCAtlAllocator@@A 000000017455f840     atlsd:Externs.obj
 0003:34527898       ?s_trace@CTrace@ATL@@2V12@A 000000017455f898     atlsd:Externs.obj
 0003:345278a8       ?_afxInitAppState@@3DA     000000017455f8a8     mfcs100d:appmodul.obj
 0003:345278ac       __native_startup_state     000000017455f8ac     <common>
 0003:345278c0       __native_startup_lock      000000017455f8c0     <common>
 0003:345278c8       __dyn_tls_init_callback    000000017455f8c8     <common>
 0003:345278d0       __onexitend                000000017455f8d0     <common>
 0003:345278e8       __onexitbegin              000000017455f8e8     <common>
 0005:00000000       __IMPORT_DESCRIPTOR_SapClassBasic82 0000000174563000     SapClassBasic:SapClassBasic82.dll
 0005:00000014       __IMPORT_DESCRIPTOR_SapClassGui82D.NET_2010 0000000174563014     SapClassGuiD:SapClassGui82D.NET_2010.dll
 0005:00000028       __IMPORT_DESCRIPTOR_ZLBImage 0000000174563028     ZLBImage:ZLBImage.dll
 0005:0000003c       __IMPORT_DESCRIPTOR_ZLBCommon 000000017456303c     ZLBCommon:ZLBCommon.dll
 0005:00000050       __IMPORT_DESCRIPTOR_mfc100d 0000000174563050     mfc100d:mfc100d.dll
 0005:00000064       __IMPORT_DESCRIPTOR_MSVCR100D 0000000174563064     msvcrtd:MSVCR100D.dll
 0005:00000078       __IMPORT_DESCRIPTOR_KERNEL32 0000000174563078     kernel32:KERNEL32.dll
 0005:0000008c       __IMPORT_DESCRIPTOR_USER32 000000017456308c     user32:USER32.dll
 0005:000000a0       __IMPORT_DESCRIPTOR_GDI32  00000001745630a0     gdi32:GDI32.dll
 0005:000000b4       __IMPORT_DESCRIPTOR_MSIMG32 00000001745630b4     msimg32:MSIMG32.dll
 0005:000000c8       __IMPORT_DESCRIPTOR_ADVAPI32 00000001745630c8     advapi32:ADVAPI32.dll
 0005:000000dc       __IMPORT_DESCRIPTOR_SHELL32 00000001745630dc     shell32:SHELL32.dll
 0005:000000f0       __IMPORT_DESCRIPTOR_ole32  00000001745630f0     ole32:ole32.dll
 0005:00000104       __IMPORT_DESCRIPTOR_OLEAUT32 0000000174563104     oleaut32:OLEAUT32.dll
 0005:00000118       __IMPORT_DESCRIPTOR_gdiplus 0000000174563118     gdiplus:gdiplus.dll
 0005:0000012c       __NULL_IMPORT_DESCRIPTOR   000000017456312c     SapClassBasic:SapClassBasic82.dll
 0005:000025f0       __imp_RevertToSelf         00000001745655f0     advapi32:ADVAPI32.dll
 0005:000025f8       __imp_OpenThreadToken      00000001745655f8     advapi32:ADVAPI32.dll
 0005:00002600       __imp_OpenSCManagerA       0000000174565600     advapi32:ADVAPI32.dll
 0005:00002608       __imp_SetThreadToken       0000000174565608     advapi32:ADVAPI32.dll
 0005:00002610       \177ADVAPI32_NULL_THUNK_DATA 0000000174565610     advapi32:ADVAPI32.dll
 0005:00002668       __imp_CreateDIBSection     0000000174565668     gdi32:GDI32.dll
 0005:00002670       __imp_SelectObject         0000000174565670     gdi32:GDI32.dll
 0005:00002678       __imp_CreateCompatibleDC   0000000174565678     gdi32:GDI32.dll
 0005:00002680       __imp_DeleteDC             0000000174565680     gdi32:GDI32.dll
 0005:00002688       __imp_GetObjectA           0000000174565688     gdi32:GDI32.dll
 0005:00002690       __imp_DeleteObject         0000000174565690     gdi32:GDI32.dll
 0005:00002698       __imp_StretchBlt           0000000174565698     gdi32:GDI32.dll
 0005:000026a0       __imp_GetDIBColorTable     00000001745656a0     gdi32:GDI32.dll
 0005:000026a8       __imp_CreateSolidBrush     00000001745656a8     gdi32:GDI32.dll
 0005:000026b0       __imp_SetDIBColorTable     00000001745656b0     gdi32:GDI32.dll
 0005:000026b8       \177GDI32_NULL_THUNK_DATA  00000001745656b8     gdi32:GDI32.dll
 0005:00002720       __imp_OutputDebugStringA   0000000174565720     kernel32:KERNEL32.dll
 0005:00002728       __imp_OpenEventA           0000000174565728     kernel32:KERNEL32.dll
 0005:00002730       __imp_RaiseException       0000000174565730     kernel32:KERNEL32.dll
 0005:00002738       __imp_LocalFileTimeToFileTime 0000000174565738     kernel32:KERNEL32.dll
 0005:00002740       __imp_OutputDebugStringW   0000000174565740     kernel32:KERNEL32.dll
 0005:00002748       __imp_FileTimeToSystemTime 0000000174565748     kernel32:KERNEL32.dll
 0005:00002750       __imp_DeleteCriticalSection 0000000174565750     kernel32:KERNEL32.dll
 0005:00002758       __imp_InitializeCriticalSectionAndSpinCount 0000000174565758     kernel32:KERNEL32.dll
 0005:00002760       __imp_MulDiv               0000000174565760     kernel32:KERNEL32.dll
 0005:00002768       __imp_MultiByteToWideChar  0000000174565768     kernel32:KERNEL32.dll
 0005:00002770       __imp_lstrlenA             0000000174565770     kernel32:KERNEL32.dll
 0005:00002778       __imp_VirtualAlloc         0000000174565778     kernel32:KERNEL32.dll
 0005:00002780       __imp_UnmapViewOfFile      0000000174565780     kernel32:KERNEL32.dll
 0005:00002788       __imp_MapViewOfFile        0000000174565788     kernel32:KERNEL32.dll
 0005:00002790       __imp_CreateFileMappingA   0000000174565790     kernel32:KERNEL32.dll
 0005:00002798       __imp_GetCurrentThread     0000000174565798     kernel32:KERNEL32.dll
 0005:000027a0       __imp_OpenFileMappingA     00000001745657a0     kernel32:KERNEL32.dll
 0005:000027a8       __imp_GetModuleFileNameW   00000001745657a8     kernel32:KERNEL32.dll
 0005:000027b0       __imp_FileTimeToLocalFileTime 00000001745657b0     kernel32:KERNEL32.dll
 0005:000027b8       __imp_GetOverlappedResult  00000001745657b8     kernel32:KERNEL32.dll
 0005:000027c0       __imp_GetSystemTimeAsFileTime 00000001745657c0     kernel32:KERNEL32.dll
 0005:000027c8       __imp_GetCurrentProcessId  00000001745657c8     kernel32:KERNEL32.dll
 0005:000027d0       __imp_GetCurrentThreadId   00000001745657d0     kernel32:KERNEL32.dll
 0005:000027d8       __imp_RtlCaptureContext    00000001745657d8     kernel32:KERNEL32.dll
 0005:000027e0       __imp_RtlLookupFunctionEntry 00000001745657e0     kernel32:KERNEL32.dll
 0005:000027e8       __imp_RtlVirtualUnwind     00000001745657e8     kernel32:KERNEL32.dll
 0005:000027f0       __imp_IsDebuggerPresent    00000001745657f0     kernel32:KERNEL32.dll
 0005:000027f8       __imp_SetUnhandledExceptionFilter 00000001745657f8     kernel32:KERNEL32.dll
 0005:00002800       __imp_UnhandledExceptionFilter 0000000174565800     kernel32:KERNEL32.dll
 0005:00002808       __imp_GetCurrentProcess    0000000174565808     kernel32:KERNEL32.dll
 0005:00002810       __imp_TerminateProcess     0000000174565810     kernel32:KERNEL32.dll
 0005:00002818       __imp_GetLocalTime         0000000174565818     kernel32:KERNEL32.dll
 0005:00002820       __imp_GetDiskFreeSpaceExA  0000000174565820     kernel32:KERNEL32.dll
 0005:00002828       __imp_GetDiskFreeSpaceA    0000000174565828     kernel32:KERNEL32.dll
 0005:00002830       __imp_QueryPerformanceCounter 0000000174565830     kernel32:KERNEL32.dll
 0005:00002838       __imp_QueryPerformanceFrequency 0000000174565838     kernel32:KERNEL32.dll
 0005:00002840       __imp_GetTickCount         0000000174565840     kernel32:KERNEL32.dll
 0005:00002848       __imp_CloseHandle          0000000174565848     kernel32:KERNEL32.dll
 0005:00002850       __imp_GetSystemInfo        0000000174565850     kernel32:KERNEL32.dll
 0005:00002858       __imp_SizeofResource       0000000174565858     kernel32:KERNEL32.dll
 0005:00002860       __imp_LockResource         0000000174565860     kernel32:KERNEL32.dll
 0005:00002868       __imp_LoadResource         0000000174565868     kernel32:KERNEL32.dll
 0005:00002870       __imp_FindResourceA        0000000174565870     kernel32:KERNEL32.dll
 0005:00002878       __imp_LeaveCriticalSection 0000000174565878     kernel32:KERNEL32.dll
 0005:00002880       __imp_EnterCriticalSection 0000000174565880     kernel32:KERNEL32.dll
 0005:00002888       __imp_SetConsoleCursorInfo 0000000174565888     kernel32:KERNEL32.dll
 0005:00002890       __imp_GetStdHandle         0000000174565890     kernel32:KERNEL32.dll
 0005:00002898       __imp_SetEvent             0000000174565898     kernel32:KERNEL32.dll
 0005:000028a0       __imp_PurgeComm            00000001745658a0     kernel32:KERNEL32.dll
 0005:000028a8       __imp_SetCommState         00000001745658a8     kernel32:KERNEL32.dll
 0005:000028b0       __imp_BuildCommDCBA        00000001745658b0     kernel32:KERNEL32.dll
 0005:000028b8       __imp_GetCommState         00000001745658b8     kernel32:KERNEL32.dll
 0005:000028c0       __imp_SetCommMask          00000001745658c0     kernel32:KERNEL32.dll
 0005:000028c8       __imp_SetCommTimeouts      00000001745658c8     kernel32:KERNEL32.dll
 0005:000028d0       __imp_CreateFileA          00000001745658d0     kernel32:KERNEL32.dll
 0005:000028d8       __imp_InitializeCriticalSection 00000001745658d8     kernel32:KERNEL32.dll
 0005:000028e0       __imp_CreateEventA         00000001745658e0     kernel32:KERNEL32.dll
 0005:000028e8       __imp_ResetEvent           00000001745658e8     kernel32:KERNEL32.dll
 0005:000028f0       __imp_GetCommMask          00000001745658f0     kernel32:KERNEL32.dll
 0005:000028f8       __imp_WaitForMultipleObjects 00000001745658f8     kernel32:KERNEL32.dll
 0005:00002900       __imp_ClearCommError       0000000174565900     kernel32:KERNEL32.dll
 0005:00002908       __imp_GetLastError         0000000174565908     kernel32:KERNEL32.dll
 0005:00002910       __imp_WaitCommEvent        0000000174565910     kernel32:KERNEL32.dll
 0005:00002918       __imp_GetStartupInfoW      0000000174565918     kernel32:KERNEL32.dll
 0005:00002920       __imp_FormatMessageA       0000000174565920     kernel32:KERNEL32.dll
 0005:00002928       __imp_LocalFree            0000000174565928     kernel32:KERNEL32.dll
 0005:00002930       __imp_WriteFile            0000000174565930     kernel32:KERNEL32.dll
 0005:00002938       __imp_ReadFile             0000000174565938     kernel32:KERNEL32.dll
 0005:00002940       __imp_CreateThread         0000000174565940     kernel32:KERNEL32.dll
 0005:00002948       __imp_Sleep                0000000174565948     kernel32:KERNEL32.dll
 0005:00002950       __imp_EncodePointer        0000000174565950     kernel32:KERNEL32.dll
 0005:00002958       __imp_DecodePointer        0000000174565958     kernel32:KERNEL32.dll
 0005:00002960       \177KERNEL32_NULL_THUNK_DATA 0000000174565960     kernel32:KERNEL32.dll
 0005:00002a28       __imp_AlphaBlend           0000000174565a28     msimg32:MSIMG32.dll
 0005:00002a30       __imp_TransparentBlt       0000000174565a30     msimg32:MSIMG32.dll
 0005:00002a38       \177MSIMG32_NULL_THUNK_DATA 0000000174565a38     msimg32:MSIMG32.dll
 0005:00002a90       __imp_?_type_info_dtor_internal_method@type_info@@QEAAXXZ 0000000174565a90     msvcrtd:MSVCR100D.dll
 0005:00002a98       __imp_?terminate@@YAXXZ    0000000174565a98     msvcrtd:MSVCR100D.dll
 0005:00002aa0       __imp__initterm_e          0000000174565aa0     msvcrtd:MSVCR100D.dll
 0005:00002aa8       __imp__initterm            0000000174565aa8     msvcrtd:MSVCR100D.dll
 0005:00002ab0       __imp__CrtSetCheckCount    0000000174565ab0     msvcrtd:MSVCR100D.dll
 0005:00002ab8       __imp__acmdln              0000000174565ab8     msvcrtd:MSVCR100D.dll
 0005:00002ac0       __imp__ismbblead           0000000174565ac0     msvcrtd:MSVCR100D.dll
 0005:00002ac8       __imp__cexit               0000000174565ac8     msvcrtd:MSVCR100D.dll
 0005:00002ad0       __imp__exit                0000000174565ad0     msvcrtd:MSVCR100D.dll
 0005:00002ad8       __imp__XcptFilter          0000000174565ad8     msvcrtd:MSVCR100D.dll
 0005:00002ae0       __imp___crt_debugger_hook  0000000174565ae0     msvcrtd:MSVCR100D.dll
 0005:00002ae8       __imp__amsg_exit           0000000174565ae8     msvcrtd:MSVCR100D.dll
 0005:00002af0       __imp___set_app_type       0000000174565af0     msvcrtd:MSVCR100D.dll
 0005:00002af8       __imp__fmode               0000000174565af8     msvcrtd:MSVCR100D.dll
 0005:00002b00       __imp__commode             0000000174565b00     msvcrtd:MSVCR100D.dll
 0005:00002b08       __imp___setusermatherr     0000000174565b08     msvcrtd:MSVCR100D.dll
 0005:00002b10       __imp__configthreadlocale  0000000174565b10     msvcrtd:MSVCR100D.dll
 0005:00002b18       __imp__onexit              0000000174565b18     msvcrtd:MSVCR100D.dll
 0005:00002b20       __imp__lock                0000000174565b20     msvcrtd:MSVCR100D.dll
 0005:00002b28       __imp___dllonexit          0000000174565b28     msvcrtd:MSVCR100D.dll
 0005:00002b30       __imp__unlock              0000000174565b30     msvcrtd:MSVCR100D.dll
 0005:00002b38       __imp___getmainargs        0000000174565b38     msvcrtd:MSVCR100D.dll
 0005:00002b40       __imp_fprintf              0000000174565b40     msvcrtd:MSVCR100D.dll
 0005:00002b48       __imp_clock                0000000174565b48     msvcrtd:MSVCR100D.dll
 0005:00002b50       __imp_fprintf_s            0000000174565b50     msvcrtd:MSVCR100D.dll
 0005:00002b58       __imp_memcpy               0000000174565b58     msvcrtd:MSVCR100D.dll
 0005:00002b60       __imp__time64              0000000174565b60     msvcrtd:MSVCR100D.dll
 0005:00002b68       __imp__mktime64            0000000174565b68     msvcrtd:MSVCR100D.dll
 0005:00002b70       __imp__gmtime64_s          0000000174565b70     msvcrtd:MSVCR100D.dll
 0005:00002b78       __imp__localtime64_s       0000000174565b78     msvcrtd:MSVCR100D.dll
 0005:00002b80       __imp__snprintf_s          0000000174565b80     msvcrtd:MSVCR100D.dll
 0005:00002b88       __imp__errno               0000000174565b88     msvcrtd:MSVCR100D.dll
 0005:00002b90       __imp__CxxThrowException   0000000174565b90     msvcrtd:MSVCR100D.dll
 0005:00002b98       __imp__CrtDbgReport        0000000174565b98     msvcrtd:MSVCR100D.dll
 0005:00002ba0       __imp_wcscpy               0000000174565ba0     msvcrtd:MSVCR100D.dll
 0005:00002ba8       __imp__vsnprintf_s         0000000174565ba8     msvcrtd:MSVCR100D.dll
 0005:00002bb0       __imp__vsnwprintf_s        0000000174565bb0     msvcrtd:MSVCR100D.dll
 0005:00002bb8       __imp__snwprintf_s         0000000174565bb8     msvcrtd:MSVCR100D.dll
 0005:00002bc0       __imp_wcscpy_s             0000000174565bc0     msvcrtd:MSVCR100D.dll
 0005:00002bc8       __imp_wcsncpy_s            0000000174565bc8     msvcrtd:MSVCR100D.dll
 0005:00002bd0       __imp_calloc               0000000174565bd0     msvcrtd:MSVCR100D.dll
 0005:00002bd8       __imp__recalloc            0000000174565bd8     msvcrtd:MSVCR100D.dll
 0005:00002be0       __imp_memcmp               0000000174565be0     msvcrtd:MSVCR100D.dll
 0005:00002be8       __imp__wcsicmp             0000000174565be8     msvcrtd:MSVCR100D.dll
 0005:00002bf0       __imp_memmove_s            0000000174565bf0     msvcrtd:MSVCR100D.dll
 0005:00002bf8       __imp_wcslen               0000000174565bf8     msvcrtd:MSVCR100D.dll
 0005:00002c00       __imp__setmbcp             0000000174565c00     msvcrtd:MSVCR100D.dll
 0005:00002c08       __imp___C_specific_handler 0000000174565c08     msvcrtd:MSVCR100D.dll
 0005:00002c10       __imp_strcpy               0000000174565c10     msvcrtd:MSVCR100D.dll
 0005:00002c18       __imp__wassert             0000000174565c18     msvcrtd:MSVCR100D.dll
 0005:00002c20       __imp_strcpy_s             0000000174565c20     msvcrtd:MSVCR100D.dll
 0005:00002c28       __imp_vsprintf_s           0000000174565c28     msvcrtd:MSVCR100D.dll
 0005:00002c30       __imp_free                 0000000174565c30     msvcrtd:MSVCR100D.dll
 0005:00002c38       __imp_malloc               0000000174565c38     msvcrtd:MSVCR100D.dll
 0005:00002c40       __imp_sin                  0000000174565c40     msvcrtd:MSVCR100D.dll
 0005:00002c48       __imp_cos                  0000000174565c48     msvcrtd:MSVCR100D.dll
 0005:00002c50       __imp_labs                 0000000174565c50     msvcrtd:MSVCR100D.dll
 0005:00002c58       __imp_memcpy_s             0000000174565c58     msvcrtd:MSVCR100D.dll
 0005:00002c60       __imp__resetstkoflw        0000000174565c60     msvcrtd:MSVCR100D.dll
 0005:00002c68       __imp__CrtDbgReportW       0000000174565c68     msvcrtd:MSVCR100D.dll
 0005:00002c70       __imp_floorf               0000000174565c70     msvcrtd:MSVCR100D.dll
 0005:00002c78       __imp_exit                 0000000174565c78     msvcrtd:MSVCR100D.dll
 0005:00002c80       __imp_fclose               0000000174565c80     msvcrtd:MSVCR100D.dll
 0005:00002c88       __imp_memset               0000000174565c88     msvcrtd:MSVCR100D.dll
 0005:00002c90       __imp_strcmp               0000000174565c90     msvcrtd:MSVCR100D.dll
 0005:00002c98       __imp_strlen               0000000174565c98     msvcrtd:MSVCR100D.dll
 0005:00002ca0       __imp_sprintf              0000000174565ca0     msvcrtd:MSVCR100D.dll
 0005:00002ca8       __imp___CxxFrameHandler3   0000000174565ca8     msvcrtd:MSVCR100D.dll
 0005:00002cb0       \177MSVCR100D_NULL_THUNK_DATA 0000000174565cb0     msvcrtd:MSVCR100D.dll
 0005:00002d70       __imp_SysFreeString        0000000174565d70     oleaut32:OLEAUT32.dll
 0005:00002d78       \177OLEAUT32_NULL_THUNK_DATA 0000000174565d78     oleaut32:OLEAUT32.dll
 0005:00002dd0       __imp_Shell_NotifyIconA    0000000174565dd0     shell32:SHELL32.dll
 0005:00002dd8       \177SHELL32_NULL_THUNK_DATA 0000000174565dd8     shell32:SHELL32.dll
 0005:00002e30       __imp_?BayerConvert@SapBuffer@@UEAAHPEAV1@HHHHVSapDataFRGB@@PEAVSapLut@@@Z 0000000174565e30     SapClassBasic:SapClassBasic82.dll
 0005:00002e38       __imp_?BayerConvert@SapBuffer@@UEAAHPEAV1@HHVSapDataFRGB@@PEAVSapLut@@@Z 0000000174565e38     SapClassBasic:SapClassBasic82.dll
 0005:00002e40       __imp_?BayerWhiteBalance@SapBuffer@@UEAAHHHPEAVSapDataFRGB@@@Z 0000000174565e40     SapClassBasic:SapClassBasic82.dll
 0005:00002e48       __imp_?BayerWhiteBalance@SapBuffer@@UEAAHHPEAVSapDataFRGB@@@Z 0000000174565e48     SapClassBasic:SapClassBasic82.dll
 0005:00002e50       __imp_?Construct@SapBuffer@@MEAAXPEBDPEAVSapDisplay@@@Z 0000000174565e50     SapClassBasic:SapClassBasic82.dll
 0005:00002e58       __imp_?GetTrashType@SapBufferWithTrash@@UEAAHXZ 0000000174565e58     SapClassBasic:SapClassBasic82.dll
 0005:00002e60       __imp_?SetTrashType@SapBufferWithTrash@@UEAAHH@Z 0000000174565e60     SapClassBasic:SapClassBasic82.dll
 0005:00002e68       __imp_?Construct@SapBufferWithTrash@@MEAAXXZ 0000000174565e68     SapClassBasic:SapClassBasic82.dll
 0005:00002e70       __imp_?Create@SapTransfer@@UEAAHXZ 0000000174565e70     SapClassBasic:SapClassBasic82.dll
 0005:00002e78       __imp_?Destroy@SapTransfer@@UEAAHXZ 0000000174565e78     SapClassBasic:SapClassBasic82.dll
 0005:00002e80       __imp_?Connect@SapTransfer@@UEAAHXZ 0000000174565e80     SapClassBasic:SapClassBasic82.dll
 0005:00002e88       __imp_?Disconnect@SapTransfer@@UEAAHXZ 0000000174565e88     SapClassBasic:SapClassBasic82.dll
 0005:00002e90       __imp_?GetHandle@SapTransfer@@UEBAPEAU__CORHANDLE@@XZ 0000000174565e90     SapClassBasic:SapClassBasic82.dll
 0005:00002e98       __imp_?GetCallback@SapTransfer@@UEBAP6AXPEAVSapXferCallbackInfo@@@ZXZ 0000000174565e98     SapClassBasic:SapClassBasic82.dll
 0005:00002ea0       __imp_?GetTrashCallback@SapTransfer@@UEBAP6AXPEAVSapXferCallbackInfo@@@ZXZ 0000000174565ea0     SapClassBasic:SapClassBasic82.dll
 0005:00002ea8       __imp_?GetContext@SapTransfer@@UEBAPEAXXZ 0000000174565ea8     SapClassBasic:SapClassBasic82.dll
 0005:00002eb0       __imp_?IsGrabbing@SapTransfer@@UEBAHXZ 0000000174565eb0     SapClassBasic:SapClassBasic82.dll
 0005:00002eb8       __imp_?IsAutoEmpty@SapTransfer@@UEBAHXZ 0000000174565eb8     SapClassBasic:SapClassBasic82.dll
 0005:00002ec0       __imp_?IsAutoConnect@SapTransfer@@UEBAHXZ 0000000174565ec0     SapClassBasic:SapClassBasic82.dll
 0005:00002ec8       __imp_?IsConnected@SapTransfer@@UEBAHXZ 0000000174565ec8     SapClassBasic:SapClassBasic82.dll
 0005:00002ed0       __imp_?GetStartMode@SapTransfer@@UEBAHXZ 0000000174565ed0     SapClassBasic:SapClassBasic82.dll
 0005:00002ed8       __imp_?IsCycleModeAvailable@SapTransfer@@UEAAHHH@Z 0000000174565ed8     SapClassBasic:SapClassBasic82.dll
 0005:00002ee0       __imp_?GetConnectTimeout@SapTransfer@@UEBAHXZ 0000000174565ee0     SapClassBasic:SapClassBasic82.dll
 0005:00002ee8       __imp_?SetCallbackInfo@SapTransfer@@UEAAHPEAVSapXferPair@@@Z 0000000174565ee8     SapClassBasic:SapClassBasic82.dll
 0005:00002ef0       __imp_?SetCallbackInfo@SapTransfer@@UEAAHP6AXPEAVSapXferCallbackInfo@@@ZPEAX@Z 0000000174565ef0     SapClassBasic:SapClassBasic82.dll
 0005:00002ef8       __imp_?SetTrashCallbackInfo@SapTransfer@@UEAAHPEAVSapXferPair@@@Z 0000000174565ef8     SapClassBasic:SapClassBasic82.dll
 0005:00002f00       __imp_?SetTrashCallbackInfo@SapTransfer@@UEAAHP6AXPEAVSapXferCallbackInfo@@@Z@Z 0000000174565f00     SapClassBasic:SapClassBasic82.dll
 0005:00002f08       __imp_?SetAutoEmpty@SapTransfer@@UEAAXH@Z 0000000174565f08     SapClassBasic:SapClassBasic82.dll
 0005:00002f10       __imp_?SetAutoConnect@SapTransfer@@UEAAXH@Z 0000000174565f10     SapClassBasic:SapClassBasic82.dll
 0005:00002f18       __imp_?IsCapabilityValid@SapTransfer@@UEAAHH@Z 0000000174565f18     SapClassBasic:SapClassBasic82.dll
 0005:00002f20       __imp_?IsParameterValid@SapTransfer@@UEAAHH@Z 0000000174565f20     SapClassBasic:SapClassBasic82.dll
 0005:00002f28       __imp_?GetCapability@SapTransfer@@UEAAHHPEAX@Z 0000000174565f28     SapClassBasic:SapClassBasic82.dll
 0005:00002f30       __imp_?GetParameter@SapTransfer@@UEAAHHPEAX@Z 0000000174565f30     SapClassBasic:SapClassBasic82.dll
 0005:00002f38       __imp_?SetParameter@SapTransfer@@UEAAHHPEAX@Z 0000000174565f38     SapClassBasic:SapClassBasic82.dll
 0005:00002f40       __imp_?SetParameter@SapTransfer@@UEAAHHH@Z 0000000174565f40     SapClassBasic:SapClassBasic82.dll
 0005:00002f48       __imp_?Select@SapTransfer@@UEAAHPEAVSapXferPair@@HH@Z 0000000174565f48     SapClassBasic:SapClassBasic82.dll
 0005:00002f50       __imp_?Select@SapTransfer@@UEAAHHHH@Z 0000000174565f50     SapClassBasic:SapClassBasic82.dll
 0005:00002f58       __imp_?SetStartMode@SapTransfer@@MEAAHXZ 0000000174565f58     SapClassBasic:SapClassBasic82.dll
 0005:00002f60       __imp_?SetStartMode@SapTransfer@@UEAAHH@Z 0000000174565f60     SapClassBasic:SapClassBasic82.dll
 0005:00002f68       __imp_?SetConnectTimeout@SapTransfer@@UEAAHH@Z 0000000174565f68     SapClassBasic:SapClassBasic82.dll
 0005:00002f70       __imp_?UpdateFrameRateStatistics@SapAcqDeviceToBuf@@UEAAHXZ 0000000174565f70     SapClassBasic:SapClassBasic82.dll
 0005:00002f78       __imp_?SetEventType@SapTransfer@@UEAAHPEAVSapXferPair@@@Z 0000000174565f78     SapClassBasic:SapClassBasic82.dll
 0005:00002f80       __imp_?SetEventCountSource@SapTransfer@@UEAAHPEAVSapXferPair@@@Z 0000000174565f80     SapClassBasic:SapClassBasic82.dll
 0005:00002f88       __imp_?SetCycleMode@SapTransfer@@UEAAHPEAVSapXferPair@@@Z 0000000174565f88     SapClassBasic:SapClassBasic82.dll
 0005:00002f90       __imp_?SetFlipMode@SapTransfer@@UEAAHPEAVSapXferPair@@@Z 0000000174565f90     SapClassBasic:SapClassBasic82.dll
 0005:00002f98       __imp_?SetCounterStampTimeBase@SapTransfer@@UEAAHPEAVSapXferPair@@@Z 0000000174565f98     SapClassBasic:SapClassBasic82.dll
 0005:00002fa0       __imp_?SetFlatFieldCycleMode@SapTransfer@@UEAAHPEAVSapXferPair@@@Z 0000000174565fa0     SapClassBasic:SapClassBasic82.dll
 0005:00002fa8       __imp_?SetDynamicLutCycleMode@SapTransfer@@UEAAHPEAVSapXferPair@@@Z 0000000174565fa8     SapClassBasic:SapClassBasic82.dll
 0005:00002fb0       __imp_?SetFramesPerCallback@SapTransfer@@UEAAHPEAVSapXferPair@@@Z 0000000174565fb0     SapClassBasic:SapClassBasic82.dll
 0005:00002fb8       __imp_?SetFramesOnBoard@SapTransfer@@UEAAHPEAVSapXferPair@@@Z 0000000174565fb8     SapClassBasic:SapClassBasic82.dll
 0005:00002fc0       __imp_?SetRelativeBufferIndex@SapTransfer@@UEAAHPEAVSapXferPair@@@Z 0000000174565fc0     SapClassBasic:SapClassBasic82.dll
 0005:00002fc8       __imp_?SetNbInputFrames@SapTransfer@@UEAAHPEAVSapXferPair@@@Z 0000000174565fc8     SapClassBasic:SapClassBasic82.dll
 0005:00002fd0       __imp_?SetNbOutputFrames@SapTransfer@@UEAAHPEAVSapXferPair@@@Z 0000000174565fd0     SapClassBasic:SapClassBasic82.dll
 0005:00002fd8       __imp_?RegisterCallback@SapTransfer@@UEAAHHP6AXPEAVSapXferCallbackInfo@@@ZPEAXI@Z 0000000174565fd8     SapClassBasic:SapClassBasic82.dll
 0005:00002fe0       __imp_?UnregisterCallback@SapTransfer@@UEAAHXZ 0000000174565fe0     SapClassBasic:SapClassBasic82.dll
 0005:00002fe8       __imp_?UpdateParameters@SapTransfer@@UEAAHXZ 0000000174565fe8     SapClassBasic:SapClassBasic82.dll
 0005:00002ff0       __imp_?Snap@SapTransfer@@UEAAHH@Z 0000000174565ff0     SapClassBasic:SapClassBasic82.dll
 0005:00002ff8       __imp_?Grab@SapTransfer@@UEAAHXZ 0000000174565ff8     SapClassBasic:SapClassBasic82.dll
 0005:00003000       __imp_?Freeze@SapTransfer@@UEAAHXZ 0000000174566000     SapClassBasic:SapClassBasic82.dll
 0005:00003008       __imp_?Abort@SapTransfer@@UEAAHXZ 0000000174566008     SapClassBasic:SapClassBasic82.dll
 0005:00003010       __imp_?Wait@SapTransfer@@UEAAHH@Z 0000000174566010     SapClassBasic:SapClassBasic82.dll
 0005:00003018       __imp_?Init@SapTransfer@@UEAAHH@Z 0000000174566018     SapClassBasic:SapClassBasic82.dll
 0005:00003020       __imp_?XferIsCycleModeAvailable@SapTransfer@@MEAAHPEAVSapXferPair@@H@Z 0000000174566020     SapClassBasic:SapClassBasic82.dll
 0005:00003028       __imp_?CreatePair@SapTransfer@@MEAAHH@Z 0000000174566028     SapClassBasic:SapClassBasic82.dll
 0005:00003030       __imp_?DestroyPair@SapTransfer@@MEAAHH@Z 0000000174566030     SapClassBasic:SapClassBasic82.dll
 0005:00003038       __imp_?GetNumRoi@SapBuffer@@UEBAHXZ 0000000174566038     SapClassBasic:SapClassBasic82.dll
 0005:00003040       __imp_?SetParameters@SapTransfer@@MEAAHXZ 0000000174566040     SapClassBasic:SapClassBasic82.dll
 0005:00003048       __imp_?SetParameters@SapTransfer@@MEAAHH@Z 0000000174566048     SapClassBasic:SapClassBasic82.dll
 0005:00003050       __imp_?FindPairIndex@SapTransfer@@MEAAHPEAVSapXferPair@@PEAH@Z 0000000174566050     SapClassBasic:SapClassBasic82.dll
 0005:00003058       __imp_?Create@SapView@@UEAAHXZ 0000000174566058     SapClassBasic:SapClassBasic82.dll
 0005:00003060       __imp_?Destroy@SapView@@UEAAHXZ 0000000174566060     SapClassBasic:SapClassBasic82.dll
 0005:00003068       __imp_?GetHandle@SapView@@UEBAPEAU__CORHANDLE@@H@Z 0000000174566068     SapClassBasic:SapClassBasic82.dll
 0005:00003070       __imp_?GetHandle@SapView@@UEBAPEAU__CORHANDLE@@XZ 0000000174566070     SapClassBasic:SapClassBasic82.dll
 0005:00003078       __imp_?IsAutoEmpty@SapView@@UEBAHXZ 0000000174566078     SapClassBasic:SapClassBasic82.dll
 0005:00003080       __imp_?SetDisplay@SapView@@UEAAHPEAVSapDisplay@@@Z 0000000174566080     SapClassBasic:SapClassBasic82.dll
 0005:00003088       __imp_?SetBuffer@SapView@@UEAAHPEAVSapBuffer@@@Z 0000000174566088     SapClassBasic:SapClassBasic82.dll
 0005:00003090       __imp_?SetWindow@SapView@@UEAAHPEAUHWND__@@@Z 0000000174566090     SapClassBasic:SapClassBasic82.dll
 0005:00003098       __imp_?SetCallbackInfo@SapView@@UEAAHP6AXPEAVSapViewCallbackInfo@@@ZPEAX@Z 0000000174566098     SapClassBasic:SapClassBasic82.dll
 0005:000030a0       __imp_?GetWidth@SapView@@UEAAHXZ 00000001745660a0     SapClassBasic:SapClassBasic82.dll
 0005:000030a8       __imp_?GetHeight@SapView@@UEAAHXZ 00000001745660a8     SapClassBasic:SapClassBasic82.dll
 0005:000030b0       __imp_?GetViewArea@SapView@@UEAAHPEAH0@Z 00000001745660b0     SapClassBasic:SapClassBasic82.dll
 0005:000030b8       __imp_?IsCapabilityValid@SapView@@UEAAHH@Z 00000001745660b8     SapClassBasic:SapClassBasic82.dll
 0005:000030c0       __imp_?GetCapability@SapView@@UEAAHHPEAX@Z 00000001745660c0     SapClassBasic:SapClassBasic82.dll
 0005:000030c8       __imp_?IsParameterValid@SapView@@UEAAHH@Z 00000001745660c8     SapClassBasic:SapClassBasic82.dll
 0005:000030d0       __imp_?GetParameter@SapView@@UEAAHHPEAX@Z 00000001745660d0     SapClassBasic:SapClassBasic82.dll
 0005:000030d8       __imp_?SetParameter@SapView@@UEAAHHPEAX@Z 00000001745660d8     SapClassBasic:SapClassBasic82.dll
 0005:000030e0       __imp_?GetChild@SapBuffer@@UEBAPEAU__CORHANDLE@@HH@Z 00000001745660e0     SapClassBasic:SapClassBasic82.dll
 0005:000030e8       __imp_?SetWindowTitle@SapView@@UEAAHPEBD@Z 00000001745660e8     SapClassBasic:SapClassBasic82.dll
 0005:000030f0       __imp_?GetWindowTitle@SapView@@UEAAHPEAD@Z 00000001745660f0     SapClassBasic:SapClassBasic82.dll
 0005:000030f8       __imp_?SetOverlayMode@SapView@@UEAAHH@Z 00000001745660f8     SapClassBasic:SapClassBasic82.dll
 0005:00003100       __imp_?SetKeyColor@SapView@@MEAAHXZ 0000000174566100     SapClassBasic:SapClassBasic82.dll
 0005:00003108       __imp_?SetKeyColor@SapView@@UEAAHVSapDataRGB@@@Z 0000000174566108     SapClassBasic:SapClassBasic82.dll
 0005:00003110       __imp_?GetDC@SapView@@UEAAHPEAPEAUHDC__@@@Z 0000000174566110     SapClassBasic:SapClassBasic82.dll
 0005:00003118       __imp_?ReleaseDC@SapView@@UEAAHXZ 0000000174566118     SapClassBasic:SapClassBasic82.dll
 0005:00003120       __imp_?Init@SapView@@UEAAXXZ 0000000174566120     SapClassBasic:SapClassBasic82.dll
 0005:00003128       __imp_?Show@SapView@@UEAAXH@Z 0000000174566128     SapClassBasic:SapClassBasic82.dll
 0005:00003130       __imp_?Show@SapView@@UEAAXXZ 0000000174566130     SapClassBasic:SapClassBasic82.dll
 0005:00003138       __imp_?ShowNext@SapView@@UEAAXXZ 0000000174566138     SapClassBasic:SapClassBasic82.dll
 0005:00003140       __imp_?Hide@SapView@@UEAAXXZ 0000000174566140     SapClassBasic:SapClassBasic82.dll
 0005:00003148       __imp_?HasRange@SapView@@UEAAHXZ 0000000174566148     SapClassBasic:SapClassBasic82.dll
 0005:00003150       __imp_?GetRange@SapView@@UEAAHXZ 0000000174566150     SapClassBasic:SapClassBasic82.dll
 0005:00003158       __imp_?GetRangeMinMax@SapView@@UEAAXPEAH0@Z 0000000174566158     SapClassBasic:SapClassBasic82.dll
 0005:00003160       __imp_?SetRange@SapView@@UEAAHH@Z 0000000174566160     SapClassBasic:SapClassBasic82.dll
 0005:00003168       __imp_?SetScalingMode@SapView@@UEAAHAEBVSapViewScaleParams@@0H@Z 0000000174566168     SapClassBasic:SapClassBasic82.dll
 0005:00003170       __imp_?SetScalingMode@SapView@@UEAAHMMH@Z 0000000174566170     SapClassBasic:SapClassBasic82.dll
 0005:00003178       __imp_?SetScalingMode@SapView@@UEAAHW4ScalingMode@1@HH@Z 0000000174566178     SapClassBasic:SapClassBasic82.dll
 0005:00003180       __imp_?SetAutoEmpty@SapView@@UEAAXH@Z 0000000174566180     SapClassBasic:SapClassBasic82.dll
 0005:00003188       __imp_?SetImmediateMode@SapView@@UEAAXH@Z 0000000174566188     SapClassBasic:SapClassBasic82.dll
 0005:00003190       __imp_?SetThreadPriority@SapView@@UEAAXH@Z 0000000174566190     SapClassBasic:SapClassBasic82.dll
 0005:00003198       __imp_?ApplyLut@SapView@@UEAAHXZ 0000000174566198     SapClassBasic:SapClassBasic82.dll
 0005:000031a0       __imp_?OnPaint@SapView@@UEAAXXZ 00000001745661a0     SapClassBasic:SapClassBasic82.dll
 0005:000031a8       __imp_?OnMove@SapView@@UEAAXXZ 00000001745661a8     SapClassBasic:SapClassBasic82.dll
 0005:000031b0       __imp_?OnSize@SapView@@UEAAXH@Z 00000001745661b0     SapClassBasic:SapClassBasic82.dll
 0005:000031b8       __imp_?OnHScroll@SapView@@UEAAXH@Z 00000001745661b8     SapClassBasic:SapClassBasic82.dll
 0005:000031c0       __imp_?OnVScroll@SapView@@UEAAXH@Z 00000001745661c0     SapClassBasic:SapClassBasic82.dll
 0005:000031c8       __imp_?GetHandles@SapView@@UEBAPEAPEAU__CORHANDLE@@XZ 00000001745661c8     SapClassBasic:SapClassBasic82.dll
 0005:000031d0       __imp_??ASapView@@UEBAPEAU__CORHANDLE@@H@Z 00000001745661d0     SapClassBasic:SapClassBasic82.dll
 0005:000031d8       __imp_?SetBuffers@SapView@@UEAAHPEAVSapBuffer@@@Z 00000001745661d8     SapClassBasic:SapClassBasic82.dll
 0005:000031e0       __imp_?DoShow@SapView@@MEAAXXZ 00000001745661e0     SapClassBasic:SapClassBasic82.dll
 0005:000031e8       __imp_?Next@SapView@@MEAAXXZ 00000001745661e8     SapClassBasic:SapClassBasic82.dll
 0005:000031f0       __imp_?SetScrollPosAndRange@SapView@@MEAAXXZ 00000001745661f0     SapClassBasic:SapClassBasic82.dll
 0005:000031f8       __imp_?LoadLut@SapView@@MEAAHXZ 00000001745661f8     SapClassBasic:SapClassBasic82.dll
 0005:00003200       __imp_??1SapAcqDeviceToBuf@@UEAA@XZ 0000000174566200     SapClassBasic:SapClassBasic82.dll
 0005:00003208       __imp_??1SapAcqDevice@@UEAA@XZ 0000000174566208     SapClassBasic:SapClassBasic82.dll
 0005:00003210       __imp_??1SapBufferWithTrash@@UEAA@XZ 0000000174566210     SapClassBasic:SapClassBasic82.dll
 0005:00003218       __imp_??1SapView@@UEAA@XZ  0000000174566218     SapClassBasic:SapClassBasic82.dll
 0005:00003220       __imp_?SetCycleMode@SapXferPair@@QEAAHH@Z 0000000174566220     SapClassBasic:SapClassBasic82.dll
 0005:00003228       __imp_?GetPair@SapTransfer@@QEAAPEAVSapXferPair@@H@Z 0000000174566228     SapClassBasic:SapClassBasic82.dll
 0005:00003230       __imp_??BSapManager@@QEBAHXZ 0000000174566230     SapClassBasic:SapClassBasic82.dll
 0005:00003238       __imp_?GetBuffer@SapView@@QEBAPEAVSapBuffer@@XZ 0000000174566238     SapClassBasic:SapClassBasic82.dll
 0005:00003240       __imp_?Unregister@SapBuffer@@UEAAHXZ 0000000174566240     SapClassBasic:SapClassBasic82.dll
 0005:00003248       __imp_?Register@SapBuffer@@UEAAHPEBD@Z 0000000174566248     SapClassBasic:SapClassBasic82.dll
 0005:00003250       __imp_?MergeComponents@SapBuffer@@UEAAHPEAV1@@Z 0000000174566250     SapClassBasic:SapClassBasic82.dll
 0005:00003258       __imp_?MergeComponents@SapBuffer@@UEAAHPEAV1@H@Z 0000000174566258     SapClassBasic:SapClassBasic82.dll
 0005:00003260       __imp_?MergeComponents@SapBuffer@@UEAAHPEAV1@00@Z 0000000174566260     SapClassBasic:SapClassBasic82.dll
 0005:00003268       __imp_?MergeComponents@SapBuffer@@UEAAHPEAV1@00H@Z 0000000174566268     SapClassBasic:SapClassBasic82.dll
 0005:00003270       __imp_?SplitComponents@SapBuffer@@UEAAHPEAV1@@Z 0000000174566270     SapClassBasic:SapClassBasic82.dll
 0005:00003278       __imp_?SplitComponents@SapBuffer@@UEAAHPEAV1@H@Z 0000000174566278     SapClassBasic:SapClassBasic82.dll
 0005:00003280       __imp_?SplitComponents@SapBuffer@@UEAAHPEAV1@00@Z 0000000174566280     SapClassBasic:SapClassBasic82.dll
 0005:00003288       __imp_?SplitComponents@SapBuffer@@UEAAHPEAV1@00H@Z 0000000174566288     SapClassBasic:SapClassBasic82.dll
 0005:00003290       __imp_?ColorWhiteBalance@SapBuffer@@UEAAHHPEAVSapDataFRGB@@@Z 0000000174566290     SapClassBasic:SapClassBasic82.dll
 0005:00003298       __imp_?ColorWhiteBalance@SapBuffer@@UEAAHHHPEAVSapDataFRGB@@@Z 0000000174566298     SapClassBasic:SapClassBasic82.dll
 0005:000032a0       __imp_?ColorConvert@SapBuffer@@UEAAHPEAV1@HHVSapDataFRGB@@PEAVSapLut@@@Z 00000001745662a0     SapClassBasic:SapClassBasic82.dll
 0005:000032a8       __imp_?ColorConvert@SapBuffer@@UEAAHPEAV1@HHHHVSapDataFRGB@@PEAVSapLut@@@Z 00000001745662a8     SapClassBasic:SapClassBasic82.dll
 0005:000032b0       __imp_?CopyRect@SapBuffer@@UEAAHPEAV1@HHHHHHHH@Z 00000001745662b0     SapClassBasic:SapClassBasic82.dll
 0005:000032b8       __imp_?CopyAll@SapBuffer@@UEAAHPEAV1@@Z 00000001745662b8     SapClassBasic:SapClassBasic82.dll
 0005:000032c0       __imp_?Copy@SapBuffer@@UEAAHPEAV1@@Z 00000001745662c0     SapClassBasic:SapClassBasic82.dll
 0005:000032c8       __imp_?Copy@SapBuffer@@UEAAHPEAV1@HH@Z 00000001745662c8     SapClassBasic:SapClassBasic82.dll
 0005:000032d0       __imp_?WriteRect@SapBuffer@@UEAAHHHHHPEBX@Z 00000001745662d0     SapClassBasic:SapClassBasic82.dll
 0005:000032d8       __imp_?WriteRect@SapBuffer@@UEAAHHHHHHPEBX@Z 00000001745662d8     SapClassBasic:SapClassBasic82.dll
 0005:000032e0       __imp_?WriteLine@SapBuffer@@UEAAHHHHHPEBXPEAH@Z 00000001745662e0     SapClassBasic:SapClassBasic82.dll
 0005:000032e8       __imp_?WriteLine@SapBuffer@@UEAAHHHHHHPEBXPEAH@Z 00000001745662e8     SapClassBasic:SapClassBasic82.dll
 0005:000032f0       __imp_?WriteElement@SapBuffer@@UEAAHHHPEBX@Z 00000001745662f0     SapClassBasic:SapClassBasic82.dll
 0005:000032f8       __imp_?WriteElement@SapBuffer@@UEAAHHHHPEBX@Z 00000001745662f8     SapClassBasic:SapClassBasic82.dll
 0005:00003300       __imp_?WriteElement@SapBuffer@@UEAAHHHVSapData@@@Z 0000000174566300     SapClassBasic:SapClassBasic82.dll
 0005:00003308       __imp_?WriteElement@SapBuffer@@UEAAHHHHVSapData@@@Z 0000000174566308     SapClassBasic:SapClassBasic82.dll
 0005:00003310       __imp_?Write@SapBuffer@@UEAAH_KHPEBX@Z 0000000174566310     SapClassBasic:SapClassBasic82.dll
 0005:00003318       __imp_?Write@SapBuffer@@UEAAHH_KHPEBX@Z 0000000174566318     SapClassBasic:SapClassBasic82.dll
 0005:00003320       __imp_?ReadRect@SapBuffer@@UEAAHHHHHPEAX@Z 0000000174566320     SapClassBasic:SapClassBasic82.dll
 0005:00003328       __imp_?ReadRect@SapBuffer@@UEAAHHHHHHPEAX@Z 0000000174566328     SapClassBasic:SapClassBasic82.dll
 0005:00003330       __imp_?ReadLine@SapBuffer@@UEAAHHHHHPEAXPEAH@Z 0000000174566330     SapClassBasic:SapClassBasic82.dll
 0005:00003338       __imp_?ReadLine@SapBuffer@@UEAAHHHHHHPEAXPEAH@Z 0000000174566338     SapClassBasic:SapClassBasic82.dll
 0005:00003340       __imp_?ReadElement@SapBuffer@@UEAAHHHPEAX@Z 0000000174566340     SapClassBasic:SapClassBasic82.dll
 0005:00003348       __imp_?ReadElement@SapBuffer@@UEAAHHHHPEAX@Z 0000000174566348     SapClassBasic:SapClassBasic82.dll
 0005:00003350       __imp_?ReadElement@SapBuffer@@UEAAHHHPEAVSapData@@@Z 0000000174566350     SapClassBasic:SapClassBasic82.dll
 0005:00003358       __imp_?ReadElement@SapBuffer@@UEAAHHHHPEAVSapData@@@Z 0000000174566358     SapClassBasic:SapClassBasic82.dll
 0005:00003360       __imp_?ReadElement@SapBuffer@@UEAAHHHPEAH00@Z 0000000174566360     SapClassBasic:SapClassBasic82.dll
 0005:00003368       __imp_?Read@SapBuffer@@UEAAH_KHPEAX@Z 0000000174566368     SapClassBasic:SapClassBasic82.dll
 0005:00003370       __imp_?Read@SapBuffer@@UEAAHH_KHPEAX@Z 0000000174566370     SapClassBasic:SapClassBasic82.dll
 0005:00003378       __imp_?Save@SapBuffer@@UEAAHPEBD0HH@Z 0000000174566378     SapClassBasic:SapClassBasic82.dll
 0005:00003380       __imp_?Load@SapBuffer@@UEAAHPEBDHHH0@Z 0000000174566380     SapClassBasic:SapClassBasic82.dll
 0005:00003388       __imp_?RemoveAllRoi@SapBuffer@@UEAAHXZ 0000000174566388     SapClassBasic:SapClassBasic82.dll
 0005:00003390       __imp_?AddRoi@SapBuffer@@UEAAHUtagRECT@@@Z 0000000174566390     SapClassBasic:SapClassBasic82.dll
 0005:00003398       __imp_?Load@SapBuffer@@UEAAHPEBD0HH@Z 0000000174566398     SapClassBasic:SapClassBasic82.dll
 0005:000033a0       __imp_?SetParameter@SapView@@UEAAHHH@Z 00000001745663a0     SapClassBasic:SapClassBasic82.dll
 0005:000033a8       __imp_?GetRoi@SapBuffer@@UEBAQEAUtagRECT@@H@Z 00000001745663a8     SapClassBasic:SapClassBasic82.dll
 0005:000033b0       __imp_?Clear@SapBuffer@@UEAAHXZ 00000001745663b0     SapClassBasic:SapClassBasic82.dll
 0005:000033b8       __imp_?Clear@SapBuffer@@UEAAHH@Z 00000001745663b8     SapClassBasic:SapClassBasic82.dll
 0005:000033c0       __imp_?Clear@SapBuffer@@UEAAHVSapData@@@Z 00000001745663c0     SapClassBasic:SapClassBasic82.dll
 0005:000033c8       __imp_?Clear@SapBuffer@@UEAAHHVSapData@@@Z 00000001745663c8     SapClassBasic:SapClassBasic82.dll
 0005:000033d0       __imp_?GetPageFormat@SapBuffer@@UEAAHPEAH@Z 00000001745663d0     SapClassBasic:SapClassBasic82.dll
 0005:000033d8       __imp_?IsMultiFormat@SapBuffer@@UEAAHXZ 00000001745663d8     SapClassBasic:SapClassBasic82.dll
 0005:000033e0       __imp_?GetPage@SapBuffer@@UEAAHPEAH@Z 00000001745663e0     SapClassBasic:SapClassBasic82.dll
 0005:000033e8       __imp_?GetPage@SapBuffer@@UEAAHHPEAH@Z 00000001745663e8     SapClassBasic:SapClassBasic82.dll
 0005:000033f0       __imp_?SetAllPage@SapBuffer@@UEAAHH@Z 00000001745663f0     SapClassBasic:SapClassBasic82.dll
 0005:000033f8       __imp_?SetPage@SapBuffer@@UEAAHH@Z 00000001745663f8     SapClassBasic:SapClassBasic82.dll
 0005:00003400       __imp_?SetPage@SapBuffer@@UEAAHHH@Z 0000000174566400     SapClassBasic:SapClassBasic82.dll
 0005:00003408       __imp_?GetNumPages@SapBuffer@@UEAAHPEAH@Z 0000000174566408     SapClassBasic:SapClassBasic82.dll
 0005:00003410       __imp_?GetState@SapBuffer@@UEAAHPEAH@Z 0000000174566410     SapClassBasic:SapClassBasic82.dll
 0005:00003418       __imp_?GetState@SapBuffer@@UEAAHHPEAH@Z 0000000174566418     SapClassBasic:SapClassBasic82.dll
 0005:00003420       __imp_?SetAllState@SapBuffer@@UEAAHH@Z 0000000174566420     SapClassBasic:SapClassBasic82.dll
 0005:00003428       __imp_?SetState@SapBuffer@@UEAAHH@Z 0000000174566428     SapClassBasic:SapClassBasic82.dll
 0005:00003430       __imp_?SetState@SapBuffer@@UEAAHHH@Z 0000000174566430     SapClassBasic:SapClassBasic82.dll
 0005:00003438       __imp_?GetRoot@SapBuffer@@UEAAPEAV1@XZ 0000000174566438     SapClassBasic:SapClassBasic82.dll
 0005:00003440       __imp_?GetParent@SapBuffer@@UEAAPEAV1@XZ 0000000174566440     SapClassBasic:SapClassBasic82.dll
 0005:00003448       __imp_?SetParameter@SapBuffer@@UEAAHHH@Z 0000000174566448     SapClassBasic:SapClassBasic82.dll
 0005:00003450       __imp_?SetParameter@SapBuffer@@UEAAHHHH@Z 0000000174566450     SapClassBasic:SapClassBasic82.dll
 0005:00003458       __imp_?SetParameter@SapBuffer@@UEAAHHPEAX@Z 0000000174566458     SapClassBasic:SapClassBasic82.dll
 0005:00003460       __imp_?SetParameter@SapBuffer@@UEAAHHHPEAX@Z 0000000174566460     SapClassBasic:SapClassBasic82.dll
 0005:00003468       __imp_?GetParameter@SapBuffer@@UEAAHHPEAX@Z 0000000174566468     SapClassBasic:SapClassBasic82.dll
 0005:00003470       __imp_?GetParameter@SapBuffer@@UEAAHHHPEAX@Z 0000000174566470     SapClassBasic:SapClassBasic82.dll
 0005:00003478       __imp_?IsParameterValid@SapBuffer@@UEAAHH@Z 0000000174566478     SapClassBasic:SapClassBasic82.dll
 0005:00003480       __imp_?IsParameterValid@SapBuffer@@UEAAHHH@Z 0000000174566480     SapClassBasic:SapClassBasic82.dll
 0005:00003488       __imp_?GetCapability@SapBuffer@@UEAAHHPEAX@Z 0000000174566488     SapClassBasic:SapClassBasic82.dll
 0005:00003490       __imp_?GetCapability@SapBuffer@@UEAAHHHPEAX@Z 0000000174566490     SapClassBasic:SapClassBasic82.dll
 0005:00003498       __imp_?IsCapabilityValid@SapBuffer@@UEAAHH@Z 0000000174566498     SapClassBasic:SapClassBasic82.dll
 0005:000034a0       __imp_?GetHandles@SapBuffer@@UEBAPEAPEAU__CORHANDLE@@XZ 00000001745664a0     SapClassBasic:SapClassBasic82.dll
 0005:000034a8       __imp_?GetSpaceUsed@SapBuffer@@UEAAHPEAH@Z 00000001745664a8     SapClassBasic:SapClassBasic82.dll
 0005:000034b0       __imp_?GetSpaceUsed@SapBuffer@@UEAAHHPEAH@Z 00000001745664b0     SapClassBasic:SapClassBasic82.dll
 0005:000034b8       __imp_?GetDeviceTimeStamp@SapBuffer@@UEAAHPEA_K@Z 00000001745664b8     SapClassBasic:SapClassBasic82.dll
 0005:000034c0       __imp_?GetDeviceTimeStamp@SapBuffer@@UEAAHHPEA_K@Z 00000001745664c0     SapClassBasic:SapClassBasic82.dll
 0005:000034c8       __imp_?GetHostCounterStamp@SapBuffer@@UEAAHPEA_K@Z 00000001745664c8     SapClassBasic:SapClassBasic82.dll
 0005:000034d0       __imp_?GetHostCounterStamp@SapBuffer@@UEAAHHPEA_K@Z 00000001745664d0     SapClassBasic:SapClassBasic82.dll
 0005:000034d8       __imp_?GetCounterStamp@SapBuffer@@UEAAHPEAH@Z 00000001745664d8     SapClassBasic:SapClassBasic82.dll
 0005:000034e0       __imp_?GetCounterStamp@SapBuffer@@UEAAHHPEAH@Z 00000001745664e0     SapClassBasic:SapClassBasic82.dll
 0005:000034e8       __imp_?IsMapped@SapBuffer@@UEAAHH@Z 00000001745664e8     SapClassBasic:SapClassBasic82.dll
 0005:000034f0       __imp_?IsMapped@SapBuffer@@UEAAHXZ 00000001745664f0     SapClassBasic:SapClassBasic82.dll
 0005:000034f8       __imp_?ReleaseAddress@SapBuffer@@UEAAHPEAX@Z 00000001745664f8     SapClassBasic:SapClassBasic82.dll
 0005:00003500       __imp_?ReleaseAddress@SapBuffer@@UEAAHHPEAX@Z 0000000174566500     SapClassBasic:SapClassBasic82.dll
 0005:00003508       __imp_?GetAddress@SapBuffer@@UEAAHPEAPEAX@Z 0000000174566508     SapClassBasic:SapClassBasic82.dll
 0005:00003510       __imp_?GetAddress@SapBuffer@@UEAAHPEAXPEAPEAX@Z 0000000174566510     SapClassBasic:SapClassBasic82.dll
 0005:00003518       __imp_?GetAddress@SapBuffer@@UEAAHHPEAPEAX@Z 0000000174566518     SapClassBasic:SapClassBasic82.dll
 0005:00003520       __imp_?GetAddress@SapBuffer@@UEAAHHPEAXPEAPEAX@Z 0000000174566520     SapClassBasic:SapClassBasic82.dll
 0005:00003528       __imp_?GetAddress@SapBuffer@@UEAAH_K0PEAPEAX@Z 0000000174566528     SapClassBasic:SapClassBasic82.dll
 0005:00003530       __imp_?GetAddress@SapBuffer@@UEAAH_K0PEAXPEAPEAX@Z 0000000174566530     SapClassBasic:SapClassBasic82.dll
 0005:00003538       __imp_?GetAddress@SapBuffer@@UEAAHH_K0PEAPEAX@Z 0000000174566538     SapClassBasic:SapClassBasic82.dll
 0005:00003540       __imp_?GetAddress@SapBuffer@@UEAAHH_K0PEAXPEAPEAX@Z 0000000174566540     SapClassBasic:SapClassBasic82.dll
 0005:00003548       __imp_?SetFrameRate@SapBuffer@@UEAAXM@Z 0000000174566548     SapClassBasic:SapClassBasic82.dll
 0005:00003550       __imp_?SetParametersFromFile@SapBuffer@@UEAAHPEBDH@Z 0000000174566550     SapClassBasic:SapClassBasic82.dll
 0005:00003558       __imp_?SetParameters@SapBuffer@@UEAAHHHHHH@Z 0000000174566558     SapClassBasic:SapClassBasic82.dll
 0005:00003560       __imp_?SetParameters@SapBuffer@@UEAAHHQEAPEAXHHHH@Z 0000000174566560     SapClassBasic:SapClassBasic82.dll
 0005:00003568       __imp_?SetParameters@SapBuffer@@UEAAHHQEA_KHHHH@Z 0000000174566568     SapClassBasic:SapClassBasic82.dll
 0005:00003570       __imp_?SetPhysicalAddress@SapBuffer@@UEAAHQEA_K@Z 0000000174566570     SapClassBasic:SapClassBasic82.dll
 0005:00003578       __imp_?SetVirtualAddress@SapBuffer@@UEAAHQEAPEAX@Z 0000000174566578     SapClassBasic:SapClassBasic82.dll
 0005:00003580       __imp_?SetPixelDepth@SapBuffer@@UEAAHH@Z 0000000174566580     SapClassBasic:SapClassBasic82.dll
 0005:00003588       __imp_?SetType@SapBuffer@@UEAAHH@Z 0000000174566588     SapClassBasic:SapClassBasic82.dll
 0005:00003590       __imp_?SetFormat@SapBuffer@@UEAAHH@Z 0000000174566590     SapClassBasic:SapClassBasic82.dll
 0005:00003598       __imp_?SetHeight@SapBuffer@@UEAAHH@Z 0000000174566598     SapClassBasic:SapClassBasic82.dll
 0005:000035a0       __imp_?SetWidth@SapBuffer@@UEAAHH@Z 00000001745665a0     SapClassBasic:SapClassBasic82.dll
 0005:000035a8       __imp_?SetCount@SapBuffer@@UEAAHH@Z 00000001745665a8     SapClassBasic:SapClassBasic82.dll
 0005:000035b0       __imp_?EmptyAll@SapBuffer@@UEAAHXZ 00000001745665b0     SapClassBasic:SapClassBasic82.dll
 0005:000035b8       __imp_?Empty@SapBuffer@@UEAAHXZ 00000001745665b8     SapClassBasic:SapClassBasic82.dll
 0005:000035c0       __imp_?Empty@SapBuffer@@UEAAHH@Z 00000001745665c0     SapClassBasic:SapClassBasic82.dll
 0005:000035c8       __imp_?GetTrash@SapBufferWithTrash@@UEBAPEAU__CORHANDLE@@XZ 00000001745665c8     SapClassBasic:SapClassBasic82.dll
 0005:000035d0       __imp_?Next@SapBuffer@@UEAAXXZ 00000001745665d0     SapClassBasic:SapClassBasic82.dll
 0005:000035d8       __imp_?ResetIndex@SapBuffer@@UEAAXXZ 00000001745665d8     SapClassBasic:SapClassBasic82.dll
 0005:000035e0       __imp_?SetIndex@SapBuffer@@UEAAHH@Z 00000001745665e0     SapClassBasic:SapClassBasic82.dll
 0005:000035e8       __imp_?GetIndex@SapBuffer@@UEBAHXZ 00000001745665e8     SapClassBasic:SapClassBasic82.dll
 0005:000035f0       __imp_?GetCount@SapBuffer@@UEBAHXZ 00000001745665f0     SapClassBasic:SapClassBasic82.dll
 0005:000035f8       __imp_??ASapBuffer@@UEBAPEAU__CORHANDLE@@H@Z 00000001745665f8     SapClassBasic:SapClassBasic82.dll
 0005:00003600       __imp_?GetXferNodeType@SapBuffer@@UEAA?AW4XferNodeType@SapXferNode@@XZ 0000000174566600     SapClassBasic:SapClassBasic82.dll
 0005:00003608       __imp_?GetHandle@SapBuffer@@UEBAPEAU__CORHANDLE@@XZ 0000000174566608     SapClassBasic:SapClassBasic82.dll
 0005:00003610       __imp_?GetHandle@SapBuffer@@UEBAPEAU__CORHANDLE@@H@Z 0000000174566610     SapClassBasic:SapClassBasic82.dll
 0005:00003618       __imp_?Destroy@SapBufferWithTrash@@UEAAHXZ 0000000174566618     SapClassBasic:SapClassBasic82.dll
 0005:00003620       __imp_?Create@SapBufferWithTrash@@UEAAHXZ 0000000174566620     SapClassBasic:SapClassBasic82.dll
 0005:00003628       __imp_?EmptyAll@SapXferNode@@UEAAHXZ 0000000174566628     SapClassBasic:SapClassBasic82.dll
 0005:00003630       __imp_?Empty@SapXferNode@@UEAAHXZ 0000000174566630     SapClassBasic:SapClassBasic82.dll
 0005:00003638       __imp_?Empty@SapXferNode@@UEAAHH@Z 0000000174566638     SapClassBasic:SapClassBasic82.dll
 0005:00003640       __imp_?GetTrash@SapXferNode@@UEBAPEAU__CORHANDLE@@XZ 0000000174566640     SapClassBasic:SapClassBasic82.dll
 0005:00003648       __imp_?Next@SapXferNode@@UEAAXXZ 0000000174566648     SapClassBasic:SapClassBasic82.dll
 0005:00003650       __imp_?ResetIndex@SapXferNode@@UEAAXXZ 0000000174566650     SapClassBasic:SapClassBasic82.dll
 0005:00003658       __imp_?SetIndex@SapXferNode@@UEAAHH@Z 0000000174566658     SapClassBasic:SapClassBasic82.dll
 0005:00003660       __imp_??1SapAcquisition@@UEAA@XZ 0000000174566660     SapClassBasic:SapClassBasic82.dll
 0005:00003668       __imp_?GetIndex@SapXferNode@@UEBAHXZ 0000000174566668     SapClassBasic:SapClassBasic82.dll
 0005:00003670       __imp_?GetCount@SapXferNode@@UEBAHXZ 0000000174566670     SapClassBasic:SapClassBasic82.dll
 0005:00003678       __imp_??ASapXferNode@@UEBAPEAU__CORHANDLE@@H@Z 0000000174566678     SapClassBasic:SapClassBasic82.dll
 0005:00003680       __imp_?IsBuffer@SapXferNode@@UEAAHXZ 0000000174566680     SapClassBasic:SapClassBasic82.dll
 0005:00003688       __imp_?GetXferNodeType@SapAcqDevice@@UEAA?AW4XferNodeType@SapXferNode@@XZ 0000000174566688     SapClassBasic:SapClassBasic82.dll
 0005:00003690       __imp_?GetXferParamsFromSrcNode@SapXferNode@@UEAAXXZ 0000000174566690     SapClassBasic:SapClassBasic82.dll
 0005:00003698       __imp_?GetHandle@SapXferNode@@UEBAPEAU__CORHANDLE@@XZ 0000000174566698     SapClassBasic:SapClassBasic82.dll
 0005:000036a0       __imp_?GetHandle@SapXferNode@@UEBAPEAU__CORHANDLE@@H@Z 00000001745666a0     SapClassBasic:SapClassBasic82.dll
 0005:000036a8       __imp_?SetOutputXferParams@SapXferNode@@UEAAHVSapXferParams@@H@Z 00000001745666a8     SapClassBasic:SapClassBasic82.dll
 0005:000036b0       __imp_?SetInputXferParams@SapXferNode@@UEAAHVSapXferParams@@H@Z 00000001745666b0     SapClassBasic:SapClassBasic82.dll
 0005:000036b8       __imp_?SetXferParams@SapXferNode@@UEAAHVSapXferParams@@H@Z 00000001745666b8     SapClassBasic:SapClassBasic82.dll
 0005:000036c0       __imp_?SetSrcNode@SapXferNode@@UEAAHPEAV1@H@Z 00000001745666c0     SapClassBasic:SapClassBasic82.dll
 0005:000036c8       __imp_?GetOutputXferParams@SapXferNode@@UEBA?AVSapXferParams@@H@Z 00000001745666c8     SapClassBasic:SapClassBasic82.dll
 0005:000036d0       __imp_?GetInputXferParams@SapXferNode@@UEBA?AVSapXferParams@@H@Z 00000001745666d0     SapClassBasic:SapClassBasic82.dll
 0005:000036d8       __imp_?GetXferParams@SapXferNode@@UEBA?AVSapXferParams@@H@Z 00000001745666d8     SapClassBasic:SapClassBasic82.dll
 0005:000036e0       __imp_?Destroy@SapAcqDevice@@UEAAHXZ 00000001745666e0     SapClassBasic:SapClassBasic82.dll
 0005:000036e8       __imp_?Create@SapAcqDevice@@UEAAHXZ 00000001745666e8     SapClassBasic:SapClassBasic82.dll
 0005:000036f0       __imp_?GetServerCount@SapManager@@SAHXZ 00000001745666f0     SapClassBasic:SapClassBasic82.dll
 0005:000036f8       __imp_?DetectAllServers@SapManager@@SAHH@Z 00000001745666f8     SapClassBasic:SapClassBasic82.dll
 0005:00003700       __imp_?GetResourceCount@SapManager@@SAHHH@Z 0000000174566700     SapClassBasic:SapClassBasic82.dll
 0005:00003708       __imp_?GetServerSerialNumber@SapManager@@SAHHPEAD@Z 0000000174566708     SapClassBasic:SapClassBasic82.dll
 0005:00003710       __imp_??0SapAcqDevice@@QEAA@VSapLocation@@PEBD@Z 0000000174566710     SapClassBasic:SapClassBasic82.dll
 0005:00003718       __imp_??0SapBufferWithTrash@@QEAA@HPEAVSapXferNode@@HVSapLocation@@@Z 0000000174566718     SapClassBasic:SapClassBasic82.dll
 0005:00003720       __imp_??0SapAcqDeviceToBuf@@QEAA@PEAVSapAcqDevice@@PEAVSapBuffer@@P6AXPEAVSapXferCallbackInfo@@@ZPEAX@Z 0000000174566720     SapClassBasic:SapClassBasic82.dll
 0005:00003728       __imp_??0SapView@@QEAA@PEAVSapBuffer@@PEAUHWND__@@P6AXPEAVSapViewCallbackInfo@@@ZPEAX@Z 0000000174566728     SapClassBasic:SapClassBasic82.dll
 0005:00003730       __imp_?GetContext@SapXferCallbackInfo@@QEBAPEAXXZ 0000000174566730     SapClassBasic:SapClassBasic82.dll
 0005:00003738       __imp_?GetWidth@SapBuffer@@QEBAHXZ 0000000174566738     SapClassBasic:SapClassBasic82.dll
 0005:00003740       __imp_?GetHeight@SapBuffer@@QEBAHXZ 0000000174566740     SapClassBasic:SapClassBasic82.dll
 0005:00003748       __imp_?GetEventCount@SapXferCallbackInfo@@QEBAHXZ 0000000174566748     SapClassBasic:SapClassBasic82.dll
 0005:00003750       __imp_??0SapLocation@@QEAA@HH@Z 0000000174566750     SapClassBasic:SapClassBasic82.dll
 0005:00003758       __imp_??0SapAcquisition@@QEAA@VSapLocation@@@Z 0000000174566758     SapClassBasic:SapClassBasic82.dll
 0005:00003760       __imp_?GetCapabilities@SapTransfer@@MEAAHH@Z 0000000174566760     SapClassBasic:SapClassBasic82.dll
 0005:00003768       \177SapClassBasic82_NULL_THUNK_DATA 0000000174566768     SapClassBasic:SapClassBasic82.dll
 0005:00003998       __imp_??1CImageExWnd@@UEAA@XZ 0000000174566998     SapClassGuiD:SapClassGui82D.NET_2010.dll
 0005:000039a0       __imp_??0CAbortDlg@@QEAA@PEAVCWnd@@PEAVSapTransfer@@H@Z 00000001745669a0     SapClassGuiD:SapClassGui82D.NET_2010.dll
 0005:000039a8       __imp_??1CAbortDlg@@UEAA@XZ 00000001745669a8     SapClassGuiD:SapClassGui82D.NET_2010.dll
 0005:000039b0       __imp_??0CViewDlg@@QEAA@PEAVCWnd@@PEAVSapView@@@Z 00000001745669b0     SapClassGuiD:SapClassGui82D.NET_2010.dll
 0005:000039b8       __imp_?Refresh@CImageExWnd@@QEAAXXZ 00000001745669b8     SapClassGuiD:SapClassGui82D.NET_2010.dll
 0005:000039c0       __imp_??1CViewDlg@@UEAA@XZ 00000001745669c0     SapClassGuiD:SapClassGui82D.NET_2010.dll
 0005:000039c8       __imp_?AttachSapView@CImageExWnd@@QEAA_NPEAVSapView@@@Z 00000001745669c8     SapClassGuiD:SapClassGui82D.NET_2010.dll
 0005:000039d0       __imp_?Reset@CImageExWnd@@QEAAXXZ 00000001745669d0     SapClassGuiD:SapClassGui82D.NET_2010.dll
 0005:000039d8       __imp_?GetPixelString@CImageExWnd@@QEBA?AV?$CStringT@DV?$StrTraitMFC_DLL@DV?$ChTraitsCRT@D@ATL@@@@@ATL@@VCPoint@@@Z 00000001745669d8     SapClassGuiD:SapClassGui82D.NET_2010.dll
 0005:000039e0       __imp_?InteractiveMarkerChanged@CImageExWndEventHandler@@UEAAXH@Z 00000001745669e0     SapClassGuiD:SapClassGui82D.NET_2010.dll
 0005:000039e8       __imp_?MarkerChanged@CImageExWndEventHandler@@UEAAXXZ 00000001745669e8     SapClassGuiD:SapClassGui82D.NET_2010.dll
 0005:000039f0       __imp_??0CImageExWnd@@QEAA@XZ 00000001745669f0     SapClassGuiD:SapClassGui82D.NET_2010.dll
 0005:000039f8       __imp_??0CImageExWndEventHandler@@QEAA@XZ 00000001745669f8     SapClassGuiD:SapClassGui82D.NET_2010.dll
 0005:00003a00       __imp_?ScaleChanged@CImageViewportWndEventHandler@@UEAAXXZ 0000000174566a00     SapClassGuiD:SapClassGui82D.NET_2010.dll
 0005:00003a08       __imp_?RoiChanged@CImageViewportWndEventHandler@@UEAAXXZ 0000000174566a08     SapClassGuiD:SapClassGui82D.NET_2010.dll
 0005:00003a10       __imp_?ViewChanged@CImageViewportWndEventHandler@@UEAAXXZ 0000000174566a10     SapClassGuiD:SapClassGui82D.NET_2010.dll
 0005:00003a18       \177SapClassGui82D.NET_2010_NULL_THUNK_DATA 0000000174566a18     SapClassGuiD:SapClassGui82D.NET_2010.dll
 0005:00003a88       __imp_IsRectEmpty          0000000174566a88     user32:USER32.dll
 0005:00003a90       __imp_PtInRect             0000000174566a90     user32:USER32.dll
 0005:00003a98       __imp_SetRect              0000000174566a98     user32:USER32.dll
 0005:00003aa0       __imp_SetRectEmpty         0000000174566aa0     user32:USER32.dll
 0005:00003aa8       __imp_EqualRect            0000000174566aa8     user32:USER32.dll
 0005:00003ab0       __imp_InflateRect          0000000174566ab0     user32:USER32.dll
 0005:00003ab8       __imp_OffsetRect           0000000174566ab8     user32:USER32.dll
 0005:00003ac0       __imp_IntersectRect        0000000174566ac0     user32:USER32.dll
 0005:00003ac8       __imp_UnionRect            0000000174566ac8     user32:USER32.dll
 0005:00003ad0       __imp_CopyRect             0000000174566ad0     user32:USER32.dll
 0005:00003ad8       __imp_LoadCursorA          0000000174566ad8     user32:USER32.dll
 0005:00003ae0       __imp_SetCursor            0000000174566ae0     user32:USER32.dll
 0005:00003ae8       __imp_SendMessageA         0000000174566ae8     user32:USER32.dll
 0005:00003af0       __imp_SetDlgItemTextA      0000000174566af0     user32:USER32.dll
 0005:00003af8       __imp_GetWindow            0000000174566af8     user32:USER32.dll
 0005:00003b00       __imp_GetDlgCtrlID         0000000174566b00     user32:USER32.dll
 0005:00003b08       __imp_GetSystemMetrics     0000000174566b08     user32:USER32.dll
 0005:00003b10       __imp_SetWindowLongA       0000000174566b10     user32:USER32.dll
 0005:00003b18       __imp_LoadIconA            0000000174566b18     user32:USER32.dll
 0005:00003b20       __imp_MessageBoxA          0000000174566b20     user32:USER32.dll
 0005:00003b28       __imp_PostQuitMessage      0000000174566b28     user32:USER32.dll
 0005:00003b30       __imp_PeekMessageA         0000000174566b30     user32:USER32.dll
 0005:00003b38       __imp_TranslateMessage     0000000174566b38     user32:USER32.dll
 0005:00003b40       __imp_DispatchMessageA     0000000174566b40     user32:USER32.dll
 0005:00003b48       __imp_GetCursorPos         0000000174566b48     user32:USER32.dll
 0005:00003b50       __imp_SubtractRect         0000000174566b50     user32:USER32.dll
 0005:00003b58       \177USER32_NULL_THUNK_DATA 0000000174566b58     user32:USER32.dll
 0005:00003bd8       __imp_ZLBIniReadString     0000000174566bd8     ZLBCommon:ZLBCommon.dll
 0005:00003be0       __imp_ZLBCreateDirectory   0000000174566be0     ZLBCommon:ZLBCommon.dll
 0005:00003be8       __imp_ZLBGetFormatTime     0000000174566be8     ZLBCommon:ZLBCommon.dll
 0005:00003bf0       __imp_ZLBIsPathExist       0000000174566bf0     ZLBCommon:ZLBCommon.dll
 0005:00003bf8       __imp_ZLBIniReadDouble     0000000174566bf8     ZLBCommon:ZLBCommon.dll
 0005:00003c00       __imp_ZLBIniReadInt        0000000174566c00     ZLBCommon:ZLBCommon.dll
 0005:00003c08       __imp_ZLBIniFile           0000000174566c08     ZLBCommon:ZLBCommon.dll
 0005:00003c10       __imp_ZLBGetCurrentPath    0000000174566c10     ZLBCommon:ZLBCommon.dll
 0005:00003c18       \177ZLBCommon_NULL_THUNK_DATA 0000000174566c18     ZLBCommon:ZLBCommon.dll
 0005:00003c78       __imp_ZLBSaveImage         0000000174566c78     ZLBImage:ZLBImage.dll
 0005:00003c80       \177ZLBImage_NULL_THUNK_DATA 0000000174566c80     ZLBImage:ZLBImage.dll
 0005:00003cd8       __imp_GdiplusStartup       0000000174566cd8     gdiplus:gdiplus.dll
 0005:00003ce0       __imp_GdipBitmapUnlockBits 0000000174566ce0     gdiplus:gdiplus.dll
 0005:00003ce8       __imp_GdipBitmapLockBits   0000000174566ce8     gdiplus:gdiplus.dll
 0005:00003cf0       __imp_GdipCreateBitmapFromScan0 0000000174566cf0     gdiplus:gdiplus.dll
 0005:00003cf8       __imp_GdipGetImagePalette  0000000174566cf8     gdiplus:gdiplus.dll
 0005:00003d00       __imp_GdipGetImagePaletteSize 0000000174566d00     gdiplus:gdiplus.dll
 0005:00003d08       __imp_GdipGetImagePixelFormat 0000000174566d08     gdiplus:gdiplus.dll
 0005:00003d10       __imp_GdipGetImageHeight   0000000174566d10     gdiplus:gdiplus.dll
 0005:00003d18       __imp_GdipGetImageWidth    0000000174566d18     gdiplus:gdiplus.dll
 0005:00003d20       __imp_GdipDrawImageI       0000000174566d20     gdiplus:gdiplus.dll
 0005:00003d28       __imp_GdipDeleteGraphics   0000000174566d28     gdiplus:gdiplus.dll
 0005:00003d30       __imp_GdipGetImageGraphicsContext 0000000174566d30     gdiplus:gdiplus.dll
 0005:00003d38       __imp_GdipCreateBitmapFromStreamICM 0000000174566d38     gdiplus:gdiplus.dll
 0005:00003d40       __imp_GdipCreateBitmapFromStream 0000000174566d40     gdiplus:gdiplus.dll
 0005:00003d48       __imp_GdipAlloc            0000000174566d48     gdiplus:gdiplus.dll
 0005:00003d50       __imp_GdipCloneImage       0000000174566d50     gdiplus:gdiplus.dll
 0005:00003d58       __imp_GdipFree             0000000174566d58     gdiplus:gdiplus.dll
 0005:00003d60       __imp_GdipDisposeImage     0000000174566d60     gdiplus:gdiplus.dll
 0005:00003d68       __imp_GdiplusShutdown      0000000174566d68     gdiplus:gdiplus.dll
 0005:00003d70       \177gdiplus_NULL_THUNK_DATA 0000000174566d70     gdiplus:gdiplus.dll
 0005:00003de0       __imp_??1CWaitCursor@@QEAA@XZ 0000000174566de0     mfc100d:mfc100d.dll
 0005:00003de8       __imp_??0CWaitCursor@@QEAA@XZ 0000000174566de8     mfc100d:mfc100d.dll
 0005:00003df0       __imp_?OnSysCommand@CWnd@@IEAAXI_J@Z 0000000174566df0     mfc100d:mfc100d.dll
 0005:00003df8       __imp_?OnPaint@CDialog@@IEAAXXZ 0000000174566df8     mfc100d:mfc100d.dll
 0005:00003e00       __imp_??1CPaintDC@@UEAA@XZ 0000000174566e00     mfc100d:mfc100d.dll
 0005:00003e08       __imp_?DrawIcon@CDC@@QEAAHHHPEAUHICON__@@@Z 0000000174566e08     mfc100d:mfc100d.dll
 0005:00003e10       __imp_?SendMessageA@CWnd@@QEBA_JI_K_J@Z 0000000174566e10     mfc100d:mfc100d.dll
 0005:00003e18       __imp_?GetSafeHdc@CDC@@QEBAPEAUHDC__@@XZ 0000000174566e18     mfc100d:mfc100d.dll
 0005:00003e20       __imp_??0CPaintDC@@QEAA@PEAVCWnd@@@Z 0000000174566e20     mfc100d:mfc100d.dll
 0005:00003e28       __imp_?IsIconic@CWnd@@QEBAHXZ 0000000174566e28     mfc100d:mfc100d.dll
 0005:00003e30       __imp_?OnDestroy@CWnd@@IEAAXXZ 0000000174566e30     mfc100d:mfc100d.dll
 0005:00003e38       __imp_?MoveWindow@CWnd@@QEAAXPEBUtagRECT@@H@Z 0000000174566e38     mfc100d:mfc100d.dll
 0005:00003e40       __imp_?ScreenToClient@CWnd@@QEBAXPEAUtagRECT@@@Z 0000000174566e40     mfc100d:mfc100d.dll
 0005:00003e48       __imp_?GetWindowRect@CWnd@@QEBAXPEAUtagRECT@@@Z 0000000174566e48     mfc100d:mfc100d.dll
 0005:00003e50       __imp_?OnSize@CWnd@@IEAAXIHH@Z 0000000174566e50     mfc100d:mfc100d.dll
 0005:00003e58       __imp_?OnEndSession@CDialog@@IEAAXH@Z 0000000174566e58     mfc100d:mfc100d.dll
 0005:00003e60       __imp_?OnQueryEndSession@CDialog@@IEAAHXZ 0000000174566e60     mfc100d:mfc100d.dll
 0005:00003e68       __imp_?EnableWindow@CWnd@@QEAAHH@Z 0000000174566e68     mfc100d:mfc100d.dll
 0005:00003e70       __imp_?MessageBoxA@CWnd@@QEAAHPEBD0I@Z 0000000174566e70     mfc100d:mfc100d.dll
 0005:00003e78       __imp_?GetBuffer@?$CSimpleStringT@D$00@ATL@@QEAAPEADH@Z 0000000174566e78     mfc100d:mfc100d.dll
 0005:00003e80       __imp_?SetWindowPos@CWnd@@QEAAHPEBV1@HHHHI@Z 0000000174566e80     mfc100d:mfc100d.dll
 0005:00003e88       __imp_?wndTopMost@CWnd@@2V1@B 0000000174566e88     mfc100d:mfc100d.dll
 0005:00003e90       __imp_?UpdateData@CWnd@@QEAAHH@Z 0000000174566e90     mfc100d:mfc100d.dll
 0005:00003e98       __imp_?OnNcPaint@CWnd@@IEAAXXZ 0000000174566e98     mfc100d:mfc100d.dll
 0005:00003ea0       __imp_?OnTimer@CWnd@@IEAAX_K@Z 0000000174566ea0     mfc100d:mfc100d.dll
 0005:00003ea8       __imp_?GetForegroundWindow@CWnd@@SAPEAV1@XZ 0000000174566ea8     mfc100d:mfc100d.dll
 0005:00003eb0       __imp_?KillTimer@CWnd@@QEAAH_K@Z 0000000174566eb0     mfc100d:mfc100d.dll
 0005:00003eb8       __imp_?ModifyStyle@CWnd@@QEAAHKKI@Z 0000000174566eb8     mfc100d:mfc100d.dll
 0005:00003ec0       __imp_?AfxThrowInvalidArgException@@YAXXZ 0000000174566ec0     mfc100d:mfc100d.dll
 0005:00003ec8       __imp_?AfxThrowMemoryException@@YAXXZ 0000000174566ec8     mfc100d:mfc100d.dll
 0005:00003ed0       __imp_??3CObject@@SAXPEAXPEBDH@Z 0000000174566ed0     mfc100d:mfc100d.dll
 0005:00003ed8       __imp_??1CDC@@UEAA@XZ      0000000174566ed8     mfc100d:mfc100d.dll
 0005:00003ee0       __imp_??1CBitmap@@UEAA@XZ  0000000174566ee0     mfc100d:mfc100d.dll
 0005:00003ee8       __imp_??1CFont@@UEAA@XZ    0000000174566ee8     mfc100d:mfc100d.dll
 0005:00003ef0       __imp_??1CPen@@UEAA@XZ     0000000174566ef0     mfc100d:mfc100d.dll
 0005:00003ef8       __imp_?DeleteDC@CDC@@QEAAHXZ 0000000174566ef8     mfc100d:mfc100d.dll
 0005:00003f00       __imp_?BitBlt@CDC@@QEAAHHHHHPEAV1@HHK@Z 0000000174566f00     mfc100d:mfc100d.dll
 0005:00003f08       __imp_?Mid@?$CStringT@DV?$StrTraitMFC_DLL@DV?$ChTraitsCRT@D@ATL@@@@@ATL@@QEBA?AV12@HH@Z 0000000174566f08     mfc100d:mfc100d.dll
 0005:00003f10       __imp_?Find@?$CStringT@DV?$StrTraitMFC_DLL@DV?$ChTraitsCRT@D@ATL@@@@@ATL@@QEBAHDH@Z 0000000174566f10     mfc100d:mfc100d.dll
 0005:00003f18       __imp_?LineTo@CDC@@QEAAHHH@Z 0000000174566f18     mfc100d:mfc100d.dll
 0005:00003f20       __imp_?MoveTo@CDC@@QEAA?AVCPoint@@HH@Z 0000000174566f20     mfc100d:mfc100d.dll
 0005:00003f28       __imp_?SelectObject@CDC@@QEAAPEAVCPen@@PEAV2@@Z 0000000174566f28     mfc100d:mfc100d.dll
 0005:00003f30       __imp_??0CPen@@QEAA@HHK@Z  0000000174566f30     mfc100d:mfc100d.dll
 0005:00003f38       __imp_?DeleteObject@CGdiObject@@QEAAHXZ 0000000174566f38     mfc100d:mfc100d.dll
 0005:00003f40       __imp_?DrawTextA@CDC@@QEAAHAEBV?$CStringT@DV?$StrTraitMFC_DLL@DV?$ChTraitsCRT@D@ATL@@@@@ATL@@PEAUtagRECT@@I@Z 0000000174566f40     mfc100d:mfc100d.dll
 0005:00003f48       __imp_?SetBkMode@CDC@@QEAAHH@Z 0000000174566f48     mfc100d:mfc100d.dll
 0005:00003f50       __imp_?CreateFontA@CFont@@QEAAHHHHHHEEEEEEEEPEBD@Z 0000000174566f50     mfc100d:mfc100d.dll
 0005:00003f58       __imp_??0CFont@@QEAA@XZ    0000000174566f58     mfc100d:mfc100d.dll
 0005:00003f60       __imp_?SelectObject@CDC@@QEAAPEAVCBitmap@@PEAV2@@Z 0000000174566f60     mfc100d:mfc100d.dll
 0005:00003f68       __imp_?CreateCompatibleBitmap@CBitmap@@QEAAHPEAVCDC@@HH@Z 0000000174566f68     mfc100d:mfc100d.dll
 0005:00003f70       __imp_??0CBitmap@@QEAA@XZ  0000000174566f70     mfc100d:mfc100d.dll
 0005:00003f78       __imp_?CreateCompatibleDC@CDC@@QEAAHPEAV1@@Z 0000000174566f78     mfc100d:mfc100d.dll
 0005:00003f80       __imp_??2CObject@@SAPEAX_KPEBDH@Z 0000000174566f80     mfc100d:mfc100d.dll
 0005:00003f88       __imp_?GetDC@CWnd@@QEAAPEAVCDC@@XZ 0000000174566f88     mfc100d:mfc100d.dll
 0005:00003f90       __imp_??0CDC@@QEAA@XZ      0000000174566f90     mfc100d:mfc100d.dll
 0005:00003f98       __imp_?OnLButtonDown@CWnd@@IEAAXIVCPoint@@@Z 0000000174566f98     mfc100d:mfc100d.dll
 0005:00003fa0       __imp_?AppendChar@?$CSimpleStringT@D$00@ATL@@QEAAXD@Z 0000000174566fa0     mfc100d:mfc100d.dll
 0005:00003fa8       __imp_?Delete@?$CStringT@DV?$StrTraitMFC_DLL@DV?$ChTraitsCRT@D@ATL@@@@@ATL@@QEAAHHH@Z 0000000174566fa8     mfc100d:mfc100d.dll
 0005:00003fb0       __imp_?OnEraseBkgnd@CWnd@@IEAAHPEAVCDC@@@Z 0000000174566fb0     mfc100d:mfc100d.dll
 0005:00003fb8       __imp_??1CStdioFile@@UEAA@XZ 0000000174566fb8     mfc100d:mfc100d.dll
 0005:00003fc0       __imp_?Close@CStdioFile@@UEAAXXZ 0000000174566fc0     mfc100d:mfc100d.dll
 0005:00003fc8       __imp_?WriteString@CStdioFile@@UEAAXPEBD@Z 0000000174566fc8     mfc100d:mfc100d.dll
 0005:00003fd0       __imp_?SeekToEnd@CFile@@QEAA_KXZ 0000000174566fd0     mfc100d:mfc100d.dll
 0005:00003fd8       __imp_?Open@CStdioFile@@UEAAHPEBDIPEAVCFileException@@@Z 0000000174566fd8     mfc100d:mfc100d.dll
 0005:00003fe0       __imp_??0CStdioFile@@QEAA@XZ 0000000174566fe0     mfc100d:mfc100d.dll
 0005:00003fe8       __imp_?OnCreate@CWnd@@IEAAHPEAUtagCREATESTRUCTA@@@Z 0000000174566fe8     mfc100d:mfc100d.dll
 0005:00003ff0       __imp_?Concatenate@?$CSimpleStringT@D$00@ATL@@KAXAEAV12@PEBDH1H@Z 0000000174566ff0     mfc100d:mfc100d.dll
 0005:00003ff8       __imp_?StringLength@?$CSimpleStringT@D$00@ATL@@SAHPEBD@Z 0000000174566ff8     mfc100d:mfc100d.dll
 0005:00004000       __imp_??0?$CStringT@DV?$StrTraitMFC_DLL@DV?$ChTraitsCRT@D@ATL@@@@@ATL@@QEAA@PEAUIAtlStringMgr@1@@Z 0000000174567000     mfc100d:mfc100d.dll
 0005:00004008       __imp_?GetManager@?$CStringT@DV?$StrTraitMFC_DLL@DV?$ChTraitsCRT@D@ATL@@@@@ATL@@QEBAPEAUIAtlStringMgr@2@XZ 0000000174567008     mfc100d:mfc100d.dll
 0005:00004010       __imp_?AfxThrowOleException@@YAXJ@Z 0000000174567010     mfc100d:mfc100d.dll
 0005:00004018       __imp_?GetThisClass@CDialog@@SAPEAUCRuntimeClass@@XZ 0000000174567018     mfc100d:mfc100d.dll
 0005:00004020       __imp_?DDX_Text@@YAXPEAVCDataExchange@@HAEAK@Z 0000000174567020     mfc100d:mfc100d.dll
 0005:00004028       __imp_?SetFont@CWnd@@QEAAXPEAVCFont@@H@Z 0000000174567028     mfc100d:mfc100d.dll
 0005:00004030       __imp_??2CObject@@SAPEAX_K@Z 0000000174567030     mfc100d:mfc100d.dll
 0005:00004038       __imp_?OnCtlColor@CWnd@@IEAAPEAUHBRUSH__@@PEAVCDC@@PEAV1@I@Z 0000000174567038     mfc100d:mfc100d.dll
 0005:00004040       __imp_??1CBrush@@UEAA@XZ   0000000174567040     mfc100d:mfc100d.dll
 0005:00004048       __imp_?PatBlt@CDC@@QEAAHHHHHK@Z 0000000174567048     mfc100d:mfc100d.dll
 0005:00004050       __imp_?SelectObject@CDC@@QEAAPEAVCBrush@@PEAV2@@Z 0000000174567050     mfc100d:mfc100d.dll
 0005:00004058       __imp_??0CBrush@@QEAA@K@Z  0000000174567058     mfc100d:mfc100d.dll
 0005:00004060       __imp_?OnClose@CWnd@@IEAAXXZ 0000000174567060     mfc100d:mfc100d.dll
 0005:00004068       __imp_?OnLButtonUp@CWnd@@IEAAXIVCPoint@@@Z 0000000174567068     mfc100d:mfc100d.dll
 0005:00004070       __imp_??_V@YAXPEAX@Z       0000000174567070     mfc100d:mfc100d.dll
 0005:00004078       __imp_??_U@YAPEAX_K@Z      0000000174567078     mfc100d:mfc100d.dll
 0005:00004080       __imp_?AfxEndThread@@YAXIH@Z 0000000174567080     mfc100d:mfc100d.dll
 0005:00004088       __imp_?AfxBeginThread@@YAPEAVCWinThread@@P6AIPEAX@Z0HIKPEAU_SECURITY_ATTRIBUTES@@@Z 0000000174567088     mfc100d:mfc100d.dll
 0005:00004090       __imp_?ResumeThread@CWinThread@@QEAAKXZ 0000000174567090     mfc100d:mfc100d.dll
 0005:00004098       __imp_?SuspendThread@CWinThread@@QEAAKXZ 0000000174567098     mfc100d:mfc100d.dll
 0005:000040a0       __imp_?GetThisClass@CWnd@@SAPEAUCRuntimeClass@@XZ 00000001745670a0     mfc100d:mfc100d.dll
 0005:000040a8       __imp_??1CWnd@@UEAA@XZ     00000001745670a8     mfc100d:mfc100d.dll
 0005:000040b0       __imp_??0CWnd@@QEAA@XZ     00000001745670b0     mfc100d:mfc100d.dll
 0005:000040b8       __imp_?AssertValid@CWnd@@UEBAXXZ 00000001745670b8     mfc100d:mfc100d.dll
 0005:000040c0       __imp_?Dump@CWnd@@UEBAXAEAVCDumpContext@@@Z 00000001745670c0     mfc100d:mfc100d.dll
 0005:000040c8       __imp_?PreTranslateMessage@CWnd@@UEAAHPEAUtagMSG@@@Z 00000001745670c8     mfc100d:mfc100d.dll
 0005:000040d0       __imp_?CheckAutoCenter@CWnd@@UEAAHXZ 00000001745670d0     mfc100d:mfc100d.dll
 0005:000040d8       __imp_?SetOccDialogInfo@CWnd@@MEAAHPEAU_AFX_OCC_DIALOG_INFO@@@Z 00000001745670d8     mfc100d:mfc100d.dll
 0005:000040e0       __imp_?GetOccDialogInfo@CWnd@@MEAAPEAU_AFX_OCC_DIALOG_INFO@@XZ 00000001745670e0     mfc100d:mfc100d.dll
 0005:000040e8       __imp_?GetThisMessageMap@CWnd@@KAPEBUAFX_MSGMAP@@XZ 00000001745670e8     mfc100d:mfc100d.dll
 0005:000040f0       __imp_?UpdateWindow@CWnd@@QEAAXXZ 00000001745670f0     mfc100d:mfc100d.dll
 0005:000040f8       __imp_?CenterWindow@CWnd@@QEAAXPEAV1@@Z 00000001745670f8     mfc100d:mfc100d.dll
 0005:00004100       __imp_?AfxRegisterWndClass@@YAPEBDIPEAUHICON__@@PEAUHBRUSH__@@0@Z 0000000174567100     mfc100d:mfc100d.dll
 0005:00004108       __imp_?LoadStandardCursor@CWinApp@@QEBAPEAUHICON__@@PEBD@Z 0000000174567108     mfc100d:mfc100d.dll
 0005:00004110       __imp_?SelectObject@CDC@@UEAAPEAVCFont@@PEAV2@@Z 0000000174567110     mfc100d:mfc100d.dll
 0005:00004118       __imp_?SetTextColor@CDC@@UEAAKK@Z 0000000174567118     mfc100d:mfc100d.dll
 0005:00004120       __imp_?Find@?$CStringT@DV?$StrTraitMFC_DLL@DV?$ChTraitsCRT@D@ATL@@@@@ATL@@QEBAHPEBDH@Z 0000000174567120     mfc100d:mfc100d.dll
 0005:00004128       __imp_?OnNcDestroy@CWnd@@IEAAXXZ 0000000174567128     mfc100d:mfc100d.dll
 0005:00004130       __imp_?OnGestureRotate@CWnd@@MEAAHVCPoint@@N@Z 0000000174567130     mfc100d:mfc100d.dll
 0005:00004138       __imp_?OnGesturePan@CWnd@@MEAAHVCPoint@@0@Z 0000000174567138     mfc100d:mfc100d.dll
 0005:00004140       __imp_?OnGestureZoom@CWnd@@MEAAHVCPoint@@J@Z 0000000174567140     mfc100d:mfc100d.dll
 0005:00004148       __imp_?GetGestureStatus@CWnd@@MEAAKVCPoint@@@Z 0000000174567148     mfc100d:mfc100d.dll
 0005:00004150       __imp_?OnTouchInput@CWnd@@MEAAHVCPoint@@HHPEAUtagTOUCHINPUT@@@Z 0000000174567150     mfc100d:mfc100d.dll
 0005:00004158       __imp_?OnTouchInputs@CWnd@@MEAAHIPEAUtagTOUCHINPUT@@@Z 0000000174567158     mfc100d:mfc100d.dll
 0005:00004160       __imp_?OnChildNotify@CWnd@@MEAAHI_K_JPEA_J@Z 0000000174567160     mfc100d:mfc100d.dll
 0005:00004168       __imp_?PostNcDestroy@CWnd@@MEAAXXZ 0000000174567168     mfc100d:mfc100d.dll
 0005:00004170       __imp_?DefWindowProcA@CWnd@@MEAA_JI_K_J@Z 0000000174567170     mfc100d:mfc100d.dll
 0005:00004178       __imp_?OnWndMsg@CWnd@@MEAAHI_K_JPEA_J@Z 0000000174567178     mfc100d:mfc100d.dll
 0005:00004180       __imp_?WindowProc@CWnd@@MEAA_JI_K_J@Z 0000000174567180     mfc100d:mfc100d.dll
 0005:00004188       __imp_?OnAmbientProperty@CWnd@@UEAAHPEAVCOleControlSite@@JPEAUtagVARIANT@@@Z 0000000174567188     mfc100d:mfc100d.dll
 0005:00004190       __imp_?PreTranslateMessage@CDialog@@UEAAHPEAUtagMSG@@@Z 0000000174567190     mfc100d:mfc100d.dll
 0005:00004198       __imp_?EndModalState@CWnd@@UEAAXXZ 0000000174567198     mfc100d:mfc100d.dll
 0005:000041a0       __imp_?BeginModalState@CWnd@@UEAAXXZ 00000001745671a0     mfc100d:mfc100d.dll
 0005:000041a8       __imp_??0CFile@@QEAA@XZ    00000001745671a8     mfc100d:mfc100d.dll
 0005:000041b0       __imp_?GetSystemMenu@CWnd@@QEBAPEAVCMenu@@H@Z 00000001745671b0     mfc100d:mfc100d.dll
 0005:000041b8       __imp_?OnCommand@CWnd@@MEAAH_K_J@Z 00000001745671b8     mfc100d:mfc100d.dll
 0005:000041c0       __imp_?CreateAccessibleProxy@CWnd@@UEAAJ_K_JPEA_J@Z 00000001745671c0     mfc100d:mfc100d.dll
 0005:000041c8       __imp_?SetProxy@CWnd@@UEAAJPEAUIAccessibleProxy@@@Z 00000001745671c8     mfc100d:mfc100d.dll
 0005:000041d0       __imp_?put_accValue@CWnd@@UEAAJUtagVARIANT@@PEA_W@Z 00000001745671d0     mfc100d:mfc100d.dll
 0005:000041d8       __imp_?put_accName@CWnd@@UEAAJUtagVARIANT@@PEA_W@Z 00000001745671d8     mfc100d:mfc100d.dll
 0005:000041e0       __imp_?accDoDefaultAction@CWnd@@UEAAJUtagVARIANT@@@Z 00000001745671e0     mfc100d:mfc100d.dll
 0005:000041e8       __imp_??0CFileFind@@QEAA@XZ 00000001745671e8     mfc100d:mfc100d.dll
 0005:000041f0       __imp_?accNavigate@CWnd@@UEAAJJUtagVARIANT@@PEAU2@@Z 00000001745671f0     mfc100d:mfc100d.dll
 0005:000041f8       __imp_?accLocation@CWnd@@UEAAJPEAJ000UtagVARIANT@@@Z 00000001745671f8     mfc100d:mfc100d.dll
 0005:00004200       __imp_?accSelect@CWnd@@UEAAJJUtagVARIANT@@@Z 0000000174567200     mfc100d:mfc100d.dll
 0005:00004208       __imp_?get_accDefaultAction@CWnd@@UEAAJUtagVARIANT@@PEAPEA_W@Z 0000000174567208     mfc100d:mfc100d.dll
 0005:00004210       __imp_?get_accSelection@CWnd@@UEAAJPEAUtagVARIANT@@@Z 0000000174567210     mfc100d:mfc100d.dll
 0005:00004218       __imp_?get_accFocus@CWnd@@UEAAJPEAUtagVARIANT@@@Z 0000000174567218     mfc100d:mfc100d.dll
 0005:00004220       __imp_?get_accKeyboardShortcut@CWnd@@UEAAJUtagVARIANT@@PEAPEA_W@Z 0000000174567220     mfc100d:mfc100d.dll
 0005:00004228       __imp_?get_accHelpTopic@CWnd@@UEAAJPEAPEA_WUtagVARIANT@@PEAJ@Z 0000000174567228     mfc100d:mfc100d.dll
 0005:00004230       __imp_?get_accState@CWnd@@UEAAJUtagVARIANT@@PEAU2@@Z 0000000174567230     mfc100d:mfc100d.dll
 0005:00004238       __imp_?get_accRole@CWnd@@UEAAJUtagVARIANT@@PEAU2@@Z 0000000174567238     mfc100d:mfc100d.dll
 0005:00004240       __imp_?get_accDescription@CWnd@@UEAAJUtagVARIANT@@PEAPEA_W@Z 0000000174567240     mfc100d:mfc100d.dll
 0005:00004248       __imp_?get_accValue@CWnd@@UEAAJUtagVARIANT@@PEAPEA_W@Z 0000000174567248     mfc100d:mfc100d.dll
 0005:00004250       __imp_?get_accName@CWnd@@UEAAJUtagVARIANT@@PEAPEA_W@Z 0000000174567250     mfc100d:mfc100d.dll
 0005:00004258       __imp_?get_accChild@CWnd@@UEAAJUtagVARIANT@@PEAPEAUIDispatch@@@Z 0000000174567258     mfc100d:mfc100d.dll
 0005:00004260       __imp_?get_accChildCount@CWnd@@UEAAJPEAJ@Z 0000000174567260     mfc100d:mfc100d.dll
 0005:00004268       __imp_?get_accParent@CWnd@@UEAAJPEAPEAUIDispatch@@@Z 0000000174567268     mfc100d:mfc100d.dll
 0005:00004270       __imp_?EnsureStdObj@CWnd@@UEAAJXZ 0000000174567270     mfc100d:mfc100d.dll
 0005:00004278       __imp_?OnDrawIconicThumbnailOrLivePreview@CWnd@@UEAAXAEAVCDC@@VCRect@@VCSize@@HAEAH@Z 0000000174567278     mfc100d:mfc100d.dll
 0005:00004280       __imp_?EndModalLoop@CWnd@@UEAAXH@Z 0000000174567280     mfc100d:mfc100d.dll
 0005:00004288       __imp_?ContinueModal@CWnd@@UEAAHXZ 0000000174567288     mfc100d:mfc100d.dll
 0005:00004290       __imp_?WinHelpInternal@CWnd@@UEAAX_KI@Z 0000000174567290     mfc100d:mfc100d.dll
 0005:00004298       __imp_?HtmlHelpA@CWnd@@UEAAX_KI@Z 0000000174567298     mfc100d:mfc100d.dll
 0005:000042a0       __imp_?WinHelpA@CWnd@@UEAAX_KI@Z 00000001745672a0     mfc100d:mfc100d.dll
 0005:000042a8       __imp_?GetScrollBarCtrl@CWnd@@UEBAPEAVCScrollBar@@H@Z 00000001745672a8     mfc100d:mfc100d.dll
 0005:000042b0       __imp_?OnToolHitTest@CWnd@@UEBA_JVCPoint@@PEAUtagTOOLINFOA@@@Z 00000001745672b0     mfc100d:mfc100d.dll
 0005:000042b8       __imp_?SetMenu@CWnd@@UEAAHPEAVCMenu@@@Z 00000001745672b8     mfc100d:mfc100d.dll
 0005:000042c0       __imp_?GetMenu@CWnd@@UEBAPEAVCMenu@@XZ 00000001745672c0     mfc100d:mfc100d.dll
 0005:000042c8       __imp_?CalcWindowRect@CWnd@@UEAAXPEAUtagRECT@@I@Z 00000001745672c8     mfc100d:mfc100d.dll
 0005:000042d0       __imp_?PreCreateWindow@CWnd@@UEAAHAEAUtagCREATESTRUCTA@@@Z 00000001745672d0     mfc100d:mfc100d.dll
 0005:000042d8       __imp_?DestroyWindow@CWnd@@UEAAHXZ 00000001745672d8     mfc100d:mfc100d.dll
 0005:000042e0       __imp_?CreateEx@CWnd@@UEAAHKPEBD0KHHHHPEAUHWND__@@PEAUHMENU__@@PEAX@Z 00000001745672e0     mfc100d:mfc100d.dll
 0005:000042e8       __imp_?CreateEx@CWnd@@UEAAHKPEBD0KAEBUtagRECT@@PEAV1@IPEAX@Z 00000001745672e8     mfc100d:mfc100d.dll
 0005:000042f0       __imp_?Create@CWnd@@UEAAHPEBD0KAEBUtagRECT@@PEAV1@IPEAUCCreateContext@@@Z 00000001745672f0     mfc100d:mfc100d.dll
 0005:000042f8       __imp_?PreSubclassWindow@CWnd@@UEAAXXZ 00000001745672f8     mfc100d:mfc100d.dll
 0005:00004300       __imp_?GetInterfaceMap@CWnd@@MEBAPEBUAFX_INTERFACEMAP@@XZ 0000000174567300     mfc100d:mfc100d.dll
 0005:00004308       __imp_?OnFinalRelease@CWnd@@UEAAXXZ 0000000174567308     mfc100d:mfc100d.dll
 0005:00004310       __imp_?OnCmdMsg@CDialog@@UEAAHIHPEAXPEAUAFX_CMDHANDLERINFO@@@Z 0000000174567310     mfc100d:mfc100d.dll
 0005:00004318       __imp_?Dump@CDialog@@UEBAXAEAVCDumpContext@@@Z 0000000174567318     mfc100d:mfc100d.dll
 0005:00004320       __imp_?AssertValid@CDialog@@UEBAXXZ 0000000174567320     mfc100d:mfc100d.dll
 0005:00004328       __imp_?GetRuntimeClass@CDialog@@UEBAPEAUCRuntimeClass@@XZ 0000000174567328     mfc100d:mfc100d.dll
 0005:00004330       __imp_??0CDialog@@QEAA@IPEAVCWnd@@@Z 0000000174567330     mfc100d:mfc100d.dll
 0005:00004338       __imp_??1?$CStringT@DV?$StrTraitMFC_DLL@DV?$ChTraitsCRT@D@ATL@@@@@ATL@@QEAA@XZ 0000000174567338     mfc100d:mfc100d.dll
 0005:00004340       __imp_??1CComboBox@@UEAA@XZ 0000000174567340     mfc100d:mfc100d.dll
 0005:00004348       __imp_??1CButton@@UEAA@XZ  0000000174567348     mfc100d:mfc100d.dll
 0005:00004350       __imp_??1CEdit@@UEAA@XZ    0000000174567350     mfc100d:mfc100d.dll
 0005:00004358       __imp_??1CStatic@@UEAA@XZ  0000000174567358     mfc100d:mfc100d.dll
 0005:00004360       __imp_??1CDialog@@UEAA@XZ  0000000174567360     mfc100d:mfc100d.dll
 0005:00004368       __imp_?AfxEnableControlContainer@@YAXPEAVCOccManager@@@Z 0000000174567368     mfc100d:mfc100d.dll
 0005:00004370       __imp_?DoModal@CDialog@@UEAA_JXZ 0000000174567370     mfc100d:mfc100d.dll
 0005:00004378       __imp_??1CWinApp@@UEAA@XZ  0000000174567378     mfc100d:mfc100d.dll
 0005:00004380       __imp_??3CObject@@SAXPEAX@Z 0000000174567380     mfc100d:mfc100d.dll
 0005:00004388       __imp_?LoadSysPolicies@CWinApp@@UEAAHXZ 0000000174567388     mfc100d:mfc100d.dll
 0005:00004390       __imp_?LoadAppLangResourceDLL@CWinApp@@UEAAPEAUHINSTANCE__@@XZ 0000000174567390     mfc100d:mfc100d.dll
 0005:00004398       __imp_?RestartInstance@CWinApp@@UEAAHXZ 0000000174567398     mfc100d:mfc100d.dll
 0005:000043a0       __imp_?IsTaskbarInteractionEnabled@CWinApp@@UEAAHXZ 00000001745673a0     mfc100d:mfc100d.dll
 0005:000043a8       __imp_?GetDataRecoveryHandler@CWinApp@@UEAAPEAVCDataRecoveryHandler@@XZ 00000001745673a8     mfc100d:mfc100d.dll
 0005:000043b0       __imp_?ApplicationRecoveryCallback@CWinApp@@UEAAKPEAX@Z 00000001745673b0     mfc100d:mfc100d.dll
 0005:000043b8       __imp_?RegisterWithRestartManager@CWinApp@@UEAAJHAEBV?$CStringT@DV?$StrTraitMFC_DLL@DV?$ChTraitsCRT@D@ATL@@@@@ATL@@@Z 00000001745673b8     mfc100d:mfc100d.dll
 0005:000043c0       __imp_?RegisterWithRestartManager@CWinApp@@UEAAJPEB_WKP6AKPEAX@Z1KK@Z 00000001745673c0     mfc100d:mfc100d.dll
 0005:000043c8       __imp_?WinHelpInternal@CWinApp@@UEAAX_KI@Z 00000001745673c8     mfc100d:mfc100d.dll
 0005:000043d0       __imp_?HtmlHelpA@CWinApp@@UEAAX_KI@Z 00000001745673d0     mfc100d:mfc100d.dll
 0005:000043d8       __imp_?WinHelpA@CWinApp@@UEAAX_KI@Z 00000001745673d8     mfc100d:mfc100d.dll
 0005:000043e0       __imp_?OnDDECommand@CWinApp@@UEAAHPEAD@Z 00000001745673e0     mfc100d:mfc100d.dll
 0005:000043e8       __imp_?DoWaitCursor@CWinApp@@UEAAXH@Z 00000001745673e8     mfc100d:mfc100d.dll
 0005:000043f0       __imp_?DoMessageBox@CWinApp@@UEAAHPEBDII@Z 00000001745673f0     mfc100d:mfc100d.dll
 0005:000043f8       __imp_?SaveAllModified@CWinApp@@UEAAHXZ 00000001745673f8     mfc100d:mfc100d.dll
 0005:00004400       __imp_?InitApplication@CWinApp@@UEAAHXZ 0000000174567400     mfc100d:mfc100d.dll
 0005:00004408       __imp_?AddToRecentFileList@CWinApp@@UEAAXPEBD@Z 0000000174567408     mfc100d:mfc100d.dll
 0005:00004410       __imp_?OpenDocumentFile@CWinApp@@UEAAPEAVCDocument@@PEBD@Z 0000000174567410     mfc100d:mfc100d.dll
 0005:00004418       __imp_?OpenDocumentFile@CWinApp@@UEAAPEAVCDocument@@PEBDH@Z 0000000174567418     mfc100d:mfc100d.dll
 0005:00004420       __imp_?Unregister@CWinApp@@UEAAHXZ 0000000174567420     mfc100d:mfc100d.dll
 0005:00004428       __imp_?Register@CWinApp@@UEAAHXZ 0000000174567428     mfc100d:mfc100d.dll
 0005:00004430       __imp_?InitLibId@CWinApp@@UEAAXXZ 0000000174567430     mfc100d:mfc100d.dll
 0005:00004438       __imp_?WriteProfileBinary@CWinApp@@UEAAHPEBD0PEAEI@Z 0000000174567438     mfc100d:mfc100d.dll
 0005:00004440       __imp_?GetProfileBinary@CWinApp@@UEAAHPEBD0PEAPEAEPEAI@Z 0000000174567440     mfc100d:mfc100d.dll
 0005:00004448       __imp_?WriteProfileStringA@CWinApp@@UEAAHPEBD00@Z 0000000174567448     mfc100d:mfc100d.dll
 0005:00004450       __imp_?GetProfileStringA@CWinApp@@UEAA?AV?$CStringT@DV?$StrTraitMFC_DLL@DV?$ChTraitsCRT@D@ATL@@@@@ATL@@PEBD00@Z 0000000174567450     mfc100d:mfc100d.dll
 0005:00004458       __imp_?WriteProfileInt@CWinApp@@UEAAHPEBD0H@Z 0000000174567458     mfc100d:mfc100d.dll
 0005:00004460       __imp_??B?$CSimpleStringT@D$00@ATL@@QEBAPEBDXZ 0000000174567460     mfc100d:mfc100d.dll
 0005:00004468       __imp_?Open@CFile@@UEAAHPEBDIPEAVCFileException@@@Z 0000000174567468     mfc100d:mfc100d.dll
 0005:00004470       __imp_?Write@CFile@@UEAAXPEBXI@Z 0000000174567470     mfc100d:mfc100d.dll
 0005:00004478       __imp_?Close@CFile@@UEAAXXZ 0000000174567478     mfc100d:mfc100d.dll
 0005:00004480       __imp_??1CFile@@UEAA@XZ    0000000174567480     mfc100d:mfc100d.dll
 0005:00004488       __imp_??2@YAPEAX_KPEBDH@Z  0000000174567488     mfc100d:mfc100d.dll
 0005:00004490       __imp_??0CMenu@@QEAA@XZ    0000000174567490     mfc100d:mfc100d.dll
 0005:00004498       __imp_?LoadMenuA@CMenu@@QEAAHI@Z 0000000174567498     mfc100d:mfc100d.dll
 0005:000044a0       __imp_?GetSubMenu@CMenu@@QEBAPEAV1@H@Z 00000001745674a0     mfc100d:mfc100d.dll
 0005:000044a8       __imp_?SetForegroundWindow@CWnd@@QEAAHXZ 00000001745674a8     mfc100d:mfc100d.dll
 0005:000044b0       __imp_?TrackPopupMenu@CMenu@@QEAAHIHHPEAVCWnd@@PEBUtagRECT@@@Z 00000001745674b0     mfc100d:mfc100d.dll
 0005:000044b8       __imp_?PostMessageA@CWnd@@QEAAHI_K_J@Z 00000001745674b8     mfc100d:mfc100d.dll
 0005:000044c0       __imp_?DestroyMenu@CMenu@@QEAAHXZ 00000001745674c0     mfc100d:mfc100d.dll
 0005:000044c8       __imp_??1CMenu@@UEAA@XZ    00000001745674c8     mfc100d:mfc100d.dll
 0005:000044d0       __imp_?DDX_Control@@YAXPEAVCDataExchange@@HAEAVCWnd@@@Z 00000001745674d0     mfc100d:mfc100d.dll
 0005:000044d8       __imp_??0CStatic@@QEAA@XZ  00000001745674d8     mfc100d:mfc100d.dll
 0005:000044e0       __imp_?GetProfileIntA@CWinApp@@UEAAIPEBD0H@Z 00000001745674e0     mfc100d:mfc100d.dll
 0005:000044e8       __imp_?Delete@CWinThread@@UEAAXXZ 00000001745674e8     mfc100d:mfc100d.dll
 0005:000044f0       __imp_?GetMainWnd@CWinThread@@UEAAPEAVCWnd@@XZ 00000001745674f0     mfc100d:mfc100d.dll
 0005:000044f8       __imp_?ProcessMessageFilter@CWinThread@@UEAAHHPEAUtagMSG@@@Z 00000001745674f8     mfc100d:mfc100d.dll
 0005:00004500       __imp_?ProcessWndProcException@CWinApp@@UEAA_JPEAVCException@@PEBUtagMSG@@@Z 0000000174567500     mfc100d:mfc100d.dll
 0005:00004508       __imp_?ExitInstance@CWinApp@@UEAAHXZ 0000000174567508     mfc100d:mfc100d.dll
 0005:00004510       __imp_?IsIdleMessage@CWinThread@@UEAAHPEAUtagMSG@@@Z 0000000174567510     mfc100d:mfc100d.dll
 0005:00004518       __imp_?OnIdle@CWinApp@@UEAAHJ@Z 0000000174567518     mfc100d:mfc100d.dll
 0005:00004520       __imp_?PumpMessage@CWinThread@@UEAAHXZ 0000000174567520     mfc100d:mfc100d.dll
 0005:00004528       __imp_?PreTranslateMessage@CWinThread@@UEAAHPEAUtagMSG@@@Z 0000000174567528     mfc100d:mfc100d.dll
 0005:00004530       __imp_?Run@CWinApp@@UEAAHXZ 0000000174567530     mfc100d:mfc100d.dll
 0005:00004538       __imp_?GetConnectionHook@CCmdTarget@@MEAAPEAUIConnectionPoint@@AEBU_GUID@@@Z 0000000174567538     mfc100d:mfc100d.dll
 0005:00004540       __imp_?GetExtraConnectionPoints@CCmdTarget@@MEAAHPEAVCPtrArray@@@Z 0000000174567540     mfc100d:mfc100d.dll
 0005:00004548       __imp_?GetInterfaceHook@CCmdTarget@@UEAAPEAUIUnknown@@PEBX@Z 0000000174567548     mfc100d:mfc100d.dll
 0005:00004550       __imp_?OnCreateAggregates@CCmdTarget@@UEAAHXZ 0000000174567550     mfc100d:mfc100d.dll
 0005:00004558       __imp_?GetEventSinkMap@CCmdTarget@@MEBAPEBUAFX_EVENTSINKMAP@@XZ 0000000174567558     mfc100d:mfc100d.dll
 0005:00004560       __imp_?GetInterfaceMap@CCmdTarget@@MEBAPEBUAFX_INTERFACEMAP@@XZ 0000000174567560     mfc100d:mfc100d.dll
 0005:00004568       __imp_?GetConnectionMap@CCmdTarget@@MEBAPEBUAFX_CONNECTIONMAP@@XZ 0000000174567568     mfc100d:mfc100d.dll
 0005:00004570       __imp_?AfxWinMain@@YAHPEAUHINSTANCE__@@0PEADH@Z 0000000174567570     mfc100d:mfc100d.dll
 0005:00004578       __imp_?GetDispatchMap@CCmdTarget@@MEBAPEBUAFX_DISPMAP@@XZ 0000000174567578     mfc100d:mfc100d.dll
 0005:00004580       __imp_?GetCommandMap@CCmdTarget@@MEBAPEBUAFX_OLECMDMAP@@XZ 0000000174567580     mfc100d:mfc100d.dll
 0005:00004588       __imp_?GetTypeLib@CCmdTarget@@UEAAJKPEAPEAUITypeLib@@@Z 0000000174567588     mfc100d:mfc100d.dll
 0005:00004590       __imp_?LoadStringA@?$CStringT@DV?$StrTraitMFC_DLL@DV?$ChTraitsCRT@D@ATL@@@@@ATL@@QEAAHI@Z 0000000174567590     mfc100d:mfc100d.dll
 0005:00004598       __imp_?IsEmpty@?$CSimpleStringT@D$00@ATL@@QEBA_NXZ 0000000174567598     mfc100d:mfc100d.dll
 0005:000045a0       __imp_?AppendMenuA@CMenu@@QEAAHI_KPEBD@Z 00000001745675a0     mfc100d:mfc100d.dll
 0005:000045a8       __imp_?EnableMenuItem@CMenu@@QEAAIII@Z 00000001745675a8     mfc100d:mfc100d.dll
 0005:000045b0       __imp_?SetIcon@CWnd@@QEAAPEAUHICON__@@PEAU2@H@Z 00000001745675b0     mfc100d:mfc100d.dll
 0005:000045b8       __imp_?GetStyle@CWnd@@QEBAKXZ 00000001745675b8     mfc100d:mfc100d.dll
 0005:000045c0       __imp_?GetDlgItem@CWnd@@QEBAPEAV1@H@Z 00000001745675c0     mfc100d:mfc100d.dll
 0005:000045c8       __imp_?MoveWindow@CWnd@@QEAAXHHHHH@Z 00000001745675c8     mfc100d:mfc100d.dll
 0005:000045d0       __imp_?ShowWindow@CWnd@@QEAAHH@Z 00000001745675d0     mfc100d:mfc100d.dll
 0005:000045d8       __imp_?GetBuffer@?$CSimpleStringT@D$00@ATL@@QEAAPEADXZ 00000001745675d8     mfc100d:mfc100d.dll
 0005:000045e0       __imp_?Format@?$CStringT@DV?$StrTraitMFC_DLL@DV?$ChTraitsCRT@D@ATL@@@@@ATL@@QEAAXPEBDZZ 00000001745675e0     mfc100d:mfc100d.dll
 0005:000045e8       __imp_??4?$CStringT@DV?$StrTraitMFC_DLL@DV?$ChTraitsCRT@D@ATL@@@@@ATL@@QEAAAEAV01@AEBV01@@Z 00000001745675e8     mfc100d:mfc100d.dll
 0005:000045f0       __imp_?InvalidateRect@CWnd@@QEAAXPEBUtagRECT@@H@Z 00000001745675f0     mfc100d:mfc100d.dll
 0005:000045f8       __imp_?GetClientRect@CWnd@@QEBAXPEAUtagRECT@@@Z 00000001745675f8     mfc100d:mfc100d.dll
 0005:00004600       __imp_?AfxGetInstanceHandle@@YAPEAUHINSTANCE__@@XZ 0000000174567600     mfc100d:mfc100d.dll
 0005:00004608       __imp_?EndDialog@CDialog@@QEAAXH@Z 0000000174567608     mfc100d:mfc100d.dll
 0005:00004610       __imp_?SetTimer@CWnd@@QEAA_K_KIP6AXPEAUHWND__@@I0K@Z@Z 0000000174567610     mfc100d:mfc100d.dll
 0005:00004618       __imp_??3@YAXPEAXPEBDH@Z   0000000174567618     mfc100d:mfc100d.dll
 0005:00004620       __imp_?OnNotify@CWnd@@MEAAH_K_JPEA_J@Z 0000000174567620     mfc100d:mfc100d.dll
 0005:00004628       __imp_?Left@?$CStringT@DV?$StrTraitMFC_DLL@DV?$ChTraitsCRT@D@ATL@@@@@ATL@@QEBA?AV12@H@Z 0000000174567628     mfc100d:mfc100d.dll
 0005:00004630       __imp_??2@YAPEAX_K@Z       0000000174567630     mfc100d:mfc100d.dll
 0005:00004638       __imp_?GetTypeLibCache@CCmdTarget@@UEAAPEAVCTypeLibCache@@XZ 0000000174567638     mfc100d:mfc100d.dll
 0005:00004640       __imp_?GetTypeInfoCount@CCmdTarget@@UEAAIXZ 0000000174567640     mfc100d:mfc100d.dll
 0005:00004648       __imp_?GetDispatchIID@CCmdTarget@@UEAAHPEAU_GUID@@@Z 0000000174567648     mfc100d:mfc100d.dll
 0005:00004650       __imp_?IsInvokeAllowed@CCmdTarget@@UEAAHJ@Z 0000000174567650     mfc100d:mfc100d.dll
 0005:00004658       __imp_?OnFinalRelease@CCmdTarget@@UEAAXXZ 0000000174567658     mfc100d:mfc100d.dll
 0005:00004660       __imp_?OnCmdMsg@CCmdTarget@@UEAAHIHPEAXPEAUAFX_CMDHANDLERINFO@@@Z 0000000174567660     mfc100d:mfc100d.dll
 0005:00004668       __imp_?Dump@CWinApp@@UEBAXAEAVCDumpContext@@@Z 0000000174567668     mfc100d:mfc100d.dll
 0005:00004670       __imp_?AssertValid@CWinApp@@UEBAXXZ 0000000174567670     mfc100d:mfc100d.dll
 0005:00004678       __imp_?Serialize@CObject@@UEAAXAEAVCArchive@@@Z 0000000174567678     mfc100d:mfc100d.dll
 0005:00004680       __imp_?GetRuntimeClass@CWinApp@@UEBAPEAUCRuntimeClass@@XZ 0000000174567680     mfc100d:mfc100d.dll
 0005:00004688       __imp_??0CWinApp@@QEAA@PEBD@Z 0000000174567688     mfc100d:mfc100d.dll
 0005:00004690       __imp_?GetThisMessageMap@CWinApp@@KAPEBUAFX_MSGMAP@@XZ 0000000174567690     mfc100d:mfc100d.dll
 0005:00004698       __imp_??3@YAXPEAX@Z        0000000174567698     mfc100d:mfc100d.dll
 0005:000046a0       __imp_?FindFile@CFileFind@@UEAAHPEBDK@Z 00000001745676a0     mfc100d:mfc100d.dll
 0005:000046a8       __imp_?FindNextFileA@CFileFind@@UEAAHXZ 00000001745676a8     mfc100d:mfc100d.dll
 0005:000046b0       __imp_?IsDots@CFileFind@@UEBAHXZ 00000001745676b0     mfc100d:mfc100d.dll
 0005:000046b8       __imp_?IsDirectory@CFileFind@@QEBAHXZ 00000001745676b8     mfc100d:mfc100d.dll
 0005:000046c0       __imp_??1CFileFind@@UEAA@XZ 00000001745676c0     mfc100d:mfc100d.dll
 0005:000046c8       __imp_?AfxAssertFailedLine@@YAHPEBDH@Z 00000001745676c8     mfc100d:mfc100d.dll
 0005:000046d0       __imp_??0?$CStringT@DV?$StrTraitMFC_DLL@DV?$ChTraitsCRT@D@ATL@@@@@ATL@@QEAA@AEBV01@@Z 00000001745676d0     mfc100d:mfc100d.dll
 0005:000046d8       __imp_??Y?$CStringT@DV?$StrTraitMFC_DLL@DV?$ChTraitsCRT@D@ATL@@@@@ATL@@QEAAAEAV01@AEBV?$CSimpleStringT@D$00@1@@Z 00000001745676d8     mfc100d:mfc100d.dll
 0005:000046e0       __imp_?SetWindowTextA@CWnd@@QEAAXPEBD@Z 00000001745676e0     mfc100d:mfc100d.dll
 0005:000046e8       __imp_?accHitTest@CWnd@@UEAAJJJPEAUtagVARIANT@@@Z 00000001745676e8     mfc100d:mfc100d.dll
 0005:000046f0       __imp_?GetLength@?$CSimpleStringT@D$00@ATL@@QEBAHXZ 00000001745676f0     mfc100d:mfc100d.dll
 0005:000046f8       __imp_??0?$CStringT@DV?$StrTraitMFC_DLL@DV?$ChTraitsCRT@D@ATL@@@@@ATL@@QEAA@XZ 00000001745676f8     mfc100d:mfc100d.dll
 0005:00004700       __imp_??0CButton@@QEAA@XZ  0000000174567700     mfc100d:mfc100d.dll
 0005:00004708       __imp_??0CEdit@@QEAA@XZ    0000000174567708     mfc100d:mfc100d.dll
 0005:00004710       __imp_??0CComboBox@@QEAA@XZ 0000000174567710     mfc100d:mfc100d.dll
 0005:00004718       __imp_??0?$CStringT@DV?$StrTraitMFC_DLL@DV?$ChTraitsCRT@D@ATL@@@@@ATL@@QEAA@PEBD@Z 0000000174567718     mfc100d:mfc100d.dll
 0005:00004720       __imp_?AfxGetApp@@YAPEAVCWinApp@@XZ 0000000174567720     mfc100d:mfc100d.dll
 0005:00004728       __imp_?LoadIconA@CWinApp@@QEBAPEAUHICON__@@I@Z 0000000174567728     mfc100d:mfc100d.dll
 0005:00004730       __imp_??4?$CStringT@DV?$StrTraitMFC_DLL@DV?$ChTraitsCRT@D@ATL@@@@@ATL@@QEAAAEAV01@PEBD@Z 0000000174567730     mfc100d:mfc100d.dll
 0005:00004738       __imp_?GetThisMessageMap@CDialog@@KAPEBUAFX_MSGMAP@@XZ 0000000174567738     mfc100d:mfc100d.dll
 0005:00004740       __imp_?DoDataExchange@CWnd@@MEAAXPEAVCDataExchange@@@Z 0000000174567740     mfc100d:mfc100d.dll
 0005:00004748       __imp_?PreInitDialog@CDialog@@MEAAXXZ 0000000174567748     mfc100d:mfc100d.dll
 0005:00004750       __imp_?OnCancel@CDialog@@MEAAXXZ 0000000174567750     mfc100d:mfc100d.dll
 0005:00004758       __imp_?OnOK@CDialog@@MEAAXXZ 0000000174567758     mfc100d:mfc100d.dll
 0005:00004760       __imp_?OnSetFont@CDialog@@UEAAXPEAVCFont@@@Z 0000000174567760     mfc100d:mfc100d.dll
 0005:00004768       __imp_?OnInitDialog@CDialog@@UEAAHXZ 0000000174567768     mfc100d:mfc100d.dll
 0005:00004770       __imp_?CreateIndirect@CDialog@@UEAAHPEBUDLGTEMPLATE@@PEAVCWnd@@PEAX@Z 0000000174567770     mfc100d:mfc100d.dll
 0005:00004778       __imp_?CreateIndirect@CDialog@@UEAAHPEAXPEAVCWnd@@@Z 0000000174567778     mfc100d:mfc100d.dll
 0005:00004780       __imp_?Create@CDialog@@UEAAHPEBDPEAVCWnd@@@Z 0000000174567780     mfc100d:mfc100d.dll
 0005:00004788       __imp_?Create@CDialog@@UEAAHIPEAVCWnd@@@Z 0000000174567788     mfc100d:mfc100d.dll
 0005:00004790       __imp_?GetOccDialogInfo@CDialog@@MEAAPEAU_AFX_OCC_DIALOG_INFO@@XZ 0000000174567790     mfc100d:mfc100d.dll
 0005:00004798       __imp_?SetOccDialogInfo@CDialog@@MEAAHPEAU_AFX_OCC_DIALOG_INFO@@@Z 0000000174567798     mfc100d:mfc100d.dll
 0005:000047a0       __imp_?CreateControlSite@CWnd@@MEAAHPEAVCOleControlContainer@@PEAPEAVCOleControlSite@@IAEBU_GUID@@@Z 00000001745677a0     mfc100d:mfc100d.dll
 0005:000047a8       __imp_?CreateControlContainer@CWnd@@MEAAHPEAPEAVCOleControlContainer@@@Z 00000001745677a8     mfc100d:mfc100d.dll
 0005:000047b0       __imp_?IsFrameWnd@CWnd@@UEBAHXZ 00000001745677b0     mfc100d:mfc100d.dll
 0005:000047b8       __imp_?CheckAutoCenter@CDialog@@UEAAHXZ 00000001745677b8     mfc100d:mfc100d.dll
 0005:000047c0       __imp_?OnGesturePressAndTap@CWnd@@MEAAHVCPoint@@J@Z 00000001745677c0     mfc100d:mfc100d.dll
 0005:000047c8       __imp_?GetSuperWndProcAddr@CWnd@@MEAAPEAP6A_JPEAUHWND__@@I_K_J@ZXZ 00000001745677c8     mfc100d:mfc100d.dll
 0005:000047d0       __imp_?OnGestureTwoFingerTap@CWnd@@MEAAHVCPoint@@@Z 00000001745677d0     mfc100d:mfc100d.dll
 0005:000047d8       __imp_?get_accHelp@CWnd@@UEAAJUtagVARIANT@@PEAPEA_W@Z 00000001745677d8     mfc100d:mfc100d.dll
 0005:000047e0       __imp_?AfxGetModuleState@@YAPEAVAFX_MODULE_STATE@@XZ 00000001745677e0     mfc100d:mfc100d.dll
 0005:000047e8       \177mfc100d_NULL_THUNK_DATA 00000001745677e8     mfc100d:mfc100d.dll
 0005:00004a40       __imp_CreateStreamOnHGlobal 0000000174567a40     ole32:ole32.dll
 0005:00004a48       \177ole32_NULL_THUNK_DATA  0000000174567a48     ole32:ole32.dll

 entry point at        0001:00014a70

